ARM GAS  /var/folders/5c/srt4fy4j1pd641bjfx75k5000000gn/T//ccbkyqXZ.s 			page 1


   1              		.cpu cortex-m4
   2              		.arch armv7e-m
   3              		.fpu fpv4-sp-d16
   4              		.eabi_attribute 27, 1
   5              		.eabi_attribute 28, 1
   6              		.eabi_attribute 20, 1
   7              		.eabi_attribute 21, 1
   8              		.eabi_attribute 23, 3
   9              		.eabi_attribute 24, 1
  10              		.eabi_attribute 25, 1
  11              		.eabi_attribute 26, 1
  12              		.eabi_attribute 30, 1
  13              		.eabi_attribute 34, 1
  14              		.eabi_attribute 18, 4
  15              		.file	"app.cpp"
  16              		.text
  17              	.Ltext0:
  18              		.cfi_sections	.debug_frame
  19              		.file 1 "src/app/app.cpp"
  20              		.section	.text._Z41__static_initialization_and_destruction_0ii,"ax",%progbits
  21              		.align	1
  22              		.syntax unified
  23              		.thumb
  24              		.thumb_func
  26              	_Z41__static_initialization_and_destruction_0ii:
  27              		.fnstart
  28              	.LVL0:
  29              	.LFB165:
   1:src/app/app.cpp **** #include "app.h"
   2:src/app/app.cpp **** 
   3:src/app/app.cpp **** #include "MyMath.hpp"
   4:src/app/app.cpp **** #include "Timer.hpp"
   5:src/app/app.cpp **** #include "config.h"
   6:src/app/app.cpp **** #include "hardware.hpp"
   7:src/app/app.cpp **** 
   8:src/app/app.cpp **** Hardware hardware;
   9:src/app/app.cpp **** Timer process_timer;
  10:src/app/app.cpp **** 
  11:src/app/app.cpp **** Timer ball_miss_timer;
  12:src/app/app.cpp **** 
  13:src/app/app.cpp **** uint16_t process_time;  // us
  14:src/app/app.cpp **** 
  15:src/app/app.cpp **** // cortex-debug
  16:src/app/app.cpp **** int process_freq;
  17:src/app/app.cpp **** 
  18:src/app/app.cpp **** void setup() {
  19:src/app/app.cpp ****       HAL_Delay(2500);  // „Ç´„É°„É©„ÅÆËµ∑Âãï‰∏≠ÂæÖÊ©ü
  20:src/app/app.cpp ****       hardware.Init();
  21:src/app/app.cpp **** 
  22:src/app/app.cpp ****       for (uint8_t i = 0; i < 5; i++) {
  23:src/app/app.cpp ****             hardware.led1 = i % 2;
  24:src/app/app.cpp ****             HAL_Delay(100);
  25:src/app/app.cpp ****       }
  26:src/app/app.cpp ****       hardware.led1 = 1;
  27:src/app/app.cpp **** }
  28:src/app/app.cpp **** 
  29:src/app/app.cpp **** void main_app() {
ARM GAS  /var/folders/5c/srt4fy4j1pd641bjfx75k5000000gn/T//ccbkyqXZ.s 			page 2


  30:src/app/app.cpp ****       while (1) {
  31:src/app/app.cpp ****             process_timer.reset();
  32:src/app/app.cpp ****             hardware.MainUart();
  33:src/app/app.cpp ****             hardware.M1nUart();
  34:src/app/app.cpp **** 
  35:src/app/app.cpp ****             if (hardware.info.Cam[0].is_camera_initialized && hardware.info.Cam[1].is_camera_initia
  36:src/app/app.cpp ****                   hardware.led2 = 1;
  37:src/app/app.cpp ****                   hardware.led1 = 0;
  38:src/app/app.cpp ****             }
  39:src/app/app.cpp **** 
  40:src/app/app.cpp ****             uint8_t min_dis = 200;
  41:src/app/app.cpp ****             uint8_t min_dis_num = 0;
  42:src/app/app.cpp ****             static int16_t pre_ball_dir, pre_ball_dis;
  43:src/app/app.cpp **** 
  44:src/app/app.cpp ****             for (int i = 0; i < 4; i++) {  // „É≠„Éú„ÉÉ„Éà„Åã„Çâ‰∏ÄÁï™Ëøë„ÅÑ„Éú„Éº„É´„ÇíÊçâ„Åà„Å¶„Å
  45:src/app/app.cpp ****                   if (hardware.info.Cam[i].ball_dis > 0 && hardware.info.Cam[i].ball_dis < min_dis)
  46:src/app/app.cpp ****                         min_dis = hardware.info.Cam[i].ball_dis;
  47:src/app/app.cpp ****                         min_dis_num = i;
  48:src/app/app.cpp ****                   }
  49:src/app/app.cpp ****             }
  50:src/app/app.cpp ****             if (min_dis == 200) min_dis = 0;
  51:src/app/app.cpp ****             hardware.info.ball_dis = min_dis;
  52:src/app/app.cpp **** 
  53:src/app/app.cpp ****             if (hardware.info.ball_dis != 0) {
  54:src/app/app.cpp ****                   ball_miss_timer.reset();
  55:src/app/app.cpp ****             }
  56:src/app/app.cpp **** 
  57:src/app/app.cpp ****             if (hardware.info.ball_dis == 0) {  // „Éú„Éº„É´„ÅåË¶ã„Å§„Åã„Çâ„Å™„ÅÑ
  58:src/app/app.cpp ****                   if (ball_miss_timer.read_ms() > BALL_MISS_TIME) {
  59:src/app/app.cpp ****                         hardware.info.ball_dir = 0;
  60:src/app/app.cpp ****                         hardware.info.ball_dis = 0;
  61:src/app/app.cpp ****                   } else {
  62:src/app/app.cpp ****                         hardware.info.ball_dir = pre_ball_dir;
  63:src/app/app.cpp ****                         hardware.info.ball_dis = pre_ball_dis;
  64:src/app/app.cpp ****                   }
  65:src/app/app.cpp ****             } else if (min_dis_num == 0) {
  66:src/app/app.cpp ****                   hardware.info.ball_dir = hardware.info.Cam[0].ball_dir + 315;
  67:src/app/app.cpp ****             } else if (min_dis_num == 1) {
  68:src/app/app.cpp ****                   hardware.info.ball_dir = hardware.info.Cam[1].ball_dir + 45;
  69:src/app/app.cpp ****             } else if (min_dis_num == 2) {
  70:src/app/app.cpp ****                   hardware.info.ball_dir = hardware.info.Cam[2].ball_dir + 135;
  71:src/app/app.cpp ****             } else if (min_dis_num == 3) {
  72:src/app/app.cpp ****                   hardware.info.ball_dir = hardware.info.Cam[3].ball_dir + 225;
  73:src/app/app.cpp ****             }
  74:src/app/app.cpp ****             hardware.info.ball_dir = MyMath::NormalizeDeg180(hardware.info.ball_dir);
  75:src/app/app.cpp **** 
  76:src/app/app.cpp ****             pre_ball_dir = hardware.info.ball_dir;
  77:src/app/app.cpp ****             pre_ball_dis = hardware.info.ball_dis;
  78:src/app/app.cpp **** 
  79:src/app/app.cpp ****             //  ÂÆöÂë®ÊúüÂá¶ÁêÜ
  80:src/app/app.cpp ****             process_time = process_timer.read_us();
  81:src/app/app.cpp ****             if (process_time < PERIOD_US) {
  82:src/app/app.cpp ****                   while (process_timer.read_us() < PERIOD_US);
  83:src/app/app.cpp ****             }
  84:src/app/app.cpp ****             process_freq = 1.0f / (process_timer.read_us() * 0.000001f);
  85:src/app/app.cpp ****       }
  86:src/app/app.cpp **** }...
ARM GAS  /var/folders/5c/srt4fy4j1pd641bjfx75k5000000gn/T//ccbkyqXZ.s 			page 3


  30              		.loc 1 86 1 view -0
  31              		.cfi_startproc
  32              		@ args = 0, pretend = 0, frame = 0
  33              		@ frame_needed = 0, uses_anonymous_args = 0
  34              		.loc 1 86 1 is_stmt 0 view .LVU1
  35 0000 0128     		cmp	r0, #1
  36 0002 00D0     		beq	.L7
  37 0004 7047     		bx	lr
  38              	.L7:
  39              		.loc 1 86 1 discriminator 1 view .LVU2
  40 0006 08B5     		push	{r3, lr}
  41              	.LCFI0:
  42              		.cfi_def_cfa_offset 8
  43              		.cfi_offset 3, -8
  44              		.cfi_offset 14, -4
  45              		.loc 1 86 1 discriminator 1 view .LVU3
  46 0008 4FF6FF73 		movw	r3, #65535
  47 000c 9942     		cmp	r1, r3
  48 000e 00D0     		beq	.L8
  49              	.LVL1:
  50              	.L1:
  51              		.loc 1 86 1 view .LVU4
  52 0010 08BD     		pop	{r3, pc}
  53              	.LVL2:
  54              	.L8:
   8:src/app/app.cpp **** Hardware hardware;
  55              		.loc 1 8 10 view .LVU5
  56 0012 0548     		ldr	r0, .L9
  57              	.LVL3:
   8:src/app/app.cpp **** Hardware hardware;
  58              		.loc 1 8 10 view .LVU6
  59 0014 FFF7FEFF 		bl	_ZN8HardwareC1Ev
  60              	.LVL4:
   9:src/app/app.cpp **** Timer process_timer;
  61              		.loc 1 9 7 view .LVU7
  62 0018 0448     		ldr	r0, .L9+4
  63 001a FFF7FEFF 		bl	_ZN5TimerC1Ev
  64              	.LVL5:
  11:src/app/app.cpp **** Timer ball_miss_timer;
  65              		.loc 1 11 7 view .LVU8
  66 001e 0448     		ldr	r0, .L9+8
  67 0020 FFF7FEFF 		bl	_ZN5TimerC1Ev
  68              	.LVL6:
  69              		.loc 1 86 1 view .LVU9
  70 0024 F4E7     		b	.L1
  71              	.L10:
  72 0026 00BF     		.align	2
  73              	.L9:
  74 0028 00000000 		.word	hardware
  75 002c 00000000 		.word	process_timer
  76 0030 00000000 		.word	ball_miss_timer
  77              		.cfi_endproc
  78              	.LFE165:
  79              		.cantunwind
  80              		.fnend
  82              		.global	__aeabi_f2d
  83              		.global	__aeabi_ui2d
ARM GAS  /var/folders/5c/srt4fy4j1pd641bjfx75k5000000gn/T//ccbkyqXZ.s 			page 4


  84              		.global	__aeabi_dmul
  85              		.global	__aeabi_d2iz
  86              		.section	.text._ZN12PwmSingleOut5writeEf,"axG",%progbits,_ZN12PwmSingleOut5writeEf,comdat
  87              		.align	1
  88              		.weak	_ZN12PwmSingleOut5writeEf
  89              		.syntax unified
  90              		.thumb
  91              		.thumb_func
  93              	_ZN12PwmSingleOut5writeEf:
  94              		.fnstart
  95              	.LVL7:
  96              	.LFB160:
  97              		.file 2 "Lib/PWMSingle/PWMSingle.hpp"
   1:Lib/PWMSingle/PWMSingle.hpp **** #ifndef __PWMSINGLE__
   2:Lib/PWMSingle/PWMSingle.hpp **** #define __PWMSINGLE__
   3:Lib/PWMSingle/PWMSingle.hpp **** 
   4:Lib/PWMSingle/PWMSingle.hpp **** #include "MyMath.hpp"
   5:Lib/PWMSingle/PWMSingle.hpp **** #include "tim.h"
   6:Lib/PWMSingle/PWMSingle.hpp **** 
   7:Lib/PWMSingle/PWMSingle.hpp **** #ifdef __cplusplus
   8:Lib/PWMSingle/PWMSingle.hpp **** extern "C" {
   9:Lib/PWMSingle/PWMSingle.hpp **** 
  10:Lib/PWMSingle/PWMSingle.hpp **** class PwmSingleOut {
  11:Lib/PWMSingle/PWMSingle.hpp ****      public:
  12:Lib/PWMSingle/PWMSingle.hpp ****       PwmSingleOut(TIM_HandleTypeDef *htim, uint32_t channel)
  13:Lib/PWMSingle/PWMSingle.hpp ****           : _htim(htim), _channel(channel), _maxValue(_htim->Init.Period) {
  14:Lib/PWMSingle/PWMSingle.hpp ****       }
  15:Lib/PWMSingle/PWMSingle.hpp **** 
  16:Lib/PWMSingle/PWMSingle.hpp ****       void init() {
  17:Lib/PWMSingle/PWMSingle.hpp ****             HAL_TIM_PWM_Start(_htim, _channel);
  18:Lib/PWMSingle/PWMSingle.hpp ****             _maxValue = _htim->Init.Period;
  19:Lib/PWMSingle/PWMSingle.hpp ****       }
  20:Lib/PWMSingle/PWMSingle.hpp **** 
  21:Lib/PWMSingle/PWMSingle.hpp ****       void write(float duty) {
  98              		.loc 2 21 12 is_stmt 1 view -0
  99              		.cfi_startproc
 100              		@ args = 0, pretend = 0, frame = 0
 101              		@ frame_needed = 0, uses_anonymous_args = 0
 102              		.loc 2 21 12 is_stmt 0 view .LVU11
 103 0000 D0B5     		push	{r4, r6, r7, lr}
 104              	.LCFI1:
 105              		.cfi_def_cfa_offset 16
 106              		.cfi_offset 4, -16
 107              		.cfi_offset 6, -12
 108              		.cfi_offset 7, -8
 109              		.cfi_offset 14, -4
 110 0002 0446     		mov	r4, r0
  22:Lib/PWMSingle/PWMSingle.hpp ****             duty = (int)(Constrain(duty, 0.0, 1.0) * _maxValue);
 111              		.loc 2 22 13 is_stmt 1 view .LVU12
 112              		.loc 2 22 26 is_stmt 0 view .LVU13
 113 0004 B5EEC00A 		vcmpe.f32	s0, #0
 114 0008 F1EE10FA 		vmrs	APSR_nzcv, FPSCR
 115 000c 10D4     		bmi	.L17
 116              		.loc 2 22 26 discriminator 2 view .LVU14
 117 000e F7EE007A 		vmov.f32	s15, #1.0e+0
 118 0012 B4EEE70A 		vcmpe.f32	s0, s15
 119 0016 F1EE10FA 		vmrs	APSR_nzcv, FPSCR
ARM GAS  /var/folders/5c/srt4fy4j1pd641bjfx75k5000000gn/T//ccbkyqXZ.s 			page 5


 120 001a 02DD     		ble	.L20
 121              		.loc 2 22 26 view .LVU15
 122 001c 0026     		movs	r6, #0
 123 001e 1D4F     		ldr	r7, .L23
 124 0020 08E0     		b	.L12
 125              	.L20:
 126              		.loc 2 22 26 discriminator 5 view .LVU16
 127 0022 10EE100A 		vmov	r0, s0
 128              	.LVL8:
 129              		.loc 2 22 26 discriminator 5 view .LVU17
 130 0026 FFF7FEFF 		bl	__aeabi_f2d
 131              	.LVL9:
 132              		.loc 2 22 26 discriminator 5 view .LVU18
 133 002a 0646     		mov	r6, r0
 134 002c 0F46     		mov	r7, r1
 135 002e 01E0     		b	.L12
 136              	.LVL10:
 137              	.L17:
 138              		.loc 2 22 26 view .LVU19
 139 0030 0026     		movs	r6, #0
 140 0032 0027     		movs	r7, #0
 141              	.LVL11:
 142              	.L12:
 143              		.loc 2 22 52 discriminator 8 view .LVU20
 144 0034 A068     		ldr	r0, [r4, #8]
 145 0036 FFF7FEFF 		bl	__aeabi_ui2d
 146              	.LVL12:
 147 003a 3246     		mov	r2, r6
 148 003c 3B46     		mov	r3, r7
 149 003e FFF7FEFF 		bl	__aeabi_dmul
 150              	.LVL13:
 151              		.loc 2 22 20 discriminator 8 view .LVU21
 152 0042 FFF7FEFF 		bl	__aeabi_d2iz
 153              	.LVL14:
 154 0046 07EE900A 		vmov	s15, r0	@ int
 155              		.loc 2 22 18 discriminator 8 view .LVU22
 156 004a F8EEE77A 		vcvt.f32.s32	s15, s15
 157              	.LVL15:
  23:Lib/PWMSingle/PWMSingle.hpp ****             __HAL_TIM_SET_COMPARE(_htim, _channel, duty);
 158              		.loc 2 23 13 is_stmt 1 discriminator 8 view .LVU23
 159 004e 6368     		ldr	r3, [r4, #4]
 160 0050 33B9     		cbnz	r3, .L13
 161              		.loc 2 23 13 is_stmt 0 discriminator 1 view .LVU24
 162 0052 2368     		ldr	r3, [r4]
 163 0054 1B68     		ldr	r3, [r3]
 164 0056 FCEEE77A 		vcvt.u32.f32	s15, s15
 165              	.LVL16:
 166              		.loc 2 23 13 discriminator 1 view .LVU25
 167 005a C3ED0D7A 		vstr.32	s15, [r3, #52]	@ int
 168              	.L11:
  24:Lib/PWMSingle/PWMSingle.hpp ****       }
 169              		.loc 2 24 7 view .LVU26
 170 005e D0BD     		pop	{r4, r6, r7, pc}
 171              	.LVL17:
 172              	.L13:
  23:Lib/PWMSingle/PWMSingle.hpp ****             __HAL_TIM_SET_COMPARE(_htim, _channel, duty);
 173              		.loc 2 23 13 discriminator 2 view .LVU27
ARM GAS  /var/folders/5c/srt4fy4j1pd641bjfx75k5000000gn/T//ccbkyqXZ.s 			page 6


 174 0060 042B     		cmp	r3, #4
 175 0062 08D0     		beq	.L21
  23:Lib/PWMSingle/PWMSingle.hpp ****             __HAL_TIM_SET_COMPARE(_htim, _channel, duty);
 176              		.loc 2 23 13 discriminator 4 view .LVU28
 177 0064 082B     		cmp	r3, #8
 178 0066 0DD0     		beq	.L22
  23:Lib/PWMSingle/PWMSingle.hpp ****             __HAL_TIM_SET_COMPARE(_htim, _channel, duty);
 179              		.loc 2 23 13 discriminator 6 view .LVU29
 180 0068 2368     		ldr	r3, [r4]
 181 006a 1B68     		ldr	r3, [r3]
 182 006c FCEEE77A 		vcvt.u32.f32	s15, s15
 183              	.LVL18:
  23:Lib/PWMSingle/PWMSingle.hpp ****             __HAL_TIM_SET_COMPARE(_htim, _channel, duty);
 184              		.loc 2 23 13 discriminator 6 view .LVU30
 185 0070 C3ED107A 		vstr.32	s15, [r3, #64]	@ int
 186              		.loc 2 24 7 discriminator 6 view .LVU31
 187 0074 F3E7     		b	.L11
 188              	.LVL19:
 189              	.L21:
  23:Lib/PWMSingle/PWMSingle.hpp ****             __HAL_TIM_SET_COMPARE(_htim, _channel, duty);
 190              		.loc 2 23 13 discriminator 3 view .LVU32
 191 0076 2368     		ldr	r3, [r4]
 192 0078 1B68     		ldr	r3, [r3]
 193 007a FCEEE77A 		vcvt.u32.f32	s15, s15
 194              	.LVL20:
  23:Lib/PWMSingle/PWMSingle.hpp ****             __HAL_TIM_SET_COMPARE(_htim, _channel, duty);
 195              		.loc 2 23 13 discriminator 3 view .LVU33
 196 007e C3ED0E7A 		vstr.32	s15, [r3, #56]	@ int
 197 0082 ECE7     		b	.L11
 198              	.LVL21:
 199              	.L22:
  23:Lib/PWMSingle/PWMSingle.hpp ****             __HAL_TIM_SET_COMPARE(_htim, _channel, duty);
 200              		.loc 2 23 13 discriminator 5 view .LVU34
 201 0084 2368     		ldr	r3, [r4]
 202 0086 1B68     		ldr	r3, [r3]
 203 0088 FCEEE77A 		vcvt.u32.f32	s15, s15
 204              	.LVL22:
  23:Lib/PWMSingle/PWMSingle.hpp ****             __HAL_TIM_SET_COMPARE(_htim, _channel, duty);
 205              		.loc 2 23 13 discriminator 5 view .LVU35
 206 008c C3ED0F7A 		vstr.32	s15, [r3, #60]	@ int
 207 0090 E5E7     		b	.L11
 208              	.L24:
 209 0092 00BF     		.align	2
 210              	.L23:
 211 0094 0000F03F 		.word	1072693248
 212              		.cfi_endproc
 213              	.LFE160:
 214              		.cantunwind
 215              		.fnend
 217              		.section	.text.setup,"ax",%progbits
 218              		.align	1
 219              		.global	setup
 220              		.syntax unified
 221              		.thumb
 222              		.thumb_func
 224              	setup:
 225              		.fnstart
ARM GAS  /var/folders/5c/srt4fy4j1pd641bjfx75k5000000gn/T//ccbkyqXZ.s 			page 7


 226              	.LFB163:
  18:src/app/app.cpp **** void setup() {
 227              		.loc 1 18 14 is_stmt 1 view -0
 228              		.cfi_startproc
 229              		@ args = 0, pretend = 0, frame = 0
 230              		@ frame_needed = 0, uses_anonymous_args = 0
 231 0000 10B5     		push	{r4, lr}
 232              		.save {r4, lr}
 233              	.LCFI2:
 234              		.cfi_def_cfa_offset 8
 235              		.cfi_offset 4, -8
 236              		.cfi_offset 14, -4
  19:src/app/app.cpp ****       HAL_Delay(2500);  // „Ç´„É°„É©„ÅÆËµ∑Âãï‰∏≠ÂæÖÊ©ü
 237              		.loc 1 19 7 view .LVU37
  19:src/app/app.cpp ****       HAL_Delay(2500);  // „Ç´„É°„É©„ÅÆËµ∑Âãï‰∏≠ÂæÖÊ©ü
 238              		.loc 1 19 16 is_stmt 0 view .LVU38
 239 0002 40F6C410 		movw	r0, #2500
 240 0006 FFF7FEFF 		bl	HAL_Delay
 241              	.LVL23:
  20:src/app/app.cpp ****       hardware.Init();
 242              		.loc 1 20 7 is_stmt 1 view .LVU39
  20:src/app/app.cpp ****       hardware.Init();
 243              		.loc 1 20 20 is_stmt 0 view .LVU40
 244 000a 0D48     		ldr	r0, .L29
 245 000c FFF7FEFF 		bl	_ZN8Hardware4InitEv
 246              	.LVL24:
  22:src/app/app.cpp ****       for (uint8_t i = 0; i < 5; i++) {
 247              		.loc 1 22 7 is_stmt 1 view .LVU41
 248              	.LBB13:
  22:src/app/app.cpp ****       for (uint8_t i = 0; i < 5; i++) {
 249              		.loc 1 22 20 is_stmt 0 view .LVU42
 250 0010 0024     		movs	r4, #0
  22:src/app/app.cpp ****       for (uint8_t i = 0; i < 5; i++) {
 251              		.loc 1 22 7 view .LVU43
 252 0012 0DE0     		b	.L26
 253              	.LVL25:
 254              	.L27:
  23:src/app/app.cpp ****             hardware.led1 = i % 2;
 255              		.loc 1 23 13 is_stmt 1 discriminator 3 view .LVU44
  23:src/app/app.cpp ****             hardware.led1 = i % 2;
 256              		.loc 1 23 31 is_stmt 0 discriminator 3 view .LVU45
 257 0014 04F00103 		and	r3, r4, #1
 258 0018 00EE103A 		vmov	s0, r3	@ int
 259              	.LVL26:
 260              	.LBB14:
 261              	.LBI14:
  25:Lib/PWMSingle/PWMSingle.hpp **** 
  26:Lib/PWMSingle/PWMSingle.hpp ****       void operator=(float duty) {
 262              		.loc 2 26 12 is_stmt 1 discriminator 3 view .LVU46
 263              	.LBB15:
  27:Lib/PWMSingle/PWMSingle.hpp ****             write(duty);
 264              		.loc 2 27 13 discriminator 3 view .LVU47
 265              		.loc 2 27 18 is_stmt 0 discriminator 3 view .LVU48
 266 001c B8EEC00A 		vcvt.f32.s32	s0, s0
 267              	.LVL27:
 268              		.loc 2 27 18 discriminator 3 view .LVU49
 269 0020 0848     		ldr	r0, .L29+4
ARM GAS  /var/folders/5c/srt4fy4j1pd641bjfx75k5000000gn/T//ccbkyqXZ.s 			page 8


 270              	.LVL28:
 271              		.loc 2 27 18 discriminator 3 view .LVU50
 272 0022 FFF7FEFF 		bl	_ZN12PwmSingleOut5writeEf
 273              	.LVL29:
 274              		.loc 2 27 18 discriminator 3 view .LVU51
 275              	.LBE15:
 276              	.LBE14:
  24:src/app/app.cpp ****             HAL_Delay(100);
 277              		.loc 1 24 13 is_stmt 1 discriminator 3 view .LVU52
  24:src/app/app.cpp ****             HAL_Delay(100);
 278              		.loc 1 24 22 is_stmt 0 discriminator 3 view .LVU53
 279 0026 6420     		movs	r0, #100
 280 0028 FFF7FEFF 		bl	HAL_Delay
 281              	.LVL30:
  22:src/app/app.cpp ****       for (uint8_t i = 0; i < 5; i++) {
 282              		.loc 1 22 7 is_stmt 1 discriminator 3 view .LVU54
 283 002c 0134     		adds	r4, r4, #1
 284              	.LVL31:
  22:src/app/app.cpp ****       for (uint8_t i = 0; i < 5; i++) {
 285              		.loc 1 22 7 is_stmt 0 discriminator 3 view .LVU55
 286 002e E4B2     		uxtb	r4, r4
 287              	.LVL32:
 288              	.L26:
  22:src/app/app.cpp ****       for (uint8_t i = 0; i < 5; i++) {
 289              		.loc 1 22 29 is_stmt 1 discriminator 1 view .LVU56
 290 0030 042C     		cmp	r4, #4
 291 0032 EFD9     		bls	.L27
 292              	.LBE13:
  26:src/app/app.cpp ****       hardware.led1 = 1;
 293              		.loc 1 26 7 view .LVU57
 294              	.LVL33:
 295              	.LBB16:
 296              	.LBI16:
  26:Lib/PWMSingle/PWMSingle.hpp ****             write(duty);
 297              		.loc 2 26 12 view .LVU58
 298              	.LBB17:
 299              		.loc 2 27 13 view .LVU59
 300              		.loc 2 27 18 is_stmt 0 view .LVU60
 301 0034 B7EE000A 		vmov.f32	s0, #1.0e+0
 302 0038 0248     		ldr	r0, .L29+4
 303              	.LVL34:
 304              		.loc 2 27 18 view .LVU61
 305 003a FFF7FEFF 		bl	_ZN12PwmSingleOut5writeEf
 306              	.LVL35:
 307              		.loc 2 27 18 view .LVU62
 308              	.LBE17:
 309              	.LBE16:
  27:src/app/app.cpp **** }
 310              		.loc 1 27 1 view .LVU63
 311 003e 10BD     		pop	{r4, pc}
 312              	.LVL36:
 313              	.L30:
  27:src/app/app.cpp **** }
 314              		.loc 1 27 1 view .LVU64
 315              		.align	2
 316              	.L29:
 317 0040 00000000 		.word	hardware
ARM GAS  /var/folders/5c/srt4fy4j1pd641bjfx75k5000000gn/T//ccbkyqXZ.s 			page 9


 318 0044 3C000000 		.word	hardware+60
 319              		.cfi_endproc
 320              	.LFE163:
 321              		.fnend
 323              		.section	.text.main_app,"ax",%progbits
 324              		.align	1
 325              		.global	main_app
 326              		.syntax unified
 327              		.thumb
 328              		.thumb_func
 330              	main_app:
 331              		.fnstart
 332              	.LFB164:
  29:src/app/app.cpp **** void main_app() {
 333              		.loc 1 29 17 is_stmt 1 view -0
 334              		.cfi_startproc
 335              		@ args = 0, pretend = 0, frame = 0
 336              		@ frame_needed = 0, uses_anonymous_args = 0
 337 0000 10B5     		push	{r4, lr}
 338              		.save {r4, lr}
 339              	.LCFI3:
 340              		.cfi_def_cfa_offset 8
 341              		.cfi_offset 4, -8
 342              		.cfi_offset 14, -4
 343 0002 6CE0     		b	.L48
 344              	.L56:
 345              	.LBB18:
  36:src/app/app.cpp ****                   hardware.led2 = 1;
 346              		.loc 1 36 19 view .LVU66
 347              	.LVL37:
 348              	.LBB19:
 349              	.LBI19:
  26:Lib/PWMSingle/PWMSingle.hpp ****             write(duty);
 350              		.loc 2 26 12 view .LVU67
 351              	.LBB20:
 352              		.loc 2 27 13 view .LVU68
 353              		.loc 2 27 18 is_stmt 0 view .LVU69
 354 0004 4C34     		adds	r4, r4, #76
 355 0006 B7EE000A 		vmov.f32	s0, #1.0e+0
 356 000a 2046     		mov	r0, r4
 357 000c FFF7FEFF 		bl	_ZN12PwmSingleOut5writeEf
 358              	.LVL38:
 359              		.loc 2 27 18 view .LVU70
 360              	.LBE20:
 361              	.LBE19:
  37:src/app/app.cpp ****                   hardware.led1 = 0;
 362              		.loc 1 37 19 is_stmt 1 view .LVU71
 363              	.LBB21:
 364              	.LBI21:
  26:Lib/PWMSingle/PWMSingle.hpp ****             write(duty);
 365              		.loc 2 26 12 view .LVU72
 366              	.LBB22:
 367              		.loc 2 27 13 view .LVU73
 368              		.loc 2 27 18 is_stmt 0 view .LVU74
 369 0010 9FED4E0A 		vldr.32	s0, .L57
 370 0014 A4F11000 		sub	r0, r4, #16
 371 0018 FFF7FEFF 		bl	_ZN12PwmSingleOut5writeEf
ARM GAS  /var/folders/5c/srt4fy4j1pd641bjfx75k5000000gn/T//ccbkyqXZ.s 			page 10


 372              	.LVL39:
  28:Lib/PWMSingle/PWMSingle.hpp ****       }
 373              		.loc 2 28 7 view .LVU75
 374 001c 74E0     		b	.L32
 375              	.LVL40:
 376              	.L34:
 377              		.loc 2 28 7 view .LVU76
 378              	.LBE22:
 379              	.LBE21:
 380              	.LBB23:
  44:src/app/app.cpp ****             for (int i = 0; i < 4; i++) {  // „É≠„Éú„ÉÉ„Éà„Åã„Çâ‰∏ÄÁï™Ëøë„ÅÑ„Éú„Éº„É´„ÇíÊçâ„Åà„Å¶„Å
 381              		.loc 1 44 13 is_stmt 1 discriminator 2 view .LVU77
 382 001e 0133     		adds	r3, r3, #1
 383              	.LVL41:
 384              	.L33:
  44:src/app/app.cpp ****             for (int i = 0; i < 4; i++) {  // „É≠„Éú„ÉÉ„Éà„Åã„Çâ‰∏ÄÁï™Ëøë„ÅÑ„Éú„Éº„É´„ÇíÊçâ„Åà„Å¶„Å
 385              		.loc 1 44 31 discriminator 1 view .LVU78
 386 0020 032B     		cmp	r3, #3
 387 0022 0CDC     		bgt	.L52
  45:src/app/app.cpp ****                   if (hardware.info.Cam[i].ball_dis > 0 && hardware.info.Cam[i].ball_dis < min_dis)
 388              		.loc 1 45 19 view .LVU79
  45:src/app/app.cpp ****                   if (hardware.info.Cam[i].ball_dis > 0 && hardware.info.Cam[i].ball_dis < min_dis)
 389              		.loc 1 45 44 is_stmt 0 view .LVU80
 390 0024 03EB8301 		add	r1, r3, r3, lsl #2
 391 0028 494A     		ldr	r2, .L57+4
 392 002a 02EB4102 		add	r2, r2, r1, lsl #1
 393 002e D278     		ldrb	r2, [r2, #3]	@ zero_extendqisi2
  45:src/app/app.cpp ****                   if (hardware.info.Cam[i].ball_dis > 0 && hardware.info.Cam[i].ball_dis < min_dis)
 394              		.loc 1 45 19 view .LVU81
 395 0030 002A     		cmp	r2, #0
 396 0032 F4D0     		beq	.L34
  45:src/app/app.cpp ****                   if (hardware.info.Cam[i].ball_dis > 0 && hardware.info.Cam[i].ball_dis < min_dis)
 397              		.loc 1 45 57 discriminator 1 view .LVU82
 398 0034 8242     		cmp	r2, r0
 399 0036 F2D2     		bcs	.L34
  46:src/app/app.cpp ****                         min_dis = hardware.info.Cam[i].ball_dis;
 400              		.loc 1 46 25 is_stmt 1 view .LVU83
 401              	.LVL42:
  47:src/app/app.cpp ****                         min_dis_num = i;
 402              		.loc 1 47 25 view .LVU84
  47:src/app/app.cpp ****                         min_dis_num = i;
 403              		.loc 1 47 37 is_stmt 0 view .LVU85
 404 0038 DCB2     		uxtb	r4, r3
 405              	.LVL43:
  46:src/app/app.cpp ****                         min_dis = hardware.info.Cam[i].ball_dis;
 406              		.loc 1 46 33 view .LVU86
 407 003a 1046     		mov	r0, r2
 408 003c EFE7     		b	.L34
 409              	.LVL44:
 410              	.L52:
  46:src/app/app.cpp ****                         min_dis = hardware.info.Cam[i].ball_dis;
 411              		.loc 1 46 33 view .LVU87
 412              	.LBE23:
  50:src/app/app.cpp ****             if (min_dis == 200) min_dis = 0;
 413              		.loc 1 50 13 is_stmt 1 view .LVU88
 414 003e C828     		cmp	r0, #200
 415 0040 0DD0     		beq	.L53
ARM GAS  /var/folders/5c/srt4fy4j1pd641bjfx75k5000000gn/T//ccbkyqXZ.s 			page 11


 416              	.LVL45:
 417              	.L36:
  51:src/app/app.cpp ****             hardware.info.ball_dis = min_dis;
 418              		.loc 1 51 13 view .LVU89
  51:src/app/app.cpp ****             hardware.info.ball_dis = min_dis;
 419              		.loc 1 51 38 is_stmt 0 view .LVU90
 420 0042 00B2     		sxth	r0, r0
 421              	.LVL46:
  51:src/app/app.cpp ****             hardware.info.ball_dis = min_dis;
 422              		.loc 1 51 36 view .LVU91
 423 0044 424B     		ldr	r3, .L57+4
 424              	.LVL47:
  51:src/app/app.cpp ****             hardware.info.ball_dis = min_dis;
 425              		.loc 1 51 36 view .LVU92
 426 0046 9885     		strh	r0, [r3, #44]	@ movhi
  53:src/app/app.cpp ****             if (hardware.info.ball_dis != 0) {
 427              		.loc 1 53 13 is_stmt 1 view .LVU93
 428 0048 58B9     		cbnz	r0, .L54
 429              	.L37:
  57:src/app/app.cpp ****             if (hardware.info.ball_dis == 0) {  // „Éú„Éº„É´„ÅåË¶ã„Å§„Åã„Çâ„Å™„ÅÑ
 430              		.loc 1 57 13 view .LVU94
  57:src/app/app.cpp ****             if (hardware.info.ball_dis == 0) {  // „Éú„Éº„É´„ÅåË¶ã„Å§„Åã„Çâ„Å™„ÅÑ
 431              		.loc 1 57 31 is_stmt 0 view .LVU95
 432 004a 414B     		ldr	r3, .L57+4
 433 004c B3F92C30 		ldrsh	r3, [r3, #44]
  57:src/app/app.cpp ****             if (hardware.info.ball_dis == 0) {  // „Éú„Éº„É´„ÅåË¶ã„Å§„Åã„Çâ„Å™„ÅÑ
 434              		.loc 1 57 13 view .LVU96
 435 0050 5BB1     		cbz	r3, .L55
  65:src/app/app.cpp ****             } else if (min_dis_num == 0) {
 436              		.loc 1 65 20 is_stmt 1 view .LVU97
 437 0052 032C     		cmp	r4, #3
 438 0054 13D8     		bhi	.L40
 439 0056 DFE804F0 		tbb	[pc, r4]
 440              	.L42:
 441 005a 63       		.byte	(.L45-.L42)/2
 442 005b 69       		.byte	(.L44-.L42)/2
 443 005c 6E       		.byte	(.L43-.L42)/2
 444 005d 73       		.byte	(.L41-.L42)/2
 445              	.LVL48:
 446              		.p2align 1
 447              	.L53:
  50:src/app/app.cpp ****             if (min_dis == 200) min_dis = 0;
 448              		.loc 1 50 41 is_stmt 0 view .LVU98
 449 005e 0020     		movs	r0, #0
 450              	.LVL49:
  50:src/app/app.cpp ****             if (min_dis == 200) min_dis = 0;
 451              		.loc 1 50 41 view .LVU99
 452 0060 EFE7     		b	.L36
 453              	.LVL50:
 454              	.L54:
  54:src/app/app.cpp ****                   ball_miss_timer.reset();
 455              		.loc 1 54 19 is_stmt 1 view .LVU100
  54:src/app/app.cpp ****                   ball_miss_timer.reset();
 456              		.loc 1 54 40 is_stmt 0 view .LVU101
 457 0062 3C48     		ldr	r0, .L57+8
 458 0064 FFF7FEFF 		bl	_ZN5Timer5resetEv
 459              	.LVL51:
ARM GAS  /var/folders/5c/srt4fy4j1pd641bjfx75k5000000gn/T//ccbkyqXZ.s 			page 12


 460 0068 EFE7     		b	.L37
 461              	.L55:
  58:src/app/app.cpp ****                   if (ball_miss_timer.read_ms() > BALL_MISS_TIME) {
 462              		.loc 1 58 19 is_stmt 1 view .LVU102
  58:src/app/app.cpp ****                   if (ball_miss_timer.read_ms() > BALL_MISS_TIME) {
 463              		.loc 1 58 46 is_stmt 0 view .LVU103
 464 006a 3A48     		ldr	r0, .L57+8
 465 006c FFF7FEFF 		bl	_ZN5Timer7read_msEv
 466              	.LVL52:
  58:src/app/app.cpp ****                   if (ball_miss_timer.read_ms() > BALL_MISS_TIME) {
 467              		.loc 1 58 19 view .LVU104
 468 0070 B0F57A7F 		cmp	r0, #1000
 469 0074 4CD9     		bls	.L39
  59:src/app/app.cpp ****                         hardware.info.ball_dir = 0;
 470              		.loc 1 59 25 is_stmt 1 view .LVU105
  59:src/app/app.cpp ****                         hardware.info.ball_dir = 0;
 471              		.loc 1 59 48 is_stmt 0 view .LVU106
 472 0076 364B     		ldr	r3, .L57+4
 473 0078 0022     		movs	r2, #0
 474 007a 5A85     		strh	r2, [r3, #42]	@ movhi
  60:src/app/app.cpp ****                         hardware.info.ball_dis = 0;
 475              		.loc 1 60 25 is_stmt 1 view .LVU107
  60:src/app/app.cpp ****                         hardware.info.ball_dis = 0;
 476              		.loc 1 60 48 is_stmt 0 view .LVU108
 477 007c 9A85     		strh	r2, [r3, #44]	@ movhi
 478              	.L40:
  74:src/app/app.cpp ****             hardware.info.ball_dir = MyMath::NormalizeDeg180(hardware.info.ball_dir);
 479              		.loc 1 74 13 is_stmt 1 view .LVU109
  74:src/app/app.cpp ****             hardware.info.ball_dir = MyMath::NormalizeDeg180(hardware.info.ball_dir);
 480              		.loc 1 74 76 is_stmt 0 view .LVU110
 481 007e 344C     		ldr	r4, .L57+4
 482              	.LVL53:
  74:src/app/app.cpp ****             hardware.info.ball_dir = MyMath::NormalizeDeg180(hardware.info.ball_dir);
 483              		.loc 1 74 61 view .LVU111
 484 0080 B4F92A00 		ldrsh	r0, [r4, #42]
 485 0084 FFF7FEFF 		bl	NormalizeDeg180
 486              	.LVL54:
  74:src/app/app.cpp ****             hardware.info.ball_dir = MyMath::NormalizeDeg180(hardware.info.ball_dir);
 487              		.loc 1 74 36 view .LVU112
 488 0088 00B2     		sxth	r0, r0
 489 008a 6085     		strh	r0, [r4, #42]	@ movhi
  76:src/app/app.cpp ****             pre_ball_dir = hardware.info.ball_dir;
 490              		.loc 1 76 13 is_stmt 1 view .LVU113
  76:src/app/app.cpp ****             pre_ball_dir = hardware.info.ball_dir;
 491              		.loc 1 76 26 is_stmt 0 view .LVU114
 492 008c 324B     		ldr	r3, .L57+12
 493 008e 1880     		strh	r0, [r3]	@ movhi
  77:src/app/app.cpp ****             pre_ball_dis = hardware.info.ball_dis;
 494              		.loc 1 77 13 is_stmt 1 view .LVU115
  77:src/app/app.cpp ****             pre_ball_dis = hardware.info.ball_dis;
 495              		.loc 1 77 42 is_stmt 0 view .LVU116
 496 0090 B4F92C20 		ldrsh	r2, [r4, #44]
  77:src/app/app.cpp ****             pre_ball_dis = hardware.info.ball_dis;
 497              		.loc 1 77 26 view .LVU117
 498 0094 314B     		ldr	r3, .L57+16
 499 0096 1A80     		strh	r2, [r3]	@ movhi
  80:src/app/app.cpp ****             process_time = process_timer.read_us();
ARM GAS  /var/folders/5c/srt4fy4j1pd641bjfx75k5000000gn/T//ccbkyqXZ.s 			page 13


 500              		.loc 1 80 13 is_stmt 1 view .LVU118
  80:src/app/app.cpp ****             process_time = process_timer.read_us();
 501              		.loc 1 80 49 is_stmt 0 view .LVU119
 502 0098 3148     		ldr	r0, .L57+20
 503 009a FFF7FEFF 		bl	_ZN5Timer7read_usEv
 504              	.LVL55:
  80:src/app/app.cpp ****             process_time = process_timer.read_us();
 505              		.loc 1 80 26 view .LVU120
 506 009e 80B2     		uxth	r0, r0
 507 00a0 304B     		ldr	r3, .L57+24
 508 00a2 1880     		strh	r0, [r3]	@ movhi
  81:src/app/app.cpp ****             if (process_time < PERIOD_US) {
 509              		.loc 1 81 13 is_stmt 1 view .LVU121
 510 00a4 B0F5FA7F 		cmp	r0, #500
 511 00a8 05D2     		bcs	.L46
 512              	.L47:
  82:src/app/app.cpp ****                   while (process_timer.read_us() < PERIOD_US);
 513              		.loc 1 82 50 discriminator 1 view .LVU122
  82:src/app/app.cpp ****                   while (process_timer.read_us() < PERIOD_US);
 514              		.loc 1 82 47 is_stmt 0 discriminator 1 view .LVU123
 515 00aa 2D48     		ldr	r0, .L57+20
 516 00ac FFF7FEFF 		bl	_ZN5Timer7read_usEv
 517              	.LVL56:
  82:src/app/app.cpp ****                   while (process_timer.read_us() < PERIOD_US);
 518              		.loc 1 82 50 discriminator 1 view .LVU124
 519 00b0 B0F5FA7F 		cmp	r0, #500
 520 00b4 F9D3     		bcc	.L47
 521              	.L46:
  84:src/app/app.cpp ****             process_freq = 1.0f / (process_timer.read_us() * 0.000001f);
 522              		.loc 1 84 13 is_stmt 1 view .LVU125
  84:src/app/app.cpp ****             process_freq = 1.0f / (process_timer.read_us() * 0.000001f);
 523              		.loc 1 84 57 is_stmt 0 view .LVU126
 524 00b6 2A48     		ldr	r0, .L57+20
 525 00b8 FFF7FEFF 		bl	_ZN5Timer7read_usEv
 526              	.LVL57:
 527 00bc 07EE900A 		vmov	s15, r0	@ int
  84:src/app/app.cpp ****             process_freq = 1.0f / (process_timer.read_us() * 0.000001f);
 528              		.loc 1 84 60 view .LVU127
 529 00c0 F8EE677A 		vcvt.f32.u32	s15, s15
 530 00c4 9FED287A 		vldr.32	s14, .L57+28
 531 00c8 67EE877A 		vmul.f32	s15, s15, s14
  84:src/app/app.cpp ****             process_freq = 1.0f / (process_timer.read_us() * 0.000001f);
 532              		.loc 1 84 33 view .LVU128
 533 00cc F7EE006A 		vmov.f32	s13, #1.0e+0
 534 00d0 86EEA77A 		vdiv.f32	s14, s13, s15
  84:src/app/app.cpp ****             process_freq = 1.0f / (process_timer.read_us() * 0.000001f);
 535              		.loc 1 84 26 view .LVU129
 536 00d4 BDEEC77A 		vcvt.s32.f32	s14, s14
 537 00d8 244B     		ldr	r3, .L57+32
 538 00da 83ED007A 		vstr.32	s14, [r3]	@ int
 539              	.LBE18:
  30:src/app/app.cpp ****       while (1) {
 540              		.loc 1 30 7 is_stmt 1 view .LVU130
 541              	.LVL58:
 542              	.L48:
  30:src/app/app.cpp ****       while (1) {
 543              		.loc 1 30 7 view .LVU131
ARM GAS  /var/folders/5c/srt4fy4j1pd641bjfx75k5000000gn/T//ccbkyqXZ.s 			page 14


 544              	.LBB26:
  31:src/app/app.cpp ****             process_timer.reset();
 545              		.loc 1 31 13 view .LVU132
  31:src/app/app.cpp ****             process_timer.reset();
 546              		.loc 1 31 32 is_stmt 0 view .LVU133
 547 00de 2048     		ldr	r0, .L57+20
 548 00e0 FFF7FEFF 		bl	_ZN5Timer5resetEv
 549              	.LVL59:
  32:src/app/app.cpp ****             hardware.MainUart();
 550              		.loc 1 32 13 is_stmt 1 view .LVU134
  32:src/app/app.cpp ****             hardware.MainUart();
 551              		.loc 1 32 30 is_stmt 0 view .LVU135
 552 00e4 1A4C     		ldr	r4, .L57+4
 553 00e6 2046     		mov	r0, r4
 554 00e8 FFF7FEFF 		bl	_ZN8Hardware8MainUartEv
 555              	.LVL60:
  33:src/app/app.cpp ****             hardware.M1nUart();
 556              		.loc 1 33 13 is_stmt 1 view .LVU136
  33:src/app/app.cpp ****             hardware.M1nUart();
 557              		.loc 1 33 29 is_stmt 0 view .LVU137
 558 00ec 2046     		mov	r0, r4
 559 00ee FFF7FEFF 		bl	_ZN8Hardware7M1nUartEv
 560              	.LVL61:
  35:src/app/app.cpp ****             if (hardware.info.Cam[0].is_camera_initialized && hardware.info.Cam[1].is_camera_initia
 561              		.loc 1 35 13 is_stmt 1 view .LVU138
  35:src/app/app.cpp ****             if (hardware.info.Cam[0].is_camera_initialized && hardware.info.Cam[1].is_camera_initia
 562              		.loc 1 35 38 is_stmt 0 view .LVU139
 563 00f2 E37A     		ldrb	r3, [r4, #11]	@ zero_extendqisi2
  35:src/app/app.cpp ****             if (hardware.info.Cam[0].is_camera_initialized && hardware.info.Cam[1].is_camera_initia
 564              		.loc 1 35 13 view .LVU140
 565 00f4 43B1     		cbz	r3, .L32
  35:src/app/app.cpp ****             if (hardware.info.Cam[0].is_camera_initialized && hardware.info.Cam[1].is_camera_initia
 566              		.loc 1 35 84 discriminator 1 view .LVU141
 567 00f6 637D     		ldrb	r3, [r4, #21]	@ zero_extendqisi2
  35:src/app/app.cpp ****             if (hardware.info.Cam[0].is_camera_initialized && hardware.info.Cam[1].is_camera_initia
 568              		.loc 1 35 60 discriminator 1 view .LVU142
 569 00f8 33B1     		cbz	r3, .L32
  35:src/app/app.cpp ****             if (hardware.info.Cam[0].is_camera_initialized && hardware.info.Cam[1].is_camera_initia
 570              		.loc 1 35 130 discriminator 2 view .LVU143
 571 00fa E37F     		ldrb	r3, [r4, #31]	@ zero_extendqisi2
  35:src/app/app.cpp ****             if (hardware.info.Cam[0].is_camera_initialized && hardware.info.Cam[1].is_camera_initia
 572              		.loc 1 35 106 discriminator 2 view .LVU144
 573 00fc 23B1     		cbz	r3, .L32
  35:src/app/app.cpp ****             if (hardware.info.Cam[0].is_camera_initialized && hardware.info.Cam[1].is_camera_initia
 574              		.loc 1 35 176 discriminator 3 view .LVU145
 575 00fe 94F82930 		ldrb	r3, [r4, #41]	@ zero_extendqisi2
  35:src/app/app.cpp ****             if (hardware.info.Cam[0].is_camera_initialized && hardware.info.Cam[1].is_camera_initia
 576              		.loc 1 35 152 discriminator 3 view .LVU146
 577 0102 002B     		cmp	r3, #0
 578 0104 7FF47EAF 		bne	.L56
 579              	.L32:
  40:src/app/app.cpp ****             uint8_t min_dis = 200;
 580              		.loc 1 40 13 is_stmt 1 view .LVU147
 581              	.LVL62:
  41:src/app/app.cpp ****             uint8_t min_dis_num = 0;
 582              		.loc 1 41 13 view .LVU148
  42:src/app/app.cpp ****             static int16_t pre_ball_dir, pre_ball_dis;
ARM GAS  /var/folders/5c/srt4fy4j1pd641bjfx75k5000000gn/T//ccbkyqXZ.s 			page 15


 583              		.loc 1 42 13 view .LVU149
  44:src/app/app.cpp ****             for (int i = 0; i < 4; i++) {  // „É≠„Éú„ÉÉ„Éà„Åã„Çâ‰∏ÄÁï™Ëøë„ÅÑ„Éú„Éº„É´„ÇíÊçâ„Åà„Å¶„Å
 584              		.loc 1 44 13 view .LVU150
 585              	.LBB24:
  44:src/app/app.cpp ****             for (int i = 0; i < 4; i++) {  // „É≠„Éú„ÉÉ„Éà„Åã„Çâ‰∏ÄÁï™Ëøë„ÅÑ„Éú„Éº„É´„ÇíÊçâ„Åà„Å¶„Å
 586              		.loc 1 44 22 is_stmt 0 view .LVU151
 587 0108 0023     		movs	r3, #0
 588              	.LBE24:
  41:src/app/app.cpp ****             uint8_t min_dis_num = 0;
 589              		.loc 1 41 21 view .LVU152
 590 010a 1C46     		mov	r4, r3
  40:src/app/app.cpp ****             uint8_t min_dis = 200;
 591              		.loc 1 40 21 view .LVU153
 592 010c C820     		movs	r0, #200
 593              	.LBB25:
  44:src/app/app.cpp ****             for (int i = 0; i < 4; i++) {  // „É≠„Éú„ÉÉ„Éà„Åã„Çâ‰∏ÄÁï™Ëøë„ÅÑ„Éú„Éº„É´„ÇíÊçâ„Åà„Å¶„Å
 594              		.loc 1 44 13 view .LVU154
 595 010e 87E7     		b	.L33
 596              	.LVL63:
 597              	.L39:
  44:src/app/app.cpp ****             for (int i = 0; i < 4; i++) {  // „É≠„Éú„ÉÉ„Éà„Åã„Çâ‰∏ÄÁï™Ëøë„ÅÑ„Éú„Éº„É´„ÇíÊçâ„Åà„Å¶„Å
 598              		.loc 1 44 13 view .LVU155
 599              	.LBE25:
  62:src/app/app.cpp ****                         hardware.info.ball_dir = pre_ball_dir;
 600              		.loc 1 62 25 is_stmt 1 view .LVU156
  62:src/app/app.cpp ****                         hardware.info.ball_dir = pre_ball_dir;
 601              		.loc 1 62 48 is_stmt 0 view .LVU157
 602 0110 0F4B     		ldr	r3, .L57+4
 603 0112 114A     		ldr	r2, .L57+12
 604 0114 1288     		ldrh	r2, [r2]
 605 0116 5A85     		strh	r2, [r3, #42]	@ movhi
  63:src/app/app.cpp ****                         hardware.info.ball_dis = pre_ball_dis;
 606              		.loc 1 63 25 is_stmt 1 view .LVU158
  63:src/app/app.cpp ****                         hardware.info.ball_dis = pre_ball_dis;
 607              		.loc 1 63 48 is_stmt 0 view .LVU159
 608 0118 104A     		ldr	r2, .L57+16
 609 011a 1288     		ldrh	r2, [r2]
 610 011c 9A85     		strh	r2, [r3, #44]	@ movhi
 611 011e AEE7     		b	.L40
 612              	.L45:
  66:src/app/app.cpp ****                   hardware.info.ball_dir = hardware.info.Cam[0].ball_dir + 315;
 613              		.loc 1 66 19 is_stmt 1 view .LVU160
  66:src/app/app.cpp ****                   hardware.info.ball_dir = hardware.info.Cam[0].ball_dir + 315;
 614              		.loc 1 66 65 is_stmt 0 view .LVU161
 615 0120 0B4A     		ldr	r2, .L57+4
 616 0122 9378     		ldrb	r3, [r2, #2]	@ zero_extendqisi2
  66:src/app/app.cpp ****                   hardware.info.ball_dir = hardware.info.Cam[0].ball_dir + 315;
 617              		.loc 1 66 74 view .LVU162
 618 0124 03F23B13 		addw	r3, r3, #315
  66:src/app/app.cpp ****                   hardware.info.ball_dir = hardware.info.Cam[0].ball_dir + 315;
 619              		.loc 1 66 42 view .LVU163
 620 0128 5385     		strh	r3, [r2, #42]	@ movhi
 621 012a A8E7     		b	.L40
 622              	.L44:
  68:src/app/app.cpp ****                   hardware.info.ball_dir = hardware.info.Cam[1].ball_dir + 45;
 623              		.loc 1 68 19 is_stmt 1 view .LVU164
  68:src/app/app.cpp ****                   hardware.info.ball_dir = hardware.info.Cam[1].ball_dir + 45;
ARM GAS  /var/folders/5c/srt4fy4j1pd641bjfx75k5000000gn/T//ccbkyqXZ.s 			page 16


 624              		.loc 1 68 65 is_stmt 0 view .LVU165
 625 012c 084A     		ldr	r2, .L57+4
 626 012e 137B     		ldrb	r3, [r2, #12]	@ zero_extendqisi2
  68:src/app/app.cpp ****                   hardware.info.ball_dir = hardware.info.Cam[1].ball_dir + 45;
 627              		.loc 1 68 74 view .LVU166
 628 0130 2D33     		adds	r3, r3, #45
  68:src/app/app.cpp ****                   hardware.info.ball_dir = hardware.info.Cam[1].ball_dir + 45;
 629              		.loc 1 68 42 view .LVU167
 630 0132 5385     		strh	r3, [r2, #42]	@ movhi
 631 0134 A3E7     		b	.L40
 632              	.L43:
  70:src/app/app.cpp ****                   hardware.info.ball_dir = hardware.info.Cam[2].ball_dir + 135;
 633              		.loc 1 70 19 is_stmt 1 view .LVU168
  70:src/app/app.cpp ****                   hardware.info.ball_dir = hardware.info.Cam[2].ball_dir + 135;
 634              		.loc 1 70 65 is_stmt 0 view .LVU169
 635 0136 064A     		ldr	r2, .L57+4
 636 0138 937D     		ldrb	r3, [r2, #22]	@ zero_extendqisi2
  70:src/app/app.cpp ****                   hardware.info.ball_dir = hardware.info.Cam[2].ball_dir + 135;
 637              		.loc 1 70 74 view .LVU170
 638 013a 8733     		adds	r3, r3, #135
  70:src/app/app.cpp ****                   hardware.info.ball_dir = hardware.info.Cam[2].ball_dir + 135;
 639              		.loc 1 70 42 view .LVU171
 640 013c 5385     		strh	r3, [r2, #42]	@ movhi
 641 013e 9EE7     		b	.L40
 642              	.L41:
  72:src/app/app.cpp ****                   hardware.info.ball_dir = hardware.info.Cam[3].ball_dir + 225;
 643              		.loc 1 72 19 is_stmt 1 view .LVU172
  72:src/app/app.cpp ****                   hardware.info.ball_dir = hardware.info.Cam[3].ball_dir + 225;
 644              		.loc 1 72 65 is_stmt 0 view .LVU173
 645 0140 034A     		ldr	r2, .L57+4
 646 0142 92F82030 		ldrb	r3, [r2, #32]	@ zero_extendqisi2
  72:src/app/app.cpp ****                   hardware.info.ball_dir = hardware.info.Cam[3].ball_dir + 225;
 647              		.loc 1 72 74 view .LVU174
 648 0146 E133     		adds	r3, r3, #225
  72:src/app/app.cpp ****                   hardware.info.ball_dir = hardware.info.Cam[3].ball_dir + 225;
 649              		.loc 1 72 42 view .LVU175
 650 0148 5385     		strh	r3, [r2, #42]	@ movhi
 651 014a 98E7     		b	.L40
 652              	.L58:
 653              		.align	2
 654              	.L57:
 655 014c 00000000 		.word	0
 656 0150 00000000 		.word	hardware
 657 0154 00000000 		.word	ball_miss_timer
 658 0158 00000000 		.word	_ZZ8main_appE12pre_ball_dir
 659 015c 00000000 		.word	_ZZ8main_appE12pre_ball_dis
 660 0160 00000000 		.word	process_timer
 661 0164 00000000 		.word	process_time
 662 0168 BD378635 		.word	897988541
 663 016c 00000000 		.word	process_freq
 664              	.LBE26:
 665              		.cfi_endproc
 666              	.LFE164:
 667              		.fnend
 669              		.section	.text._GLOBAL__sub_I_hardware,"ax",%progbits
 670              		.align	1
 671              		.syntax unified
ARM GAS  /var/folders/5c/srt4fy4j1pd641bjfx75k5000000gn/T//ccbkyqXZ.s 			page 17


 672              		.thumb
 673              		.thumb_func
 675              	_GLOBAL__sub_I_hardware:
 676              		.fnstart
 677              	.LFB166:
 678              		.loc 1 86 1 is_stmt 1 view -0
 679              		.cfi_startproc
 680              		@ args = 0, pretend = 0, frame = 0
 681              		@ frame_needed = 0, uses_anonymous_args = 0
 682 0000 08B5     		push	{r3, lr}
 683              	.LCFI4:
 684              		.cfi_def_cfa_offset 8
 685              		.cfi_offset 3, -8
 686              		.cfi_offset 14, -4
 687              		.loc 1 86 1 is_stmt 0 view .LVU177
 688 0002 4FF6FF71 		movw	r1, #65535
 689 0006 0120     		movs	r0, #1
 690 0008 FFF7FEFF 		bl	_Z41__static_initialization_and_destruction_0ii
 691              	.LVL64:
 692 000c 08BD     		pop	{r3, pc}
 693              		.cfi_endproc
 694              	.LFE166:
 695              		.cantunwind
 696              		.fnend
 698              		.section	.init_array,"aw",%init_array
 699              		.align	2
 700 0000 00000000 		.word	_GLOBAL__sub_I_hardware(target1)
 701              		.section	.bss._ZZ8main_appE12pre_ball_dis,"aw",%nobits
 702              		.align	1
 705              	_ZZ8main_appE12pre_ball_dis:
 706 0000 0000     		.space	2
 707              		.section	.bss._ZZ8main_appE12pre_ball_dir,"aw",%nobits
 708              		.align	1
 711              	_ZZ8main_appE12pre_ball_dir:
 712 0000 0000     		.space	2
 713              		.global	process_freq
 714              		.section	.bss.process_freq,"aw",%nobits
 715              		.align	2
 718              	process_freq:
 719 0000 00000000 		.space	4
 720              		.global	process_time
 721              		.section	.bss.process_time,"aw",%nobits
 722              		.align	1
 725              	process_time:
 726 0000 0000     		.space	2
 727              		.global	ball_miss_timer
 728              		.section	.bss.ball_miss_timer,"aw",%nobits
 729              		.align	2
 732              	ball_miss_timer:
 733 0000 00000000 		.space	4
 734              		.global	process_timer
 735              		.section	.bss.process_timer,"aw",%nobits
 736              		.align	2
 739              	process_timer:
 740 0000 00000000 		.space	4
 741              		.global	hardware
 742              		.section	.bss.hardware,"aw",%nobits
ARM GAS  /var/folders/5c/srt4fy4j1pd641bjfx75k5000000gn/T//ccbkyqXZ.s 			page 18


 743              		.align	2
 746              	hardware:
 747 0000 00000000 		.space	224
 747      00000000 
 747      00000000 
 747      00000000 
 747      00000000 
 748              		.text
 749              	.Letext0:
 750              		.file 3 "/opt/ST/STM32CubeCLT_1.16.0/GNU-tools-for-STM32/arm-none-eabi/include/machine/_default_ty
 751              		.file 4 "/opt/ST/STM32CubeCLT_1.16.0/GNU-tools-for-STM32/arm-none-eabi/include/sys/_stdint.h"
 752              		.file 5 "Drivers/CMSIS/Device/ST/STM32F4xx/Include/stm32f446xx.h"
 753              		.file 6 "Drivers/CMSIS/Device/ST/STM32F4xx/Include/stm32f4xx.h"
 754              		.file 7 "/opt/ST/STM32CubeCLT_1.16.0/GNU-tools-for-STM32/lib/gcc/arm-none-eabi/12.3.1/include/stdd
 755              		.file 8 "Drivers/STM32F4xx_HAL_Driver/Inc/stm32f4xx_hal_def.h"
 756              		.file 9 "Drivers/STM32F4xx_HAL_Driver/Inc/stm32f4xx_hal_dma.h"
 757              		.file 10 "Drivers/STM32F4xx_HAL_Driver/Inc/stm32f4xx_hal_tim.h"
 758              		.file 11 "Drivers/STM32F4xx_HAL_Driver/Inc/stm32f4xx_hal_uart.h"
 759              		.file 12 "Drivers/STM32F4xx_HAL_Driver/Inc/stm32f4xx_hal.h"
 760              		.file 13 "/opt/ST/STM32CubeCLT_1.16.0/GNU-tools-for-STM32/arm-none-eabi/include/c++/12.3.1/cstdio"
 761              		.file 14 "/opt/ST/STM32CubeCLT_1.16.0/GNU-tools-for-STM32/arm-none-eabi/include/c++/12.3.1/arm-non
 762              		.file 15 "/opt/ST/STM32CubeCLT_1.16.0/GNU-tools-for-STM32/arm-none-eabi/include/sys/_types.h"
 763              		.file 16 "/opt/ST/STM32CubeCLT_1.16.0/GNU-tools-for-STM32/arm-none-eabi/include/sys/reent.h"
 764              		.file 17 "/opt/ST/STM32CubeCLT_1.16.0/GNU-tools-for-STM32/arm-none-eabi/include/sys/lock.h"
 765              		.file 18 "/opt/ST/STM32CubeCLT_1.16.0/GNU-tools-for-STM32/arm-none-eabi/include/stdio.h"
 766              		.file 19 "Lib/Timer/Timer.hpp"
 767              		.file 20 "Lib/BufferedSerial/BufferedSerial.hpp"
 768              		.file 21 "src/unit/hardware/hardware.hpp"
 769              		.file 22 "Lib/MyMath/MyMath.hpp"
ARM GAS  /var/folders/5c/srt4fy4j1pd641bjfx75k5000000gn/T//ccbkyqXZ.s 			page 19

