ARM GAS  /var/folders/5c/srt4fy4j1pd641bjfx75k5000000gn/T//cckp0DMU.s 			page 1


   1              		.cpu cortex-m4
   2              		.arch armv7e-m
   3              		.fpu fpv4-sp-d16
   4              		.eabi_attribute 27, 1
   5              		.eabi_attribute 28, 1
   6              		.eabi_attribute 20, 1
   7              		.eabi_attribute 21, 1
   8              		.eabi_attribute 23, 3
   9              		.eabi_attribute 24, 1
  10              		.eabi_attribute 25, 1
  11              		.eabi_attribute 26, 1
  12              		.eabi_attribute 30, 1
  13              		.eabi_attribute 34, 1
  14              		.eabi_attribute 18, 4
  15              		.file	"hardware.cpp"
  16              		.text
  17              	.Ltext0:
  18              		.cfi_sections	.debug_frame
  19              		.file 1 "src/unit/hardware/hardware.cpp"
  20              		.section	.text._ZN14BufferedSerial4readEv,"axG",%progbits,_ZN14BufferedSerial4readEv,comdat
  21              		.align	1
  22              		.weak	_ZN14BufferedSerial4readEv
  23              		.syntax unified
  24              		.thumb
  25              		.thumb_func
  27              	_ZN14BufferedSerial4readEv:
  28              		.fnstart
  29              	.LVL0:
  30              	.LFB140:
  31              		.file 2 "Lib/BufferedSerial/BufferedSerial.hpp"
   1:Lib/BufferedSerial/BufferedSerial.hpp **** #ifndef __BUFFERED_SERIAL__
   2:Lib/BufferedSerial/BufferedSerial.hpp **** #define __BUFFERED_SERIAL__
   3:Lib/BufferedSerial/BufferedSerial.hpp **** 
   4:Lib/BufferedSerial/BufferedSerial.hpp **** #include <stdio.h>
   5:Lib/BufferedSerial/BufferedSerial.hpp **** 
   6:Lib/BufferedSerial/BufferedSerial.hpp **** #include "usart.h"
   7:Lib/BufferedSerial/BufferedSerial.hpp **** 
   8:Lib/BufferedSerial/BufferedSerial.hpp **** #ifdef __cplusplus
   9:Lib/BufferedSerial/BufferedSerial.hpp **** 
  10:Lib/BufferedSerial/BufferedSerial.hpp **** /*
  11:Lib/BufferedSerial/BufferedSerial.hpp ****  Initの順番をDMAが先になるようにする
  12:Lib/BufferedSerial/BufferedSerial.hpp ****  - MX_DMA_Init();
  13:Lib/BufferedSerial/BufferedSerial.hpp ****  - MX_USART2_UART_Init();
  14:Lib/BufferedSerial/BufferedSerial.hpp ****  - DMAはCircularモードにする
  15:Lib/BufferedSerial/BufferedSerial.hpp **** */
  16:Lib/BufferedSerial/BufferedSerial.hpp **** 
  17:Lib/BufferedSerial/BufferedSerial.hpp **** class BufferedSerial {
  18:Lib/BufferedSerial/BufferedSerial.hpp ****      public:
  19:Lib/BufferedSerial/BufferedSerial.hpp ****       BufferedSerial(UART_HandleTypeDef *huart, uint16_t rxBufSize)
  20:Lib/BufferedSerial/BufferedSerial.hpp ****           : _huart(huart),
  21:Lib/BufferedSerial/BufferedSerial.hpp ****             _rxBuf(new uint8_t[rxBufSize]),
  22:Lib/BufferedSerial/BufferedSerial.hpp ****             rxTop(0),
  23:Lib/BufferedSerial/BufferedSerial.hpp ****             rxBtm(0),
  24:Lib/BufferedSerial/BufferedSerial.hpp ****             _rxBufSize(rxBufSize),
  25:Lib/BufferedSerial/BufferedSerial.hpp ****             _useDMA(false) {
  26:Lib/BufferedSerial/BufferedSerial.hpp ****       }
  27:Lib/BufferedSerial/BufferedSerial.hpp ****       void init(bool dma = false) {
ARM GAS  /var/folders/5c/srt4fy4j1pd641bjfx75k5000000gn/T//cckp0DMU.s 			page 2


  28:Lib/BufferedSerial/BufferedSerial.hpp ****             _useDMA = dma;
  29:Lib/BufferedSerial/BufferedSerial.hpp ****             HAL_UART_Receive_DMA(_huart, _rxBuf, _rxBufSize);
  30:Lib/BufferedSerial/BufferedSerial.hpp ****             // printf("- Serial init\n");
  31:Lib/BufferedSerial/BufferedSerial.hpp ****       }
  32:Lib/BufferedSerial/BufferedSerial.hpp **** 
  33:Lib/BufferedSerial/BufferedSerial.hpp ****       bool available() {
  34:Lib/BufferedSerial/BufferedSerial.hpp ****             uint16_t rxTop = _rxBufSize - _huart->hdmarx->Instance->NDTR;
  35:Lib/BufferedSerial/BufferedSerial.hpp ****             return rxTop != rxBtm;
  36:Lib/BufferedSerial/BufferedSerial.hpp ****       }
  37:Lib/BufferedSerial/BufferedSerial.hpp **** 
  38:Lib/BufferedSerial/BufferedSerial.hpp ****       uint8_t read() {
  32              		.loc 2 38 15 view -0
  33              		.cfi_startproc
  34              		@ args = 0, pretend = 0, frame = 0
  35              		@ frame_needed = 0, uses_anonymous_args = 0
  36              		@ link register save eliminated.
  37              		.loc 2 38 15 is_stmt 0 view .LVU1
  38 0000 0246     		mov	r2, r0
  39:Lib/BufferedSerial/BufferedSerial.hpp ****             uint16_t rxTop = _rxBufSize - _huart->hdmarx->Instance->NDTR;
  39              		.loc 2 39 13 is_stmt 1 view .LVU2
  40              		.loc 2 39 30 is_stmt 0 view .LVU3
  41 0002 B0F80CC0 		ldrh	ip, [r0, #12]
  42              		.loc 2 39 43 view .LVU4
  43 0006 0368     		ldr	r3, [r0]
  44              		.loc 2 39 51 view .LVU5
  45 0008 DB6B     		ldr	r3, [r3, #60]
  46              		.loc 2 39 59 view .LVU6
  47 000a 1B68     		ldr	r3, [r3]
  48              		.loc 2 39 69 view .LVU7
  49 000c 5B68     		ldr	r3, [r3, #4]
  50              		.loc 2 39 41 view .LVU8
  51 000e 9BB2     		uxth	r3, r3
  52              		.loc 2 39 69 view .LVU9
  53 0010 ACEB0303 		sub	r3, ip, r3
  54 0014 9BB2     		uxth	r3, r3
  55              	.LVL1:
  40:Lib/BufferedSerial/BufferedSerial.hpp ****             if (rxTop == rxBtm) {
  56              		.loc 2 40 13 is_stmt 1 view .LVU10
  57              		.loc 2 40 26 is_stmt 0 view .LVU11
  58 0016 4189     		ldrh	r1, [r0, #10]
  59              		.loc 2 40 13 view .LVU12
  60 0018 9942     		cmp	r1, r3
  61 001a 08D0     		beq	.L3
  41:Lib/BufferedSerial/BufferedSerial.hpp ****                   return 0;
  42:Lib/BufferedSerial/BufferedSerial.hpp ****             }
  43:Lib/BufferedSerial/BufferedSerial.hpp ****             uint8_t data = _rxBuf[rxBtm];
  62              		.loc 2 43 13 is_stmt 1 view .LVU13
  63              		.loc 2 43 28 is_stmt 0 view .LVU14
  64 001c 4368     		ldr	r3, [r0, #4]
  65              	.LVL2:
  66              		.loc 2 43 21 view .LVU15
  67 001e 585C     		ldrb	r0, [r3, r1]	@ zero_extendqisi2
  68              	.LVL3:
  44:Lib/BufferedSerial/BufferedSerial.hpp ****             rxBtm = (rxBtm + 1) % _rxBufSize;
  69              		.loc 2 44 13 is_stmt 1 view .LVU16
  70              		.loc 2 44 28 is_stmt 0 view .LVU17
  71 0020 0131     		adds	r1, r1, #1
ARM GAS  /var/folders/5c/srt4fy4j1pd641bjfx75k5000000gn/T//cckp0DMU.s 			page 3


  72              		.loc 2 44 33 view .LVU18
  73 0022 91FBFCF3 		sdiv	r3, r1, ip
  74 0026 0CFB1311 		mls	r1, ip, r3, r1
  75              		.loc 2 44 19 view .LVU19
  76 002a 5181     		strh	r1, [r2, #10]	@ movhi
  45:Lib/BufferedSerial/BufferedSerial.hpp ****             // printf("top:%d btm:%d NDTR:%d data:%d\n", rxTop, rxBtm, _huart->hdmarx->Instance->ND
  46:Lib/BufferedSerial/BufferedSerial.hpp ****             return data;
  77              		.loc 2 46 13 is_stmt 1 view .LVU20
  78              		.loc 2 46 20 is_stmt 0 view .LVU21
  79 002c 7047     		bx	lr
  80              	.LVL4:
  81              	.L3:
  41:Lib/BufferedSerial/BufferedSerial.hpp ****             }
  82              		.loc 2 41 26 view .LVU22
  83 002e 0020     		movs	r0, #0
  84              	.LVL5:
  47:Lib/BufferedSerial/BufferedSerial.hpp ****       }
  85              		.loc 2 47 7 view .LVU23
  86 0030 7047     		bx	lr
  87              		.cfi_endproc
  88              	.LFE140:
  89              		.cantunwind
  90              		.fnend
  92              		.section	.text._ZN12PwmSingleOut4initEv,"axG",%progbits,_ZN12PwmSingleOut4initEv,comdat
  93              		.align	1
  94              		.weak	_ZN12PwmSingleOut4initEv
  95              		.syntax unified
  96              		.thumb
  97              		.thumb_func
  99              	_ZN12PwmSingleOut4initEv:
 100              		.fnstart
 101              	.LVL6:
 102              	.LFB159:
 103              		.file 3 "Lib/PWMSingle/PWMSingle.hpp"
   1:Lib/PWMSingle/PWMSingle.hpp **** #ifndef __PWMSINGLE__
   2:Lib/PWMSingle/PWMSingle.hpp **** #define __PWMSINGLE__
   3:Lib/PWMSingle/PWMSingle.hpp **** 
   4:Lib/PWMSingle/PWMSingle.hpp **** #include "MyMath.hpp"
   5:Lib/PWMSingle/PWMSingle.hpp **** #include "tim.h"
   6:Lib/PWMSingle/PWMSingle.hpp **** 
   7:Lib/PWMSingle/PWMSingle.hpp **** #ifdef __cplusplus
   8:Lib/PWMSingle/PWMSingle.hpp **** extern "C" {
   9:Lib/PWMSingle/PWMSingle.hpp **** 
  10:Lib/PWMSingle/PWMSingle.hpp **** class PwmSingleOut {
  11:Lib/PWMSingle/PWMSingle.hpp ****      public:
  12:Lib/PWMSingle/PWMSingle.hpp ****       PwmSingleOut(TIM_HandleTypeDef *htim, uint32_t channel)
  13:Lib/PWMSingle/PWMSingle.hpp ****           : _htim(htim), _channel(channel), _maxValue(_htim->Init.Period) {
  14:Lib/PWMSingle/PWMSingle.hpp ****       }
  15:Lib/PWMSingle/PWMSingle.hpp **** 
  16:Lib/PWMSingle/PWMSingle.hpp ****       void init() {
 104              		.loc 3 16 12 is_stmt 1 view -0
 105              		.cfi_startproc
 106              		@ args = 0, pretend = 0, frame = 0
 107              		@ frame_needed = 0, uses_anonymous_args = 0
 108              		.loc 3 16 12 is_stmt 0 view .LVU25
 109 0000 10B5     		push	{r4, lr}
 110              		.save {r4, lr}
ARM GAS  /var/folders/5c/srt4fy4j1pd641bjfx75k5000000gn/T//cckp0DMU.s 			page 4


 111              	.LCFI0:
 112              		.cfi_def_cfa_offset 8
 113              		.cfi_offset 4, -8
 114              		.cfi_offset 14, -4
 115 0002 0446     		mov	r4, r0
  17:Lib/PWMSingle/PWMSingle.hpp ****             HAL_TIM_PWM_Start(_htim, _channel);
 116              		.loc 3 17 13 is_stmt 1 view .LVU26
 117              		.loc 3 17 30 is_stmt 0 view .LVU27
 118 0004 4168     		ldr	r1, [r0, #4]
 119 0006 0068     		ldr	r0, [r0]
 120              	.LVL7:
 121              		.loc 3 17 30 view .LVU28
 122 0008 FFF7FEFF 		bl	HAL_TIM_PWM_Start
 123              	.LVL8:
  18:Lib/PWMSingle/PWMSingle.hpp ****             _maxValue = _htim->Init.Period;
 124              		.loc 3 18 13 is_stmt 1 view .LVU29
 125              		.loc 3 18 25 is_stmt 0 view .LVU30
 126 000c 2368     		ldr	r3, [r4]
 127              		.loc 3 18 37 view .LVU31
 128 000e DB68     		ldr	r3, [r3, #12]
 129              		.loc 3 18 23 view .LVU32
 130 0010 A360     		str	r3, [r4, #8]
  19:Lib/PWMSingle/PWMSingle.hpp ****       }
 131              		.loc 3 19 7 view .LVU33
 132 0012 10BD     		pop	{r4, pc}
 133              		.loc 3 19 7 view .LVU34
 134              		.cfi_endproc
 135              	.LFE159:
 136              		.fnend
 138              		.section	.text._ZN8HardwareC2Ev,"ax",%progbits
 139              		.align	1
 140              		.global	_ZN8HardwareC2Ev
 141              		.syntax unified
 142              		.thumb
 143              		.thumb_func
 145              	_ZN8HardwareC2Ev:
 146              		.fnstart
 147              	.LVL9:
 148              	.LFB164:
   1:src/unit/hardware/hardware.cpp **** #include "hardware.hpp"
   2:src/unit/hardware/hardware.cpp **** 
   3:src/unit/hardware/hardware.cpp **** Hardware::Hardware() {
 149              		.loc 1 3 1 is_stmt 1 view -0
 150              		.cfi_startproc
 151              		@ args = 0, pretend = 0, frame = 0
 152              		@ frame_needed = 0, uses_anonymous_args = 0
 153              		.loc 1 3 1 is_stmt 0 view .LVU36
 154 0000 F8B5     		push	{r3, r4, r5, r6, r7, lr}
 155              		.save {r3, r4, r5, r6, r7, lr}
 156              	.LCFI1:
 157              		.cfi_def_cfa_offset 24
 158              		.cfi_offset 3, -24
 159              		.cfi_offset 4, -20
 160              		.cfi_offset 5, -16
 161              		.cfi_offset 6, -12
 162              		.cfi_offset 7, -8
 163              		.cfi_offset 14, -4
ARM GAS  /var/folders/5c/srt4fy4j1pd641bjfx75k5000000gn/T//cckp0DMU.s 			page 5


 164 0002 0446     		mov	r4, r0
 165              	.LVL10:
 166              	.LBB58:
 167              	.LBB59:
 168              	.LBI59:
  12:Lib/PWMSingle/PWMSingle.hpp ****           : _htim(htim), _channel(channel), _maxValue(_htim->Init.Period) {
 169              		.loc 3 12 7 is_stmt 1 view .LVU37
 170              	.LBB60:
  13:Lib/PWMSingle/PWMSingle.hpp ****       }
 171              		.loc 3 13 13 is_stmt 0 view .LVU38
 172 0004 394B     		ldr	r3, .L10
 173 0006 8363     		str	r3, [r0, #56]
  13:Lib/PWMSingle/PWMSingle.hpp ****       }
 174              		.loc 3 13 26 view .LVU39
 175 0008 0821     		movs	r1, #8
 176 000a C163     		str	r1, [r0, #60]
  13:Lib/PWMSingle/PWMSingle.hpp ****       }
 177              		.loc 3 13 67 view .LVU40
 178 000c D868     		ldr	r0, [r3, #12]
 179              	.LVL11:
  13:Lib/PWMSingle/PWMSingle.hpp ****       }
 180              		.loc 3 13 45 view .LVU41
 181 000e 2064     		str	r0, [r4, #64]
 182              	.LVL12:
  13:Lib/PWMSingle/PWMSingle.hpp ****       }
 183              		.loc 3 13 45 view .LVU42
 184              	.LBE60:
 185              	.LBE59:
 186              	.LBB61:
 187              	.LBI61:
  12:Lib/PWMSingle/PWMSingle.hpp ****           : _htim(htim), _channel(channel), _maxValue(_htim->Init.Period) {
 188              		.loc 3 12 7 is_stmt 1 view .LVU43
 189              	.LBB62:
  13:Lib/PWMSingle/PWMSingle.hpp ****       }
 190              		.loc 3 13 13 is_stmt 0 view .LVU44
 191 0010 A364     		str	r3, [r4, #72]
  13:Lib/PWMSingle/PWMSingle.hpp ****       }
 192              		.loc 3 13 26 view .LVU45
 193 0012 0C22     		movs	r2, #12
 194 0014 E264     		str	r2, [r4, #76]
  13:Lib/PWMSingle/PWMSingle.hpp ****       }
 195              		.loc 3 13 45 view .LVU46
 196 0016 2065     		str	r0, [r4, #80]
 197              	.LVL13:
  13:Lib/PWMSingle/PWMSingle.hpp ****       }
 198              		.loc 3 13 45 view .LVU47
 199              	.LBE62:
 200              	.LBE61:
 201              	.LBB63:
 202              	.LBI63:
  12:Lib/PWMSingle/PWMSingle.hpp ****           : _htim(htim), _channel(channel), _maxValue(_htim->Init.Period) {
 203              		.loc 3 12 7 is_stmt 1 view .LVU48
 204              	.LBB64:
  13:Lib/PWMSingle/PWMSingle.hpp ****       }
 205              		.loc 3 13 13 is_stmt 0 view .LVU49
 206 0018 354B     		ldr	r3, .L10+4
 207 001a A365     		str	r3, [r4, #88]
ARM GAS  /var/folders/5c/srt4fy4j1pd641bjfx75k5000000gn/T//cckp0DMU.s 			page 6


  13:Lib/PWMSingle/PWMSingle.hpp ****       }
 208              		.loc 3 13 26 view .LVU50
 209 001c E265     		str	r2, [r4, #92]
  13:Lib/PWMSingle/PWMSingle.hpp ****       }
 210              		.loc 3 13 67 view .LVU51
 211 001e DA68     		ldr	r2, [r3, #12]
  13:Lib/PWMSingle/PWMSingle.hpp ****       }
 212              		.loc 3 13 45 view .LVU52
 213 0020 2266     		str	r2, [r4, #96]
 214              	.LVL14:
  13:Lib/PWMSingle/PWMSingle.hpp ****       }
 215              		.loc 3 13 45 view .LVU53
 216              	.LBE64:
 217              	.LBE63:
 218              	.LBB65:
 219              	.LBI65:
  12:Lib/PWMSingle/PWMSingle.hpp ****           : _htim(htim), _channel(channel), _maxValue(_htim->Init.Period) {
 220              		.loc 3 12 7 is_stmt 1 view .LVU54
 221              	.LBB66:
  13:Lib/PWMSingle/PWMSingle.hpp ****       }
 222              		.loc 3 13 13 is_stmt 0 view .LVU55
 223 0022 A366     		str	r3, [r4, #104]
  13:Lib/PWMSingle/PWMSingle.hpp ****       }
 224              		.loc 3 13 26 view .LVU56
 225 0024 E166     		str	r1, [r4, #108]
  13:Lib/PWMSingle/PWMSingle.hpp ****       }
 226              		.loc 3 13 45 view .LVU57
 227 0026 2267     		str	r2, [r4, #112]
 228              	.LVL15:
  13:Lib/PWMSingle/PWMSingle.hpp ****       }
 229              		.loc 3 13 45 view .LVU58
 230              	.LBE66:
 231              	.LBE65:
 232              	.LBB67:
 233              	.LBI67:
  19:Lib/BufferedSerial/BufferedSerial.hpp ****           : _huart(huart),
 234              		.loc 2 19 7 is_stmt 1 view .LVU59
 235              	.LBB68:
  20:Lib/BufferedSerial/BufferedSerial.hpp ****             _rxBuf(new uint8_t[rxBufSize]),
 236              		.loc 2 20 13 is_stmt 0 view .LVU60
 237 0028 324F     		ldr	r7, .L10+8
 238 002a A767     		str	r7, [r4, #120]
  21:Lib/BufferedSerial/BufferedSerial.hpp ****             rxTop(0),
 239              		.loc 2 21 41 view .LVU61
 240 002c 4FF48070 		mov	r0, #256
 241 0030 FFF7FEFF 		bl	_Znaj
 242              	.LVL16:
  21:Lib/BufferedSerial/BufferedSerial.hpp ****             rxTop(0),
 243              		.loc 2 21 13 view .LVU62
 244 0034 E067     		str	r0, [r4, #124]
  22:Lib/BufferedSerial/BufferedSerial.hpp ****             rxBtm(0),
 245              		.loc 2 22 13 view .LVU63
 246 0036 0025     		movs	r5, #0
 247 0038 A4F88050 		strh	r5, [r4, #128]	@ movhi
  23:Lib/BufferedSerial/BufferedSerial.hpp ****             _rxBufSize(rxBufSize),
 248              		.loc 2 23 13 view .LVU64
 249 003c A4F88250 		strh	r5, [r4, #130]	@ movhi
ARM GAS  /var/folders/5c/srt4fy4j1pd641bjfx75k5000000gn/T//cckp0DMU.s 			page 7


  24:Lib/BufferedSerial/BufferedSerial.hpp ****             _useDMA(false) {
 250              		.loc 2 24 13 view .LVU65
 251 0040 4FF48076 		mov	r6, #256
 252 0044 A4F88460 		strh	r6, [r4, #132]	@ movhi
  25:Lib/BufferedSerial/BufferedSerial.hpp ****       }
 253              		.loc 2 25 13 view .LVU66
 254 0048 84F88650 		strb	r5, [r4, #134]
 255              	.LVL17:
  25:Lib/BufferedSerial/BufferedSerial.hpp ****       }
 256              		.loc 2 25 13 view .LVU67
 257              	.LBE68:
 258              	.LBE67:
 259              	.LBB69:
 260              	.LBI69:
  19:Lib/BufferedSerial/BufferedSerial.hpp ****           : _huart(huart),
 261              		.loc 2 19 7 is_stmt 1 view .LVU68
 262              	.LBB70:
  20:Lib/BufferedSerial/BufferedSerial.hpp ****             _rxBuf(new uint8_t[rxBufSize]),
 263              		.loc 2 20 13 is_stmt 0 view .LVU69
 264 004c 2A4B     		ldr	r3, .L10+12
 265 004e C4F88830 		str	r3, [r4, #136]
  21:Lib/BufferedSerial/BufferedSerial.hpp ****             rxTop(0),
 266              		.loc 2 21 41 view .LVU70
 267 0052 3046     		mov	r0, r6
 268 0054 FFF7FEFF 		bl	_Znaj
 269              	.LVL18:
  21:Lib/BufferedSerial/BufferedSerial.hpp ****             rxTop(0),
 270              		.loc 2 21 13 view .LVU71
 271 0058 C4F88C00 		str	r0, [r4, #140]
  22:Lib/BufferedSerial/BufferedSerial.hpp ****             rxBtm(0),
 272              		.loc 2 22 13 view .LVU72
 273 005c A4F89050 		strh	r5, [r4, #144]	@ movhi
  23:Lib/BufferedSerial/BufferedSerial.hpp ****             _rxBufSize(rxBufSize),
 274              		.loc 2 23 13 view .LVU73
 275 0060 A4F89250 		strh	r5, [r4, #146]	@ movhi
  24:Lib/BufferedSerial/BufferedSerial.hpp ****             _useDMA(false) {
 276              		.loc 2 24 13 view .LVU74
 277 0064 A4F89460 		strh	r6, [r4, #148]	@ movhi
  25:Lib/BufferedSerial/BufferedSerial.hpp ****       }
 278              		.loc 2 25 13 view .LVU75
 279 0068 84F89650 		strb	r5, [r4, #150]
 280              	.LVL19:
  25:Lib/BufferedSerial/BufferedSerial.hpp ****       }
 281              		.loc 2 25 13 view .LVU76
 282              	.LBE70:
 283              	.LBE69:
 284              	.LBB71:
 285              	.LBI71:
  19:Lib/BufferedSerial/BufferedSerial.hpp ****           : _huart(huart),
 286              		.loc 2 19 7 is_stmt 1 view .LVU77
 287              	.LBB72:
  20:Lib/BufferedSerial/BufferedSerial.hpp ****             _rxBuf(new uint8_t[rxBufSize]),
 288              		.loc 2 20 13 is_stmt 0 view .LVU78
 289 006c C4F89870 		str	r7, [r4, #152]
  21:Lib/BufferedSerial/BufferedSerial.hpp ****             rxTop(0),
 290              		.loc 2 21 41 view .LVU79
 291 0070 3046     		mov	r0, r6
ARM GAS  /var/folders/5c/srt4fy4j1pd641bjfx75k5000000gn/T//cckp0DMU.s 			page 8


 292 0072 FFF7FEFF 		bl	_Znaj
 293              	.LVL20:
  21:Lib/BufferedSerial/BufferedSerial.hpp ****             rxTop(0),
 294              		.loc 2 21 13 view .LVU80
 295 0076 C4F89C00 		str	r0, [r4, #156]
  22:Lib/BufferedSerial/BufferedSerial.hpp ****             rxBtm(0),
 296              		.loc 2 22 13 view .LVU81
 297 007a A4F8A050 		strh	r5, [r4, #160]	@ movhi
  23:Lib/BufferedSerial/BufferedSerial.hpp ****             _rxBufSize(rxBufSize),
 298              		.loc 2 23 13 view .LVU82
 299 007e A4F8A250 		strh	r5, [r4, #162]	@ movhi
  24:Lib/BufferedSerial/BufferedSerial.hpp ****             _useDMA(false) {
 300              		.loc 2 24 13 view .LVU83
 301 0082 A4F8A460 		strh	r6, [r4, #164]	@ movhi
  25:Lib/BufferedSerial/BufferedSerial.hpp ****       }
 302              		.loc 2 25 13 view .LVU84
 303 0086 84F8A650 		strb	r5, [r4, #166]
 304              	.LVL21:
  25:Lib/BufferedSerial/BufferedSerial.hpp ****       }
 305              		.loc 2 25 13 view .LVU85
 306              	.LBE72:
 307              	.LBE71:
 308              	.LBB73:
 309              	.LBI73:
  19:Lib/BufferedSerial/BufferedSerial.hpp ****           : _huart(huart),
 310              		.loc 2 19 7 is_stmt 1 view .LVU86
 311              	.LBB74:
  20:Lib/BufferedSerial/BufferedSerial.hpp ****             _rxBuf(new uint8_t[rxBufSize]),
 312              		.loc 2 20 13 is_stmt 0 view .LVU87
 313 008a 1C4B     		ldr	r3, .L10+16
 314 008c C4F8A830 		str	r3, [r4, #168]
  21:Lib/BufferedSerial/BufferedSerial.hpp ****             rxTop(0),
 315              		.loc 2 21 41 view .LVU88
 316 0090 3046     		mov	r0, r6
 317 0092 FFF7FEFF 		bl	_Znaj
 318              	.LVL22:
  21:Lib/BufferedSerial/BufferedSerial.hpp ****             rxTop(0),
 319              		.loc 2 21 13 view .LVU89
 320 0096 C4F8AC00 		str	r0, [r4, #172]
  22:Lib/BufferedSerial/BufferedSerial.hpp ****             rxBtm(0),
 321              		.loc 2 22 13 view .LVU90
 322 009a A4F8B050 		strh	r5, [r4, #176]	@ movhi
  23:Lib/BufferedSerial/BufferedSerial.hpp ****             _rxBufSize(rxBufSize),
 323              		.loc 2 23 13 view .LVU91
 324 009e A4F8B250 		strh	r5, [r4, #178]	@ movhi
  24:Lib/BufferedSerial/BufferedSerial.hpp ****             _useDMA(false) {
 325              		.loc 2 24 13 view .LVU92
 326 00a2 A4F8B460 		strh	r6, [r4, #180]	@ movhi
  25:Lib/BufferedSerial/BufferedSerial.hpp ****       }
 327              		.loc 2 25 13 view .LVU93
 328 00a6 84F8B650 		strb	r5, [r4, #182]
 329              	.LVL23:
  25:Lib/BufferedSerial/BufferedSerial.hpp ****       }
 330              		.loc 2 25 13 view .LVU94
 331              	.LBE74:
 332              	.LBE73:
 333              	.LBB75:
ARM GAS  /var/folders/5c/srt4fy4j1pd641bjfx75k5000000gn/T//cckp0DMU.s 			page 9


 334              	.LBI75:
  19:Lib/BufferedSerial/BufferedSerial.hpp ****           : _huart(huart),
 335              		.loc 2 19 7 is_stmt 1 view .LVU95
 336              	.LBB76:
  20:Lib/BufferedSerial/BufferedSerial.hpp ****             _rxBuf(new uint8_t[rxBufSize]),
 337              		.loc 2 20 13 is_stmt 0 view .LVU96
 338 00aa 154B     		ldr	r3, .L10+20
 339 00ac C4F8B830 		str	r3, [r4, #184]
  21:Lib/BufferedSerial/BufferedSerial.hpp ****             rxTop(0),
 340              		.loc 2 21 41 view .LVU97
 341 00b0 3046     		mov	r0, r6
 342 00b2 FFF7FEFF 		bl	_Znaj
 343              	.LVL24:
  21:Lib/BufferedSerial/BufferedSerial.hpp ****             rxTop(0),
 344              		.loc 2 21 13 view .LVU98
 345 00b6 C4F8BC00 		str	r0, [r4, #188]
  22:Lib/BufferedSerial/BufferedSerial.hpp ****             rxBtm(0),
 346              		.loc 2 22 13 view .LVU99
 347 00ba A4F8C050 		strh	r5, [r4, #192]	@ movhi
  23:Lib/BufferedSerial/BufferedSerial.hpp ****             _rxBufSize(rxBufSize),
 348              		.loc 2 23 13 view .LVU100
 349 00be A4F8C250 		strh	r5, [r4, #194]	@ movhi
  24:Lib/BufferedSerial/BufferedSerial.hpp ****             _useDMA(false) {
 350              		.loc 2 24 13 view .LVU101
 351 00c2 A4F8C460 		strh	r6, [r4, #196]	@ movhi
  25:Lib/BufferedSerial/BufferedSerial.hpp ****       }
 352              		.loc 2 25 13 view .LVU102
 353 00c6 84F8C650 		strb	r5, [r4, #198]
 354              	.LVL25:
  25:Lib/BufferedSerial/BufferedSerial.hpp ****       }
 355              		.loc 2 25 13 view .LVU103
 356              	.LBE76:
 357              	.LBE75:
 358              		.loc 1 3 20 view .LVU104
 359 00ca 04F1C800 		add	r0, r4, #200
 360 00ce FFF7FEFF 		bl	_ZN5TimerC1Ev
 361              	.LVL26:
 362 00d2 04F1CC06 		add	r6, r4, #204
 363 00d6 0325     		movs	r5, #3
 364 00d8 04E0     		b	.L7
 365              	.L8:
 366              		.loc 1 3 20 discriminator 3 view .LVU105
 367 00da 3046     		mov	r0, r6
 368 00dc FFF7FEFF 		bl	_ZN5TimerC1Ev
 369              	.LVL27:
 370 00e0 013D     		subs	r5, r5, #1
 371 00e2 0436     		adds	r6, r6, #4
 372              	.L7:
 373              		.loc 1 3 20 is_stmt 1 discriminator 1 view .LVU106
 374 00e4 002D     		cmp	r5, #0
 375 00e6 F8DA     		bge	.L8
 376              	.LBE58:
   4:src/unit/hardware/hardware.cpp **** }
 377              		.loc 1 4 1 is_stmt 0 discriminator 4 view .LVU107
 378 00e8 2046     		mov	r0, r4
 379 00ea F8BD     		pop	{r3, r4, r5, r6, r7, pc}
 380              	.LVL28:
ARM GAS  /var/folders/5c/srt4fy4j1pd641bjfx75k5000000gn/T//cckp0DMU.s 			page 10


 381              	.L11:
 382              		.loc 1 4 1 discriminator 4 view .LVU108
 383              		.align	2
 384              	.L10:
 385 00ec 00000000 		.word	htim2
 386 00f0 00000000 		.word	htim3
 387 00f4 00000000 		.word	huart3
 388 00f8 00000000 		.word	huart2
 389 00fc 00000000 		.word	huart1
 390 0100 00000000 		.word	huart6
 391              		.cfi_endproc
 392              	.LFE164:
 393              		.fnend
 395              		.global	_ZN8HardwareC1Ev
 396              		.thumb_set _ZN8HardwareC1Ev,_ZN8HardwareC2Ev
 397              		.section	.text._ZN8Hardware4InitEv,"ax",%progbits
 398              		.align	1
 399              		.global	_ZN8Hardware4InitEv
 400              		.syntax unified
 401              		.thumb
 402              		.thumb_func
 404              	_ZN8Hardware4InitEv:
 405              		.fnstart
 406              	.LVL29:
 407              	.LFB166:
   5:src/unit/hardware/hardware.cpp **** 
   6:src/unit/hardware/hardware.cpp **** void Hardware::Init() {
 408              		.loc 1 6 23 is_stmt 1 view -0
 409              		.cfi_startproc
 410              		@ args = 0, pretend = 0, frame = 0
 411              		@ frame_needed = 0, uses_anonymous_args = 0
 412              		.loc 1 6 23 is_stmt 0 view .LVU110
 413 0000 38B5     		push	{r3, r4, r5, lr}
 414              		.save {r3, r4, r5, lr}
 415              	.LCFI2:
 416              		.cfi_def_cfa_offset 16
 417              		.cfi_offset 3, -16
 418              		.cfi_offset 4, -12
 419              		.cfi_offset 5, -8
 420              		.cfi_offset 14, -4
 421 0002 0446     		mov	r4, r0
   7:src/unit/hardware/hardware.cpp ****       // 諸々の初期化
   8:src/unit/hardware/hardware.cpp ****       serial3.init();
 422              		.loc 1 8 7 is_stmt 1 view .LVU111
 423              	.LVL30:
 424              	.LBB77:
 425              	.LBI77:
  27:Lib/BufferedSerial/BufferedSerial.hpp ****             _useDMA = dma;
 426              		.loc 2 27 12 view .LVU112
 427              	.LBB78:
  28:Lib/BufferedSerial/BufferedSerial.hpp ****             HAL_UART_Receive_DMA(_huart, _rxBuf, _rxBufSize);
 428              		.loc 2 28 13 view .LVU113
  28:Lib/BufferedSerial/BufferedSerial.hpp ****             HAL_UART_Receive_DMA(_huart, _rxBuf, _rxBufSize);
 429              		.loc 2 28 21 is_stmt 0 view .LVU114
 430 0004 0025     		movs	r5, #0
 431 0006 80F88650 		strb	r5, [r0, #134]
  29:Lib/BufferedSerial/BufferedSerial.hpp ****             // printf("- Serial init\n");
ARM GAS  /var/folders/5c/srt4fy4j1pd641bjfx75k5000000gn/T//cckp0DMU.s 			page 11


 432              		.loc 2 29 13 is_stmt 1 view .LVU115
  29:Lib/BufferedSerial/BufferedSerial.hpp ****             // printf("- Serial init\n");
 433              		.loc 2 29 33 is_stmt 0 view .LVU116
 434 000a B0F88420 		ldrh	r2, [r0, #132]
 435 000e C16F     		ldr	r1, [r0, #124]
 436 0010 806F     		ldr	r0, [r0, #120]
 437              	.LVL31:
  29:Lib/BufferedSerial/BufferedSerial.hpp ****             // printf("- Serial init\n");
 438              		.loc 2 29 33 view .LVU117
 439 0012 FFF7FEFF 		bl	HAL_UART_Receive_DMA
 440              	.LVL32:
  29:Lib/BufferedSerial/BufferedSerial.hpp ****             // printf("- Serial init\n");
 441              		.loc 2 29 33 view .LVU118
 442              	.LBE78:
 443              	.LBE77:
   9:src/unit/hardware/hardware.cpp ****       m1n_serial[0].init();
 444              		.loc 1 9 7 is_stmt 1 view .LVU119
 445              	.LBB79:
 446              	.LBI79:
  27:Lib/BufferedSerial/BufferedSerial.hpp ****             _useDMA = dma;
 447              		.loc 2 27 12 view .LVU120
 448              	.LBB80:
  28:Lib/BufferedSerial/BufferedSerial.hpp ****             HAL_UART_Receive_DMA(_huart, _rxBuf, _rxBufSize);
 449              		.loc 2 28 13 view .LVU121
  28:Lib/BufferedSerial/BufferedSerial.hpp ****             HAL_UART_Receive_DMA(_huart, _rxBuf, _rxBufSize);
 450              		.loc 2 28 21 is_stmt 0 view .LVU122
 451 0016 84F89650 		strb	r5, [r4, #150]
  29:Lib/BufferedSerial/BufferedSerial.hpp ****             // printf("- Serial init\n");
 452              		.loc 2 29 13 is_stmt 1 view .LVU123
  29:Lib/BufferedSerial/BufferedSerial.hpp ****             // printf("- Serial init\n");
 453              		.loc 2 29 33 is_stmt 0 view .LVU124
 454 001a B4F89420 		ldrh	r2, [r4, #148]
 455 001e D4F88C10 		ldr	r1, [r4, #140]
 456 0022 D4F88800 		ldr	r0, [r4, #136]
 457 0026 FFF7FEFF 		bl	HAL_UART_Receive_DMA
 458              	.LVL33:
  29:Lib/BufferedSerial/BufferedSerial.hpp ****             // printf("- Serial init\n");
 459              		.loc 2 29 33 view .LVU125
 460              	.LBE80:
 461              	.LBE79:
  10:src/unit/hardware/hardware.cpp ****       m1n_serial[1].init();
 462              		.loc 1 10 7 is_stmt 1 view .LVU126
 463              	.LBB81:
 464              	.LBI81:
  27:Lib/BufferedSerial/BufferedSerial.hpp ****             _useDMA = dma;
 465              		.loc 2 27 12 view .LVU127
 466              	.LBB82:
  28:Lib/BufferedSerial/BufferedSerial.hpp ****             HAL_UART_Receive_DMA(_huart, _rxBuf, _rxBufSize);
 467              		.loc 2 28 13 view .LVU128
  28:Lib/BufferedSerial/BufferedSerial.hpp ****             HAL_UART_Receive_DMA(_huart, _rxBuf, _rxBufSize);
 468              		.loc 2 28 21 is_stmt 0 view .LVU129
 469 002a 84F8A650 		strb	r5, [r4, #166]
  29:Lib/BufferedSerial/BufferedSerial.hpp ****             // printf("- Serial init\n");
 470              		.loc 2 29 13 is_stmt 1 view .LVU130
  29:Lib/BufferedSerial/BufferedSerial.hpp ****             // printf("- Serial init\n");
 471              		.loc 2 29 33 is_stmt 0 view .LVU131
 472 002e B4F8A420 		ldrh	r2, [r4, #164]
ARM GAS  /var/folders/5c/srt4fy4j1pd641bjfx75k5000000gn/T//cckp0DMU.s 			page 12


 473 0032 D4F89C10 		ldr	r1, [r4, #156]
 474 0036 D4F89800 		ldr	r0, [r4, #152]
 475 003a FFF7FEFF 		bl	HAL_UART_Receive_DMA
 476              	.LVL34:
  29:Lib/BufferedSerial/BufferedSerial.hpp ****             // printf("- Serial init\n");
 477              		.loc 2 29 33 view .LVU132
 478              	.LBE82:
 479              	.LBE81:
  11:src/unit/hardware/hardware.cpp ****       m1n_serial[2].init();
 480              		.loc 1 11 7 is_stmt 1 view .LVU133
 481              	.LBB83:
 482              	.LBI83:
  27:Lib/BufferedSerial/BufferedSerial.hpp ****             _useDMA = dma;
 483              		.loc 2 27 12 view .LVU134
 484              	.LBB84:
  28:Lib/BufferedSerial/BufferedSerial.hpp ****             HAL_UART_Receive_DMA(_huart, _rxBuf, _rxBufSize);
 485              		.loc 2 28 13 view .LVU135
  28:Lib/BufferedSerial/BufferedSerial.hpp ****             HAL_UART_Receive_DMA(_huart, _rxBuf, _rxBufSize);
 486              		.loc 2 28 21 is_stmt 0 view .LVU136
 487 003e 84F8B650 		strb	r5, [r4, #182]
  29:Lib/BufferedSerial/BufferedSerial.hpp ****             // printf("- Serial init\n");
 488              		.loc 2 29 13 is_stmt 1 view .LVU137
  29:Lib/BufferedSerial/BufferedSerial.hpp ****             // printf("- Serial init\n");
 489              		.loc 2 29 33 is_stmt 0 view .LVU138
 490 0042 B4F8B420 		ldrh	r2, [r4, #180]
 491 0046 D4F8AC10 		ldr	r1, [r4, #172]
 492 004a D4F8A800 		ldr	r0, [r4, #168]
 493 004e FFF7FEFF 		bl	HAL_UART_Receive_DMA
 494              	.LVL35:
  29:Lib/BufferedSerial/BufferedSerial.hpp ****             // printf("- Serial init\n");
 495              		.loc 2 29 33 view .LVU139
 496              	.LBE84:
 497              	.LBE83:
  12:src/unit/hardware/hardware.cpp ****       m1n_serial[3].init();
 498              		.loc 1 12 7 is_stmt 1 view .LVU140
 499              	.LBB85:
 500              	.LBI85:
  27:Lib/BufferedSerial/BufferedSerial.hpp ****             _useDMA = dma;
 501              		.loc 2 27 12 view .LVU141
 502              	.LBB86:
  28:Lib/BufferedSerial/BufferedSerial.hpp ****             HAL_UART_Receive_DMA(_huart, _rxBuf, _rxBufSize);
 503              		.loc 2 28 13 view .LVU142
  28:Lib/BufferedSerial/BufferedSerial.hpp ****             HAL_UART_Receive_DMA(_huart, _rxBuf, _rxBufSize);
 504              		.loc 2 28 21 is_stmt 0 view .LVU143
 505 0052 84F8C650 		strb	r5, [r4, #198]
  29:Lib/BufferedSerial/BufferedSerial.hpp ****             // printf("- Serial init\n");
 506              		.loc 2 29 13 is_stmt 1 view .LVU144
  29:Lib/BufferedSerial/BufferedSerial.hpp ****             // printf("- Serial init\n");
 507              		.loc 2 29 33 is_stmt 0 view .LVU145
 508 0056 B4F8C420 		ldrh	r2, [r4, #196]
 509 005a D4F8BC10 		ldr	r1, [r4, #188]
 510 005e D4F8B800 		ldr	r0, [r4, #184]
 511 0062 FFF7FEFF 		bl	HAL_UART_Receive_DMA
 512              	.LVL36:
  29:Lib/BufferedSerial/BufferedSerial.hpp ****             // printf("- Serial init\n");
 513              		.loc 2 29 33 view .LVU146
 514              	.LBE86:
ARM GAS  /var/folders/5c/srt4fy4j1pd641bjfx75k5000000gn/T//cckp0DMU.s 			page 13


 515              	.LBE85:
  13:src/unit/hardware/hardware.cpp ****       led1.init();
 516              		.loc 1 13 7 is_stmt 1 view .LVU147
 517              		.loc 1 13 16 is_stmt 0 view .LVU148
 518 0066 04F13800 		add	r0, r4, #56
 519 006a FFF7FEFF 		bl	_ZN12PwmSingleOut4initEv
 520              	.LVL37:
  14:src/unit/hardware/hardware.cpp ****       led2.init();
 521              		.loc 1 14 7 is_stmt 1 view .LVU149
 522              		.loc 1 14 16 is_stmt 0 view .LVU150
 523 006e 04F14800 		add	r0, r4, #72
 524 0072 FFF7FEFF 		bl	_ZN12PwmSingleOut4initEv
 525              	.LVL38:
  15:src/unit/hardware/hardware.cpp ****       led3.init();
 526              		.loc 1 15 7 is_stmt 1 view .LVU151
 527              		.loc 1 15 16 is_stmt 0 view .LVU152
 528 0076 04F15800 		add	r0, r4, #88
 529 007a FFF7FEFF 		bl	_ZN12PwmSingleOut4initEv
 530              	.LVL39:
  16:src/unit/hardware/hardware.cpp ****       led4.init();
 531              		.loc 1 16 7 is_stmt 1 view .LVU153
 532              		.loc 1 16 16 is_stmt 0 view .LVU154
 533 007e 04F16800 		add	r0, r4, #104
 534 0082 FFF7FEFF 		bl	_ZN12PwmSingleOut4initEv
 535              	.LVL40:
  17:src/unit/hardware/hardware.cpp **** }
 536              		.loc 1 17 1 view .LVU155
 537 0086 38BD     		pop	{r3, r4, r5, pc}
 538              		.loc 1 17 1 view .LVU156
 539              		.cfi_endproc
 540              	.LFE166:
 541              		.fnend
 543              		.global	__aeabi_i2d
 544              		.global	__aeabi_dmul
 545              		.global	__aeabi_dadd
 546              		.global	__aeabi_d2uiz
 547              		.section	.text._ZN8Hardware8MainUartEv,"ax",%progbits
 548              		.align	1
 549              		.global	_ZN8Hardware8MainUartEv
 550              		.syntax unified
 551              		.thumb
 552              		.thumb_func
 554              	_ZN8Hardware8MainUartEv:
 555              		.fnstart
 556              	.LVL41:
 557              	.LFB167:
  18:src/unit/hardware/hardware.cpp **** 
  19:src/unit/hardware/hardware.cpp **** void Hardware::MainUart() {
 558              		.loc 1 19 27 is_stmt 1 view -0
 559              		.cfi_startproc
 560              		@ args = 0, pretend = 0, frame = 16
 561              		@ frame_needed = 0, uses_anonymous_args = 0
 562              		.loc 1 19 27 is_stmt 0 view .LVU158
 563 0000 30B5     		push	{r4, r5, lr}
 564              		.save {r4, r5, lr}
 565              	.LCFI3:
 566              		.cfi_def_cfa_offset 12
ARM GAS  /var/folders/5c/srt4fy4j1pd641bjfx75k5000000gn/T//cckp0DMU.s 			page 14


 567              		.cfi_offset 4, -12
 568              		.cfi_offset 5, -8
 569              		.cfi_offset 14, -4
 570              		.pad #20
 571 0002 85B0     		sub	sp, sp, #20
 572              	.LCFI4:
 573              		.cfi_def_cfa_offset 32
 574 0004 0446     		mov	r4, r0
  20:src/unit/hardware/hardware.cpp ****       while (serial3.available()) info.yaw = serial3.read();
 575              		.loc 1 20 7 is_stmt 1 view .LVU159
 576 0006 04E0     		b	.L15
 577              	.LVL42:
 578              	.L16:
 579              		.loc 1 20 35 discriminator 2 view .LVU160
 580              		.loc 1 20 58 is_stmt 0 discriminator 2 view .LVU161
 581 0008 04F17800 		add	r0, r4, #120
 582 000c FFF7FEFF 		bl	_ZN14BufferedSerial4readEv
 583              	.LVL43:
 584              		.loc 1 20 44 discriminator 2 view .LVU162
 585 0010 2080     		strh	r0, [r4]	@ movhi
 586              	.L15:
 587              		.loc 1 20 31 is_stmt 1 discriminator 1 view .LVU163
 588              	.LVL44:
 589              	.LBB87:
 590              	.LBI87:
  33:Lib/BufferedSerial/BufferedSerial.hpp ****             uint16_t rxTop = _rxBufSize - _huart->hdmarx->Instance->NDTR;
 591              		.loc 2 33 12 discriminator 1 view .LVU164
 592              	.LBB88:
  34:Lib/BufferedSerial/BufferedSerial.hpp ****             return rxTop != rxBtm;
 593              		.loc 2 34 13 discriminator 1 view .LVU165
  34:Lib/BufferedSerial/BufferedSerial.hpp ****             return rxTop != rxBtm;
 594              		.loc 2 34 30 is_stmt 0 discriminator 1 view .LVU166
 595 0012 B4F88430 		ldrh	r3, [r4, #132]
  34:Lib/BufferedSerial/BufferedSerial.hpp ****             return rxTop != rxBtm;
 596              		.loc 2 34 43 discriminator 1 view .LVU167
 597 0016 A26F     		ldr	r2, [r4, #120]
  34:Lib/BufferedSerial/BufferedSerial.hpp ****             return rxTop != rxBtm;
 598              		.loc 2 34 51 discriminator 1 view .LVU168
 599 0018 D26B     		ldr	r2, [r2, #60]
  34:Lib/BufferedSerial/BufferedSerial.hpp ****             return rxTop != rxBtm;
 600              		.loc 2 34 59 discriminator 1 view .LVU169
 601 001a 1268     		ldr	r2, [r2]
  34:Lib/BufferedSerial/BufferedSerial.hpp ****             return rxTop != rxBtm;
 602              		.loc 2 34 69 discriminator 1 view .LVU170
 603 001c 5268     		ldr	r2, [r2, #4]
  34:Lib/BufferedSerial/BufferedSerial.hpp ****             return rxTop != rxBtm;
 604              		.loc 2 34 41 discriminator 1 view .LVU171
 605 001e 92B2     		uxth	r2, r2
  34:Lib/BufferedSerial/BufferedSerial.hpp ****             return rxTop != rxBtm;
 606              		.loc 2 34 69 discriminator 1 view .LVU172
 607 0020 9B1A     		subs	r3, r3, r2
 608 0022 9BB2     		uxth	r3, r3
 609              	.LVL45:
  35:Lib/BufferedSerial/BufferedSerial.hpp ****       }
 610              		.loc 2 35 13 is_stmt 1 discriminator 1 view .LVU173
  35:Lib/BufferedSerial/BufferedSerial.hpp ****       }
 611              		.loc 2 35 29 is_stmt 0 discriminator 1 view .LVU174
ARM GAS  /var/folders/5c/srt4fy4j1pd641bjfx75k5000000gn/T//cckp0DMU.s 			page 15


 612 0024 B4F88220 		ldrh	r2, [r4, #130]
 613              	.LVL46:
  35:Lib/BufferedSerial/BufferedSerial.hpp ****       }
 614              		.loc 2 35 29 discriminator 1 view .LVU175
 615              	.LBE88:
 616              	.LBE87:
 617              		.loc 1 20 31 discriminator 1 view .LVU176
 618 0028 9342     		cmp	r3, r2
 619 002a EDD1     		bne	.L16
  21:src/unit/hardware/hardware.cpp **** 
  22:src/unit/hardware/hardware.cpp ****       if (main_send_interval_timer.read_us() >= MAIN_SEND_PERIOD_US) {
 620              		.loc 1 22 7 is_stmt 1 view .LVU177
 621              	.LBB89:
 622              		.loc 1 22 43 is_stmt 0 view .LVU178
 623 002c 04F1C805 		add	r5, r4, #200
 624 0030 2846     		mov	r0, r5
 625 0032 FFF7FEFF 		bl	_ZN5Timer7read_usEv
 626              	.LVL47:
 627              		.loc 1 22 7 view .LVU179
 628 0036 B0F57A7F 		cmp	r0, #1000
 629 003a 01D2     		bcs	.L19
 630              	.L14:
 631              	.LBE89:
  23:src/unit/hardware/hardware.cpp ****             static const uint8_t HEADER = 0xFF;  // ヘッダ
  24:src/unit/hardware/hardware.cpp ****             static const uint8_t FOOTER = 0xAA;  // ヘッダ
  25:src/unit/hardware/hardware.cpp **** 
  26:src/unit/hardware/hardware.cpp ****             static const uint8_t data_size = 13;
  27:src/unit/hardware/hardware.cpp ****             uint8_t send_data[data_size];
  28:src/unit/hardware/hardware.cpp ****             send_data[0] = HEADER;
  29:src/unit/hardware/hardware.cpp ****             send_data[1] = (uint8_t)(((uint16_t)(info.Cam[0].ball_dir + 32768) & 0xFF00) >> 8);
  30:src/unit/hardware/hardware.cpp ****             send_data[2] = (uint8_t)((uint16_t)(info.Cam[0].ball_dir + 32768) & 0x00FF);
  31:src/unit/hardware/hardware.cpp ****             send_data[3] = info.Cam[0].ball_dis;
  32:src/unit/hardware/hardware.cpp ****             send_data[4] = info.yellow_goal_dir * 0.5 + 90;
  33:src/unit/hardware/hardware.cpp ****             send_data[5] = info.yellow_goal_height * 0.5 + 90;
  34:src/unit/hardware/hardware.cpp ****             send_data[6] = info.blue_goal_dir * 0.5 + 90;
  35:src/unit/hardware/hardware.cpp ****             send_data[7] = info.blue_goal_height * 0.5 + 90;
  36:src/unit/hardware/hardware.cpp ****             send_data[8] = info.is_goal_front;
  37:src/unit/hardware/hardware.cpp ****             send_data[9] = info.own_x + 127;
  38:src/unit/hardware/hardware.cpp ****             send_data[10] = info.own_y + 127;
  39:src/unit/hardware/hardware.cpp ****             send_data[11] = info.Cam[0].proximity;
  40:src/unit/hardware/hardware.cpp ****             send_data[12] = FOOTER;
  41:src/unit/hardware/hardware.cpp ****             serial3.write(send_data, data_size);
  42:src/unit/hardware/hardware.cpp **** 
  43:src/unit/hardware/hardware.cpp ****             main_send_interval_timer.reset();
  44:src/unit/hardware/hardware.cpp ****       }
  45:src/unit/hardware/hardware.cpp **** }
 632              		.loc 1 45 1 view .LVU180
 633 003c 05B0     		add	sp, sp, #20
 634              	.LCFI5:
 635              		.cfi_remember_state
 636              		.cfi_def_cfa_offset 12
 637              		@ sp needed
 638 003e 30BD     		pop	{r4, r5, pc}
 639              	.LVL48:
 640              	.L19:
 641              	.LCFI6:
 642              		.cfi_restore_state
ARM GAS  /var/folders/5c/srt4fy4j1pd641bjfx75k5000000gn/T//cckp0DMU.s 			page 16


 643              	.LBB93:
 644              	.LBB90:
  23:src/unit/hardware/hardware.cpp ****             static const uint8_t HEADER = 0xFF;  // ヘッダ
 645              		.loc 1 23 13 is_stmt 1 view .LVU181
  24:src/unit/hardware/hardware.cpp **** 
 646              		.loc 1 24 13 view .LVU182
  26:src/unit/hardware/hardware.cpp ****             uint8_t send_data[data_size];
 647              		.loc 1 26 13 view .LVU183
  27:src/unit/hardware/hardware.cpp ****             send_data[0] = HEADER;
 648              		.loc 1 27 13 view .LVU184
  28:src/unit/hardware/hardware.cpp ****             send_data[1] = (uint8_t)(((uint16_t)(info.Cam[0].ball_dir + 32768) & 0xFF00) >> 8);
 649              		.loc 1 28 13 view .LVU185
  28:src/unit/hardware/hardware.cpp ****             send_data[1] = (uint8_t)(((uint16_t)(info.Cam[0].ball_dir + 32768) & 0xFF00) >> 8);
 650              		.loc 1 28 26 is_stmt 0 view .LVU186
 651 0040 FF23     		movs	r3, #255
 652 0042 8DF80030 		strb	r3, [sp]
  29:src/unit/hardware/hardware.cpp ****             send_data[2] = (uint8_t)((uint16_t)(info.Cam[0].ball_dir + 32768) & 0x00FF);
 653              		.loc 1 29 13 is_stmt 1 view .LVU187
  29:src/unit/hardware/hardware.cpp ****             send_data[2] = (uint8_t)((uint16_t)(info.Cam[0].ball_dir + 32768) & 0x00FF);
 654              		.loc 1 29 62 is_stmt 0 view .LVU188
 655 0046 A378     		ldrb	r3, [r4, #2]	@ zero_extendqisi2
  29:src/unit/hardware/hardware.cpp ****             send_data[2] = (uint8_t)((uint16_t)(info.Cam[0].ball_dir + 32768) & 0x00FF);
 656              		.loc 1 29 90 view .LVU189
 657 0048 8022     		movs	r2, #128
  29:src/unit/hardware/hardware.cpp ****             send_data[2] = (uint8_t)((uint16_t)(info.Cam[0].ball_dir + 32768) & 0x00FF);
 658              		.loc 1 29 26 view .LVU190
 659 004a 8DF80120 		strb	r2, [sp, #1]
  30:src/unit/hardware/hardware.cpp ****             send_data[3] = info.Cam[0].ball_dis;
 660              		.loc 1 30 13 is_stmt 1 view .LVU191
  30:src/unit/hardware/hardware.cpp ****             send_data[3] = info.Cam[0].ball_dis;
 661              		.loc 1 30 26 is_stmt 0 view .LVU192
 662 004e 8DF80230 		strb	r3, [sp, #2]
  31:src/unit/hardware/hardware.cpp ****             send_data[4] = info.yellow_goal_dir * 0.5 + 90;
 663              		.loc 1 31 13 is_stmt 1 view .LVU193
  31:src/unit/hardware/hardware.cpp ****             send_data[4] = info.yellow_goal_dir * 0.5 + 90;
 664              		.loc 1 31 40 is_stmt 0 view .LVU194
 665 0052 E378     		ldrb	r3, [r4, #3]	@ zero_extendqisi2
  31:src/unit/hardware/hardware.cpp ****             send_data[4] = info.yellow_goal_dir * 0.5 + 90;
 666              		.loc 1 31 26 view .LVU195
 667 0054 8DF80330 		strb	r3, [sp, #3]
  32:src/unit/hardware/hardware.cpp ****             send_data[5] = info.yellow_goal_height * 0.5 + 90;
 668              		.loc 1 32 13 is_stmt 1 view .LVU196
  32:src/unit/hardware/hardware.cpp ****             send_data[5] = info.yellow_goal_height * 0.5 + 90;
 669              		.loc 1 32 49 is_stmt 0 view .LVU197
 670 0058 B4F92A00 		ldrsh	r0, [r4, #42]
 671 005c FFF7FEFF 		bl	__aeabi_i2d
 672              	.LVL49:
 673 0060 0022     		movs	r2, #0
 674 0062 2C4B     		ldr	r3, .L20
 675 0064 FFF7FEFF 		bl	__aeabi_dmul
 676              	.LVL50:
  32:src/unit/hardware/hardware.cpp ****             send_data[5] = info.yellow_goal_height * 0.5 + 90;
 677              		.loc 1 32 55 view .LVU198
 678 0068 0022     		movs	r2, #0
 679 006a 2B4B     		ldr	r3, .L20+4
 680 006c FFF7FEFF 		bl	__aeabi_dadd
 681              	.LVL51:
ARM GAS  /var/folders/5c/srt4fy4j1pd641bjfx75k5000000gn/T//cckp0DMU.s 			page 17


  32:src/unit/hardware/hardware.cpp ****             send_data[5] = info.yellow_goal_height * 0.5 + 90;
 682              		.loc 1 32 26 view .LVU199
 683 0070 FFF7FEFF 		bl	__aeabi_d2uiz
 684              	.LVL52:
 685 0074 8DF80400 		strb	r0, [sp, #4]
  33:src/unit/hardware/hardware.cpp ****             send_data[6] = info.blue_goal_dir * 0.5 + 90;
 686              		.loc 1 33 13 is_stmt 1 view .LVU200
  33:src/unit/hardware/hardware.cpp ****             send_data[6] = info.blue_goal_dir * 0.5 + 90;
 687              		.loc 1 33 52 is_stmt 0 view .LVU201
 688 0078 B4F92C00 		ldrsh	r0, [r4, #44]
 689 007c FFF7FEFF 		bl	__aeabi_i2d
 690              	.LVL53:
 691 0080 0022     		movs	r2, #0
 692 0082 244B     		ldr	r3, .L20
 693 0084 FFF7FEFF 		bl	__aeabi_dmul
 694              	.LVL54:
  33:src/unit/hardware/hardware.cpp ****             send_data[6] = info.blue_goal_dir * 0.5 + 90;
 695              		.loc 1 33 58 view .LVU202
 696 0088 0022     		movs	r2, #0
 697 008a 234B     		ldr	r3, .L20+4
 698 008c FFF7FEFF 		bl	__aeabi_dadd
 699              	.LVL55:
  33:src/unit/hardware/hardware.cpp ****             send_data[6] = info.blue_goal_dir * 0.5 + 90;
 700              		.loc 1 33 26 view .LVU203
 701 0090 FFF7FEFF 		bl	__aeabi_d2uiz
 702              	.LVL56:
 703 0094 8DF80500 		strb	r0, [sp, #5]
  34:src/unit/hardware/hardware.cpp ****             send_data[7] = info.blue_goal_height * 0.5 + 90;
 704              		.loc 1 34 13 is_stmt 1 view .LVU204
  34:src/unit/hardware/hardware.cpp ****             send_data[7] = info.blue_goal_height * 0.5 + 90;
 705              		.loc 1 34 47 is_stmt 0 view .LVU205
 706 0098 B4F92E00 		ldrsh	r0, [r4, #46]
 707 009c FFF7FEFF 		bl	__aeabi_i2d
 708              	.LVL57:
 709 00a0 0022     		movs	r2, #0
 710 00a2 1C4B     		ldr	r3, .L20
 711 00a4 FFF7FEFF 		bl	__aeabi_dmul
 712              	.LVL58:
  34:src/unit/hardware/hardware.cpp ****             send_data[7] = info.blue_goal_height * 0.5 + 90;
 713              		.loc 1 34 53 view .LVU206
 714 00a8 0022     		movs	r2, #0
 715 00aa 1B4B     		ldr	r3, .L20+4
 716 00ac FFF7FEFF 		bl	__aeabi_dadd
 717              	.LVL59:
  34:src/unit/hardware/hardware.cpp ****             send_data[7] = info.blue_goal_height * 0.5 + 90;
 718              		.loc 1 34 26 view .LVU207
 719 00b0 FFF7FEFF 		bl	__aeabi_d2uiz
 720              	.LVL60:
 721 00b4 8DF80600 		strb	r0, [sp, #6]
  35:src/unit/hardware/hardware.cpp ****             send_data[8] = info.is_goal_front;
 722              		.loc 1 35 13 is_stmt 1 view .LVU208
  35:src/unit/hardware/hardware.cpp ****             send_data[8] = info.is_goal_front;
 723              		.loc 1 35 50 is_stmt 0 view .LVU209
 724 00b8 B4F93000 		ldrsh	r0, [r4, #48]
 725 00bc FFF7FEFF 		bl	__aeabi_i2d
 726              	.LVL61:
 727 00c0 0022     		movs	r2, #0
ARM GAS  /var/folders/5c/srt4fy4j1pd641bjfx75k5000000gn/T//cckp0DMU.s 			page 18


 728 00c2 144B     		ldr	r3, .L20
 729 00c4 FFF7FEFF 		bl	__aeabi_dmul
 730              	.LVL62:
  35:src/unit/hardware/hardware.cpp ****             send_data[8] = info.is_goal_front;
 731              		.loc 1 35 56 view .LVU210
 732 00c8 0022     		movs	r2, #0
 733 00ca 134B     		ldr	r3, .L20+4
 734 00cc FFF7FEFF 		bl	__aeabi_dadd
 735              	.LVL63:
  35:src/unit/hardware/hardware.cpp ****             send_data[8] = info.is_goal_front;
 736              		.loc 1 35 26 view .LVU211
 737 00d0 FFF7FEFF 		bl	__aeabi_d2uiz
 738              	.LVL64:
 739 00d4 8DF80700 		strb	r0, [sp, #7]
  36:src/unit/hardware/hardware.cpp ****             send_data[9] = info.own_x + 127;
 740              		.loc 1 36 13 is_stmt 1 view .LVU212
  36:src/unit/hardware/hardware.cpp ****             send_data[9] = info.own_x + 127;
 741              		.loc 1 36 33 is_stmt 0 view .LVU213
 742 00d8 94F83430 		ldrb	r3, [r4, #52]	@ zero_extendqisi2
  36:src/unit/hardware/hardware.cpp ****             send_data[9] = info.own_x + 127;
 743              		.loc 1 36 26 view .LVU214
 744 00dc 8DF80830 		strb	r3, [sp, #8]
  37:src/unit/hardware/hardware.cpp ****             send_data[10] = info.own_y + 127;
 745              		.loc 1 37 13 is_stmt 1 view .LVU215
  37:src/unit/hardware/hardware.cpp ****             send_data[10] = info.own_y + 127;
 746              		.loc 1 37 33 is_stmt 0 view .LVU216
 747 00e0 94F83230 		ldrb	r3, [r4, #50]	@ zero_extendqisi2
  37:src/unit/hardware/hardware.cpp ****             send_data[10] = info.own_y + 127;
 748              		.loc 1 37 39 view .LVU217
 749 00e4 7F33     		adds	r3, r3, #127
  37:src/unit/hardware/hardware.cpp ****             send_data[10] = info.own_y + 127;
 750              		.loc 1 37 26 view .LVU218
 751 00e6 8DF80930 		strb	r3, [sp, #9]
  38:src/unit/hardware/hardware.cpp ****             send_data[11] = info.Cam[0].proximity;
 752              		.loc 1 38 13 is_stmt 1 view .LVU219
  38:src/unit/hardware/hardware.cpp ****             send_data[11] = info.Cam[0].proximity;
 753              		.loc 1 38 34 is_stmt 0 view .LVU220
 754 00ea 94F83330 		ldrb	r3, [r4, #51]	@ zero_extendqisi2
  38:src/unit/hardware/hardware.cpp ****             send_data[11] = info.Cam[0].proximity;
 755              		.loc 1 38 40 view .LVU221
 756 00ee 7F33     		adds	r3, r3, #127
  38:src/unit/hardware/hardware.cpp ****             send_data[11] = info.Cam[0].proximity;
 757              		.loc 1 38 27 view .LVU222
 758 00f0 8DF80A30 		strb	r3, [sp, #10]
  39:src/unit/hardware/hardware.cpp ****             send_data[12] = FOOTER;
 759              		.loc 1 39 13 is_stmt 1 view .LVU223
  39:src/unit/hardware/hardware.cpp ****             send_data[12] = FOOTER;
 760              		.loc 1 39 41 is_stmt 0 view .LVU224
 761 00f4 637A     		ldrb	r3, [r4, #9]	@ zero_extendqisi2
  39:src/unit/hardware/hardware.cpp ****             send_data[12] = FOOTER;
 762              		.loc 1 39 27 view .LVU225
 763 00f6 8DF80B30 		strb	r3, [sp, #11]
  40:src/unit/hardware/hardware.cpp ****             serial3.write(send_data, data_size);
 764              		.loc 1 40 13 is_stmt 1 view .LVU226
  40:src/unit/hardware/hardware.cpp ****             serial3.write(send_data, data_size);
 765              		.loc 1 40 27 is_stmt 0 view .LVU227
 766 00fa AA23     		movs	r3, #170
ARM GAS  /var/folders/5c/srt4fy4j1pd641bjfx75k5000000gn/T//cckp0DMU.s 			page 19


 767 00fc 8DF80C30 		strb	r3, [sp, #12]
  41:src/unit/hardware/hardware.cpp **** 
 768              		.loc 1 41 13 is_stmt 1 view .LVU228
 769              	.LVL65:
 770              	.LBB91:
 771              	.LBI91:
  48:Lib/BufferedSerial/BufferedSerial.hpp **** 
  49:Lib/BufferedSerial/BufferedSerial.hpp ****       void write(uint8_t data) {
  50:Lib/BufferedSerial/BufferedSerial.hpp ****             HAL_UART_Transmit(_huart, &data, 1, 100);
  51:Lib/BufferedSerial/BufferedSerial.hpp ****       }
  52:Lib/BufferedSerial/BufferedSerial.hpp **** 
  53:Lib/BufferedSerial/BufferedSerial.hpp ****       void write(const uint8_t *data, uint16_t len) {
 772              		.loc 2 53 12 view .LVU229
 773              	.LBB92:
  54:Lib/BufferedSerial/BufferedSerial.hpp ****             HAL_UART_Transmit(_huart, (uint8_t *)data, len, 100);
 774              		.loc 2 54 13 view .LVU230
 775              		.loc 2 54 30 is_stmt 0 view .LVU231
 776 0100 6423     		movs	r3, #100
 777 0102 0D22     		movs	r2, #13
 778 0104 6946     		mov	r1, sp
 779 0106 A06F     		ldr	r0, [r4, #120]
 780 0108 FFF7FEFF 		bl	HAL_UART_Transmit
 781              	.LVL66:
 782              		.loc 2 54 30 view .LVU232
 783              	.LBE92:
 784              	.LBE91:
  43:src/unit/hardware/hardware.cpp ****       }
 785              		.loc 1 43 13 is_stmt 1 view .LVU233
  43:src/unit/hardware/hardware.cpp ****       }
 786              		.loc 1 43 43 is_stmt 0 view .LVU234
 787 010c 2846     		mov	r0, r5
 788 010e FFF7FEFF 		bl	_ZN5Timer5resetEv
 789              	.LVL67:
 790              	.LBE90:
 791              	.LBE93:
 792              		.loc 1 45 1 view .LVU235
 793 0112 93E7     		b	.L14
 794              	.L21:
 795              		.align	2
 796              	.L20:
 797 0114 0000E03F 		.word	1071644672
 798 0118 00805640 		.word	1079410688
 799              		.cfi_endproc
 800              	.LFE167:
 801              		.fnend
 803              		.section	.text._ZN8Hardware7M1nUartEv,"ax",%progbits
 804              		.align	1
 805              		.global	_ZN8Hardware7M1nUartEv
 806              		.syntax unified
 807              		.thumb
 808              		.thumb_func
 810              	_ZN8Hardware7M1nUartEv:
 811              		.fnstart
 812              	.LVL68:
 813              	.LFB168:
  46:src/unit/hardware/hardware.cpp **** 
  47:src/unit/hardware/hardware.cpp **** void Hardware::M1nUart() {
ARM GAS  /var/folders/5c/srt4fy4j1pd641bjfx75k5000000gn/T//cckp0DMU.s 			page 20


 814              		.loc 1 47 26 is_stmt 1 view -0
 815              		.cfi_startproc
 816              		@ args = 0, pretend = 0, frame = 8
 817              		@ frame_needed = 0, uses_anonymous_args = 0
 818              		.loc 1 47 26 is_stmt 0 view .LVU237
 819 0000 F0B5     		push	{r4, r5, r6, r7, lr}
 820              		.save {r4, r5, r6, r7, lr}
 821              	.LCFI7:
 822              		.cfi_def_cfa_offset 20
 823              		.cfi_offset 4, -20
 824              		.cfi_offset 5, -16
 825              		.cfi_offset 6, -12
 826              		.cfi_offset 7, -8
 827              		.cfi_offset 14, -4
 828              		.pad #12
 829 0002 83B0     		sub	sp, sp, #12
 830              	.LCFI8:
 831              		.cfi_def_cfa_offset 32
 832 0004 0546     		mov	r5, r0
  48:src/unit/hardware/hardware.cpp ****       static const uint8_t HEADER = 0xFF;      // ヘッダ
 833              		.loc 1 48 7 is_stmt 1 view .LVU238
  49:src/unit/hardware/hardware.cpp ****       static const uint8_t FOOTER = 0xAA;      // フッタ
 834              		.loc 1 49 7 view .LVU239
  50:src/unit/hardware/hardware.cpp ****       static const uint8_t data_size = 6;      // データのサイズ
 835              		.loc 1 50 7 view .LVU240
  51:src/unit/hardware/hardware.cpp ****       static uint8_t index[4] = {0, 0, 0, 0};  // 受信したデータのインデックスカウ
 836              		.loc 1 51 7 view .LVU241
  52:src/unit/hardware/hardware.cpp ****       static uint8_t recv_data[4][data_size];  // 受信したデータ
 837              		.loc 1 52 7 view .LVU242
  53:src/unit/hardware/hardware.cpp ****       static uint8_t recv_byte[4];
 838              		.loc 1 53 7 view .LVU243
  54:src/unit/hardware/hardware.cpp ****       for (uint8_t i = 0; i < 4; i++) {
 839              		.loc 1 54 7 view .LVU244
 840              	.LVL69:
 841              	.LBB94:
 842              		.loc 1 54 20 is_stmt 0 view .LVU245
 843 0006 0024     		movs	r4, #0
 844              		.loc 1 54 7 view .LVU246
 845 0008 5CE0     		b	.L23
 846              	.LVL70:
 847              	.L35:
 848              	.LBB95:
 849              	.LBB96:
 850              	.LBB97:
  55:src/unit/hardware/hardware.cpp ****             while (m1n_serial[i].available()) {
  56:src/unit/hardware/hardware.cpp ****                   recv_byte[i] = m1n_serial[i].read();
  57:src/unit/hardware/hardware.cpp ****                   if (index[i] == 0) {
  58:src/unit/hardware/hardware.cpp ****                         if (recv_byte[i] == HEADER) {
  59:src/unit/hardware/hardware.cpp ****                               index[i]++;
 851              		.loc 1 59 31 is_stmt 1 view .LVU247
 852              		.loc 1 59 39 is_stmt 0 view .LVU248
 853 000a 0133     		adds	r3, r3, #1
 854 000c 3E4A     		ldr	r2, .L38
 855 000e 9355     		strb	r3, [r2, r6]
 856 0010 0BE0     		b	.L31
 857              	.L24:
 858              	.LBE97:
ARM GAS  /var/folders/5c/srt4fy4j1pd641bjfx75k5000000gn/T//cckp0DMU.s 			page 21


 859              	.LBE96:
 860              	.LBE95:
 861              	.LBE94:
  60:src/unit/hardware/hardware.cpp ****                         } else {
  61:src/unit/hardware/hardware.cpp ****                               index[i] = 0;
  62:src/unit/hardware/hardware.cpp ****                         }
  63:src/unit/hardware/hardware.cpp ****                   } else if (index[i] == (data_size + 1)) {
 862              		.loc 1 63 26 is_stmt 1 view .LVU249
 863              	.LBB115:
 864              	.LBB113:
 865              	.LBB107:
 866              	.LBB105:
 867              	.LBB98:
 868 0012 072B     		cmp	r3, #7
 869 0014 2DD0     		beq	.L33
  64:src/unit/hardware/hardware.cpp ****                         if (recv_byte[i] == FOOTER) {
  65:src/unit/hardware/hardware.cpp ****                               uint8_t goal_dir, goal_height, is_goal_yellow;
  66:src/unit/hardware/hardware.cpp ****                               info.Cam[i].ball_dir = recv_data[i][0];
  67:src/unit/hardware/hardware.cpp ****                               info.Cam[i].ball_dis = recv_data[i][1];
  68:src/unit/hardware/hardware.cpp ****                               goal_dir = recv_data[i][2];
  69:src/unit/hardware/hardware.cpp ****                               goal_height = recv_data[i][3];
  70:src/unit/hardware/hardware.cpp ****                               is_goal_yellow = recv_data[i][4] & 1;
  71:src/unit/hardware/hardware.cpp ****                               info.Cam[i].is_goal_front = (recv_data[i][4] >> 1) & 1;
  72:src/unit/hardware/hardware.cpp ****                               info.Cam[i].wall_dis = (recv_data[i][4] >> 2) & 0b00111111;
  73:src/unit/hardware/hardware.cpp ****                               info.Cam[i].proximity = recv_data[i][5];
  74:src/unit/hardware/hardware.cpp ****                         }
  75:src/unit/hardware/hardware.cpp ****                         index[i] = 0;
  76:src/unit/hardware/hardware.cpp ****                   } else {
  77:src/unit/hardware/hardware.cpp ****                         recv_data[i][index[i] - 1] = recv_byte[i];
 870              		.loc 1 77 25 view .LVU250
 871              		.loc 1 77 47 is_stmt 0 view .LVU251
 872 0016 591E     		subs	r1, r3, #1
 873              		.loc 1 77 52 view .LVU252
 874 0018 06EB4607 		add	r7, r6, r6, lsl #1
 875 001c 3B4A     		ldr	r2, .L38+4
 876 001e 02EB4702 		add	r2, r2, r7, lsl #1
 877 0022 5054     		strb	r0, [r2, r1]
  78:src/unit/hardware/hardware.cpp ****                         index[i]++;
 878              		.loc 1 78 25 is_stmt 1 view .LVU253
 879              		.loc 1 78 33 is_stmt 0 view .LVU254
 880 0024 0133     		adds	r3, r3, #1
 881 0026 384A     		ldr	r2, .L38
 882 0028 9355     		strb	r3, [r2, r6]
 883              	.L31:
 884              		.loc 1 78 33 view .LVU255
 885              	.LBE98:
 886              	.LBE105:
 887              	.LBE107:
  55:src/unit/hardware/hardware.cpp ****                   recv_byte[i] = m1n_serial[i].read();
 888              		.loc 1 55 43 is_stmt 1 view .LVU256
  55:src/unit/hardware/hardware.cpp ****                   recv_byte[i] = m1n_serial[i].read();
 889              		.loc 1 55 31 is_stmt 0 view .LVU257
 890 002a 2646     		mov	r6, r4
 891              	.LVL71:
 892              	.LBB108:
 893              	.LBI108:
  33:Lib/BufferedSerial/BufferedSerial.hpp ****             uint16_t rxTop = _rxBufSize - _huart->hdmarx->Instance->NDTR;
ARM GAS  /var/folders/5c/srt4fy4j1pd641bjfx75k5000000gn/T//cckp0DMU.s 			page 22


 894              		.loc 2 33 12 is_stmt 1 view .LVU258
 895              	.LBB109:
  34:Lib/BufferedSerial/BufferedSerial.hpp ****             return rxTop != rxBtm;
 896              		.loc 2 34 13 view .LVU259
  34:Lib/BufferedSerial/BufferedSerial.hpp ****             return rxTop != rxBtm;
 897              		.loc 2 34 30 is_stmt 0 view .LVU260
 898 002c 04F10902 		add	r2, r4, #9
 899 0030 05EB0212 		add	r2, r5, r2, lsl #4
 900 0034 9388     		ldrh	r3, [r2, #4]
  34:Lib/BufferedSerial/BufferedSerial.hpp ****             return rxTop != rxBtm;
 901              		.loc 2 34 43 view .LVU261
 902 0036 05EB0411 		add	r1, r5, r4, lsl #4
 903 003a D1F88810 		ldr	r1, [r1, #136]
  34:Lib/BufferedSerial/BufferedSerial.hpp ****             return rxTop != rxBtm;
 904              		.loc 2 34 51 view .LVU262
 905 003e C96B     		ldr	r1, [r1, #60]
  34:Lib/BufferedSerial/BufferedSerial.hpp ****             return rxTop != rxBtm;
 906              		.loc 2 34 59 view .LVU263
 907 0040 0968     		ldr	r1, [r1]
  34:Lib/BufferedSerial/BufferedSerial.hpp ****             return rxTop != rxBtm;
 908              		.loc 2 34 69 view .LVU264
 909 0042 4968     		ldr	r1, [r1, #4]
  34:Lib/BufferedSerial/BufferedSerial.hpp ****             return rxTop != rxBtm;
 910              		.loc 2 34 41 view .LVU265
 911 0044 89B2     		uxth	r1, r1
  34:Lib/BufferedSerial/BufferedSerial.hpp ****             return rxTop != rxBtm;
 912              		.loc 2 34 69 view .LVU266
 913 0046 5B1A     		subs	r3, r3, r1
 914 0048 9BB2     		uxth	r3, r3
 915              	.LVL72:
  35:Lib/BufferedSerial/BufferedSerial.hpp ****       }
 916              		.loc 2 35 13 is_stmt 1 view .LVU267
  35:Lib/BufferedSerial/BufferedSerial.hpp ****       }
 917              		.loc 2 35 29 is_stmt 0 view .LVU268
 918 004a 5288     		ldrh	r2, [r2, #2]
 919              	.LVL73:
  35:Lib/BufferedSerial/BufferedSerial.hpp ****       }
 920              		.loc 2 35 29 view .LVU269
 921              	.LBE109:
 922              	.LBE108:
  55:src/unit/hardware/hardware.cpp ****                   recv_byte[i] = m1n_serial[i].read();
 923              		.loc 1 55 43 view .LVU270
 924 004c 9342     		cmp	r3, r2
 925 004e 2CD0     		beq	.L34
 926              	.LBB110:
  56:src/unit/hardware/hardware.cpp ****                   if (index[i] == 0) {
 927              		.loc 1 56 19 is_stmt 1 view .LVU271
  56:src/unit/hardware/hardware.cpp ****                   if (index[i] == 0) {
 928              		.loc 1 56 52 is_stmt 0 view .LVU272
 929 0050 2001     		lsls	r0, r4, #4
 930 0052 8830     		adds	r0, r0, #136
 931 0054 2844     		add	r0, r0, r5
 932 0056 FFF7FEFF 		bl	_ZN14BufferedSerial4readEv
 933              	.LVL74:
  56:src/unit/hardware/hardware.cpp ****                   if (index[i] == 0) {
 934              		.loc 1 56 32 view .LVU273
 935 005a 2D4B     		ldr	r3, .L38+8
ARM GAS  /var/folders/5c/srt4fy4j1pd641bjfx75k5000000gn/T//cckp0DMU.s 			page 23


 936 005c 1855     		strb	r0, [r3, r4]
  57:src/unit/hardware/hardware.cpp ****                         if (recv_byte[i] == HEADER) {
 937              		.loc 1 57 19 is_stmt 1 view .LVU274
 938              	.LBB106:
  57:src/unit/hardware/hardware.cpp ****                         if (recv_byte[i] == HEADER) {
 939              		.loc 1 57 30 is_stmt 0 view .LVU275
 940 005e 2A4B     		ldr	r3, .L38
 941 0060 1B5D     		ldrb	r3, [r3, r4]	@ zero_extendqisi2
  57:src/unit/hardware/hardware.cpp ****                         if (recv_byte[i] == HEADER) {
 942              		.loc 1 57 19 view .LVU276
 943 0062 002B     		cmp	r3, #0
 944 0064 D5D1     		bne	.L24
  58:src/unit/hardware/hardware.cpp ****                               index[i]++;
 945              		.loc 1 58 25 is_stmt 1 view .LVU277
 946 0066 FF28     		cmp	r0, #255
 947 0068 CFD0     		beq	.L35
  61:src/unit/hardware/hardware.cpp ****                         }
 948              		.loc 1 61 31 view .LVU278
  61:src/unit/hardware/hardware.cpp ****                         }
 949              		.loc 1 61 40 is_stmt 0 view .LVU279
 950 006a 274B     		ldr	r3, .L38
 951 006c 0022     		movs	r2, #0
 952 006e 9A55     		strb	r2, [r3, r6]
 953 0070 DBE7     		b	.L31
 954              	.L33:
 955              	.LBB104:
 956              	.LBB99:
  64:src/unit/hardware/hardware.cpp ****                               uint8_t goal_dir, goal_height, is_goal_yellow;
 957              		.loc 1 64 25 is_stmt 1 view .LVU280
 958              	.LBB100:
 959 0072 AA28     		cmp	r0, #170
 960 0074 03D0     		beq	.L36
 961              	.L28:
 962              	.LBE100:
  75:src/unit/hardware/hardware.cpp ****                   } else {
 963              		.loc 1 75 25 view .LVU281
  75:src/unit/hardware/hardware.cpp ****                   } else {
 964              		.loc 1 75 34 is_stmt 0 view .LVU282
 965 0076 244B     		ldr	r3, .L38
 966 0078 0022     		movs	r2, #0
 967 007a 9A55     		strb	r2, [r3, r6]
 968              	.LBE99:
 969 007c D5E7     		b	.L31
 970              	.L36:
 971              	.LBB103:
 972              	.LBB102:
 973              	.LBB101:
  65:src/unit/hardware/hardware.cpp ****                               info.Cam[i].ball_dir = recv_data[i][0];
 974              		.loc 1 65 31 is_stmt 1 view .LVU283
  66:src/unit/hardware/hardware.cpp ****                               info.Cam[i].ball_dis = recv_data[i][1];
 975              		.loc 1 66 31 view .LVU284
  66:src/unit/hardware/hardware.cpp ****                               info.Cam[i].ball_dis = recv_data[i][1];
 976              		.loc 1 66 68 is_stmt 0 view .LVU285
 977 007e 234B     		ldr	r3, .L38+4
 978 0080 06EB4602 		add	r2, r6, r6, lsl #1
 979 0084 03EB4201 		add	r1, r3, r2, lsl #1
 980 0088 13F81220 		ldrb	r2, [r3, r2, lsl #1]	@ zero_extendqisi2
ARM GAS  /var/folders/5c/srt4fy4j1pd641bjfx75k5000000gn/T//cckp0DMU.s 			page 24


  66:src/unit/hardware/hardware.cpp ****                               info.Cam[i].ball_dis = recv_data[i][1];
 981              		.loc 1 66 52 view .LVU286
 982 008c 06EBC603 		add	r3, r6, r6, lsl #3
 983 0090 2B44     		add	r3, r3, r5
 984 0092 9A70     		strb	r2, [r3, #2]
  67:src/unit/hardware/hardware.cpp ****                               goal_dir = recv_data[i][2];
 985              		.loc 1 67 31 is_stmt 1 view .LVU287
  67:src/unit/hardware/hardware.cpp ****                               goal_dir = recv_data[i][2];
 986              		.loc 1 67 68 is_stmt 0 view .LVU288
 987 0094 4A78     		ldrb	r2, [r1, #1]	@ zero_extendqisi2
  67:src/unit/hardware/hardware.cpp ****                               goal_dir = recv_data[i][2];
 988              		.loc 1 67 52 view .LVU289
 989 0096 DA70     		strb	r2, [r3, #3]
  68:src/unit/hardware/hardware.cpp ****                               goal_height = recv_data[i][3];
 990              		.loc 1 68 31 is_stmt 1 view .LVU290
 991              	.LVL75:
  69:src/unit/hardware/hardware.cpp ****                               is_goal_yellow = recv_data[i][4] & 1;
 992              		.loc 1 69 31 view .LVU291
  70:src/unit/hardware/hardware.cpp ****                               info.Cam[i].is_goal_front = (recv_data[i][4] >> 1) & 1;
 993              		.loc 1 70 31 view .LVU292
  70:src/unit/hardware/hardware.cpp ****                               info.Cam[i].is_goal_front = (recv_data[i][4] >> 1) & 1;
 994              		.loc 1 70 62 is_stmt 0 view .LVU293
 995 0098 0A79     		ldrb	r2, [r1, #4]	@ zero_extendqisi2
 996              	.LVL76:
  71:src/unit/hardware/hardware.cpp ****                               info.Cam[i].wall_dis = (recv_data[i][4] >> 2) & 0b00111111;
 997              		.loc 1 71 31 is_stmt 1 view .LVU294
  71:src/unit/hardware/hardware.cpp ****                               info.Cam[i].wall_dis = (recv_data[i][4] >> 2) & 0b00111111;
 998              		.loc 1 71 82 is_stmt 0 view .LVU295
 999 009a C2F34000 		ubfx	r0, r2, #1, #1
  71:src/unit/hardware/hardware.cpp ****                               info.Cam[i].wall_dis = (recv_data[i][4] >> 2) & 0b00111111;
 1000              		.loc 1 71 57 view .LVU296
 1001 009e 9872     		strb	r0, [r3, #10]
  72:src/unit/hardware/hardware.cpp ****                               info.Cam[i].proximity = recv_data[i][5];
 1002              		.loc 1 72 31 is_stmt 1 view .LVU297
  72:src/unit/hardware/hardware.cpp ****                               info.Cam[i].proximity = recv_data[i][5];
 1003              		.loc 1 72 71 is_stmt 0 view .LVU298
 1004 00a0 9208     		lsrs	r2, r2, #2
 1005              	.LVL77:
  72:src/unit/hardware/hardware.cpp ****                               info.Cam[i].proximity = recv_data[i][5];
 1006              		.loc 1 72 52 view .LVU299
 1007 00a2 1A72     		strb	r2, [r3, #8]
  73:src/unit/hardware/hardware.cpp ****                         }
 1008              		.loc 1 73 31 is_stmt 1 view .LVU300
  73:src/unit/hardware/hardware.cpp ****                         }
 1009              		.loc 1 73 69 is_stmt 0 view .LVU301
 1010 00a4 4A79     		ldrb	r2, [r1, #5]	@ zero_extendqisi2
  73:src/unit/hardware/hardware.cpp ****                         }
 1011              		.loc 1 73 53 view .LVU302
 1012 00a6 5A72     		strb	r2, [r3, #9]
 1013              	.LBE101:
 1014 00a8 E5E7     		b	.L28
 1015              	.LVL78:
 1016              	.L34:
  73:src/unit/hardware/hardware.cpp ****                         }
 1017              		.loc 1 73 53 view .LVU303
 1018              	.LBE102:
 1019              	.LBE103:
ARM GAS  /var/folders/5c/srt4fy4j1pd641bjfx75k5000000gn/T//cckp0DMU.s 			page 25


 1020              	.LBE104:
 1021              	.LBE106:
 1022              	.LBE110:
  79:src/unit/hardware/hardware.cpp ****                   }
  80:src/unit/hardware/hardware.cpp ****             }
  81:src/unit/hardware/hardware.cpp **** 
  82:src/unit/hardware/hardware.cpp ****             if (m1n_send_interval_timer[i].read_us() >= CAM_SEND_PERIOD_US) {
 1023              		.loc 1 82 13 is_stmt 1 view .LVU304
 1024              		.loc 1 82 51 is_stmt 0 view .LVU305
 1025 00aa 04F13207 		add	r7, r4, #50
 1026 00ae 05EB8707 		add	r7, r5, r7, lsl #2
 1027 00b2 0437     		adds	r7, r7, #4
 1028 00b4 3846     		mov	r0, r7
 1029 00b6 FFF7FEFF 		bl	_ZN5Timer7read_usEv
 1030              	.LVL79:
 1031              		.loc 1 82 13 view .LVU306
 1032 00ba B0F57A7F 		cmp	r0, #1000
 1033 00be 05D2     		bcs	.L37
 1034              	.L30:
 1035              	.LBE113:
  54:src/unit/hardware/hardware.cpp ****             while (m1n_serial[i].available()) {
 1036              		.loc 1 54 7 is_stmt 1 discriminator 2 view .LVU307
 1037 00c0 0134     		adds	r4, r4, #1
 1038              	.LVL80:
  54:src/unit/hardware/hardware.cpp ****             while (m1n_serial[i].available()) {
 1039              		.loc 1 54 7 is_stmt 0 discriminator 2 view .LVU308
 1040 00c2 E4B2     		uxtb	r4, r4
 1041              	.LVL81:
 1042              	.L23:
  54:src/unit/hardware/hardware.cpp ****             while (m1n_serial[i].available()) {
 1043              		.loc 1 54 29 is_stmt 1 discriminator 1 view .LVU309
 1044 00c4 032C     		cmp	r4, #3
 1045 00c6 B0D9     		bls	.L31
 1046              	.LBE115:
  83:src/unit/hardware/hardware.cpp ****                   m1n_serial[i].write(info.yaw * 0.5 + 90);
  84:src/unit/hardware/hardware.cpp ****                   m1n_send_interval_timer[i].reset();
  85:src/unit/hardware/hardware.cpp ****             }
  86:src/unit/hardware/hardware.cpp ****       }
  87:src/unit/hardware/hardware.cpp **** }...
 1047              		.loc 1 87 1 is_stmt 0 view .LVU310
 1048 00c8 03B0     		add	sp, sp, #12
 1049              	.LCFI9:
 1050              		.cfi_remember_state
 1051              		.cfi_def_cfa_offset 20
 1052              		@ sp needed
 1053 00ca F0BD     		pop	{r4, r5, r6, r7, pc}
 1054              	.LVL82:
 1055              	.L37:
 1056              	.LCFI10:
 1057              		.cfi_restore_state
 1058              	.LBB116:
 1059              	.LBB114:
  83:src/unit/hardware/hardware.cpp ****                   m1n_serial[i].write(info.yaw * 0.5 + 90);
 1060              		.loc 1 83 19 is_stmt 1 view .LVU311
  83:src/unit/hardware/hardware.cpp ****                   m1n_serial[i].write(info.yaw * 0.5 + 90);
 1061              		.loc 1 83 48 is_stmt 0 view .LVU312
 1062 00cc B5F90000 		ldrsh	r0, [r5]
ARM GAS  /var/folders/5c/srt4fy4j1pd641bjfx75k5000000gn/T//cckp0DMU.s 			page 26


 1063 00d0 FFF7FEFF 		bl	__aeabi_i2d
 1064              	.LVL83:
 1065 00d4 0022     		movs	r2, #0
 1066 00d6 0F4B     		ldr	r3, .L38+12
 1067 00d8 FFF7FEFF 		bl	__aeabi_dmul
 1068              	.LVL84:
  83:src/unit/hardware/hardware.cpp ****                   m1n_serial[i].write(info.yaw * 0.5 + 90);
 1069              		.loc 1 83 54 view .LVU313
 1070 00dc 0022     		movs	r2, #0
 1071 00de 0E4B     		ldr	r3, .L38+16
 1072 00e0 FFF7FEFF 		bl	__aeabi_dadd
 1073              	.LVL85:
  83:src/unit/hardware/hardware.cpp ****                   m1n_serial[i].write(info.yaw * 0.5 + 90);
 1074              		.loc 1 83 38 view .LVU314
 1075 00e4 FFF7FEFF 		bl	__aeabi_d2uiz
 1076              	.LVL86:
  83:src/unit/hardware/hardware.cpp ****                   m1n_serial[i].write(info.yaw * 0.5 + 90);
 1077              		.loc 1 83 38 view .LVU315
 1078 00e8 8DF80700 		strb	r0, [sp, #7]
 1079              	.LVL87:
 1080              	.LBB111:
 1081              	.LBI111:
  49:Lib/BufferedSerial/BufferedSerial.hpp ****             HAL_UART_Transmit(_huart, &data, 1, 100);
 1082              		.loc 2 49 12 is_stmt 1 view .LVU316
 1083              	.LBB112:
  50:Lib/BufferedSerial/BufferedSerial.hpp ****       }
 1084              		.loc 2 50 13 view .LVU317
  50:Lib/BufferedSerial/BufferedSerial.hpp ****       }
 1085              		.loc 2 50 30 is_stmt 0 view .LVU318
 1086 00ec 05EB0416 		add	r6, r5, r4, lsl #4
 1087 00f0 6423     		movs	r3, #100
 1088 00f2 0122     		movs	r2, #1
 1089 00f4 0DF10701 		add	r1, sp, #7
 1090 00f8 D6F88800 		ldr	r0, [r6, #136]
 1091              	.LVL88:
  50:Lib/BufferedSerial/BufferedSerial.hpp ****       }
 1092              		.loc 2 50 30 view .LVU319
 1093 00fc FFF7FEFF 		bl	HAL_UART_Transmit
 1094              	.LVL89:
  50:Lib/BufferedSerial/BufferedSerial.hpp ****       }
 1095              		.loc 2 50 30 view .LVU320
 1096              	.LBE112:
 1097              	.LBE111:
  84:src/unit/hardware/hardware.cpp ****                   m1n_send_interval_timer[i].reset();
 1098              		.loc 1 84 19 is_stmt 1 view .LVU321
  84:src/unit/hardware/hardware.cpp ****                   m1n_send_interval_timer[i].reset();
 1099              		.loc 1 84 51 is_stmt 0 view .LVU322
 1100 0100 3846     		mov	r0, r7
 1101 0102 FFF7FEFF 		bl	_ZN5Timer5resetEv
 1102              	.LVL90:
 1103 0106 DBE7     		b	.L30
 1104              	.L39:
 1105              		.align	2
 1106              	.L38:
 1107 0108 00000000 		.word	_ZZN8Hardware7M1nUartEvE5index
 1108 010c 00000000 		.word	_ZZN8Hardware7M1nUartEvE9recv_data
 1109 0110 00000000 		.word	_ZZN8Hardware7M1nUartEvE9recv_byte
ARM GAS  /var/folders/5c/srt4fy4j1pd641bjfx75k5000000gn/T//cckp0DMU.s 			page 27


 1110 0114 0000E03F 		.word	1071644672
 1111 0118 00805640 		.word	1079410688
 1112              	.LBE114:
 1113              	.LBE116:
 1114              		.cfi_endproc
 1115              	.LFE168:
 1116              		.fnend
 1118              		.section	.bss._ZZN8Hardware7M1nUartEvE9recv_byte,"aw",%nobits
 1119              		.align	2
 1122              	_ZZN8Hardware7M1nUartEvE9recv_byte:
 1123 0000 00000000 		.space	4
 1124              		.section	.bss._ZZN8Hardware7M1nUartEvE9recv_data,"aw",%nobits
 1125              		.align	2
 1128              	_ZZN8Hardware7M1nUartEvE9recv_data:
 1129 0000 00000000 		.space	24
 1129      00000000 
 1129      00000000 
 1129      00000000 
 1129      00000000 
 1130              		.section	.bss._ZZN8Hardware7M1nUartEvE5index,"aw",%nobits
 1131              		.align	2
 1134              	_ZZN8Hardware7M1nUartEvE5index:
 1135 0000 00000000 		.space	4
 1136              		.text
 1137              	.Letext0:
 1138              		.file 4 "/opt/ST/STM32CubeCLT_1.16.0/GNU-tools-for-STM32/arm-none-eabi/include/machine/_default_ty
 1139              		.file 5 "/opt/ST/STM32CubeCLT_1.16.0/GNU-tools-for-STM32/lib/gcc/arm-none-eabi/12.3.1/include/stdd
 1140              		.file 6 "/opt/ST/STM32CubeCLT_1.16.0/GNU-tools-for-STM32/arm-none-eabi/include/sys/_types.h"
 1141              		.file 7 "/opt/ST/STM32CubeCLT_1.16.0/GNU-tools-for-STM32/arm-none-eabi/include/sys/reent.h"
 1142              		.file 8 "/opt/ST/STM32CubeCLT_1.16.0/GNU-tools-for-STM32/arm-none-eabi/include/sys/lock.h"
 1143              		.file 9 "/opt/ST/STM32CubeCLT_1.16.0/GNU-tools-for-STM32/arm-none-eabi/include/stdio.h"
 1144              		.file 10 "/opt/ST/STM32CubeCLT_1.16.0/GNU-tools-for-STM32/arm-none-eabi/include/sys/_stdint.h"
 1145              		.file 11 "Drivers/CMSIS/Device/ST/STM32F4xx/Include/stm32f446xx.h"
 1146              		.file 12 "Drivers/STM32F4xx_HAL_Driver/Inc/stm32f4xx_hal_def.h"
 1147              		.file 13 "Drivers/STM32F4xx_HAL_Driver/Inc/stm32f4xx_hal_dma.h"
 1148              		.file 14 "Drivers/STM32F4xx_HAL_Driver/Inc/stm32f4xx_hal_tim.h"
 1149              		.file 15 "Drivers/STM32F4xx_HAL_Driver/Inc/stm32f4xx_hal_uart.h"
 1150              		.file 16 "Core/Inc/usart.h"
 1151              		.file 17 "/opt/ST/STM32CubeCLT_1.16.0/GNU-tools-for-STM32/arm-none-eabi/include/c++/12.3.1/cstdio"
 1152              		.file 18 "/opt/ST/STM32CubeCLT_1.16.0/GNU-tools-for-STM32/arm-none-eabi/include/c++/12.3.1/arm-non
 1153              		.file 19 "Core/Inc/tim.h"
 1154              		.file 20 "Lib/Timer/Timer.hpp"
 1155              		.file 21 "src/unit/hardware/hardware.hpp"
ARM GAS  /var/folders/5c/srt4fy4j1pd641bjfx75k5000000gn/T//cckp0DMU.s 			page 28


DEFINED SYMBOLS
                            *ABS*:00000000 hardware.cpp
/var/folders/5c/srt4fy4j1pd641bjfx75k5000000gn/T//cckp0DMU.s:21     .text._ZN14BufferedSerial4readEv:00000000 $t
/var/folders/5c/srt4fy4j1pd641bjfx75k5000000gn/T//cckp0DMU.s:27     .text._ZN14BufferedSerial4readEv:00000000 _ZN14BufferedSerial4readEv
.ARM.exidx.text._ZN14BufferedSerial4readEv:00000000 $d
/var/folders/5c/srt4fy4j1pd641bjfx75k5000000gn/T//cckp0DMU.s:93     .text._ZN12PwmSingleOut4initEv:00000000 $t
/var/folders/5c/srt4fy4j1pd641bjfx75k5000000gn/T//cckp0DMU.s:99     .text._ZN12PwmSingleOut4initEv:00000000 _ZN12PwmSingleOut4initEv
.ARM.exidx.text._ZN12PwmSingleOut4initEv:00000000 $d
/var/folders/5c/srt4fy4j1pd641bjfx75k5000000gn/T//cckp0DMU.s:139    .text._ZN8HardwareC2Ev:00000000 $t
/var/folders/5c/srt4fy4j1pd641bjfx75k5000000gn/T//cckp0DMU.s:145    .text._ZN8HardwareC2Ev:00000000 _ZN8HardwareC2Ev
/var/folders/5c/srt4fy4j1pd641bjfx75k5000000gn/T//cckp0DMU.s:385    .text._ZN8HardwareC2Ev:000000ec $d
 .ARM.exidx.text._ZN8HardwareC2Ev:00000000 $d
/var/folders/5c/srt4fy4j1pd641bjfx75k5000000gn/T//cckp0DMU.s:145    .text._ZN8HardwareC2Ev:00000000 _ZN8HardwareC1Ev
/var/folders/5c/srt4fy4j1pd641bjfx75k5000000gn/T//cckp0DMU.s:398    .text._ZN8Hardware4InitEv:00000000 $t
/var/folders/5c/srt4fy4j1pd641bjfx75k5000000gn/T//cckp0DMU.s:404    .text._ZN8Hardware4InitEv:00000000 _ZN8Hardware4InitEv
.ARM.exidx.text._ZN8Hardware4InitEv:00000000 $d
/var/folders/5c/srt4fy4j1pd641bjfx75k5000000gn/T//cckp0DMU.s:548    .text._ZN8Hardware8MainUartEv:00000000 $t
/var/folders/5c/srt4fy4j1pd641bjfx75k5000000gn/T//cckp0DMU.s:554    .text._ZN8Hardware8MainUartEv:00000000 _ZN8Hardware8MainUartEv
/var/folders/5c/srt4fy4j1pd641bjfx75k5000000gn/T//cckp0DMU.s:797    .text._ZN8Hardware8MainUartEv:00000114 $d
.ARM.exidx.text._ZN8Hardware8MainUartEv:00000000 $d
/var/folders/5c/srt4fy4j1pd641bjfx75k5000000gn/T//cckp0DMU.s:804    .text._ZN8Hardware7M1nUartEv:00000000 $t
/var/folders/5c/srt4fy4j1pd641bjfx75k5000000gn/T//cckp0DMU.s:810    .text._ZN8Hardware7M1nUartEv:00000000 _ZN8Hardware7M1nUartEv
/var/folders/5c/srt4fy4j1pd641bjfx75k5000000gn/T//cckp0DMU.s:1107   .text._ZN8Hardware7M1nUartEv:00000108 $d
/var/folders/5c/srt4fy4j1pd641bjfx75k5000000gn/T//cckp0DMU.s:1134   .bss._ZZN8Hardware7M1nUartEvE5index:00000000 _ZZN8Hardware7M1nUartEvE5index
/var/folders/5c/srt4fy4j1pd641bjfx75k5000000gn/T//cckp0DMU.s:1128   .bss._ZZN8Hardware7M1nUartEvE9recv_data:00000000 _ZZN8Hardware7M1nUartEvE9recv_data
/var/folders/5c/srt4fy4j1pd641bjfx75k5000000gn/T//cckp0DMU.s:1122   .bss._ZZN8Hardware7M1nUartEvE9recv_byte:00000000 _ZZN8Hardware7M1nUartEvE9recv_byte
.ARM.exidx.text._ZN8Hardware7M1nUartEv:00000000 $d
/var/folders/5c/srt4fy4j1pd641bjfx75k5000000gn/T//cckp0DMU.s:1119   .bss._ZZN8Hardware7M1nUartEvE9recv_byte:00000000 $d
/var/folders/5c/srt4fy4j1pd641bjfx75k5000000gn/T//cckp0DMU.s:1125   .bss._ZZN8Hardware7M1nUartEvE9recv_data:00000000 $d
/var/folders/5c/srt4fy4j1pd641bjfx75k5000000gn/T//cckp0DMU.s:1131   .bss._ZZN8Hardware7M1nUartEvE5index:00000000 $d

UNDEFINED SYMBOLS
HAL_TIM_PWM_Start
__aeabi_unwind_cpp_pr0
_Znaj
_ZN5TimerC1Ev
htim2
htim3
huart3
huart2
huart1
huart6
HAL_UART_Receive_DMA
__aeabi_i2d
__aeabi_dmul
__aeabi_dadd
__aeabi_d2uiz
_ZN5Timer7read_usEv
HAL_UART_Transmit
_ZN5Timer5resetEv
