ARM GAS  /var/folders/5c/srt4fy4j1pd641bjfx75k5000000gn/T//ccGANz5G.s 			page 1


   1              		.cpu cortex-m4
   2              		.arch armv7e-m
   3              		.fpu fpv4-sp-d16
   4              		.eabi_attribute 27, 1
   5              		.eabi_attribute 28, 1
   6              		.eabi_attribute 20, 1
   7              		.eabi_attribute 21, 1
   8              		.eabi_attribute 23, 3
   9              		.eabi_attribute 24, 1
  10              		.eabi_attribute 25, 1
  11              		.eabi_attribute 26, 1
  12              		.eabi_attribute 30, 1
  13              		.eabi_attribute 34, 1
  14              		.eabi_attribute 18, 4
  15              		.file	"app.cpp"
  16              		.text
  17              	.Ltext0:
  18              		.cfi_sections	.debug_frame
  19              		.file 1 "src/app/app.cpp"
  20              		.section	.text._Z41__static_initialization_and_destruction_0ii,"ax",%progbits
  21              		.align	1
  22              		.syntax unified
  23              		.thumb
  24              		.thumb_func
  26              	_Z41__static_initialization_and_destruction_0ii:
  27              		.fnstart
  28              	.LVL0:
  29              	.LFB276:
   1:src/app/app.cpp **** #include "app.h"
   2:src/app/app.cpp **** 
   3:src/app/app.cpp **** #include "mode.hpp"
   4:src/app/app.cpp **** #include "robot.hpp"
   5:src/app/app.cpp **** 
   6:src/app/app.cpp **** Robot robot;
   7:src/app/app.cpp **** Mode mode(&robot);
   8:src/app/app.cpp **** 
   9:src/app/app.cpp **** void TimInterrupt1khz() {
  10:src/app/app.cpp ****       robot.heartBeat();
  11:src/app/app.cpp ****       robot.kicker.Control();
  12:src/app/app.cpp **** }
  13:src/app/app.cpp **** 
  14:src/app/app.cpp **** void setup() {
  15:src/app/app.cpp ****       robot.HardwareInit();
  16:src/app/app.cpp **** }
  17:src/app/app.cpp **** 
  18:src/app/app.cpp **** void main_app() {
  19:src/app/app.cpp ****       while (1) {
  20:src/app/app.cpp ****             mode.MainMode();
  21:src/app/app.cpp ****       }
  22:src/app/app.cpp **** }...
  30              		.loc 1 22 1 view -0
  31              		.cfi_startproc
  32              		@ args = 0, pretend = 0, frame = 0
  33              		@ frame_needed = 0, uses_anonymous_args = 0
  34              		.loc 1 22 1 is_stmt 0 view .LVU1
  35 0000 0128     		cmp	r0, #1
  36 0002 00D0     		beq	.L7
ARM GAS  /var/folders/5c/srt4fy4j1pd641bjfx75k5000000gn/T//ccGANz5G.s 			page 2


  37 0004 7047     		bx	lr
  38              	.L7:
  39              		.loc 1 22 1 discriminator 1 view .LVU2
  40 0006 38B5     		push	{r3, r4, r5, lr}
  41              	.LCFI0:
  42              		.cfi_def_cfa_offset 16
  43              		.cfi_offset 3, -16
  44              		.cfi_offset 4, -12
  45              		.cfi_offset 5, -8
  46              		.cfi_offset 14, -4
  47              		.loc 1 22 1 discriminator 1 view .LVU3
  48 0008 4FF6FF73 		movw	r3, #65535
  49 000c 9942     		cmp	r1, r3
  50 000e 00D0     		beq	.L8
  51              	.LVL1:
  52              	.L1:
  53              		.loc 1 22 1 view .LVU4
  54 0010 38BD     		pop	{r3, r4, r5, pc}
  55              	.LVL2:
  56              	.L8:
   6:src/app/app.cpp **** Robot robot;
  57              		.loc 1 6 7 view .LVU5
  58 0012 054D     		ldr	r5, .L9
  59 0014 2846     		mov	r0, r5
  60              	.LVL3:
   6:src/app/app.cpp **** Robot robot;
  61              		.loc 1 6 7 view .LVU6
  62 0016 FFF7FEFF 		bl	_ZN5RobotC1Ev
  63              	.LVL4:
  64              	.LBB11:
  65              	.LBI11:
  66              		.file 2 "src/mode/mode.hpp"
   1:src/mode/mode.hpp **** #include "robot.hpp"
   2:src/mode/mode.hpp **** 
   3:src/mode/mode.hpp **** class Mode {
   4:src/mode/mode.hpp ****      public:
   5:src/mode/mode.hpp ****       Mode(Robot* robotPtr) : robot(robotPtr) {}
  67              		.loc 2 5 7 is_stmt 1 view .LVU7
  68              	.LBB12:
  69              	.LBB13:
  70              		.loc 2 5 45 is_stmt 0 view .LVU8
  71 001a 044C     		ldr	r4, .L9+4
  72 001c 2046     		mov	r0, r4
  73 001e FFF7FEFF 		bl	_ZN5TimerC1Ev
  74              	.LVL5:
  75              		.loc 2 5 31 view .LVU9
  76 0022 6560     		str	r5, [r4, #4]
  77              	.LVL6:
  78              		.loc 2 5 31 view .LVU10
  79              	.LBE13:
  80              	.LBE12:
  81              	.LBE11:
  82              		.loc 1 22 1 view .LVU11
  83 0024 F4E7     		b	.L1
  84              	.L10:
  85 0026 00BF     		.align	2
  86              	.L9:
ARM GAS  /var/folders/5c/srt4fy4j1pd641bjfx75k5000000gn/T//ccGANz5G.s 			page 3


  87 0028 00000000 		.word	robot
  88 002c 00000000 		.word	mode
  89              		.cfi_endproc
  90              	.LFE276:
  91              		.cantunwind
  92              		.fnend
  94              		.global	__aeabi_f2d
  95              		.global	__aeabi_ui2d
  96              		.global	__aeabi_dmul
  97              		.global	__aeabi_d2iz
  98              		.section	.text._ZN12PwmSingleOut5writeEf,"axG",%progbits,_ZN12PwmSingleOut5writeEf,comdat
  99              		.align	1
 100              		.weak	_ZN12PwmSingleOut5writeEf
 101              		.syntax unified
 102              		.thumb
 103              		.thumb_func
 105              	_ZN12PwmSingleOut5writeEf:
 106              		.fnstart
 107              	.LVL7:
 108              	.LFB266:
 109              		.file 3 "Lib/PWMSingle/PWMSingle.hpp"
   1:Lib/PWMSingle/PWMSingle.hpp **** #ifndef __PWMSINGLE__
   2:Lib/PWMSingle/PWMSingle.hpp **** #define __PWMSINGLE__
   3:Lib/PWMSingle/PWMSingle.hpp **** 
   4:Lib/PWMSingle/PWMSingle.hpp **** #include "MyMath.hpp"
   5:Lib/PWMSingle/PWMSingle.hpp **** #include "tim.h"
   6:Lib/PWMSingle/PWMSingle.hpp **** 
   7:Lib/PWMSingle/PWMSingle.hpp **** #ifdef __cplusplus
   8:Lib/PWMSingle/PWMSingle.hpp **** extern "C" {
   9:Lib/PWMSingle/PWMSingle.hpp **** 
  10:Lib/PWMSingle/PWMSingle.hpp **** class PwmSingleOut {
  11:Lib/PWMSingle/PWMSingle.hpp ****      public:
  12:Lib/PWMSingle/PWMSingle.hpp ****       PwmSingleOut(TIM_HandleTypeDef *htim, uint32_t channel)
  13:Lib/PWMSingle/PWMSingle.hpp ****           : _htim(htim), _channel(channel), _maxValue(_htim->Init.Period) {
  14:Lib/PWMSingle/PWMSingle.hpp ****       }
  15:Lib/PWMSingle/PWMSingle.hpp **** 
  16:Lib/PWMSingle/PWMSingle.hpp ****       void init() {
  17:Lib/PWMSingle/PWMSingle.hpp ****             HAL_TIM_PWM_Start(_htim, _channel);
  18:Lib/PWMSingle/PWMSingle.hpp ****             _maxValue = _htim->Init.Period;
  19:Lib/PWMSingle/PWMSingle.hpp ****       }
  20:Lib/PWMSingle/PWMSingle.hpp **** 
  21:Lib/PWMSingle/PWMSingle.hpp ****       void write(float duty) {
 110              		.loc 3 21 12 is_stmt 1 view -0
 111              		.cfi_startproc
 112              		@ args = 0, pretend = 0, frame = 0
 113              		@ frame_needed = 0, uses_anonymous_args = 0
 114              		.loc 3 21 12 is_stmt 0 view .LVU13
 115 0000 D0B5     		push	{r4, r6, r7, lr}
 116              	.LCFI1:
 117              		.cfi_def_cfa_offset 16
 118              		.cfi_offset 4, -16
 119              		.cfi_offset 6, -12
 120              		.cfi_offset 7, -8
 121              		.cfi_offset 14, -4
 122 0002 0446     		mov	r4, r0
  22:Lib/PWMSingle/PWMSingle.hpp ****             duty = (int)(Constrain(duty, 0.0, 1.0) * _maxValue);
 123              		.loc 3 22 13 is_stmt 1 view .LVU14
ARM GAS  /var/folders/5c/srt4fy4j1pd641bjfx75k5000000gn/T//ccGANz5G.s 			page 4


 124              		.loc 3 22 26 is_stmt 0 view .LVU15
 125 0004 B5EEC00A 		vcmpe.f32	s0, #0
 126 0008 F1EE10FA 		vmrs	APSR_nzcv, FPSCR
 127 000c 10D4     		bmi	.L17
 128              		.loc 3 22 26 discriminator 2 view .LVU16
 129 000e F7EE007A 		vmov.f32	s15, #1.0e+0
 130 0012 B4EEE70A 		vcmpe.f32	s0, s15
 131 0016 F1EE10FA 		vmrs	APSR_nzcv, FPSCR
 132 001a 02DD     		ble	.L20
 133              		.loc 3 22 26 view .LVU17
 134 001c 0026     		movs	r6, #0
 135 001e 1D4F     		ldr	r7, .L23
 136 0020 08E0     		b	.L12
 137              	.L20:
 138              		.loc 3 22 26 discriminator 5 view .LVU18
 139 0022 10EE100A 		vmov	r0, s0
 140              	.LVL8:
 141              		.loc 3 22 26 discriminator 5 view .LVU19
 142 0026 FFF7FEFF 		bl	__aeabi_f2d
 143              	.LVL9:
 144              		.loc 3 22 26 discriminator 5 view .LVU20
 145 002a 0646     		mov	r6, r0
 146 002c 0F46     		mov	r7, r1
 147 002e 01E0     		b	.L12
 148              	.LVL10:
 149              	.L17:
 150              		.loc 3 22 26 view .LVU21
 151 0030 0026     		movs	r6, #0
 152 0032 0027     		movs	r7, #0
 153              	.LVL11:
 154              	.L12:
 155              		.loc 3 22 52 discriminator 8 view .LVU22
 156 0034 A068     		ldr	r0, [r4, #8]
 157 0036 FFF7FEFF 		bl	__aeabi_ui2d
 158              	.LVL12:
 159 003a 3246     		mov	r2, r6
 160 003c 3B46     		mov	r3, r7
 161 003e FFF7FEFF 		bl	__aeabi_dmul
 162              	.LVL13:
 163              		.loc 3 22 20 discriminator 8 view .LVU23
 164 0042 FFF7FEFF 		bl	__aeabi_d2iz
 165              	.LVL14:
 166 0046 07EE900A 		vmov	s15, r0	@ int
 167              		.loc 3 22 18 discriminator 8 view .LVU24
 168 004a F8EEE77A 		vcvt.f32.s32	s15, s15
 169              	.LVL15:
  23:Lib/PWMSingle/PWMSingle.hpp ****             __HAL_TIM_SET_COMPARE(_htim, _channel, duty);
 170              		.loc 3 23 13 is_stmt 1 discriminator 8 view .LVU25
 171 004e 6368     		ldr	r3, [r4, #4]
 172 0050 33B9     		cbnz	r3, .L13
 173              		.loc 3 23 13 is_stmt 0 discriminator 1 view .LVU26
 174 0052 2368     		ldr	r3, [r4]
 175 0054 1B68     		ldr	r3, [r3]
 176 0056 FCEEE77A 		vcvt.u32.f32	s15, s15
 177              	.LVL16:
 178              		.loc 3 23 13 discriminator 1 view .LVU27
 179 005a C3ED0D7A 		vstr.32	s15, [r3, #52]	@ int
ARM GAS  /var/folders/5c/srt4fy4j1pd641bjfx75k5000000gn/T//ccGANz5G.s 			page 5


 180              	.L11:
  24:Lib/PWMSingle/PWMSingle.hpp ****       }
 181              		.loc 3 24 7 view .LVU28
 182 005e D0BD     		pop	{r4, r6, r7, pc}
 183              	.LVL17:
 184              	.L13:
  23:Lib/PWMSingle/PWMSingle.hpp ****             __HAL_TIM_SET_COMPARE(_htim, _channel, duty);
 185              		.loc 3 23 13 discriminator 2 view .LVU29
 186 0060 042B     		cmp	r3, #4
 187 0062 08D0     		beq	.L21
  23:Lib/PWMSingle/PWMSingle.hpp ****             __HAL_TIM_SET_COMPARE(_htim, _channel, duty);
 188              		.loc 3 23 13 discriminator 4 view .LVU30
 189 0064 082B     		cmp	r3, #8
 190 0066 0DD0     		beq	.L22
  23:Lib/PWMSingle/PWMSingle.hpp ****             __HAL_TIM_SET_COMPARE(_htim, _channel, duty);
 191              		.loc 3 23 13 discriminator 6 view .LVU31
 192 0068 2368     		ldr	r3, [r4]
 193 006a 1B68     		ldr	r3, [r3]
 194 006c FCEEE77A 		vcvt.u32.f32	s15, s15
 195              	.LVL18:
  23:Lib/PWMSingle/PWMSingle.hpp ****             __HAL_TIM_SET_COMPARE(_htim, _channel, duty);
 196              		.loc 3 23 13 discriminator 6 view .LVU32
 197 0070 C3ED107A 		vstr.32	s15, [r3, #64]	@ int
 198              		.loc 3 24 7 discriminator 6 view .LVU33
 199 0074 F3E7     		b	.L11
 200              	.LVL19:
 201              	.L21:
  23:Lib/PWMSingle/PWMSingle.hpp ****             __HAL_TIM_SET_COMPARE(_htim, _channel, duty);
 202              		.loc 3 23 13 discriminator 3 view .LVU34
 203 0076 2368     		ldr	r3, [r4]
 204 0078 1B68     		ldr	r3, [r3]
 205 007a FCEEE77A 		vcvt.u32.f32	s15, s15
 206              	.LVL20:
  23:Lib/PWMSingle/PWMSingle.hpp ****             __HAL_TIM_SET_COMPARE(_htim, _channel, duty);
 207              		.loc 3 23 13 discriminator 3 view .LVU35
 208 007e C3ED0E7A 		vstr.32	s15, [r3, #56]	@ int
 209 0082 ECE7     		b	.L11
 210              	.LVL21:
 211              	.L22:
  23:Lib/PWMSingle/PWMSingle.hpp ****             __HAL_TIM_SET_COMPARE(_htim, _channel, duty);
 212              		.loc 3 23 13 discriminator 5 view .LVU36
 213 0084 2368     		ldr	r3, [r4]
 214 0086 1B68     		ldr	r3, [r3]
 215 0088 FCEEE77A 		vcvt.u32.f32	s15, s15
 216              	.LVL22:
  23:Lib/PWMSingle/PWMSingle.hpp ****             __HAL_TIM_SET_COMPARE(_htim, _channel, duty);
 217              		.loc 3 23 13 discriminator 5 view .LVU37
 218 008c C3ED0F7A 		vstr.32	s15, [r3, #60]	@ int
 219 0090 E5E7     		b	.L11
 220              	.L24:
 221 0092 00BF     		.align	2
 222              	.L23:
 223 0094 0000F03F 		.word	1072693248
 224              		.cfi_endproc
 225              	.LFE266:
 226              		.cantunwind
 227              		.fnend
ARM GAS  /var/folders/5c/srt4fy4j1pd641bjfx75k5000000gn/T//ccGANz5G.s 			page 6


 229              		.section	.text.TimInterrupt1khz,"ax",%progbits
 230              		.align	1
 231              		.global	TimInterrupt1khz
 232              		.syntax unified
 233              		.thumb
 234              		.thumb_func
 236              	TimInterrupt1khz:
 237              		.fnstart
 238              	.LFB273:
   9:src/app/app.cpp **** void TimInterrupt1khz() {
 239              		.loc 1 9 25 is_stmt 1 view -0
 240              		.cfi_startproc
 241              		@ args = 0, pretend = 0, frame = 0
 242              		@ frame_needed = 0, uses_anonymous_args = 0
 243 0000 10B5     		push	{r4, lr}
 244              		.save {r4, lr}
 245              	.LCFI2:
 246              		.cfi_def_cfa_offset 8
 247              		.cfi_offset 4, -8
 248              		.cfi_offset 14, -4
  10:src/app/app.cpp ****       robot.heartBeat();
 249              		.loc 1 10 7 view .LVU39
 250              	.LVL23:
 251              	.LBB14:
 252              	.LBI14:
 253              		.file 4 "src/unit/robot/robot.hpp"
   1:src/unit/robot/robot.hpp **** #ifndef __ROBOT__
   2:src/unit/robot/robot.hpp **** #define __ROBOT__
   3:src/unit/robot/robot.hpp **** 
   4:src/unit/robot/robot.hpp **** #include "BufferedSerial.hpp"
   5:src/unit/robot/robot.hpp **** #include "DigitalInOut.hpp"
   6:src/unit/robot/robot.hpp **** #include "MovingAve.hpp"
   7:src/unit/robot/robot.hpp **** #include "PWMSingle.hpp"
   8:src/unit/robot/robot.hpp **** #include "Timer.hpp"
   9:src/unit/robot/robot.hpp **** #include "adc.h"
  10:src/unit/robot/robot.hpp **** #include "config.h"
  11:src/unit/robot/robot.hpp **** #include "dribbler_drive.hpp"
  12:src/unit/robot/robot.hpp **** #include "kicker.hpp"
  13:src/unit/robot/robot.hpp **** #include "main.h"
  14:src/unit/robot/robot.hpp **** #include "motor_drive.hpp"
  15:src/unit/robot/robot.hpp **** 
  16:src/unit/robot/robot.hpp **** typedef struct {
  17:src/unit/robot/robot.hpp ****       float voltage;
  18:src/unit/robot/robot.hpp ****       uint8_t motor_rps[4];
  19:src/unit/robot/robot.hpp **** 
  20:src/unit/robot/robot.hpp ****       uint8_t mode;
  21:src/unit/robot/robot.hpp **** 
  22:src/unit/robot/robot.hpp ****       float moving_speed, line_moving_speed;
  23:src/unit/robot/robot.hpp ****       struct {
  24:src/unit/robot/robot.hpp ****             uint8_t interval;
  25:src/unit/robot/robot.hpp ****             bool is_on_line;
  26:src/unit/robot/robot.hpp ****             bool is_half_out;
  27:src/unit/robot/robot.hpp ****             bool is_leftside;
  28:src/unit/robot/robot.hpp ****             bool is_rightside;
  29:src/unit/robot/robot.hpp ****             int16_t dir;
  30:src/unit/robot/robot.hpp ****             int16_t inside_dir;
  31:src/unit/robot/robot.hpp **** 
ARM GAS  /var/folders/5c/srt4fy4j1pd641bjfx75k5000000gn/T//ccGANz5G.s 			page 7


  32:src/unit/robot/robot.hpp ****             bool on_led;
  33:src/unit/robot/robot.hpp ****       } Line;
  34:src/unit/robot/robot.hpp ****       struct {
  35:src/unit/robot/robot.hpp ****             uint16_t front_val;
  36:src/unit/robot/robot.hpp ****             bool is_front;
  37:src/unit/robot/robot.hpp ****             uint16_t back_val;
  38:src/unit/robot/robot.hpp ****             bool is_back;
  39:src/unit/robot/robot.hpp ****       } Catch;
  40:src/unit/robot/robot.hpp ****       struct {
  41:src/unit/robot/robot.hpp ****             int16_t yaw;
  42:src/unit/robot/robot.hpp ****             int16_t pitch;
  43:src/unit/robot/robot.hpp ****             int16_t roll;
  44:src/unit/robot/robot.hpp ****       } Imu;
  45:src/unit/robot/robot.hpp **** 
  46:src/unit/robot/robot.hpp **** } RobotInfo;
  47:src/unit/robot/robot.hpp **** class Robot {
  48:src/unit/robot/robot.hpp ****      public:
  49:src/unit/robot/robot.hpp ****       Robot();
  50:src/unit/robot/robot.hpp **** 
  51:src/unit/robot/robot.hpp ****       // values
  52:src/unit/robot/robot.hpp ****       RobotInfo info;
  53:src/unit/robot/robot.hpp **** 
  54:src/unit/robot/robot.hpp ****       DigitalOut led1 = DigitalOut(LED1_GPIO_Port, LED1_Pin);
  55:src/unit/robot/robot.hpp ****       PwmSingleOut ledh = PwmSingleOut(&htim13, TIM_CHANNEL_1);
  56:src/unit/robot/robot.hpp **** 
  57:src/unit/robot/robot.hpp ****       PwmSingleOut motor1a = PwmSingleOut(&htim12, TIM_CHANNEL_2);
  58:src/unit/robot/robot.hpp ****       PwmSingleOut motor1b = PwmSingleOut(&htim12, TIM_CHANNEL_1);
  59:src/unit/robot/robot.hpp ****       PwmSingleOut motor2a = PwmSingleOut(&htim2, TIM_CHANNEL_3);
  60:src/unit/robot/robot.hpp ****       PwmSingleOut motor2b = PwmSingleOut(&htim2, TIM_CHANNEL_4);
  61:src/unit/robot/robot.hpp ****       PwmSingleOut motor3a = PwmSingleOut(&htim3, TIM_CHANNEL_2);
  62:src/unit/robot/robot.hpp ****       PwmSingleOut motor3b = PwmSingleOut(&htim2, TIM_CHANNEL_2);
  63:src/unit/robot/robot.hpp ****       PwmSingleOut motor4a = PwmSingleOut(&htim3, TIM_CHANNEL_1);
  64:src/unit/robot/robot.hpp ****       PwmSingleOut motor4b = PwmSingleOut(&htim3, TIM_CHANNEL_3);
  65:src/unit/robot/robot.hpp **** 
  66:src/unit/robot/robot.hpp ****       PwmSingleOut dribbler_front_a = PwmSingleOut(&htim4, TIM_CHANNEL_1);
  67:src/unit/robot/robot.hpp ****       PwmSingleOut dribbler_front_b = PwmSingleOut(&htim4, TIM_CHANNEL_2);
  68:src/unit/robot/robot.hpp ****       PwmSingleOut dribbler_back_a = PwmSingleOut(&htim2, TIM_CHANNEL_1);
  69:src/unit/robot/robot.hpp ****       PwmSingleOut dribbler_back_b = PwmSingleOut(&htim4, TIM_CHANNEL_4);
  70:src/unit/robot/robot.hpp **** 
  71:src/unit/robot/robot.hpp ****       DigitalOut kicker_charge = DigitalOut(KICKER_CHARGE_GPIO_Port, KICKER_CHARGE_Pin);
  72:src/unit/robot/robot.hpp ****       DigitalOut kicker_kick = DigitalOut(KICKER_KICK_GPIO_Port, KICKER_KICK_Pin);
  73:src/unit/robot/robot.hpp **** 
  74:src/unit/robot/robot.hpp ****       MotorDrive motor = MotorDrive(&motor1a, &motor1b, &motor2a, &motor2b, &motor3a, &motor3b, &mo
  75:src/unit/robot/robot.hpp ****       DribblerDrive dribbler_front = DribblerDrive(&dribbler_front_a, &dribbler_front_b);
  76:src/unit/robot/robot.hpp ****       DribblerDrive dribbler_back = DribblerDrive(&dribbler_back_a, &dribbler_back_b);
  77:src/unit/robot/robot.hpp ****       Kicker kicker = Kicker(&kicker_charge, &kicker_kick);
  78:src/unit/robot/robot.hpp **** 
  79:src/unit/robot/robot.hpp ****       BufferedSerial serial1 = BufferedSerial(&huart1, 128);  // imu
  80:src/unit/robot/robot.hpp ****       BufferedSerial serial2 = BufferedSerial(&huart2, 256);  // line
  81:src/unit/robot/robot.hpp ****       BufferedSerial serial3 = BufferedSerial(&huart3, 256);  // ui
  82:src/unit/robot/robot.hpp **** 
  83:src/unit/robot/robot.hpp ****       void HardwareInit();
  84:src/unit/robot/robot.hpp ****       void GetSensors();
  85:src/unit/robot/robot.hpp **** 
  86:src/unit/robot/robot.hpp ****       void ImuUart();
  87:src/unit/robot/robot.hpp ****       void LineUart();
  88:src/unit/robot/robot.hpp ****       void UiUart();
ARM GAS  /var/folders/5c/srt4fy4j1pd641bjfx75k5000000gn/T//ccGANz5G.s 			page 8


  89:src/unit/robot/robot.hpp **** 
  90:src/unit/robot/robot.hpp ****       Timer line_send_interval_timer;
  91:src/unit/robot/robot.hpp ****       Timer ui_send_interval_timer;
  92:src/unit/robot/robot.hpp **** 
  93:src/unit/robot/robot.hpp ****       MovingAve catch_front;
  94:src/unit/robot/robot.hpp ****       MovingAve catch_back;
  95:src/unit/robot/robot.hpp **** 
  96:src/unit/robot/robot.hpp ****       inline __attribute__((always_inline)) void heartBeat() {
 254              		.loc 4 96 50 view .LVU40
 255              	.LBB15:
  97:src/unit/robot/robot.hpp ****             static int i = 0;
 256              		.loc 4 97 13 view .LVU41
  98:src/unit/robot/robot.hpp ****             i++;
 257              		.loc 4 98 13 view .LVU42
 258              		.loc 4 98 14 is_stmt 0 view .LVU43
 259 0002 204A     		ldr	r2, .L32
 260 0004 1368     		ldr	r3, [r2]
 261 0006 0133     		adds	r3, r3, #1
 262 0008 1360     		str	r3, [r2]
  99:src/unit/robot/robot.hpp ****             ledh = abs(MyMath::sinDeg(int(i * (360.0f / 2000.0f))));
 263              		.loc 4 99 13 is_stmt 1 view .LVU44
 264              		.loc 4 99 20 is_stmt 0 view .LVU45
 265 000a 07EE903A 		vmov	s15, r3	@ int
 266 000e F8EEE77A 		vcvt.f32.s32	s15, s15
 267 0012 9FED1D7A 		vldr.32	s14, .L32+4
 268 0016 67EE877A 		vmul.f32	s15, s15, s14
 269 001a FDEEE77A 		vcvt.s32.f32	s15, s15
 270 001e 17EE900A 		vmov	r0, s15	@ int
 271 0022 FFF7FEFF 		bl	sinDeg
 272              	.LVL24:
 273              		.loc 4 99 18 view .LVU46
 274 0026 B5EEC00A 		vcmpe.f32	s0, #0
 275 002a F1EE10FA 		vmrs	APSR_nzcv, FPSCR
 276 002e 17DD     		ble	.L30
 277              		.loc 4 99 20 view .LVU47
 278 0030 144B     		ldr	r3, .L32
 279 0032 D3ED007A 		vldr.32	s15, [r3]	@ int
 280 0036 F8EEE77A 		vcvt.f32.s32	s15, s15
 281 003a 9FED137A 		vldr.32	s14, .L32+4
 282 003e 67EE877A 		vmul.f32	s15, s15, s14
 283 0042 FDEEE77A 		vcvt.s32.f32	s15, s15
 284 0046 17EE900A 		vmov	r0, s15	@ int
 285 004a FFF7FEFF 		bl	sinDeg
 286              	.LVL25:
 287              	.L28:
 288              	.LBB16:
 289              	.LBI16:
  25:Lib/PWMSingle/PWMSingle.hpp **** 
  26:Lib/PWMSingle/PWMSingle.hpp ****       void operator=(float duty) {
 290              		.loc 3 26 12 is_stmt 1 view .LVU48
 291              	.LBB17:
  27:Lib/PWMSingle/PWMSingle.hpp ****             write(duty);
 292              		.loc 3 27 13 view .LVU49
 293              		.loc 3 27 18 is_stmt 0 view .LVU50
 294 004e 0F4C     		ldr	r4, .L32+8
 295              	.LVL26:
 296              		.loc 3 27 18 view .LVU51
ARM GAS  /var/folders/5c/srt4fy4j1pd641bjfx75k5000000gn/T//ccGANz5G.s 			page 9


 297 0050 2046     		mov	r0, r4
 298 0052 FFF7FEFF 		bl	_ZN12PwmSingleOut5writeEf
 299              	.LVL27:
 300              		.loc 3 27 18 view .LVU52
 301              	.LBE17:
 302              	.LBE16:
 303              	.LBE15:
 304              	.LBE14:
  11:src/app/app.cpp ****       robot.kicker.Control();
 305              		.loc 1 11 7 is_stmt 1 view .LVU53
  11:src/app/app.cpp ****       robot.kicker.Control();
 306              		.loc 1 11 27 is_stmt 0 view .LVU54
 307 0056 04F54C60 		add	r0, r4, #3264
 308 005a FFF7FEFF 		bl	_ZN6Kicker7ControlEv
 309              	.LVL28:
  12:src/app/app.cpp **** }
 310              		.loc 1 12 1 view .LVU55
 311 005e 10BD     		pop	{r4, pc}
 312              	.LVL29:
 313              	.L30:
 314              	.LBB19:
 315              	.LBB18:
 316              		.loc 4 99 20 view .LVU56
 317 0060 084B     		ldr	r3, .L32
 318 0062 D3ED007A 		vldr.32	s15, [r3]	@ int
 319 0066 F8EEE77A 		vcvt.f32.s32	s15, s15
 320 006a 9FED077A 		vldr.32	s14, .L32+4
 321 006e 67EE877A 		vmul.f32	s15, s15, s14
 322 0072 FDEEE77A 		vcvt.s32.f32	s15, s15
 323 0076 17EE900A 		vmov	r0, s15	@ int
 324 007a FFF7FEFF 		bl	sinDeg
 325              	.LVL30:
 326              		.loc 4 99 18 view .LVU57
 327 007e B1EE400A 		vneg.f32	s0, s0
 328 0082 E4E7     		b	.L28
 329              	.L33:
 330              		.align	2
 331              	.L32:
 332 0084 00000000 		.word	_ZZN5Robot9heartBeatEvE1i
 333 0088 EC51383E 		.word	1043878380
 334 008c 38000000 		.word	robot+56
 335              	.LBE18:
 336              	.LBE19:
 337              		.cfi_endproc
 338              	.LFE273:
 339              		.fnend
 341              		.section	.text.setup,"ax",%progbits
 342              		.align	1
 343              		.global	setup
 344              		.syntax unified
 345              		.thumb
 346              		.thumb_func
 348              	setup:
 349              		.fnstart
 350              	.LFB274:
  14:src/app/app.cpp **** void setup() {
 351              		.loc 1 14 14 is_stmt 1 view -0
ARM GAS  /var/folders/5c/srt4fy4j1pd641bjfx75k5000000gn/T//ccGANz5G.s 			page 10


 352              		.cfi_startproc
 353              		@ args = 0, pretend = 0, frame = 0
 354              		@ frame_needed = 0, uses_anonymous_args = 0
 355 0000 08B5     		push	{r3, lr}
 356              		.save {r3, lr}
 357              	.LCFI3:
 358              		.cfi_def_cfa_offset 8
 359              		.cfi_offset 3, -8
 360              		.cfi_offset 14, -4
  15:src/app/app.cpp ****       robot.HardwareInit();
 361              		.loc 1 15 7 view .LVU59
  15:src/app/app.cpp ****       robot.HardwareInit();
 362              		.loc 1 15 25 is_stmt 0 view .LVU60
 363 0002 0248     		ldr	r0, .L36
 364 0004 FFF7FEFF 		bl	_ZN5Robot12HardwareInitEv
 365              	.LVL31:
  16:src/app/app.cpp **** }
 366              		.loc 1 16 1 view .LVU61
 367 0008 08BD     		pop	{r3, pc}
 368              	.L37:
 369 000a 00BF     		.align	2
 370              	.L36:
 371 000c 00000000 		.word	robot
 372              		.cfi_endproc
 373              	.LFE274:
 374              		.fnend
 376              		.section	.text.main_app,"ax",%progbits
 377              		.align	1
 378              		.global	main_app
 379              		.syntax unified
 380              		.thumb
 381              		.thumb_func
 383              	main_app:
 384              		.fnstart
 385              	.LFB275:
  18:src/app/app.cpp **** void main_app() {
 386              		.loc 1 18 17 is_stmt 1 view -0
 387              		.cfi_startproc
 388              		@ args = 0, pretend = 0, frame = 0
 389              		@ frame_needed = 0, uses_anonymous_args = 0
 390 0000 08B5     		push	{r3, lr}
 391              		.save {r3, lr}
 392              	.LCFI4:
 393              		.cfi_def_cfa_offset 8
 394              		.cfi_offset 3, -8
 395              		.cfi_offset 14, -4
 396              	.L39:
  19:src/app/app.cpp ****       while (1) {
 397              		.loc 1 19 7 discriminator 1 view .LVU63
  20:src/app/app.cpp ****             mode.MainMode();
 398              		.loc 1 20 13 discriminator 1 view .LVU64
  20:src/app/app.cpp ****             mode.MainMode();
 399              		.loc 1 20 26 is_stmt 0 discriminator 1 view .LVU65
 400 0002 0248     		ldr	r0, .L41
 401 0004 FFF7FEFF 		bl	_ZN4Mode8MainModeEv
 402              	.LVL32:
  19:src/app/app.cpp ****       while (1) {
ARM GAS  /var/folders/5c/srt4fy4j1pd641bjfx75k5000000gn/T//ccGANz5G.s 			page 11


 403              		.loc 1 19 7 is_stmt 1 discriminator 1 view .LVU66
 404 0008 FBE7     		b	.L39
 405              	.L42:
 406 000a 00BF     		.align	2
 407              	.L41:
 408 000c 00000000 		.word	mode
 409              		.cfi_endproc
 410              	.LFE275:
 411              		.fnend
 413              		.section	.text._GLOBAL__sub_I_robot,"ax",%progbits
 414              		.align	1
 415              		.syntax unified
 416              		.thumb
 417              		.thumb_func
 419              	_GLOBAL__sub_I_robot:
 420              		.fnstart
 421              	.LFB277:
 422              		.loc 1 22 1 view -0
 423              		.cfi_startproc
 424              		@ args = 0, pretend = 0, frame = 0
 425              		@ frame_needed = 0, uses_anonymous_args = 0
 426 0000 08B5     		push	{r3, lr}
 427              	.LCFI5:
 428              		.cfi_def_cfa_offset 8
 429              		.cfi_offset 3, -8
 430              		.cfi_offset 14, -4
 431              		.loc 1 22 1 is_stmt 0 view .LVU68
 432 0002 4FF6FF71 		movw	r1, #65535
 433 0006 0120     		movs	r0, #1
 434 0008 FFF7FEFF 		bl	_Z41__static_initialization_and_destruction_0ii
 435              	.LVL33:
 436 000c 08BD     		pop	{r3, pc}
 437              		.cfi_endproc
 438              	.LFE277:
 439              		.cantunwind
 440              		.fnend
 442              		.section	.init_array,"aw",%init_array
 443              		.align	2
 444 0000 00000000 		.word	_GLOBAL__sub_I_robot(target1)
 445              		.global	mode
 446              		.section	.bss.mode,"aw",%nobits
 447              		.align	2
 450              	mode:
 451 0000 00000000 		.space	12
 451      00000000 
 451      00000000 
 452              		.global	robot
 453              		.section	.bss.robot,"aw",%nobits
 454              		.align	3
 457              	robot:
 458 0000 00000000 		.space	4232
 458      00000000 
 458      00000000 
 458      00000000 
 458      00000000 
 459              		.weak	_ZZN5Robot9heartBeatEvE1i
 460              		.section	.bss._ZZN5Robot9heartBeatEvE1i,"awG",%nobits,_ZZN5Robot9heartBeatEvE1i,comdat
ARM GAS  /var/folders/5c/srt4fy4j1pd641bjfx75k5000000gn/T//ccGANz5G.s 			page 12


 461              		.align	2
 464              	_ZZN5Robot9heartBeatEvE1i:
 465 0000 00000000 		.space	4
 466              		.text
 467              	.Letext0:
 468              		.file 5 "/opt/ST/STM32CubeCLT_1.16.0/GNU-tools-for-STM32/arm-none-eabi/include/machine/_default_ty
 469              		.file 6 "/opt/ST/STM32CubeCLT_1.16.0/GNU-tools-for-STM32/arm-none-eabi/include/sys/_stdint.h"
 470              		.file 7 "Drivers/CMSIS/Device/ST/STM32F4xx/Include/stm32f446xx.h"
 471              		.file 8 "Drivers/CMSIS/Device/ST/STM32F4xx/Include/stm32f4xx.h"
 472              		.file 9 "/opt/ST/STM32CubeCLT_1.16.0/GNU-tools-for-STM32/lib/gcc/arm-none-eabi/12.3.1/include/stdd
 473              		.file 10 "Drivers/STM32F4xx_HAL_Driver/Inc/stm32f4xx_hal_def.h"
 474              		.file 11 "Drivers/STM32F4xx_HAL_Driver/Inc/stm32f4xx_hal_dma.h"
 475              		.file 12 "Drivers/STM32F4xx_HAL_Driver/Inc/stm32f4xx_hal_tim.h"
 476              		.file 13 "Drivers/STM32F4xx_HAL_Driver/Inc/stm32f4xx_hal_uart.h"
 477              		.file 14 "Drivers/STM32F4xx_HAL_Driver/Inc/stm32f4xx_hal.h"
 478              		.file 15 "/opt/ST/STM32CubeCLT_1.16.0/GNU-tools-for-STM32/arm-none-eabi/include/sys/_types.h"
 479              		.file 16 "/opt/ST/STM32CubeCLT_1.16.0/GNU-tools-for-STM32/arm-none-eabi/include/sys/reent.h"
 480              		.file 17 "/opt/ST/STM32CubeCLT_1.16.0/GNU-tools-for-STM32/arm-none-eabi/include/sys/lock.h"
 481              		.file 18 "/opt/ST/STM32CubeCLT_1.16.0/GNU-tools-for-STM32/arm-none-eabi/include/stdio.h"
 482              		.file 19 "Lib/BufferedSerial/BufferedSerial.hpp"
 483              		.file 20 "Lib/DigitalInOut/DigitalInOut.hpp"
 484              		.file 21 "Lib/MovingAve/MovingAve.hpp"
 485              		.file 22 "/opt/ST/STM32CubeCLT_1.16.0/GNU-tools-for-STM32/arm-none-eabi/include/c++/12.3.1/cstdio"
 486              		.file 23 "/opt/ST/STM32CubeCLT_1.16.0/GNU-tools-for-STM32/arm-none-eabi/include/c++/12.3.1/arm-non
 487              		.file 24 "Lib/Timer/Timer.hpp"
 488              		.file 25 "src/unit/dribbler_drive/dribbler_drive.hpp"
 489              		.file 26 "src/unit/kicker/kicker.hpp"
 490              		.file 27 "Lib/pid/pid.hpp"
 491              		.file 28 "src/unit/motor_drive/motor_drive.hpp"
 492              		.file 29 "Lib/MyMath/MyMath.hpp"
ARM GAS  /var/folders/5c/srt4fy4j1pd641bjfx75k5000000gn/T//ccGANz5G.s 			page 13


DEFINED SYMBOLS
                            *ABS*:00000000 app.cpp
/var/folders/5c/srt4fy4j1pd641bjfx75k5000000gn/T//ccGANz5G.s:21     .text._Z41__static_initialization_and_destruction_0ii:00000000 $t
/var/folders/5c/srt4fy4j1pd641bjfx75k5000000gn/T//ccGANz5G.s:26     .text._Z41__static_initialization_and_destruction_0ii:00000000 _Z41__static_initialization_and_destruction_0ii
/var/folders/5c/srt4fy4j1pd641bjfx75k5000000gn/T//ccGANz5G.s:87     .text._Z41__static_initialization_and_destruction_0ii:00000028 $d
/var/folders/5c/srt4fy4j1pd641bjfx75k5000000gn/T//ccGANz5G.s:457    .bss.robot:00000000 robot
/var/folders/5c/srt4fy4j1pd641bjfx75k5000000gn/T//ccGANz5G.s:450    .bss.mode:00000000 mode
.ARM.exidx.text._Z41__static_initialization_and_destruction_0ii:00000000 $d
/var/folders/5c/srt4fy4j1pd641bjfx75k5000000gn/T//ccGANz5G.s:99     .text._ZN12PwmSingleOut5writeEf:00000000 $t
/var/folders/5c/srt4fy4j1pd641bjfx75k5000000gn/T//ccGANz5G.s:105    .text._ZN12PwmSingleOut5writeEf:00000000 _ZN12PwmSingleOut5writeEf
/var/folders/5c/srt4fy4j1pd641bjfx75k5000000gn/T//ccGANz5G.s:223    .text._ZN12PwmSingleOut5writeEf:00000094 $d
.ARM.exidx.text._ZN12PwmSingleOut5writeEf:00000000 $d
/var/folders/5c/srt4fy4j1pd641bjfx75k5000000gn/T//ccGANz5G.s:230    .text.TimInterrupt1khz:00000000 $t
/var/folders/5c/srt4fy4j1pd641bjfx75k5000000gn/T//ccGANz5G.s:236    .text.TimInterrupt1khz:00000000 TimInterrupt1khz
/var/folders/5c/srt4fy4j1pd641bjfx75k5000000gn/T//ccGANz5G.s:332    .text.TimInterrupt1khz:00000084 $d
/var/folders/5c/srt4fy4j1pd641bjfx75k5000000gn/T//ccGANz5G.s:464    .bss._ZZN5Robot9heartBeatEvE1i:00000000 _ZZN5Robot9heartBeatEvE1i
 .ARM.exidx.text.TimInterrupt1khz:00000000 $d
/var/folders/5c/srt4fy4j1pd641bjfx75k5000000gn/T//ccGANz5G.s:342    .text.setup:00000000 $t
/var/folders/5c/srt4fy4j1pd641bjfx75k5000000gn/T//ccGANz5G.s:348    .text.setup:00000000 setup
/var/folders/5c/srt4fy4j1pd641bjfx75k5000000gn/T//ccGANz5G.s:371    .text.setup:0000000c $d
            .ARM.extab.text.setup:00000000 $d
            .ARM.exidx.text.setup:00000000 $d
/var/folders/5c/srt4fy4j1pd641bjfx75k5000000gn/T//ccGANz5G.s:377    .text.main_app:00000000 $t
/var/folders/5c/srt4fy4j1pd641bjfx75k5000000gn/T//ccGANz5G.s:383    .text.main_app:00000000 main_app
/var/folders/5c/srt4fy4j1pd641bjfx75k5000000gn/T//ccGANz5G.s:408    .text.main_app:0000000c $d
         .ARM.extab.text.main_app:00000000 $d
         .ARM.exidx.text.main_app:00000000 $d
/var/folders/5c/srt4fy4j1pd641bjfx75k5000000gn/T//ccGANz5G.s:414    .text._GLOBAL__sub_I_robot:00000000 $t
/var/folders/5c/srt4fy4j1pd641bjfx75k5000000gn/T//ccGANz5G.s:419    .text._GLOBAL__sub_I_robot:00000000 _GLOBAL__sub_I_robot
.ARM.exidx.text._GLOBAL__sub_I_robot:00000000 $d
/var/folders/5c/srt4fy4j1pd641bjfx75k5000000gn/T//ccGANz5G.s:443    .init_array:00000000 $d
/var/folders/5c/srt4fy4j1pd641bjfx75k5000000gn/T//ccGANz5G.s:447    .bss.mode:00000000 $d
/var/folders/5c/srt4fy4j1pd641bjfx75k5000000gn/T//ccGANz5G.s:454    .bss.robot:00000000 $d
/var/folders/5c/srt4fy4j1pd641bjfx75k5000000gn/T//ccGANz5G.s:461    .bss._ZZN5Robot9heartBeatEvE1i:00000000 $d

UNDEFINED SYMBOLS
_ZN5RobotC1Ev
_ZN5TimerC1Ev
__aeabi_f2d
__aeabi_ui2d
__aeabi_dmul
__aeabi_d2iz
sinDeg
_ZN6Kicker7ControlEv
__aeabi_unwind_cpp_pr0
_ZN5Robot12HardwareInitEv
__aeabi_unwind_cpp_pr1
_ZN4Mode8MainModeEv
