ARM GAS  /var/folders/5c/srt4fy4j1pd641bjfx75k5000000gn/T//ccrw8bVb.s 			page 1


   1              		.cpu cortex-m4
   2              		.arch armv7e-m
   3              		.fpu fpv4-sp-d16
   4              		.eabi_attribute 27, 1
   5              		.eabi_attribute 28, 1
   6              		.eabi_attribute 20, 1
   7              		.eabi_attribute 21, 1
   8              		.eabi_attribute 23, 3
   9              		.eabi_attribute 24, 1
  10              		.eabi_attribute 25, 1
  11              		.eabi_attribute 26, 1
  12              		.eabi_attribute 30, 1
  13              		.eabi_attribute 34, 1
  14              		.eabi_attribute 18, 4
  15              		.file	"defence.cpp"
  16              		.text
  17              	.Ltext0:
  18              		.cfi_sections	.debug_frame
  19              		.file 1 "src/mode/defence.cpp"
  20              		.global	__aeabi_i2d
  21              		.global	__aeabi_ddiv
  22              		.global	__aeabi_d2f
  23              		.section	.text._ZN4Mode7DefenceEv,"ax",%progbits
  24              		.align	1
  25              		.global	_ZN4Mode7DefenceEv
  26              		.syntax unified
  27              		.thumb
  28              		.thumb_func
  30              	_ZN4Mode7DefenceEv:
  31              		.fnstart
  32              	.LVL0:
  33              	.LFB272:
   1:src/mode/defence.cpp **** #include "mode.hpp"
   2:src/mode/defence.cpp **** 
   3:src/mode/defence.cpp **** void Mode::Defence() {
  34              		.loc 1 3 22 view -0
  35              		.cfi_startproc
  36              		@ args = 0, pretend = 0, frame = 0
  37              		@ frame_needed = 0, uses_anonymous_args = 0
  38              		.loc 1 3 22 is_stmt 0 view .LVU1
  39 0000 10B5     		push	{r4, lr}
  40              		.save {r4, lr}
  41              	.LCFI0:
  42              		.cfi_def_cfa_offset 8
  43              		.cfi_offset 4, -8
  44              		.cfi_offset 14, -4
   4:src/mode/defence.cpp ****       if (robot->info.Cam.ball_dir > 0) {
  45              		.loc 1 4 7 is_stmt 1 view .LVU2
  46              		.loc 1 4 11 is_stmt 0 view .LVU3
  47 0002 4468     		ldr	r4, [r0, #4]
  48              		.loc 1 4 27 view .LVU4
  49 0004 B4F93000 		ldrsh	r0, [r4, #48]
  50              	.LVL1:
  51              		.loc 1 4 7 view .LVU5
  52 0008 0028     		cmp	r0, #0
  53 000a 13DD     		ble	.L2
   5:src/mode/defence.cpp ****             robot->motor.Drive(90, abs(robot->info.Cam.ball_dir) / 30.000);
ARM GAS  /var/folders/5c/srt4fy4j1pd641bjfx75k5000000gn/T//ccrw8bVb.s 			page 2


  54              		.loc 1 5 13 is_stmt 1 view .LVU6
  55              		.loc 1 5 36 is_stmt 0 view .LVU7
  56 000c 0028     		cmp	r0, #0
  57 000e B8BF     		it	lt
  58 0010 4042     		rsblt	r0, r0, #0
  59              		.loc 1 5 66 view .LVU8
  60 0012 80B2     		uxth	r0, r0
  61 0014 FFF7FEFF 		bl	__aeabi_i2d
  62              	.LVL2:
  63 0018 0022     		movs	r2, #0
  64 001a 114B     		ldr	r3, .L5
  65 001c FFF7FEFF 		bl	__aeabi_ddiv
  66              	.LVL3:
  67              		.loc 1 5 31 view .LVU9
  68 0020 FFF7FEFF 		bl	__aeabi_d2f
  69              	.LVL4:
  70 0024 00EE100A 		vmov	s0, r0
  71 0028 5A21     		movs	r1, #90
  72 002a 04F59870 		add	r0, r4, #304
  73 002e FFF7FEFF 		bl	_ZN10MotorDrive5DriveEsf
  74              	.LVL5:
  75              	.L1:
   6:src/mode/defence.cpp ****       } else {
   7:src/mode/defence.cpp ****             robot->motor.Drive(-90, abs(robot->info.Cam.ball_dir) / 30.000);
   8:src/mode/defence.cpp ****       }
   9:src/mode/defence.cpp **** }...
  76              		.loc 1 9 1 view .LVU10
  77 0032 10BD     		pop	{r4, pc}
  78              	.L2:
   7:src/mode/defence.cpp ****             robot->motor.Drive(-90, abs(robot->info.Cam.ball_dir) / 30.000);
  79              		.loc 1 7 13 is_stmt 1 view .LVU11
   7:src/mode/defence.cpp ****             robot->motor.Drive(-90, abs(robot->info.Cam.ball_dir) / 30.000);
  80              		.loc 1 7 37 is_stmt 0 view .LVU12
  81 0034 0028     		cmp	r0, #0
  82 0036 B8BF     		it	lt
  83 0038 4042     		rsblt	r0, r0, #0
   7:src/mode/defence.cpp ****             robot->motor.Drive(-90, abs(robot->info.Cam.ball_dir) / 30.000);
  84              		.loc 1 7 67 view .LVU13
  85 003a 80B2     		uxth	r0, r0
  86 003c FFF7FEFF 		bl	__aeabi_i2d
  87              	.LVL6:
  88 0040 0022     		movs	r2, #0
  89 0042 074B     		ldr	r3, .L5
  90 0044 FFF7FEFF 		bl	__aeabi_ddiv
  91              	.LVL7:
   7:src/mode/defence.cpp ****             robot->motor.Drive(-90, abs(robot->info.Cam.ball_dir) / 30.000);
  92              		.loc 1 7 31 view .LVU14
  93 0048 FFF7FEFF 		bl	__aeabi_d2f
  94              	.LVL8:
  95 004c 00EE100A 		vmov	s0, r0
  96 0050 6FF05901 		mvn	r1, #89
  97 0054 04F59870 		add	r0, r4, #304
  98 0058 FFF7FEFF 		bl	_ZN10MotorDrive5DriveEsf
  99              	.LVL9:
 100              		.loc 1 9 1 view .LVU15
 101 005c E9E7     		b	.L1
 102              	.L6:
ARM GAS  /var/folders/5c/srt4fy4j1pd641bjfx75k5000000gn/T//ccrw8bVb.s 			page 3


 103 005e 00BF     		.align	2
 104              	.L5:
 105 0060 00003E40 		.word	1077805056
 106              		.cfi_endproc
 107              	.LFE272:
 108              		.fnend
 110              		.text
 111              	.Letext0:
 112              		.file 2 "/opt/ST/STM32CubeCLT_1.16.0/GNU-tools-for-STM32/arm-none-eabi/include/machine/_default_ty
 113              		.file 3 "/opt/ST/STM32CubeCLT_1.16.0/GNU-tools-for-STM32/lib/gcc/arm-none-eabi/12.3.1/include/stdd
 114              		.file 4 "/opt/ST/STM32CubeCLT_1.16.0/GNU-tools-for-STM32/arm-none-eabi/include/sys/_types.h"
 115              		.file 5 "/opt/ST/STM32CubeCLT_1.16.0/GNU-tools-for-STM32/arm-none-eabi/include/sys/reent.h"
 116              		.file 6 "/opt/ST/STM32CubeCLT_1.16.0/GNU-tools-for-STM32/arm-none-eabi/include/sys/lock.h"
 117              		.file 7 "/opt/ST/STM32CubeCLT_1.16.0/GNU-tools-for-STM32/arm-none-eabi/include/stdio.h"
 118              		.file 8 "/opt/ST/STM32CubeCLT_1.16.0/GNU-tools-for-STM32/arm-none-eabi/include/sys/_stdint.h"
 119              		.file 9 "Drivers/CMSIS/Device/ST/STM32F4xx/Include/stm32f446xx.h"
 120              		.file 10 "Drivers/STM32F4xx_HAL_Driver/Inc/stm32f4xx_hal_def.h"
 121              		.file 11 "Drivers/STM32F4xx_HAL_Driver/Inc/stm32f4xx_hal_dma.h"
 122              		.file 12 "Drivers/STM32F4xx_HAL_Driver/Inc/stm32f4xx_hal_tim.h"
 123              		.file 13 "Drivers/STM32F4xx_HAL_Driver/Inc/stm32f4xx_hal_uart.h"
 124              		.file 14 "Lib/BufferedSerial/BufferedSerial.hpp"
 125              		.file 15 "Lib/DigitalInOut/DigitalInOut.hpp"
 126              		.file 16 "Lib/MovingAve/MovingAve.hpp"
 127              		.file 17 "/opt/ST/STM32CubeCLT_1.16.0/GNU-tools-for-STM32/arm-none-eabi/include/c++/12.3.1/cstdio"
 128              		.file 18 "/opt/ST/STM32CubeCLT_1.16.0/GNU-tools-for-STM32/arm-none-eabi/include/c++/12.3.1/arm-non
 129              		.file 19 "Lib/PWMSingle/PWMSingle.hpp"
 130              		.file 20 "Lib/Timer/Timer.hpp"
 131              		.file 21 "src/unit/dribbler_drive/dribbler_drive.hpp"
 132              		.file 22 "src/unit/kicker/kicker.hpp"
 133              		.file 23 "Lib/pid/pid.hpp"
 134              		.file 24 "src/unit/motor_drive/motor_drive.hpp"
 135              		.file 25 "src/unit/robot/robot.hpp"
 136              		.file 26 "src/mode/mode.hpp"
ARM GAS  /var/folders/5c/srt4fy4j1pd641bjfx75k5000000gn/T//ccrw8bVb.s 			page 4


DEFINED SYMBOLS
                            *ABS*:00000000 defence.cpp
/var/folders/5c/srt4fy4j1pd641bjfx75k5000000gn/T//ccrw8bVb.s:24     .text._ZN4Mode7DefenceEv:00000000 $t
/var/folders/5c/srt4fy4j1pd641bjfx75k5000000gn/T//ccrw8bVb.s:30     .text._ZN4Mode7DefenceEv:00000000 _ZN4Mode7DefenceEv
/var/folders/5c/srt4fy4j1pd641bjfx75k5000000gn/T//ccrw8bVb.s:105    .text._ZN4Mode7DefenceEv:00000060 $d
.ARM.exidx.text._ZN4Mode7DefenceEv:00000000 $d

UNDEFINED SYMBOLS
__aeabi_i2d
__aeabi_ddiv
__aeabi_d2f
_ZN10MotorDrive5DriveEsf
__aeabi_unwind_cpp_pr0
