ARM GAS  /var/folders/5c/srt4fy4j1pd641bjfx75k5000000gn/T//cc2JSVOd.s 			page 1


   1              		.cpu cortex-m4
   2              		.arch armv7e-m
   3              		.fpu fpv4-sp-d16
   4              		.eabi_attribute 27, 1
   5              		.eabi_attribute 28, 1
   6              		.eabi_attribute 20, 1
   7              		.eabi_attribute 21, 1
   8              		.eabi_attribute 23, 3
   9              		.eabi_attribute 24, 1
  10              		.eabi_attribute 25, 1
  11              		.eabi_attribute 26, 1
  12              		.eabi_attribute 30, 1
  13              		.eabi_attribute 34, 1
  14              		.eabi_attribute 18, 4
  15              		.file	"main_mode.cpp"
  16              		.text
  17              	.Ltext0:
  18              		.cfi_sections	.debug_frame
  19              		.file 1 "src/mode/main_mode.cpp"
  20              		.section	.text._ZN4Mode8MainModeEv,"ax",%progbits
  21              		.align	1
  22              		.global	_ZN4Mode8MainModeEv
  23              		.syntax unified
  24              		.thumb
  25              		.thumb_func
  27              	_ZN4Mode8MainModeEv:
  28              		.fnstart
  29              	.LVL0:
  30              	.LFB273:
   1:src/mode/main_mode.cpp **** #include "mode.hpp"
   2:src/mode/main_mode.cpp **** 
   3:src/mode/main_mode.cpp **** // cortex-debug用グローバル変数
   4:src/mode/main_mode.cpp **** int yaw;
   5:src/mode/main_mode.cpp **** float voltage;
   6:src/mode/main_mode.cpp **** int process_freq;
   7:src/mode/main_mode.cpp **** int line_dir;
   8:src/mode/main_mode.cpp **** int is_on_line;
   9:src/mode/main_mode.cpp **** int encoder[4];
  10:src/mode/main_mode.cpp **** int debug[2];
  11:src/mode/main_mode.cpp **** 
  12:src/mode/main_mode.cpp **** void Mode::MainMode() {
  31              		.loc 1 12 23 view -0
  32              		.cfi_startproc
  33              		@ args = 0, pretend = 0, frame = 0
  34              		@ frame_needed = 0, uses_anonymous_args = 0
  35              		.loc 1 12 23 is_stmt 0 view .LVU1
  36 0000 10B5     		push	{r4, lr}
  37              		.save {r4, lr}
  38              	.LCFI0:
  39              		.cfi_def_cfa_offset 8
  40              		.cfi_offset 4, -8
  41              		.cfi_offset 14, -4
  42 0002 0446     		mov	r4, r0
  13:src/mode/main_mode.cpp ****       process_timer.reset();
  43              		.loc 1 13 7 is_stmt 1 view .LVU2
  44              		.loc 1 13 26 is_stmt 0 view .LVU3
  45 0004 FFF7FEFF 		bl	_ZN5Timer5resetEv
ARM GAS  /var/folders/5c/srt4fy4j1pd641bjfx75k5000000gn/T//cc2JSVOd.s 			page 2


  46              	.LVL1:
  14:src/mode/main_mode.cpp ****       robot->ImuUart();
  47              		.loc 1 14 7 is_stmt 1 view .LVU4
  48              		.loc 1 14 21 is_stmt 0 view .LVU5
  49 0008 6068     		ldr	r0, [r4, #4]
  50 000a FFF7FEFF 		bl	_ZN5Robot7ImuUartEv
  51              	.LVL2:
  15:src/mode/main_mode.cpp ****       robot->LineUart();
  52              		.loc 1 15 7 is_stmt 1 view .LVU6
  53              		.loc 1 15 22 is_stmt 0 view .LVU7
  54 000e 6068     		ldr	r0, [r4, #4]
  55 0010 FFF7FEFF 		bl	_ZN5Robot8LineUartEv
  56              	.LVL3:
  16:src/mode/main_mode.cpp ****       robot->GetSensors();
  57              		.loc 1 16 7 is_stmt 1 view .LVU8
  58              		.loc 1 16 24 is_stmt 0 view .LVU9
  59 0014 6068     		ldr	r0, [r4, #4]
  60 0016 FFF7FEFF 		bl	_ZN5Robot10GetSensorsEv
  61              	.LVL4:
  17:src/mode/main_mode.cpp ****       robot->info.Line.on_led = 1;
  62              		.loc 1 17 7 is_stmt 1 view .LVU10
  63 001a 6368     		ldr	r3, [r4, #4]
  64              		.loc 1 17 31 is_stmt 0 view .LVU11
  65 001c 0122     		movs	r2, #1
  66 001e 9A74     		strb	r2, [r3, #18]
  18:src/mode/main_mode.cpp **** 
  19:src/mode/main_mode.cpp ****       // static float cnt;
  20:src/mode/main_mode.cpp ****       // cnt += 0.05;
  21:src/mode/main_mode.cpp ****       // robot->motor.Drive(cnt, 0.5);
  22:src/mode/main_mode.cpp ****       // robot->dribbler_front.Hold(20);
  23:src/mode/main_mode.cpp ****       // if (robot->info.Catch.is_front) {
  24:src/mode/main_mode.cpp ****       //       robot->kicker.Kick(0.15);
  25:src/mode/main_mode.cpp ****       // }
  26:src/mode/main_mode.cpp **** 
  27:src/mode/main_mode.cpp ****       // cortex-debug
  28:src/mode/main_mode.cpp ****       yaw = robot->info.Imu.yaw;
  67              		.loc 1 28 7 is_stmt 1 view .LVU12
  68              		.loc 1 28 13 is_stmt 0 view .LVU13
  69 0020 6368     		ldr	r3, [r4, #4]
  70              		.loc 1 28 29 view .LVU14
  71 0022 B3F91C10 		ldrsh	r1, [r3, #28]
  72              		.loc 1 28 11 view .LVU15
  73 0026 1F4A     		ldr	r2, .L5
  74 0028 1160     		str	r1, [r2]
  29:src/mode/main_mode.cpp ****       voltage = robot->info.voltage;
  75              		.loc 1 29 7 is_stmt 1 view .LVU16
  76              		.loc 1 29 29 is_stmt 0 view .LVU17
  77 002a 1968     		ldr	r1, [r3]	@ float
  78              		.loc 1 29 15 view .LVU18
  79 002c 1E4A     		ldr	r2, .L5+4
  80 002e 1160     		str	r1, [r2]	@ float
  30:src/mode/main_mode.cpp ****       line_dir = robot->info.Line.dir;
  81              		.loc 1 30 7 is_stmt 1 view .LVU19
  82              		.loc 1 30 35 is_stmt 0 view .LVU20
  83 0030 B3F90E10 		ldrsh	r1, [r3, #14]
  84              		.loc 1 30 16 view .LVU21
  85 0034 1D4A     		ldr	r2, .L5+8
ARM GAS  /var/folders/5c/srt4fy4j1pd641bjfx75k5000000gn/T//cc2JSVOd.s 			page 3


  86 0036 1160     		str	r1, [r2]
  31:src/mode/main_mode.cpp ****       is_on_line = robot->info.Line.is_on_line;
  87              		.loc 1 31 7 is_stmt 1 view .LVU22
  88              		.loc 1 31 37 is_stmt 0 view .LVU23
  89 0038 597A     		ldrb	r1, [r3, #9]	@ zero_extendqisi2
  90              		.loc 1 31 18 view .LVU24
  91 003a 1D4A     		ldr	r2, .L5+12
  92 003c 1160     		str	r1, [r2]
  32:src/mode/main_mode.cpp **** 
  33:src/mode/main_mode.cpp ****       encoder[0] = robot->info.motor_rps[0];
  93              		.loc 1 33 7 is_stmt 1 view .LVU25
  94              		.loc 1 33 43 is_stmt 0 view .LVU26
  95 003e 1979     		ldrb	r1, [r3, #4]	@ zero_extendqisi2
  96              		.loc 1 33 18 view .LVU27
  97 0040 1C4A     		ldr	r2, .L5+16
  98 0042 1160     		str	r1, [r2]
  34:src/mode/main_mode.cpp ****       encoder[1] = robot->info.motor_rps[1];
  99              		.loc 1 34 7 is_stmt 1 view .LVU28
 100              		.loc 1 34 43 is_stmt 0 view .LVU29
 101 0044 5B79     		ldrb	r3, [r3, #5]	@ zero_extendqisi2
 102              		.loc 1 34 18 view .LVU30
 103 0046 5360     		str	r3, [r2, #4]
  35:src/mode/main_mode.cpp ****       encoder[2] = robot->info.motor_rps[2];
 104              		.loc 1 35 7 is_stmt 1 view .LVU31
 105              		.loc 1 35 20 is_stmt 0 view .LVU32
 106 0048 6368     		ldr	r3, [r4, #4]
 107              		.loc 1 35 43 view .LVU33
 108 004a 9B79     		ldrb	r3, [r3, #6]	@ zero_extendqisi2
 109              		.loc 1 35 18 view .LVU34
 110 004c 9360     		str	r3, [r2, #8]
  36:src/mode/main_mode.cpp ****       encoder[3] = robot->info.motor_rps[3];
 111              		.loc 1 36 7 is_stmt 1 view .LVU35
 112              		.loc 1 36 20 is_stmt 0 view .LVU36
 113 004e 6368     		ldr	r3, [r4, #4]
 114              		.loc 1 36 43 view .LVU37
 115 0050 DB79     		ldrb	r3, [r3, #7]	@ zero_extendqisi2
 116              		.loc 1 36 18 view .LVU38
 117 0052 D360     		str	r3, [r2, #12]
  37:src/mode/main_mode.cpp **** 
  38:src/mode/main_mode.cpp ****       debug[0] = robot->info.Catch.front_val;
 118              		.loc 1 38 7 is_stmt 1 view .LVU39
 119              		.loc 1 38 18 is_stmt 0 view .LVU40
 120 0054 6268     		ldr	r2, [r4, #4]
 121              		.loc 1 38 36 view .LVU41
 122 0056 918A     		ldrh	r1, [r2, #20]
 123              		.loc 1 38 16 view .LVU42
 124 0058 174B     		ldr	r3, .L5+20
 125 005a 1960     		str	r1, [r3]
  39:src/mode/main_mode.cpp ****       debug[1] = robot->info.Catch.back_val;
 126              		.loc 1 39 7 is_stmt 1 view .LVU43
 127              		.loc 1 39 36 is_stmt 0 view .LVU44
 128 005c 128B     		ldrh	r2, [r2, #24]
 129              		.loc 1 39 16 view .LVU45
 130 005e 5A60     		str	r2, [r3, #4]
  40:src/mode/main_mode.cpp **** 
  41:src/mode/main_mode.cpp ****       //  定周期処理
  42:src/mode/main_mode.cpp ****       process_time_ = process_timer.read_us();
ARM GAS  /var/folders/5c/srt4fy4j1pd641bjfx75k5000000gn/T//cc2JSVOd.s 			page 4


 131              		.loc 1 42 7 is_stmt 1 view .LVU46
 132              		.loc 1 42 44 is_stmt 0 view .LVU47
 133 0060 2046     		mov	r0, r4
 134 0062 FFF7FEFF 		bl	_ZN5Timer7read_usEv
 135              	.LVL5:
 136              		.loc 1 42 21 view .LVU48
 137 0066 80B2     		uxth	r0, r0
 138 0068 2081     		strh	r0, [r4, #8]	@ movhi
  43:src/mode/main_mode.cpp ****       if (process_time_ < PERIOD_US) {
 139              		.loc 1 43 7 is_stmt 1 view .LVU49
 140 006a C728     		cmp	r0, #199
 141 006c 04D8     		bhi	.L2
 142              	.L3:
  44:src/mode/main_mode.cpp ****             while (process_timer.read_us() < PERIOD_US);
 143              		.loc 1 44 44 discriminator 1 view .LVU50
 144              		.loc 1 44 41 is_stmt 0 discriminator 1 view .LVU51
 145 006e 2046     		mov	r0, r4
 146 0070 FFF7FEFF 		bl	_ZN5Timer7read_usEv
 147              	.LVL6:
 148              		.loc 1 44 44 discriminator 1 view .LVU52
 149 0074 C728     		cmp	r0, #199
 150 0076 FAD9     		bls	.L3
 151              	.L2:
  45:src/mode/main_mode.cpp ****       }
  46:src/mode/main_mode.cpp ****       process_freq = 1.0f / (process_timer.read_us() * 0.000001f);
 152              		.loc 1 46 7 is_stmt 1 view .LVU53
 153              		.loc 1 46 51 is_stmt 0 view .LVU54
 154 0078 2046     		mov	r0, r4
 155 007a FFF7FEFF 		bl	_ZN5Timer7read_usEv
 156              	.LVL7:
 157 007e 07EE900A 		vmov	s15, r0	@ int
 158              		.loc 1 46 54 view .LVU55
 159 0082 F8EE677A 		vcvt.f32.u32	s15, s15
 160 0086 9FED0D7A 		vldr.32	s14, .L5+24
 161 008a 67EE877A 		vmul.f32	s15, s15, s14
 162              		.loc 1 46 27 view .LVU56
 163 008e F7EE006A 		vmov.f32	s13, #1.0e+0
 164 0092 86EEA77A 		vdiv.f32	s14, s13, s15
 165              		.loc 1 46 20 view .LVU57
 166 0096 BDEEC77A 		vcvt.s32.f32	s14, s14
 167 009a 094B     		ldr	r3, .L5+28
 168 009c 83ED007A 		vstr.32	s14, [r3]	@ int
  47:src/mode/main_mode.cpp **** }...
 169              		.loc 1 47 1 view .LVU58
 170 00a0 10BD     		pop	{r4, pc}
 171              	.LVL8:
 172              	.L6:
 173              		.loc 1 47 1 view .LVU59
 174 00a2 00BF     		.align	2
 175              	.L5:
 176 00a4 00000000 		.word	yaw
 177 00a8 00000000 		.word	voltage
 178 00ac 00000000 		.word	line_dir
 179 00b0 00000000 		.word	is_on_line
 180 00b4 00000000 		.word	encoder
 181 00b8 00000000 		.word	debug
 182 00bc BD378635 		.word	897988541
ARM GAS  /var/folders/5c/srt4fy4j1pd641bjfx75k5000000gn/T//cc2JSVOd.s 			page 5


 183 00c0 00000000 		.word	process_freq
 184              		.cfi_endproc
 185              	.LFE273:
 186              		.fnend
 188              		.global	debug
 189              		.section	.bss.debug,"aw",%nobits
 190              		.align	2
 193              	debug:
 194 0000 00000000 		.space	8
 194      00000000 
 195              		.global	encoder
 196              		.section	.bss.encoder,"aw",%nobits
 197              		.align	2
 200              	encoder:
 201 0000 00000000 		.space	16
 201      00000000 
 201      00000000 
 201      00000000 
 202              		.global	is_on_line
 203              		.section	.bss.is_on_line,"aw",%nobits
 204              		.align	2
 207              	is_on_line:
 208 0000 00000000 		.space	4
 209              		.global	line_dir
 210              		.section	.bss.line_dir,"aw",%nobits
 211              		.align	2
 214              	line_dir:
 215 0000 00000000 		.space	4
 216              		.global	process_freq
 217              		.section	.bss.process_freq,"aw",%nobits
 218              		.align	2
 221              	process_freq:
 222 0000 00000000 		.space	4
 223              		.global	voltage
 224              		.section	.bss.voltage,"aw",%nobits
 225              		.align	2
 228              	voltage:
 229 0000 00000000 		.space	4
 230              		.global	yaw
 231              		.section	.bss.yaw,"aw",%nobits
 232              		.align	2
 235              	yaw:
 236 0000 00000000 		.space	4
 237              		.text
 238              	.Letext0:
 239              		.file 2 "/opt/ST/STM32CubeCLT_1.16.0/GNU-tools-for-STM32/arm-none-eabi/include/machine/_default_ty
 240              		.file 3 "/opt/ST/STM32CubeCLT_1.16.0/GNU-tools-for-STM32/lib/gcc/arm-none-eabi/12.3.1/include/stdd
 241              		.file 4 "/opt/ST/STM32CubeCLT_1.16.0/GNU-tools-for-STM32/arm-none-eabi/include/sys/_types.h"
 242              		.file 5 "/opt/ST/STM32CubeCLT_1.16.0/GNU-tools-for-STM32/arm-none-eabi/include/sys/reent.h"
 243              		.file 6 "/opt/ST/STM32CubeCLT_1.16.0/GNU-tools-for-STM32/arm-none-eabi/include/sys/lock.h"
 244              		.file 7 "/opt/ST/STM32CubeCLT_1.16.0/GNU-tools-for-STM32/arm-none-eabi/include/stdio.h"
 245              		.file 8 "/opt/ST/STM32CubeCLT_1.16.0/GNU-tools-for-STM32/arm-none-eabi/include/sys/_stdint.h"
 246              		.file 9 "Drivers/CMSIS/Device/ST/STM32F4xx/Include/stm32f446xx.h"
 247              		.file 10 "Drivers/CMSIS/Device/ST/STM32F4xx/Include/stm32f4xx.h"
 248              		.file 11 "Drivers/STM32F4xx_HAL_Driver/Inc/stm32f4xx_hal_def.h"
 249              		.file 12 "Drivers/STM32F4xx_HAL_Driver/Inc/stm32f4xx_hal_dma.h"
 250              		.file 13 "Drivers/STM32F4xx_HAL_Driver/Inc/stm32f4xx_hal_tim.h"
ARM GAS  /var/folders/5c/srt4fy4j1pd641bjfx75k5000000gn/T//cc2JSVOd.s 			page 6


 251              		.file 14 "Drivers/STM32F4xx_HAL_Driver/Inc/stm32f4xx_hal_uart.h"
 252              		.file 15 "Drivers/STM32F4xx_HAL_Driver/Inc/stm32f4xx_hal.h"
 253              		.file 16 "Lib/BufferedSerial/BufferedSerial.hpp"
 254              		.file 17 "Lib/DigitalInOut/DigitalInOut.hpp"
 255              		.file 18 "Lib/MovingAve/MovingAve.hpp"
 256              		.file 19 "/opt/ST/STM32CubeCLT_1.16.0/GNU-tools-for-STM32/arm-none-eabi/include/c++/12.3.1/cstdio"
 257              		.file 20 "/opt/ST/STM32CubeCLT_1.16.0/GNU-tools-for-STM32/arm-none-eabi/include/c++/12.3.1/arm-non
 258              		.file 21 "Lib/PWMSingle/PWMSingle.hpp"
 259              		.file 22 "Lib/Timer/Timer.hpp"
 260              		.file 23 "src/unit/dribbler_drive/dribbler_drive.hpp"
 261              		.file 24 "src/unit/kicker/kicker.hpp"
 262              		.file 25 "Lib/pid/pid.hpp"
 263              		.file 26 "src/unit/motor_drive/motor_drive.hpp"
 264              		.file 27 "src/unit/robot/robot.hpp"
 265              		.file 28 "src/mode/mode.hpp"
ARM GAS  /var/folders/5c/srt4fy4j1pd641bjfx75k5000000gn/T//cc2JSVOd.s 			page 7


DEFINED SYMBOLS
                            *ABS*:00000000 main_mode.cpp
/var/folders/5c/srt4fy4j1pd641bjfx75k5000000gn/T//cc2JSVOd.s:21     .text._ZN4Mode8MainModeEv:00000000 $t
/var/folders/5c/srt4fy4j1pd641bjfx75k5000000gn/T//cc2JSVOd.s:27     .text._ZN4Mode8MainModeEv:00000000 _ZN4Mode8MainModeEv
/var/folders/5c/srt4fy4j1pd641bjfx75k5000000gn/T//cc2JSVOd.s:176    .text._ZN4Mode8MainModeEv:000000a4 $d
/var/folders/5c/srt4fy4j1pd641bjfx75k5000000gn/T//cc2JSVOd.s:235    .bss.yaw:00000000 yaw
/var/folders/5c/srt4fy4j1pd641bjfx75k5000000gn/T//cc2JSVOd.s:228    .bss.voltage:00000000 voltage
/var/folders/5c/srt4fy4j1pd641bjfx75k5000000gn/T//cc2JSVOd.s:214    .bss.line_dir:00000000 line_dir
/var/folders/5c/srt4fy4j1pd641bjfx75k5000000gn/T//cc2JSVOd.s:207    .bss.is_on_line:00000000 is_on_line
/var/folders/5c/srt4fy4j1pd641bjfx75k5000000gn/T//cc2JSVOd.s:200    .bss.encoder:00000000 encoder
/var/folders/5c/srt4fy4j1pd641bjfx75k5000000gn/T//cc2JSVOd.s:193    .bss.debug:00000000 debug
/var/folders/5c/srt4fy4j1pd641bjfx75k5000000gn/T//cc2JSVOd.s:221    .bss.process_freq:00000000 process_freq
.ARM.exidx.text._ZN4Mode8MainModeEv:00000000 $d
/var/folders/5c/srt4fy4j1pd641bjfx75k5000000gn/T//cc2JSVOd.s:190    .bss.debug:00000000 $d
/var/folders/5c/srt4fy4j1pd641bjfx75k5000000gn/T//cc2JSVOd.s:197    .bss.encoder:00000000 $d
/var/folders/5c/srt4fy4j1pd641bjfx75k5000000gn/T//cc2JSVOd.s:204    .bss.is_on_line:00000000 $d
/var/folders/5c/srt4fy4j1pd641bjfx75k5000000gn/T//cc2JSVOd.s:211    .bss.line_dir:00000000 $d
/var/folders/5c/srt4fy4j1pd641bjfx75k5000000gn/T//cc2JSVOd.s:218    .bss.process_freq:00000000 $d
/var/folders/5c/srt4fy4j1pd641bjfx75k5000000gn/T//cc2JSVOd.s:225    .bss.voltage:00000000 $d
/var/folders/5c/srt4fy4j1pd641bjfx75k5000000gn/T//cc2JSVOd.s:232    .bss.yaw:00000000 $d

UNDEFINED SYMBOLS
_ZN5Timer5resetEv
_ZN5Robot7ImuUartEv
_ZN5Robot8LineUartEv
_ZN5Robot10GetSensorsEv
_ZN5Timer7read_usEv
__aeabi_unwind_cpp_pr0
