ARM GAS  /var/folders/5c/srt4fy4j1pd641bjfx75k5000000gn/T//ccYzjL5A.s 			page 1


   1              		.cpu cortex-m4
   2              		.arch armv7e-m
   3              		.fpu fpv4-sp-d16
   4              		.eabi_attribute 27, 1
   5              		.eabi_attribute 28, 1
   6              		.eabi_attribute 20, 1
   7              		.eabi_attribute 21, 1
   8              		.eabi_attribute 23, 3
   9              		.eabi_attribute 24, 1
  10              		.eabi_attribute 25, 1
  11              		.eabi_attribute 26, 1
  12              		.eabi_attribute 30, 1
  13              		.eabi_attribute 34, 1
  14              		.eabi_attribute 18, 4
  15              		.file	"main_mode.cpp"
  16              		.text
  17              	.Ltext0:
  18              		.cfi_sections	.debug_frame
  19              		.file 1 "src/mode/main_mode.cpp"
  20              		.section	.text._ZN4Mode8MainModeEv,"ax",%progbits
  21              		.align	1
  22              		.global	_ZN4Mode8MainModeEv
  23              		.syntax unified
  24              		.thumb
  25              		.thumb_func
  27              	_ZN4Mode8MainModeEv:
  28              		.fnstart
  29              	.LVL0:
  30              	.LFB272:
   1:src/mode/main_mode.cpp **** #include "mode.hpp"
   2:src/mode/main_mode.cpp **** 
   3:src/mode/main_mode.cpp **** // cortex-debug用グローバル変数
   4:src/mode/main_mode.cpp **** int yaw;
   5:src/mode/main_mode.cpp **** float voltage;
   6:src/mode/main_mode.cpp **** int process_freq;
   7:src/mode/main_mode.cpp **** int line_dir;
   8:src/mode/main_mode.cpp **** int is_on_line;
   9:src/mode/main_mode.cpp **** int encoder[4];
  10:src/mode/main_mode.cpp **** int debug[2];
  11:src/mode/main_mode.cpp **** 
  12:src/mode/main_mode.cpp **** void Mode::MainMode() {
  31              		.loc 1 12 23 view -0
  32              		.cfi_startproc
  33              		@ args = 0, pretend = 0, frame = 0
  34              		@ frame_needed = 0, uses_anonymous_args = 0
  35              		.loc 1 12 23 is_stmt 0 view .LVU1
  36 0000 10B5     		push	{r4, lr}
  37              		.save {r4, lr}
  38              	.LCFI0:
  39              		.cfi_def_cfa_offset 8
  40              		.cfi_offset 4, -8
  41              		.cfi_offset 14, -4
  42 0002 0446     		mov	r4, r0
  13:src/mode/main_mode.cpp ****       process_timer.reset();
  43              		.loc 1 13 7 is_stmt 1 view .LVU2
  44              		.loc 1 13 26 is_stmt 0 view .LVU3
  45 0004 FFF7FEFF 		bl	_ZN5Timer5resetEv
ARM GAS  /var/folders/5c/srt4fy4j1pd641bjfx75k5000000gn/T//ccYzjL5A.s 			page 2


  46              	.LVL1:
  14:src/mode/main_mode.cpp ****       robot->ImuUart();
  47              		.loc 1 14 7 is_stmt 1 view .LVU4
  48              		.loc 1 14 21 is_stmt 0 view .LVU5
  49 0008 6068     		ldr	r0, [r4, #4]
  50 000a FFF7FEFF 		bl	_ZN5Robot7ImuUartEv
  51              	.LVL2:
  15:src/mode/main_mode.cpp ****       robot->LineUart();
  52              		.loc 1 15 7 is_stmt 1 view .LVU6
  53              		.loc 1 15 22 is_stmt 0 view .LVU7
  54 000e 6068     		ldr	r0, [r4, #4]
  55 0010 FFF7FEFF 		bl	_ZN5Robot8LineUartEv
  56              	.LVL3:
  16:src/mode/main_mode.cpp ****       robot->UiUart();
  57              		.loc 1 16 7 is_stmt 1 view .LVU8
  58              		.loc 1 16 20 is_stmt 0 view .LVU9
  59 0014 6068     		ldr	r0, [r4, #4]
  60 0016 FFF7FEFF 		bl	_ZN5Robot6UiUartEv
  61              	.LVL4:
  17:src/mode/main_mode.cpp ****       robot->CamUart();
  62              		.loc 1 17 7 is_stmt 1 view .LVU10
  63              		.loc 1 17 21 is_stmt 0 view .LVU11
  64 001a 6068     		ldr	r0, [r4, #4]
  65 001c FFF7FEFF 		bl	_ZN5Robot7CamUartEv
  66              	.LVL5:
  18:src/mode/main_mode.cpp ****       robot->GetSensors();
  67              		.loc 1 18 7 is_stmt 1 view .LVU12
  68              		.loc 1 18 24 is_stmt 0 view .LVU13
  69 0020 6068     		ldr	r0, [r4, #4]
  70 0022 FFF7FEFF 		bl	_ZN5Robot10GetSensorsEv
  71              	.LVL6:
  19:src/mode/main_mode.cpp ****       robot->info.Line.on_led = 1;
  72              		.loc 1 19 7 is_stmt 1 view .LVU14
  73 0026 6368     		ldr	r3, [r4, #4]
  74              		.loc 1 19 31 is_stmt 0 view .LVU15
  75 0028 0122     		movs	r2, #1
  76 002a 9A77     		strb	r2, [r3, #30]
  20:src/mode/main_mode.cpp **** 
  21:src/mode/main_mode.cpp ****       if (robot->info.mode == 0) {
  77              		.loc 1 21 7 is_stmt 1 view .LVU16
  78              		.loc 1 21 11 is_stmt 0 view .LVU17
  79 002c 6068     		ldr	r0, [r4, #4]
  80              		.loc 1 21 23 view .LVU18
  81 002e 037A     		ldrb	r3, [r0, #8]	@ zero_extendqisi2
  82              		.loc 1 21 7 view .LVU19
  83 0030 002B     		cmp	r3, #0
  84 0032 46D0     		beq	.L13
  22:src/mode/main_mode.cpp ****             robot->motor.Free();
  23:src/mode/main_mode.cpp **** 
  24:src/mode/main_mode.cpp ****             if (robot->info.Ui.dribbler_sig == 0) {
  25:src/mode/main_mode.cpp ****                   robot->dribbler_front.Hold(0);
  26:src/mode/main_mode.cpp ****                   robot->dribbler_back.Hold(0);
  27:src/mode/main_mode.cpp ****             } else if (robot->info.Ui.dribbler_sig == 1) {
  28:src/mode/main_mode.cpp ****                   if (robot->info.Catch.is_front) {
  29:src/mode/main_mode.cpp ****                         robot->dribbler_front.Hold(HOLD_MAX_POWER);
  30:src/mode/main_mode.cpp ****                   } else {
  31:src/mode/main_mode.cpp ****                         robot->dribbler_front.Hold(HOLD_WAIT_POWER);
ARM GAS  /var/folders/5c/srt4fy4j1pd641bjfx75k5000000gn/T//ccYzjL5A.s 			page 3


  32:src/mode/main_mode.cpp ****                   }
  33:src/mode/main_mode.cpp ****             } else if (robot->info.Ui.dribbler_sig == 2) {
  34:src/mode/main_mode.cpp ****                   robot->kicker.Kick();
  35:src/mode/main_mode.cpp ****             } else if (robot->info.Ui.dribbler_sig == 3) {
  36:src/mode/main_mode.cpp ****                   if (robot->info.Catch.is_back) {
  37:src/mode/main_mode.cpp ****                         robot->dribbler_back.Hold(HOLD_MAX_POWER);
  38:src/mode/main_mode.cpp ****                   } else {
  39:src/mode/main_mode.cpp ****                         robot->dribbler_back.Hold(HOLD_WAIT_POWER);
  40:src/mode/main_mode.cpp ****                   }
  41:src/mode/main_mode.cpp ****             }
  42:src/mode/main_mode.cpp ****       } else if (robot->info.mode == 1) {
  85              		.loc 1 42 14 is_stmt 1 view .LVU20
  86 0034 012B     		cmp	r3, #1
  87 0036 00F08380 		beq	.L14
  43:src/mode/main_mode.cpp ****             Offence();
  44:src/mode/main_mode.cpp ****       } else if (robot->info.mode == 2) {
  88              		.loc 1 44 14 view .LVU21
  89 003a 022B     		cmp	r3, #2
  90 003c 00F08480 		beq	.L15
  91              	.L4:
  45:src/mode/main_mode.cpp ****             Defence();
  46:src/mode/main_mode.cpp ****       }
  47:src/mode/main_mode.cpp **** 
  48:src/mode/main_mode.cpp ****       // cortex-debug
  49:src/mode/main_mode.cpp ****       yaw = robot->info.Imu.yaw;
  92              		.loc 1 49 7 view .LVU22
  93              		.loc 1 49 13 is_stmt 0 view .LVU23
  94 0040 6368     		ldr	r3, [r4, #4]
  95              		.loc 1 49 29 view .LVU24
  96 0042 B3F92810 		ldrsh	r1, [r3, #40]
  97              		.loc 1 49 11 view .LVU25
  98 0046 424A     		ldr	r2, .L19
  99 0048 1160     		str	r1, [r2]
  50:src/mode/main_mode.cpp ****       voltage = robot->info.voltage;
 100              		.loc 1 50 7 is_stmt 1 view .LVU26
 101              		.loc 1 50 29 is_stmt 0 view .LVU27
 102 004a 1968     		ldr	r1, [r3]	@ float
 103              		.loc 1 50 15 view .LVU28
 104 004c 414A     		ldr	r2, .L19+4
 105 004e 1160     		str	r1, [r2]	@ float
  51:src/mode/main_mode.cpp ****       line_dir = robot->info.Line.dir;
 106              		.loc 1 51 7 is_stmt 1 view .LVU29
 107              		.loc 1 51 35 is_stmt 0 view .LVU30
 108 0050 B3F91A10 		ldrsh	r1, [r3, #26]
 109              		.loc 1 51 16 view .LVU31
 110 0054 404A     		ldr	r2, .L19+8
 111 0056 1160     		str	r1, [r2]
  52:src/mode/main_mode.cpp ****       is_on_line = robot->info.Line.is_on_line;
 112              		.loc 1 52 7 is_stmt 1 view .LVU32
 113              		.loc 1 52 37 is_stmt 0 view .LVU33
 114 0058 997D     		ldrb	r1, [r3, #22]	@ zero_extendqisi2
 115              		.loc 1 52 18 view .LVU34
 116 005a 404A     		ldr	r2, .L19+12
 117 005c 1160     		str	r1, [r2]
  53:src/mode/main_mode.cpp **** 
  54:src/mode/main_mode.cpp ****       encoder[0] = robot->info.motor_rps[0];
 118              		.loc 1 54 7 is_stmt 1 view .LVU35
ARM GAS  /var/folders/5c/srt4fy4j1pd641bjfx75k5000000gn/T//ccYzjL5A.s 			page 4


 119              		.loc 1 54 43 is_stmt 0 view .LVU36
 120 005e 1979     		ldrb	r1, [r3, #4]	@ zero_extendqisi2
 121              		.loc 1 54 18 view .LVU37
 122 0060 3F4A     		ldr	r2, .L19+16
 123 0062 1160     		str	r1, [r2]
  55:src/mode/main_mode.cpp ****       encoder[1] = robot->info.motor_rps[1];
 124              		.loc 1 55 7 is_stmt 1 view .LVU38
 125              		.loc 1 55 43 is_stmt 0 view .LVU39
 126 0064 5B79     		ldrb	r3, [r3, #5]	@ zero_extendqisi2
 127              		.loc 1 55 18 view .LVU40
 128 0066 5360     		str	r3, [r2, #4]
  56:src/mode/main_mode.cpp ****       encoder[2] = robot->info.motor_rps[2];
 129              		.loc 1 56 7 is_stmt 1 view .LVU41
 130              		.loc 1 56 20 is_stmt 0 view .LVU42
 131 0068 6368     		ldr	r3, [r4, #4]
 132              		.loc 1 56 43 view .LVU43
 133 006a 9B79     		ldrb	r3, [r3, #6]	@ zero_extendqisi2
 134              		.loc 1 56 18 view .LVU44
 135 006c 9360     		str	r3, [r2, #8]
  57:src/mode/main_mode.cpp ****       encoder[3] = robot->info.motor_rps[3];
 136              		.loc 1 57 7 is_stmt 1 view .LVU45
 137              		.loc 1 57 20 is_stmt 0 view .LVU46
 138 006e 6368     		ldr	r3, [r4, #4]
 139              		.loc 1 57 43 view .LVU47
 140 0070 DB79     		ldrb	r3, [r3, #7]	@ zero_extendqisi2
 141              		.loc 1 57 18 view .LVU48
 142 0072 D360     		str	r3, [r2, #12]
  58:src/mode/main_mode.cpp **** 
  59:src/mode/main_mode.cpp ****       debug[0] = robot->info.Catch.front_val;
 143              		.loc 1 59 7 is_stmt 1 view .LVU49
 144              		.loc 1 59 18 is_stmt 0 view .LVU50
 145 0074 6268     		ldr	r2, [r4, #4]
 146              		.loc 1 59 36 view .LVU51
 147 0076 118C     		ldrh	r1, [r2, #32]
 148              		.loc 1 59 16 view .LVU52
 149 0078 3A4B     		ldr	r3, .L19+20
 150 007a 1960     		str	r1, [r3]
  60:src/mode/main_mode.cpp ****       debug[1] = robot->info.Catch.back_val;
 151              		.loc 1 60 7 is_stmt 1 view .LVU53
 152              		.loc 1 60 36 is_stmt 0 view .LVU54
 153 007c 928C     		ldrh	r2, [r2, #36]
 154              		.loc 1 60 16 view .LVU55
 155 007e 5A60     		str	r2, [r3, #4]
  61:src/mode/main_mode.cpp **** 
  62:src/mode/main_mode.cpp ****       //  定周期処理
  63:src/mode/main_mode.cpp ****       process_time_ = process_timer.read_us();
 156              		.loc 1 63 7 is_stmt 1 view .LVU56
 157              		.loc 1 63 44 is_stmt 0 view .LVU57
 158 0080 2046     		mov	r0, r4
 159 0082 FFF7FEFF 		bl	_ZN5Timer7read_usEv
 160              	.LVL7:
 161              		.loc 1 63 21 view .LVU58
 162 0086 80B2     		uxth	r0, r0
 163 0088 2081     		strh	r0, [r4, #8]	@ movhi
  64:src/mode/main_mode.cpp ****       if (process_time_ < PERIOD_US) {
 164              		.loc 1 64 7 is_stmt 1 view .LVU59
 165 008a C728     		cmp	r0, #199
ARM GAS  /var/folders/5c/srt4fy4j1pd641bjfx75k5000000gn/T//ccYzjL5A.s 			page 5


 166 008c 04D8     		bhi	.L10
 167              	.L11:
  65:src/mode/main_mode.cpp ****             while (process_timer.read_us() < PERIOD_US);
 168              		.loc 1 65 44 discriminator 1 view .LVU60
 169              		.loc 1 65 41 is_stmt 0 discriminator 1 view .LVU61
 170 008e 2046     		mov	r0, r4
 171 0090 FFF7FEFF 		bl	_ZN5Timer7read_usEv
 172              	.LVL8:
 173              		.loc 1 65 44 discriminator 1 view .LVU62
 174 0094 C728     		cmp	r0, #199
 175 0096 FAD9     		bls	.L11
 176              	.L10:
  66:src/mode/main_mode.cpp ****       }
  67:src/mode/main_mode.cpp ****       process_freq = 1.0f / (process_timer.read_us() * 0.000001f);
 177              		.loc 1 67 7 is_stmt 1 view .LVU63
 178              		.loc 1 67 51 is_stmt 0 view .LVU64
 179 0098 2046     		mov	r0, r4
 180 009a FFF7FEFF 		bl	_ZN5Timer7read_usEv
 181              	.LVL9:
 182 009e 07EE900A 		vmov	s15, r0	@ int
 183              		.loc 1 67 54 view .LVU65
 184 00a2 F8EE677A 		vcvt.f32.u32	s15, s15
 185 00a6 9FED307A 		vldr.32	s14, .L19+24
 186 00aa 67EE877A 		vmul.f32	s15, s15, s14
 187              		.loc 1 67 27 view .LVU66
 188 00ae F7EE006A 		vmov.f32	s13, #1.0e+0
 189 00b2 86EEA77A 		vdiv.f32	s14, s13, s15
 190              		.loc 1 67 20 view .LVU67
 191 00b6 BDEEC77A 		vcvt.s32.f32	s14, s14
 192 00ba 2C4B     		ldr	r3, .L19+28
 193 00bc 83ED007A 		vstr.32	s14, [r3]	@ int
  68:src/mode/main_mode.cpp **** }...
 194              		.loc 1 68 1 view .LVU68
 195 00c0 10BD     		pop	{r4, pc}
 196              	.LVL10:
 197              	.L13:
  22:src/mode/main_mode.cpp ****             robot->motor.Free();
 198              		.loc 1 22 13 is_stmt 1 view .LVU69
  22:src/mode/main_mode.cpp ****             robot->motor.Free();
 199              		.loc 1 22 30 is_stmt 0 view .LVU70
 200 00c2 00F59870 		add	r0, r0, #304
 201 00c6 FFF7FEFF 		bl	_ZN10MotorDrive4FreeEv
 202              	.LVL11:
  24:src/mode/main_mode.cpp ****             if (robot->info.Ui.dribbler_sig == 0) {
 203              		.loc 1 24 13 is_stmt 1 view .LVU71
  24:src/mode/main_mode.cpp ****             if (robot->info.Ui.dribbler_sig == 0) {
 204              		.loc 1 24 17 is_stmt 0 view .LVU72
 205 00ca 6068     		ldr	r0, [r4, #4]
  24:src/mode/main_mode.cpp ****             if (robot->info.Ui.dribbler_sig == 0) {
 206              		.loc 1 24 32 view .LVU73
 207 00cc 90F82F30 		ldrb	r3, [r0, #47]	@ zero_extendqisi2
  24:src/mode/main_mode.cpp ****             if (robot->info.Ui.dribbler_sig == 0) {
 208              		.loc 1 24 13 view .LVU74
 209 00d0 73B1     		cbz	r3, .L16
  27:src/mode/main_mode.cpp ****             } else if (robot->info.Ui.dribbler_sig == 1) {
 210              		.loc 1 27 20 is_stmt 1 view .LVU75
 211 00d2 012B     		cmp	r3, #1
ARM GAS  /var/folders/5c/srt4fy4j1pd641bjfx75k5000000gn/T//ccYzjL5A.s 			page 6


 212 00d4 18D0     		beq	.L17
  33:src/mode/main_mode.cpp ****             } else if (robot->info.Ui.dribbler_sig == 2) {
 213              		.loc 1 33 20 view .LVU76
 214 00d6 022B     		cmp	r3, #2
 215 00d8 25D0     		beq	.L18
  35:src/mode/main_mode.cpp ****             } else if (robot->info.Ui.dribbler_sig == 3) {
 216              		.loc 1 35 20 view .LVU77
 217 00da 032B     		cmp	r3, #3
 218 00dc B0D1     		bne	.L4
  36:src/mode/main_mode.cpp ****                   if (robot->info.Catch.is_back) {
 219              		.loc 1 36 19 view .LVU78
  36:src/mode/main_mode.cpp ****                   if (robot->info.Catch.is_back) {
 220              		.loc 1 36 41 is_stmt 0 view .LVU79
 221 00de 90F82630 		ldrb	r3, [r0, #38]	@ zero_extendqisi2
  36:src/mode/main_mode.cpp ****                   if (robot->info.Catch.is_back) {
 222              		.loc 1 36 19 view .LVU80
 223 00e2 3BB3     		cbz	r3, .L8
  37:src/mode/main_mode.cpp ****                         robot->dribbler_back.Hold(HOLD_MAX_POWER);
 224              		.loc 1 37 25 is_stmt 1 view .LVU81
  37:src/mode/main_mode.cpp ****                         robot->dribbler_back.Hold(HOLD_MAX_POWER);
 225              		.loc 1 37 50 is_stmt 0 view .LVU82
 226 00e4 6421     		movs	r1, #100
 227 00e6 00F59B50 		add	r0, r0, #4960
 228 00ea FFF7FEFF 		bl	_ZN13DribblerDrive4HoldEh
 229              	.LVL12:
 230 00ee A7E7     		b	.L4
 231              	.L16:
  25:src/mode/main_mode.cpp ****                   robot->dribbler_front.Hold(0);
 232              		.loc 1 25 19 is_stmt 1 view .LVU83
  25:src/mode/main_mode.cpp ****                   robot->dribbler_front.Hold(0);
 233              		.loc 1 25 45 is_stmt 0 view .LVU84
 234 00f0 0021     		movs	r1, #0
 235 00f2 00F58150 		add	r0, r0, #4128
 236 00f6 FFF7FEFF 		bl	_ZN13DribblerDrive4HoldEh
 237              	.LVL13:
  26:src/mode/main_mode.cpp ****                   robot->dribbler_back.Hold(0);
 238              		.loc 1 26 19 is_stmt 1 view .LVU85
 239 00fa 6068     		ldr	r0, [r4, #4]
  26:src/mode/main_mode.cpp ****                   robot->dribbler_back.Hold(0);
 240              		.loc 1 26 44 is_stmt 0 view .LVU86
 241 00fc 0021     		movs	r1, #0
 242 00fe 00F59B50 		add	r0, r0, #4960
 243 0102 FFF7FEFF 		bl	_ZN13DribblerDrive4HoldEh
 244              	.LVL14:
 245 0106 9BE7     		b	.L4
 246              	.L17:
  28:src/mode/main_mode.cpp ****                   if (robot->info.Catch.is_front) {
 247              		.loc 1 28 19 is_stmt 1 view .LVU87
  28:src/mode/main_mode.cpp ****                   if (robot->info.Catch.is_front) {
 248              		.loc 1 28 41 is_stmt 0 view .LVU88
 249 0108 90F82230 		ldrb	r3, [r0, #34]	@ zero_extendqisi2
  28:src/mode/main_mode.cpp ****                   if (robot->info.Catch.is_front) {
 250              		.loc 1 28 19 view .LVU89
 251 010c 2BB1     		cbz	r3, .L6
  29:src/mode/main_mode.cpp ****                         robot->dribbler_front.Hold(HOLD_MAX_POWER);
 252              		.loc 1 29 25 is_stmt 1 view .LVU90
  29:src/mode/main_mode.cpp ****                         robot->dribbler_front.Hold(HOLD_MAX_POWER);
ARM GAS  /var/folders/5c/srt4fy4j1pd641bjfx75k5000000gn/T//ccYzjL5A.s 			page 7


 253              		.loc 1 29 51 is_stmt 0 view .LVU91
 254 010e 6421     		movs	r1, #100
 255 0110 00F58150 		add	r0, r0, #4128
 256 0114 FFF7FEFF 		bl	_ZN13DribblerDrive4HoldEh
 257              	.LVL15:
 258 0118 92E7     		b	.L4
 259              	.L6:
  31:src/mode/main_mode.cpp ****                         robot->dribbler_front.Hold(HOLD_WAIT_POWER);
 260              		.loc 1 31 25 is_stmt 1 view .LVU92
  31:src/mode/main_mode.cpp ****                         robot->dribbler_front.Hold(HOLD_WAIT_POWER);
 261              		.loc 1 31 51 is_stmt 0 view .LVU93
 262 011a 3221     		movs	r1, #50
 263 011c 00F58150 		add	r0, r0, #4128
 264 0120 FFF7FEFF 		bl	_ZN13DribblerDrive4HoldEh
 265              	.LVL16:
 266 0124 8CE7     		b	.L4
 267              	.L18:
  34:src/mode/main_mode.cpp ****                   robot->kicker.Kick();
 268              		.loc 1 34 19 is_stmt 1 view .LVU94
  34:src/mode/main_mode.cpp ****                   robot->kicker.Kick();
 269              		.loc 1 34 37 is_stmt 0 view .LVU95
 270 0126 B7EE000A 		vmov.f32	s0, #1.0e+0
 271 012a 00F5B550 		add	r0, r0, #5792
 272 012e FFF7FEFF 		bl	_ZN6Kicker4KickEf
 273              	.LVL17:
 274 0132 85E7     		b	.L4
 275              	.L8:
  39:src/mode/main_mode.cpp ****                         robot->dribbler_back.Hold(HOLD_WAIT_POWER);
 276              		.loc 1 39 25 is_stmt 1 view .LVU96
  39:src/mode/main_mode.cpp ****                         robot->dribbler_back.Hold(HOLD_WAIT_POWER);
 277              		.loc 1 39 50 is_stmt 0 view .LVU97
 278 0134 3221     		movs	r1, #50
 279 0136 00F59B50 		add	r0, r0, #4960
 280 013a FFF7FEFF 		bl	_ZN13DribblerDrive4HoldEh
 281              	.LVL18:
 282 013e 7FE7     		b	.L4
 283              	.L14:
  43:src/mode/main_mode.cpp ****             Offence();
 284              		.loc 1 43 13 is_stmt 1 view .LVU98
  43:src/mode/main_mode.cpp ****             Offence();
 285              		.loc 1 43 20 is_stmt 0 view .LVU99
 286 0140 2046     		mov	r0, r4
 287 0142 FFF7FEFF 		bl	_ZN4Mode7OffenceEv
 288              	.LVL19:
 289 0146 7BE7     		b	.L4
 290              	.L15:
  45:src/mode/main_mode.cpp ****             Defence();
 291              		.loc 1 45 13 is_stmt 1 view .LVU100
  45:src/mode/main_mode.cpp ****             Defence();
 292              		.loc 1 45 20 is_stmt 0 view .LVU101
 293 0148 2046     		mov	r0, r4
 294 014a FFF7FEFF 		bl	_ZN4Mode7DefenceEv
 295              	.LVL20:
 296 014e 77E7     		b	.L4
 297              	.L20:
 298              		.align	2
 299              	.L19:
ARM GAS  /var/folders/5c/srt4fy4j1pd641bjfx75k5000000gn/T//ccYzjL5A.s 			page 8


 300 0150 00000000 		.word	yaw
 301 0154 00000000 		.word	voltage
 302 0158 00000000 		.word	line_dir
 303 015c 00000000 		.word	is_on_line
 304 0160 00000000 		.word	encoder
 305 0164 00000000 		.word	debug
 306 0168 BD378635 		.word	897988541
 307 016c 00000000 		.word	process_freq
 308              		.cfi_endproc
 309              	.LFE272:
 310              		.fnend
 312              		.global	debug
 313              		.section	.bss.debug,"aw",%nobits
 314              		.align	2
 317              	debug:
 318 0000 00000000 		.space	8
 318      00000000 
 319              		.global	encoder
 320              		.section	.bss.encoder,"aw",%nobits
 321              		.align	2
 324              	encoder:
 325 0000 00000000 		.space	16
 325      00000000 
 325      00000000 
 325      00000000 
 326              		.global	is_on_line
 327              		.section	.bss.is_on_line,"aw",%nobits
 328              		.align	2
 331              	is_on_line:
 332 0000 00000000 		.space	4
 333              		.global	line_dir
 334              		.section	.bss.line_dir,"aw",%nobits
 335              		.align	2
 338              	line_dir:
 339 0000 00000000 		.space	4
 340              		.global	process_freq
 341              		.section	.bss.process_freq,"aw",%nobits
 342              		.align	2
 345              	process_freq:
 346 0000 00000000 		.space	4
 347              		.global	voltage
 348              		.section	.bss.voltage,"aw",%nobits
 349              		.align	2
 352              	voltage:
 353 0000 00000000 		.space	4
 354              		.global	yaw
 355              		.section	.bss.yaw,"aw",%nobits
 356              		.align	2
 359              	yaw:
 360 0000 00000000 		.space	4
 361              		.text
 362              	.Letext0:
 363              		.file 2 "/opt/ST/STM32CubeCLT_1.16.0/GNU-tools-for-STM32/arm-none-eabi/include/machine/_default_ty
 364              		.file 3 "/opt/ST/STM32CubeCLT_1.16.0/GNU-tools-for-STM32/lib/gcc/arm-none-eabi/12.3.1/include/stdd
 365              		.file 4 "/opt/ST/STM32CubeCLT_1.16.0/GNU-tools-for-STM32/arm-none-eabi/include/sys/_types.h"
 366              		.file 5 "/opt/ST/STM32CubeCLT_1.16.0/GNU-tools-for-STM32/arm-none-eabi/include/sys/reent.h"
 367              		.file 6 "/opt/ST/STM32CubeCLT_1.16.0/GNU-tools-for-STM32/arm-none-eabi/include/sys/lock.h"
ARM GAS  /var/folders/5c/srt4fy4j1pd641bjfx75k5000000gn/T//ccYzjL5A.s 			page 9


 368              		.file 7 "/opt/ST/STM32CubeCLT_1.16.0/GNU-tools-for-STM32/arm-none-eabi/include/stdio.h"
 369              		.file 8 "/opt/ST/STM32CubeCLT_1.16.0/GNU-tools-for-STM32/arm-none-eabi/include/sys/_stdint.h"
 370              		.file 9 "Drivers/CMSIS/Device/ST/STM32F4xx/Include/stm32f446xx.h"
 371              		.file 10 "Drivers/CMSIS/Device/ST/STM32F4xx/Include/stm32f4xx.h"
 372              		.file 11 "Drivers/STM32F4xx_HAL_Driver/Inc/stm32f4xx_hal_def.h"
 373              		.file 12 "Drivers/STM32F4xx_HAL_Driver/Inc/stm32f4xx_hal_dma.h"
 374              		.file 13 "Drivers/STM32F4xx_HAL_Driver/Inc/stm32f4xx_hal_tim.h"
 375              		.file 14 "Drivers/STM32F4xx_HAL_Driver/Inc/stm32f4xx_hal_uart.h"
 376              		.file 15 "Drivers/STM32F4xx_HAL_Driver/Inc/stm32f4xx_hal.h"
 377              		.file 16 "Lib/BufferedSerial/BufferedSerial.hpp"
 378              		.file 17 "Lib/DigitalInOut/DigitalInOut.hpp"
 379              		.file 18 "Lib/MovingAve/MovingAve.hpp"
 380              		.file 19 "/opt/ST/STM32CubeCLT_1.16.0/GNU-tools-for-STM32/arm-none-eabi/include/c++/12.3.1/cstdio"
 381              		.file 20 "/opt/ST/STM32CubeCLT_1.16.0/GNU-tools-for-STM32/arm-none-eabi/include/c++/12.3.1/arm-non
 382              		.file 21 "Lib/PWMSingle/PWMSingle.hpp"
 383              		.file 22 "Lib/Timer/Timer.hpp"
 384              		.file 23 "src/unit/dribbler_drive/dribbler_drive.hpp"
 385              		.file 24 "src/unit/kicker/kicker.hpp"
 386              		.file 25 "Lib/pid/pid.hpp"
 387              		.file 26 "src/unit/motor_drive/motor_drive.hpp"
 388              		.file 27 "src/unit/robot/robot.hpp"
 389              		.file 28 "src/mode/mode.hpp"
ARM GAS  /var/folders/5c/srt4fy4j1pd641bjfx75k5000000gn/T//ccYzjL5A.s 			page 10


DEFINED SYMBOLS
                            *ABS*:00000000 main_mode.cpp
/var/folders/5c/srt4fy4j1pd641bjfx75k5000000gn/T//ccYzjL5A.s:21     .text._ZN4Mode8MainModeEv:00000000 $t
/var/folders/5c/srt4fy4j1pd641bjfx75k5000000gn/T//ccYzjL5A.s:27     .text._ZN4Mode8MainModeEv:00000000 _ZN4Mode8MainModeEv
/var/folders/5c/srt4fy4j1pd641bjfx75k5000000gn/T//ccYzjL5A.s:300    .text._ZN4Mode8MainModeEv:00000150 $d
/var/folders/5c/srt4fy4j1pd641bjfx75k5000000gn/T//ccYzjL5A.s:359    .bss.yaw:00000000 yaw
/var/folders/5c/srt4fy4j1pd641bjfx75k5000000gn/T//ccYzjL5A.s:352    .bss.voltage:00000000 voltage
/var/folders/5c/srt4fy4j1pd641bjfx75k5000000gn/T//ccYzjL5A.s:338    .bss.line_dir:00000000 line_dir
/var/folders/5c/srt4fy4j1pd641bjfx75k5000000gn/T//ccYzjL5A.s:331    .bss.is_on_line:00000000 is_on_line
/var/folders/5c/srt4fy4j1pd641bjfx75k5000000gn/T//ccYzjL5A.s:324    .bss.encoder:00000000 encoder
/var/folders/5c/srt4fy4j1pd641bjfx75k5000000gn/T//ccYzjL5A.s:317    .bss.debug:00000000 debug
/var/folders/5c/srt4fy4j1pd641bjfx75k5000000gn/T//ccYzjL5A.s:345    .bss.process_freq:00000000 process_freq
.ARM.exidx.text._ZN4Mode8MainModeEv:00000000 $d
/var/folders/5c/srt4fy4j1pd641bjfx75k5000000gn/T//ccYzjL5A.s:314    .bss.debug:00000000 $d
/var/folders/5c/srt4fy4j1pd641bjfx75k5000000gn/T//ccYzjL5A.s:321    .bss.encoder:00000000 $d
/var/folders/5c/srt4fy4j1pd641bjfx75k5000000gn/T//ccYzjL5A.s:328    .bss.is_on_line:00000000 $d
/var/folders/5c/srt4fy4j1pd641bjfx75k5000000gn/T//ccYzjL5A.s:335    .bss.line_dir:00000000 $d
/var/folders/5c/srt4fy4j1pd641bjfx75k5000000gn/T//ccYzjL5A.s:342    .bss.process_freq:00000000 $d
/var/folders/5c/srt4fy4j1pd641bjfx75k5000000gn/T//ccYzjL5A.s:349    .bss.voltage:00000000 $d
/var/folders/5c/srt4fy4j1pd641bjfx75k5000000gn/T//ccYzjL5A.s:356    .bss.yaw:00000000 $d

UNDEFINED SYMBOLS
_ZN5Timer5resetEv
_ZN5Robot7ImuUartEv
_ZN5Robot8LineUartEv
_ZN5Robot6UiUartEv
_ZN5Robot7CamUartEv
_ZN5Robot10GetSensorsEv
_ZN5Timer7read_usEv
_ZN10MotorDrive4FreeEv
_ZN13DribblerDrive4HoldEh
_ZN6Kicker4KickEf
_ZN4Mode7OffenceEv
_ZN4Mode7DefenceEv
__aeabi_unwind_cpp_pr0
