ARM GAS  /var/folders/5c/srt4fy4j1pd641bjfx75k5000000gn/T//ccn7GZCG.s 			page 1


   1              		.cpu cortex-m4
   2              		.arch armv7e-m
   3              		.fpu fpv4-sp-d16
   4              		.eabi_attribute 27, 1
   5              		.eabi_attribute 28, 1
   6              		.eabi_attribute 20, 1
   7              		.eabi_attribute 21, 1
   8              		.eabi_attribute 23, 3
   9              		.eabi_attribute 24, 1
  10              		.eabi_attribute 25, 1
  11              		.eabi_attribute 26, 1
  12              		.eabi_attribute 30, 1
  13              		.eabi_attribute 34, 1
  14              		.eabi_attribute 18, 4
  15              		.file	"main_mode.cpp"
  16              		.text
  17              	.Ltext0:
  18              		.cfi_sections	.debug_frame
  19              		.file 1 "src/mode/main_mode.cpp"
  20              		.section	.text._ZN4Mode8MainModeEv,"ax",%progbits
  21              		.align	1
  22              		.global	_ZN4Mode8MainModeEv
  23              		.syntax unified
  24              		.thumb
  25              		.thumb_func
  27              	_ZN4Mode8MainModeEv:
  28              		.fnstart
  29              	.LVL0:
  30              	.LFB273:
   1:src/mode/main_mode.cpp **** #include "mode.hpp"
   2:src/mode/main_mode.cpp **** 
   3:src/mode/main_mode.cpp **** // cortex-debug用グローバル変数
   4:src/mode/main_mode.cpp **** int yaw;
   5:src/mode/main_mode.cpp **** float voltage;
   6:src/mode/main_mode.cpp **** int process_freq;
   7:src/mode/main_mode.cpp **** int line_dir;
   8:src/mode/main_mode.cpp **** int is_on_line;
   9:src/mode/main_mode.cpp **** int encoder[4];
  10:src/mode/main_mode.cpp **** 
  11:src/mode/main_mode.cpp **** void Mode::MainMode() {
  31              		.loc 1 11 23 view -0
  32              		.cfi_startproc
  33              		@ args = 0, pretend = 0, frame = 0
  34              		@ frame_needed = 0, uses_anonymous_args = 0
  35              		.loc 1 11 23 is_stmt 0 view .LVU1
  36 0000 10B5     		push	{r4, lr}
  37              		.save {r4, lr}
  38              	.LCFI0:
  39              		.cfi_def_cfa_offset 8
  40              		.cfi_offset 4, -8
  41              		.cfi_offset 14, -4
  42 0002 0446     		mov	r4, r0
  12:src/mode/main_mode.cpp ****       process_timer.reset();
  43              		.loc 1 12 7 is_stmt 1 view .LVU2
  44              		.loc 1 12 26 is_stmt 0 view .LVU3
  45 0004 FFF7FEFF 		bl	_ZN5Timer5resetEv
  46              	.LVL1:
ARM GAS  /var/folders/5c/srt4fy4j1pd641bjfx75k5000000gn/T//ccn7GZCG.s 			page 2


  13:src/mode/main_mode.cpp ****       robot->ImuUart();
  47              		.loc 1 13 7 is_stmt 1 view .LVU4
  48              		.loc 1 13 21 is_stmt 0 view .LVU5
  49 0008 6068     		ldr	r0, [r4, #4]
  50 000a FFF7FEFF 		bl	_ZN5Robot7ImuUartEv
  51              	.LVL2:
  14:src/mode/main_mode.cpp ****       robot->LineUart();
  52              		.loc 1 14 7 is_stmt 1 view .LVU6
  53              		.loc 1 14 22 is_stmt 0 view .LVU7
  54 000e 6068     		ldr	r0, [r4, #4]
  55 0010 FFF7FEFF 		bl	_ZN5Robot8LineUartEv
  56              	.LVL3:
  15:src/mode/main_mode.cpp ****       robot->GetSensors();
  57              		.loc 1 15 7 is_stmt 1 view .LVU8
  58              		.loc 1 15 24 is_stmt 0 view .LVU9
  59 0014 6068     		ldr	r0, [r4, #4]
  60 0016 FFF7FEFF 		bl	_ZN5Robot10GetSensorsEv
  61              	.LVL4:
  16:src/mode/main_mode.cpp ****       robot->info.Line.on_led = 1;  // 使えない
  62              		.loc 1 16 7 is_stmt 1 view .LVU10
  63 001a 6368     		ldr	r3, [r4, #4]
  64              		.loc 1 16 31 is_stmt 0 view .LVU11
  65 001c 0122     		movs	r2, #1
  66 001e 9A74     		strb	r2, [r3, #18]
  17:src/mode/main_mode.cpp **** 
  18:src/mode/main_mode.cpp ****       robot->motor.Drive(0, 0);
  67              		.loc 1 18 7 is_stmt 1 view .LVU12
  68 0020 6068     		ldr	r0, [r4, #4]
  69              		.loc 1 18 25 is_stmt 0 view .LVU13
  70 0022 0022     		movs	r2, #0
  71 0024 1146     		mov	r1, r2
  72 0026 00F58870 		add	r0, r0, #272
  73 002a FFF7FEFF 		bl	_ZN10MotorDrive5DriveEsh
  74              	.LVL5:
  19:src/mode/main_mode.cpp **** 
  20:src/mode/main_mode.cpp ****       // cortex-debug
  21:src/mode/main_mode.cpp ****       yaw = robot->info.Imu.yaw;
  75              		.loc 1 21 7 is_stmt 1 view .LVU14
  76              		.loc 1 21 13 is_stmt 0 view .LVU15
  77 002e 6368     		ldr	r3, [r4, #4]
  78              		.loc 1 21 29 view .LVU16
  79 0030 B3F92010 		ldrsh	r1, [r3, #32]
  80              		.loc 1 21 11 view .LVU17
  81 0034 224A     		ldr	r2, .L7
  82 0036 1160     		str	r1, [r2]
  22:src/mode/main_mode.cpp ****       voltage = robot->info.voltage;
  83              		.loc 1 22 7 is_stmt 1 view .LVU18
  84              		.loc 1 22 29 is_stmt 0 view .LVU19
  85 0038 1968     		ldr	r1, [r3]	@ float
  86              		.loc 1 22 15 view .LVU20
  87 003a 224A     		ldr	r2, .L7+4
  88 003c 1160     		str	r1, [r2]	@ float
  23:src/mode/main_mode.cpp ****       line_dir = robot->info.Line.dir;
  89              		.loc 1 23 7 is_stmt 1 view .LVU21
  90              		.loc 1 23 35 is_stmt 0 view .LVU22
  91 003e B3F90E10 		ldrsh	r1, [r3, #14]
  92              		.loc 1 23 16 view .LVU23
ARM GAS  /var/folders/5c/srt4fy4j1pd641bjfx75k5000000gn/T//ccn7GZCG.s 			page 3


  93 0042 214A     		ldr	r2, .L7+8
  94 0044 1160     		str	r1, [r2]
  24:src/mode/main_mode.cpp ****       is_on_line = robot->info.Line.is_on_line;
  95              		.loc 1 24 7 is_stmt 1 view .LVU24
  96              		.loc 1 24 37 is_stmt 0 view .LVU25
  97 0046 597A     		ldrb	r1, [r3, #9]	@ zero_extendqisi2
  98              		.loc 1 24 18 view .LVU26
  99 0048 204A     		ldr	r2, .L7+12
 100 004a 1160     		str	r1, [r2]
  25:src/mode/main_mode.cpp **** 
  26:src/mode/main_mode.cpp ****       encoder[0] = robot->info.motor_rps[0];
 101              		.loc 1 26 7 is_stmt 1 view .LVU27
 102              		.loc 1 26 43 is_stmt 0 view .LVU28
 103 004c 1979     		ldrb	r1, [r3, #4]	@ zero_extendqisi2
 104              		.loc 1 26 18 view .LVU29
 105 004e 204A     		ldr	r2, .L7+16
 106 0050 1160     		str	r1, [r2]
  27:src/mode/main_mode.cpp ****       encoder[1] = robot->info.motor_rps[1];
 107              		.loc 1 27 7 is_stmt 1 view .LVU30
 108              		.loc 1 27 43 is_stmt 0 view .LVU31
 109 0052 5B79     		ldrb	r3, [r3, #5]	@ zero_extendqisi2
 110              		.loc 1 27 18 view .LVU32
 111 0054 5360     		str	r3, [r2, #4]
  28:src/mode/main_mode.cpp ****       encoder[2] = robot->info.motor_rps[2];
 112              		.loc 1 28 7 is_stmt 1 view .LVU33
 113              		.loc 1 28 20 is_stmt 0 view .LVU34
 114 0056 6368     		ldr	r3, [r4, #4]
 115              		.loc 1 28 43 view .LVU35
 116 0058 9B79     		ldrb	r3, [r3, #6]	@ zero_extendqisi2
 117              		.loc 1 28 18 view .LVU36
 118 005a 9360     		str	r3, [r2, #8]
  29:src/mode/main_mode.cpp ****       encoder[3] = robot->info.motor_rps[3];
 119              		.loc 1 29 7 is_stmt 1 view .LVU37
 120              		.loc 1 29 20 is_stmt 0 view .LVU38
 121 005c 6368     		ldr	r3, [r4, #4]
 122              		.loc 1 29 43 view .LVU39
 123 005e DB79     		ldrb	r3, [r3, #7]	@ zero_extendqisi2
 124              		.loc 1 29 18 view .LVU40
 125 0060 D360     		str	r3, [r2, #12]
  30:src/mode/main_mode.cpp ****       if (encoder[0] != 0) {
 126              		.loc 1 30 7 is_stmt 1 view .LVU41
 127 0062 31B3     		cbz	r1, .L2
  31:src/mode/main_mode.cpp ****             robot->led1 = 1;
 128              		.loc 1 31 13 view .LVU42
 129 0064 6368     		ldr	r3, [r4, #4]
 130              	.LVL6:
 131              	.LBB6:
 132              	.LBI6:
 133              		.file 2 "Lib/DigitalInOut/DigitalInOut.hpp"
   1:Lib/DigitalInOut/DigitalInOut.hpp **** #ifndef __DigitalInOut__
   2:Lib/DigitalInOut/DigitalInOut.hpp **** #define __DigitalInOut__
   3:Lib/DigitalInOut/DigitalInOut.hpp **** 
   4:Lib/DigitalInOut/DigitalInOut.hpp **** #include "main.h"
   5:Lib/DigitalInOut/DigitalInOut.hpp **** 
   6:Lib/DigitalInOut/DigitalInOut.hpp **** #ifdef __cplusplus
   7:Lib/DigitalInOut/DigitalInOut.hpp **** 
   8:Lib/DigitalInOut/DigitalInOut.hpp **** extern "C" {
ARM GAS  /var/folders/5c/srt4fy4j1pd641bjfx75k5000000gn/T//ccn7GZCG.s 			page 4


   9:Lib/DigitalInOut/DigitalInOut.hpp **** 
  10:Lib/DigitalInOut/DigitalInOut.hpp **** class DigitalOut {
  11:Lib/DigitalInOut/DigitalInOut.hpp ****   public:
  12:Lib/DigitalInOut/DigitalInOut.hpp ****     DigitalOut(GPIO_TypeDef *port, uint16_t pin) : port(port), pin(pin) {
  13:Lib/DigitalInOut/DigitalInOut.hpp ****         HAL_GPIO_WritePin(port, pin, GPIO_PIN_RESET);
  14:Lib/DigitalInOut/DigitalInOut.hpp ****     }
  15:Lib/DigitalInOut/DigitalInOut.hpp ****     void write(bool value) {
  16:Lib/DigitalInOut/DigitalInOut.hpp ****         HAL_GPIO_WritePin(port, pin, value ? GPIO_PIN_SET : GPIO_PIN_RESET);
  17:Lib/DigitalInOut/DigitalInOut.hpp ****     }
  18:Lib/DigitalInOut/DigitalInOut.hpp **** 
  19:Lib/DigitalInOut/DigitalInOut.hpp ****     void operator=(bool value) {
 134              		.loc 2 19 10 view .LVU43
 135              	.LBB7:
  20:Lib/DigitalInOut/DigitalInOut.hpp ****         HAL_GPIO_WritePin(port, pin, value ? GPIO_PIN_SET : GPIO_PIN_RESET);
 136              		.loc 2 20 9 view .LVU44
 137              		.loc 2 20 26 is_stmt 0 view .LVU45
 138 0066 0122     		movs	r2, #1
 139 0068 998D     		ldrh	r1, [r3, #44]
 140 006a 986A     		ldr	r0, [r3, #40]
 141 006c FFF7FEFF 		bl	HAL_GPIO_WritePin
 142              	.LVL7:
 143              	.L3:
 144              		.loc 2 20 26 view .LVU46
 145              	.LBE7:
 146              	.LBE6:
  32:src/mode/main_mode.cpp ****       } else {
  33:src/mode/main_mode.cpp ****             robot->led1 = 0;
  34:src/mode/main_mode.cpp ****       }
  35:src/mode/main_mode.cpp **** 
  36:src/mode/main_mode.cpp ****       //  定周期処理
  37:src/mode/main_mode.cpp ****       process_time_ = process_timer.read_us();
 147              		.loc 1 37 7 is_stmt 1 view .LVU47
 148              		.loc 1 37 44 is_stmt 0 view .LVU48
 149 0070 2046     		mov	r0, r4
 150 0072 FFF7FEFF 		bl	_ZN5Timer7read_usEv
 151              	.LVL8:
 152              		.loc 1 37 21 view .LVU49
 153 0076 80B2     		uxth	r0, r0
 154 0078 2081     		strh	r0, [r4, #8]	@ movhi
  38:src/mode/main_mode.cpp ****       if (process_time_ < PERIOD_US) {
 155              		.loc 1 38 7 is_stmt 1 view .LVU50
 156 007a C728     		cmp	r0, #199
 157 007c 04D8     		bhi	.L4
 158              	.L5:
  39:src/mode/main_mode.cpp ****             while (process_timer.read_us() < PERIOD_US);
 159              		.loc 1 39 44 discriminator 1 view .LVU51
 160              		.loc 1 39 41 is_stmt 0 discriminator 1 view .LVU52
 161 007e 2046     		mov	r0, r4
 162 0080 FFF7FEFF 		bl	_ZN5Timer7read_usEv
 163              	.LVL9:
 164              		.loc 1 39 44 discriminator 1 view .LVU53
 165 0084 C728     		cmp	r0, #199
 166 0086 FAD9     		bls	.L5
 167              	.L4:
  40:src/mode/main_mode.cpp ****       }
  41:src/mode/main_mode.cpp ****       process_freq = 1.0f / (process_timer.read_us() * 0.000001f);
 168              		.loc 1 41 7 is_stmt 1 view .LVU54
ARM GAS  /var/folders/5c/srt4fy4j1pd641bjfx75k5000000gn/T//ccn7GZCG.s 			page 5


 169              		.loc 1 41 51 is_stmt 0 view .LVU55
 170 0088 2046     		mov	r0, r4
 171 008a FFF7FEFF 		bl	_ZN5Timer7read_usEv
 172              	.LVL10:
 173 008e 07EE900A 		vmov	s15, r0	@ int
 174              		.loc 1 41 54 view .LVU56
 175 0092 F8EE677A 		vcvt.f32.u32	s15, s15
 176 0096 9FED0F7A 		vldr.32	s14, .L7+20
 177 009a 67EE877A 		vmul.f32	s15, s15, s14
 178              		.loc 1 41 27 view .LVU57
 179 009e F7EE006A 		vmov.f32	s13, #1.0e+0
 180 00a2 86EEA77A 		vdiv.f32	s14, s13, s15
 181              		.loc 1 41 20 view .LVU58
 182 00a6 BDEEC77A 		vcvt.s32.f32	s14, s14
 183 00aa 0B4B     		ldr	r3, .L7+24
 184 00ac 83ED007A 		vstr.32	s14, [r3]	@ int
  42:src/mode/main_mode.cpp **** }...
 185              		.loc 1 42 1 view .LVU59
 186 00b0 10BD     		pop	{r4, pc}
 187              	.LVL11:
 188              	.L2:
  33:src/mode/main_mode.cpp ****             robot->led1 = 0;
 189              		.loc 1 33 13 is_stmt 1 view .LVU60
 190 00b2 6368     		ldr	r3, [r4, #4]
 191              	.LVL12:
 192              	.LBB8:
 193              	.LBI8:
  19:Lib/DigitalInOut/DigitalInOut.hpp ****         HAL_GPIO_WritePin(port, pin, value ? GPIO_PIN_SET : GPIO_PIN_RESET);
 194              		.loc 2 19 10 view .LVU61
 195              	.LBB9:
 196              		.loc 2 20 9 view .LVU62
 197              		.loc 2 20 26 is_stmt 0 view .LVU63
 198 00b4 0022     		movs	r2, #0
 199 00b6 998D     		ldrh	r1, [r3, #44]
 200 00b8 986A     		ldr	r0, [r3, #40]
 201 00ba FFF7FEFF 		bl	HAL_GPIO_WritePin
 202              	.LVL13:
  21:Lib/DigitalInOut/DigitalInOut.hpp ****     }
 203              		.loc 2 21 5 view .LVU64
 204 00be D7E7     		b	.L3
 205              	.L8:
 206              		.align	2
 207              	.L7:
 208 00c0 00000000 		.word	yaw
 209 00c4 00000000 		.word	voltage
 210 00c8 00000000 		.word	line_dir
 211 00cc 00000000 		.word	is_on_line
 212 00d0 00000000 		.word	encoder
 213 00d4 BD378635 		.word	897988541
 214 00d8 00000000 		.word	process_freq
 215              	.LBE9:
 216              	.LBE8:
 217              		.cfi_endproc
 218              	.LFE273:
 219              		.fnend
 221              		.global	encoder
 222              		.section	.bss.encoder,"aw",%nobits
ARM GAS  /var/folders/5c/srt4fy4j1pd641bjfx75k5000000gn/T//ccn7GZCG.s 			page 6


 223              		.align	2
 226              	encoder:
 227 0000 00000000 		.space	16
 227      00000000 
 227      00000000 
 227      00000000 
 228              		.global	is_on_line
 229              		.section	.bss.is_on_line,"aw",%nobits
 230              		.align	2
 233              	is_on_line:
 234 0000 00000000 		.space	4
 235              		.global	line_dir
 236              		.section	.bss.line_dir,"aw",%nobits
 237              		.align	2
 240              	line_dir:
 241 0000 00000000 		.space	4
 242              		.global	process_freq
 243              		.section	.bss.process_freq,"aw",%nobits
 244              		.align	2
 247              	process_freq:
 248 0000 00000000 		.space	4
 249              		.global	voltage
 250              		.section	.bss.voltage,"aw",%nobits
 251              		.align	2
 254              	voltage:
 255 0000 00000000 		.space	4
 256              		.global	yaw
 257              		.section	.bss.yaw,"aw",%nobits
 258              		.align	2
 261              	yaw:
 262 0000 00000000 		.space	4
 263              		.text
 264              	.Letext0:
 265              		.file 3 "/opt/ST/STM32CubeCLT_1.16.0/GNU-tools-for-STM32/arm-none-eabi/include/machine/_default_ty
 266              		.file 4 "/opt/ST/STM32CubeCLT_1.16.0/GNU-tools-for-STM32/lib/gcc/arm-none-eabi/12.3.1/include/stdd
 267              		.file 5 "/opt/ST/STM32CubeCLT_1.16.0/GNU-tools-for-STM32/arm-none-eabi/include/sys/_types.h"
 268              		.file 6 "/opt/ST/STM32CubeCLT_1.16.0/GNU-tools-for-STM32/arm-none-eabi/include/sys/reent.h"
 269              		.file 7 "/opt/ST/STM32CubeCLT_1.16.0/GNU-tools-for-STM32/arm-none-eabi/include/sys/lock.h"
 270              		.file 8 "/opt/ST/STM32CubeCLT_1.16.0/GNU-tools-for-STM32/arm-none-eabi/include/stdio.h"
 271              		.file 9 "/opt/ST/STM32CubeCLT_1.16.0/GNU-tools-for-STM32/arm-none-eabi/include/sys/_stdint.h"
 272              		.file 10 "Drivers/CMSIS/Device/ST/STM32F4xx/Include/stm32f446xx.h"
 273              		.file 11 "Drivers/CMSIS/Device/ST/STM32F4xx/Include/stm32f4xx.h"
 274              		.file 12 "Drivers/STM32F4xx_HAL_Driver/Inc/stm32f4xx_hal_def.h"
 275              		.file 13 "Drivers/STM32F4xx_HAL_Driver/Inc/stm32f4xx_hal_gpio.h"
 276              		.file 14 "Drivers/STM32F4xx_HAL_Driver/Inc/stm32f4xx_hal_dma.h"
 277              		.file 15 "Drivers/STM32F4xx_HAL_Driver/Inc/stm32f4xx_hal_tim.h"
 278              		.file 16 "Drivers/STM32F4xx_HAL_Driver/Inc/stm32f4xx_hal_uart.h"
 279              		.file 17 "Drivers/STM32F4xx_HAL_Driver/Inc/stm32f4xx_hal.h"
 280              		.file 18 "Lib/BufferedSerial/BufferedSerial.hpp"
 281              		.file 19 "Lib/MovingAve/MovingAve.hpp"
 282              		.file 20 "/opt/ST/STM32CubeCLT_1.16.0/GNU-tools-for-STM32/arm-none-eabi/include/c++/12.3.1/cstdio"
 283              		.file 21 "/opt/ST/STM32CubeCLT_1.16.0/GNU-tools-for-STM32/arm-none-eabi/include/c++/12.3.1/arm-non
 284              		.file 22 "Lib/PWMSingle/PWMSingle.hpp"
 285              		.file 23 "Lib/Timer/Timer.hpp"
 286              		.file 24 "src/unit/dribbler_drive/dribbler_drive.hpp"
 287              		.file 25 "src/unit/kicker/kicker.hpp"
 288              		.file 26 "Lib/pid/pid.hpp"
ARM GAS  /var/folders/5c/srt4fy4j1pd641bjfx75k5000000gn/T//ccn7GZCG.s 			page 7


 289              		.file 27 "src/unit/motor_drive/motor_drive.hpp"
 290              		.file 28 "src/unit/robot/robot.hpp"
 291              		.file 29 "src/mode/mode.hpp"
ARM GAS  /var/folders/5c/srt4fy4j1pd641bjfx75k5000000gn/T//ccn7GZCG.s 			page 8


DEFINED SYMBOLS
                            *ABS*:00000000 main_mode.cpp
/var/folders/5c/srt4fy4j1pd641bjfx75k5000000gn/T//ccn7GZCG.s:21     .text._ZN4Mode8MainModeEv:00000000 $t
/var/folders/5c/srt4fy4j1pd641bjfx75k5000000gn/T//ccn7GZCG.s:27     .text._ZN4Mode8MainModeEv:00000000 _ZN4Mode8MainModeEv
/var/folders/5c/srt4fy4j1pd641bjfx75k5000000gn/T//ccn7GZCG.s:208    .text._ZN4Mode8MainModeEv:000000c0 $d
/var/folders/5c/srt4fy4j1pd641bjfx75k5000000gn/T//ccn7GZCG.s:261    .bss.yaw:00000000 yaw
/var/folders/5c/srt4fy4j1pd641bjfx75k5000000gn/T//ccn7GZCG.s:254    .bss.voltage:00000000 voltage
/var/folders/5c/srt4fy4j1pd641bjfx75k5000000gn/T//ccn7GZCG.s:240    .bss.line_dir:00000000 line_dir
/var/folders/5c/srt4fy4j1pd641bjfx75k5000000gn/T//ccn7GZCG.s:233    .bss.is_on_line:00000000 is_on_line
/var/folders/5c/srt4fy4j1pd641bjfx75k5000000gn/T//ccn7GZCG.s:226    .bss.encoder:00000000 encoder
/var/folders/5c/srt4fy4j1pd641bjfx75k5000000gn/T//ccn7GZCG.s:247    .bss.process_freq:00000000 process_freq
.ARM.exidx.text._ZN4Mode8MainModeEv:00000000 $d
/var/folders/5c/srt4fy4j1pd641bjfx75k5000000gn/T//ccn7GZCG.s:223    .bss.encoder:00000000 $d
/var/folders/5c/srt4fy4j1pd641bjfx75k5000000gn/T//ccn7GZCG.s:230    .bss.is_on_line:00000000 $d
/var/folders/5c/srt4fy4j1pd641bjfx75k5000000gn/T//ccn7GZCG.s:237    .bss.line_dir:00000000 $d
/var/folders/5c/srt4fy4j1pd641bjfx75k5000000gn/T//ccn7GZCG.s:244    .bss.process_freq:00000000 $d
/var/folders/5c/srt4fy4j1pd641bjfx75k5000000gn/T//ccn7GZCG.s:251    .bss.voltage:00000000 $d
/var/folders/5c/srt4fy4j1pd641bjfx75k5000000gn/T//ccn7GZCG.s:258    .bss.yaw:00000000 $d

UNDEFINED SYMBOLS
_ZN5Timer5resetEv
_ZN5Robot7ImuUartEv
_ZN5Robot8LineUartEv
_ZN5Robot10GetSensorsEv
_ZN10MotorDrive5DriveEsh
HAL_GPIO_WritePin
_ZN5Timer7read_usEv
__aeabi_unwind_cpp_pr0
