ARM GAS  /var/folders/5c/srt4fy4j1pd641bjfx75k5000000gn/T//ccS1q9JP.s 			page 1


   1              		.cpu cortex-m4
   2              		.arch armv7e-m
   3              		.fpu fpv4-sp-d16
   4              		.eabi_attribute 27, 1
   5              		.eabi_attribute 28, 1
   6              		.eabi_attribute 20, 1
   7              		.eabi_attribute 21, 1
   8              		.eabi_attribute 23, 3
   9              		.eabi_attribute 24, 1
  10              		.eabi_attribute 25, 1
  11              		.eabi_attribute 26, 1
  12              		.eabi_attribute 30, 1
  13              		.eabi_attribute 34, 1
  14              		.eabi_attribute 18, 4
  15              		.file	"pid.cpp"
  16              		.text
  17              	.Ltext0:
  18              		.cfi_sections	.debug_frame
  19              		.file 1 "lib/pid/pid.cpp"
  20              		.section	.text._ZN3PIDC2Ev,"ax",%progbits
  21              		.align	1
  22              		.global	_ZN3PIDC2Ev
  23              		.syntax unified
  24              		.thumb
  25              		.thumb_func
  27              	_ZN3PIDC2Ev:
  28              		.fnstart
  29              	.LVL0:
  30              	.LFB243:
   1:lib/pid/pid.cpp **** #include "pid.hpp"
   2:lib/pid/pid.cpp **** 
   3:lib/pid/pid.cpp **** PID::PID() {
  31              		.loc 1 3 1 view -0
  32              		.cfi_startproc
  33              		@ args = 0, pretend = 0, frame = 0
  34              		@ frame_needed = 0, uses_anonymous_args = 0
  35              		.loc 1 3 1 is_stmt 0 view .LVU1
  36 0000 10B5     		push	{r4, lr}
  37              		.save {r4, lr}
  38              	.LCFI0:
  39              		.cfi_def_cfa_offset 8
  40              		.cfi_offset 4, -8
  41              		.cfi_offset 14, -4
  42 0002 0446     		mov	r4, r0
  43              	.LBB2:
  44              		.loc 1 3 10 view .LVU2
  45 0004 5830     		adds	r0, r0, #88
  46              	.LVL1:
  47              		.loc 1 3 10 view .LVU3
  48 0006 FFF7FEFF 		bl	_ZN5TimerC1Ev
  49              	.LVL2:
   4:lib/pid/pid.cpp ****       type_ = 0;
  50              		.loc 1 4 7 is_stmt 1 view .LVU4
  51              		.loc 1 4 13 is_stmt 0 view .LVU5
  52 000a 0023     		movs	r3, #0
  53 000c 84F85430 		strb	r3, [r4, #84]
  54              	.LBE2:
ARM GAS  /var/folders/5c/srt4fy4j1pd641bjfx75k5000000gn/T//ccS1q9JP.s 			page 2


   5:lib/pid/pid.cpp **** }
  55              		.loc 1 5 1 view .LVU6
  56 0010 2046     		mov	r0, r4
  57 0012 10BD     		pop	{r4, pc}
  58              		.loc 1 5 1 view .LVU7
  59              		.cfi_endproc
  60              	.LFE243:
  61              		.fnend
  63              		.global	_ZN3PIDC1Ev
  64              		.thumb_set _ZN3PIDC1Ev,_ZN3PIDC2Ev
  65              		.global	__aeabi_f2d
  66              		.section	.text._ZN3PID7SetGainEfff,"ax",%progbits
  67              		.align	1
  68              		.global	_ZN3PID7SetGainEfff
  69              		.syntax unified
  70              		.thumb
  71              		.thumb_func
  73              	_ZN3PID7SetGainEfff:
  74              		.fnstart
  75              	.LVL3:
  76              	.LFB245:
   6:lib/pid/pid.cpp **** 
   7:lib/pid/pid.cpp **** void PID::SetGain(float kp, float ki, float kd) {
  77              		.loc 1 7 49 is_stmt 1 view -0
  78              		.cfi_startproc
  79              		@ args = 0, pretend = 0, frame = 0
  80              		@ frame_needed = 0, uses_anonymous_args = 0
  81              		.loc 1 7 49 is_stmt 0 view .LVU9
  82 0000 70B5     		push	{r4, r5, r6, lr}
  83              	.LCFI1:
  84              		.cfi_def_cfa_offset 16
  85              		.cfi_offset 4, -16
  86              		.cfi_offset 5, -12
  87              		.cfi_offset 6, -8
  88              		.cfi_offset 14, -4
  89 0002 0446     		mov	r4, r0
  90 0004 10EE100A 		vmov	r0, s0
  91              	.LVL4:
  92              		.loc 1 7 49 view .LVU10
  93 0008 10EE906A 		vmov	r6, s1
  94 000c 11EE105A 		vmov	r5, s2
   8:lib/pid/pid.cpp ****       this->kp_ = kp;
  95              		.loc 1 8 7 is_stmt 1 view .LVU11
  96              		.loc 1 8 19 is_stmt 0 view .LVU12
  97 0010 FFF7FEFF 		bl	__aeabi_f2d
  98              	.LVL5:
  99              		.loc 1 8 17 view .LVU13
 100 0014 C4E90801 		strd	r0, [r4, #32]
   9:lib/pid/pid.cpp ****       this->ki_ = ki;
 101              		.loc 1 9 7 is_stmt 1 view .LVU14
 102              		.loc 1 9 19 is_stmt 0 view .LVU15
 103 0018 3046     		mov	r0, r6	@ float
 104 001a FFF7FEFF 		bl	__aeabi_f2d
 105              	.LVL6:
 106              		.loc 1 9 17 view .LVU16
 107 001e C4E90A01 		strd	r0, [r4, #40]
  10:lib/pid/pid.cpp ****       this->kd_ = kd;
ARM GAS  /var/folders/5c/srt4fy4j1pd641bjfx75k5000000gn/T//ccS1q9JP.s 			page 3


 108              		.loc 1 10 7 is_stmt 1 view .LVU17
 109              		.loc 1 10 19 is_stmt 0 view .LVU18
 110 0022 2846     		mov	r0, r5	@ float
 111 0024 FFF7FEFF 		bl	__aeabi_f2d
 112              	.LVL7:
 113              		.loc 1 10 17 view .LVU19
 114 0028 C4E90C01 		strd	r0, [r4, #48]
  11:lib/pid/pid.cpp **** }
 115              		.loc 1 11 1 view .LVU20
 116 002c 70BD     		pop	{r4, r5, r6, pc}
 117              		.loc 1 11 1 view .LVU21
 118              		.cfi_endproc
 119              	.LFE245:
 120              		.cantunwind
 121              		.fnend
 123              		.section	.text._ZN3PID15SetSamplingFreqEt,"ax",%progbits
 124              		.align	1
 125              		.global	_ZN3PID15SetSamplingFreqEt
 126              		.syntax unified
 127              		.thumb
 128              		.thumb_func
 130              	_ZN3PID15SetSamplingFreqEt:
 131              		.fnstart
 132              	.LVL8:
 133              	.LFB246:
  12:lib/pid/pid.cpp **** 
  13:lib/pid/pid.cpp **** void PID::SetSamplingFreq(uint16_t sampling_freq) {
 134              		.loc 1 13 51 is_stmt 1 view -0
 135              		.cfi_startproc
 136              		@ args = 0, pretend = 0, frame = 0
 137              		@ frame_needed = 0, uses_anonymous_args = 0
 138              		.loc 1 13 51 is_stmt 0 view .LVU23
 139 0000 10B5     		push	{r4, lr}
 140              	.LCFI2:
 141              		.cfi_def_cfa_offset 8
 142              		.cfi_offset 4, -8
 143              		.cfi_offset 14, -4
 144 0002 0446     		mov	r4, r0
 145 0004 07EE901A 		vmov	s15, r1	@ int
  14:lib/pid/pid.cpp ****       this->sampling_period_ = 1.0f / sampling_freq;
 146              		.loc 1 14 7 is_stmt 1 view .LVU24
 147              		.loc 1 14 37 is_stmt 0 view .LVU25
 148 0008 F8EEE77A 		vcvt.f32.s32	s15, s15
 149 000c B7EE007A 		vmov.f32	s14, #1.0e+0
 150 0010 C7EE277A 		vdiv.f32	s15, s14, s15
 151 0014 17EE900A 		vmov	r0, s15
 152              	.LVL9:
 153              		.loc 1 14 37 view .LVU26
 154 0018 FFF7FEFF 		bl	__aeabi_f2d
 155              	.LVL10:
 156              		.loc 1 14 30 view .LVU27
 157 001c C4E91201 		strd	r0, [r4, #72]
  15:lib/pid/pid.cpp **** }
 158              		.loc 1 15 1 view .LVU28
 159 0020 10BD     		pop	{r4, pc}
 160              		.loc 1 15 1 view .LVU29
 161              		.cfi_endproc
ARM GAS  /var/folders/5c/srt4fy4j1pd641bjfx75k5000000gn/T//ccS1q9JP.s 			page 4


 162              	.LFE246:
 163              		.cantunwind
 164              		.fnend
 166              		.section	.text._ZN3PID8SetLimitEss,"ax",%progbits
 167              		.align	1
 168              		.global	_ZN3PID8SetLimitEss
 169              		.syntax unified
 170              		.thumb
 171              		.thumb_func
 173              	_ZN3PID8SetLimitEss:
 174              		.fnstart
 175              	.LVL11:
 176              	.LFB247:
  16:lib/pid/pid.cpp **** 
  17:lib/pid/pid.cpp **** void PID::SetLimit(int16_t min_limit, int16_t max_limit) {
 177              		.loc 1 17 58 is_stmt 1 view -0
 178              		.cfi_startproc
 179              		@ args = 0, pretend = 0, frame = 0
 180              		@ frame_needed = 0, uses_anonymous_args = 0
 181              		@ link register save eliminated.
  18:lib/pid/pid.cpp ****       this->min_limit_ = min_limit;
 182              		.loc 1 18 7 view .LVU31
 183              		.loc 1 18 24 is_stmt 0 view .LVU32
 184 0000 A0F85210 		strh	r1, [r0, #82]	@ movhi
  19:lib/pid/pid.cpp ****       this->max_limit_ = max_limit;
 185              		.loc 1 19 7 is_stmt 1 view .LVU33
 186              		.loc 1 19 24 is_stmt 0 view .LVU34
 187 0004 A0F85020 		strh	r2, [r0, #80]	@ movhi
  20:lib/pid/pid.cpp **** }
 188              		.loc 1 20 1 view .LVU35
 189 0008 7047     		bx	lr
 190              		.cfi_endproc
 191              	.LFE247:
 192              		.cantunwind
 193              		.fnend
 195              		.section	.text._ZN3PID7SetTypeEh,"ax",%progbits
 196              		.align	1
 197              		.global	_ZN3PID7SetTypeEh
 198              		.syntax unified
 199              		.thumb
 200              		.thumb_func
 202              	_ZN3PID7SetTypeEh:
 203              		.fnstart
 204              	.LVL12:
 205              	.LFB248:
  21:lib/pid/pid.cpp **** 
  22:lib/pid/pid.cpp **** void PID::SetType(uint8_t type) {
 206              		.loc 1 22 33 is_stmt 1 view -0
 207              		.cfi_startproc
 208              		@ args = 0, pretend = 0, frame = 0
 209              		@ frame_needed = 0, uses_anonymous_args = 0
 210              		@ link register save eliminated.
  23:lib/pid/pid.cpp ****       type_ = type;
 211              		.loc 1 23 7 view .LVU37
 212              		.loc 1 23 13 is_stmt 0 view .LVU38
 213 0000 80F85410 		strb	r1, [r0, #84]
  24:lib/pid/pid.cpp **** }
ARM GAS  /var/folders/5c/srt4fy4j1pd641bjfx75k5000000gn/T//ccS1q9JP.s 			page 5


 214              		.loc 1 24 1 view .LVU39
 215 0004 7047     		bx	lr
 216              		.cfi_endproc
 217              	.LFE248:
 218              		.cantunwind
 219              		.fnend
 221              		.global	__aeabi_dcmplt
 222              		.global	__aeabi_dsub
 223              		.global	__aeabi_ddiv
 224              		.global	__aeabi_dadd
 225              		.global	__aeabi_dmul
 226              		.global	__aeabi_i2d
 227              		.global	__aeabi_dcmpgt
 228              		.section	.text._ZN3PID7ComputeEff,"ax",%progbits
 229              		.align	1
 230              		.global	_ZN3PID7ComputeEff
 231              		.syntax unified
 232              		.thumb
 233              		.thumb_func
 235              	_ZN3PID7ComputeEff:
 236              		.fnstart
 237              	.LVL13:
 238              	.LFB249:
  25:lib/pid/pid.cpp **** 
  26:lib/pid/pid.cpp **** void PID::Compute(float input, float target) {
 239              		.loc 1 26 46 is_stmt 1 view -0
 240              		.cfi_startproc
 241              		@ args = 0, pretend = 0, frame = 0
 242              		@ frame_needed = 0, uses_anonymous_args = 0
 243              		.loc 1 26 46 is_stmt 0 view .LVU41
 244 0000 2DE9F84F 		push	{r3, r4, r5, r6, r7, r8, r9, r10, fp, lr}
 245              		.save {r3, r4, r5, r6, r7, r8, r9, r10, fp, lr}
 246              	.LCFI3:
 247              		.cfi_def_cfa_offset 40
 248              		.cfi_offset 3, -40
 249              		.cfi_offset 4, -36
 250              		.cfi_offset 5, -32
 251              		.cfi_offset 6, -28
 252              		.cfi_offset 7, -24
 253              		.cfi_offset 8, -20
 254              		.cfi_offset 9, -16
 255              		.cfi_offset 10, -12
 256              		.cfi_offset 11, -8
 257              		.cfi_offset 14, -4
 258 0004 2DED028B 		vpush.64	{d8}
 259              		.vsave {d8}
 260              	.LCFI4:
 261              		.cfi_def_cfa_offset 48
 262              		.cfi_offset 80, -48
 263              		.cfi_offset 81, -44
 264 0008 0446     		mov	r4, r0
 265 000a B0EE408A 		vmov.f32	s16, s0
 266 000e F0EE608A 		vmov.f32	s17, s1
  27:lib/pid/pid.cpp ****       if (sampling_timer.read() > sampling_period_) {  // 普通のやつ
 267              		.loc 1 27 7 is_stmt 1 view .LVU42
 268              		.loc 1 27 30 is_stmt 0 view .LVU43
 269 0012 00F15805 		add	r5, r0, #88
ARM GAS  /var/folders/5c/srt4fy4j1pd641bjfx75k5000000gn/T//ccS1q9JP.s 			page 6


 270 0016 2846     		mov	r0, r5
 271              	.LVL14:
 272              		.loc 1 27 30 view .LVU44
 273 0018 FFF7FEFF 		bl	_ZN5Timer4readEv
 274              	.LVL15:
 275              		.loc 1 27 30 view .LVU45
 276 001c 53EC102B 		vmov	r2, r3, d0
 277              		.loc 1 27 7 view .LVU46
 278 0020 D4E91201 		ldrd	r0, [r4, #72]
 279 0024 FFF7FEFF 		bl	__aeabi_dcmplt
 280              	.LVL16:
 281 0028 68B3     		cbz	r0, .L9
  28:lib/pid/pid.cpp ****             if (type_ == 0) {
 282              		.loc 1 28 13 is_stmt 1 view .LVU47
 283              		.loc 1 28 17 is_stmt 0 view .LVU48
 284 002a 94F85430 		ldrb	r3, [r4, #84]	@ zero_extendqisi2
 285              		.loc 1 28 13 view .LVU49
 286 002e 73B3     		cbz	r3, .L41
  29:lib/pid/pid.cpp ****                   p_ = target - input;                                 // 比例
  30:lib/pid/pid.cpp ****                   d_ = (p_ - pre_p_) / sampling_timer.read();          // 微分
  31:lib/pid/pid.cpp ****                   i_ += (p_ + pre_p_) * sampling_timer.read() * 0.5f;  // 台形積分
  32:lib/pid/pid.cpp ****                   if (i_ > max_limit_) i_ = max_limit_;
  33:lib/pid/pid.cpp ****                   if (i_ < min_limit_) i_ = min_limit_;
  34:lib/pid/pid.cpp ****                   pre_p_ = p_;
  35:lib/pid/pid.cpp **** 
  36:lib/pid/pid.cpp ****                   pid_ = p_ * kp_ + i_ * ki_ + d_ * kd_;
  37:lib/pid/pid.cpp ****             } else if (type_ == 1) {
 287              		.loc 1 37 20 is_stmt 1 view .LVU50
 288 0030 012B     		cmp	r3, #1
 289 0032 00F0AD80 		beq	.L42
  38:lib/pid/pid.cpp ****                   p_ = target - input;                                 // 比例
  39:lib/pid/pid.cpp ****                   d_ = (input - pre_input_) / sampling_timer.read();   // 微分
  40:lib/pid/pid.cpp ****                   i_ += (p_ + pre_p_) * sampling_timer.read() * 0.5f;  // 台形積分
  41:lib/pid/pid.cpp ****                   if (i_ > max_limit_) i_ = max_limit_;
  42:lib/pid/pid.cpp ****                   if (i_ < min_limit_) i_ = min_limit_;
  43:lib/pid/pid.cpp ****                   pre_p_ = p_;
  44:lib/pid/pid.cpp ****                   pre_input_ = input;
  45:lib/pid/pid.cpp **** 
  46:lib/pid/pid.cpp ****                   pid_ = p_ * kp_ + i_ * ki_ - d_ * kd_;
  47:lib/pid/pid.cpp ****             } else if (type_ == 2) {
 290              		.loc 1 47 20 view .LVU51
 291 0036 022B     		cmp	r3, #2
 292 0038 00F03381 		beq	.L43
 293              	.LVL17:
 294              	.L17:
  48:lib/pid/pid.cpp ****                   p_ = target - input;                                 // 比例
  49:lib/pid/pid.cpp ****                   d_ = (input - pre_input_) / sampling_timer.read();   // 微分
  50:lib/pid/pid.cpp ****                   i_ += (p_ + pre_p_) * sampling_timer.read() * 0.5f;  // 台形積分
  51:lib/pid/pid.cpp ****                   if (i_ > max_limit_) i_ = max_limit_;
  52:lib/pid/pid.cpp ****                   if (i_ < min_limit_) i_ = min_limit_;
  53:lib/pid/pid.cpp ****                   pre_p_ = p_;
  54:lib/pid/pid.cpp ****                   p_ = input - pre_input_;
  55:lib/pid/pid.cpp ****                   pre_input_ = input;
  56:lib/pid/pid.cpp **** 
  57:lib/pid/pid.cpp ****                   pid_ = 0 - p_ * kp_ + i_ * ki_ - d_ * kd_;
  58:lib/pid/pid.cpp ****             }
  59:lib/pid/pid.cpp ****             if (pid_ > max_limit_) pid_ = max_limit_;
ARM GAS  /var/folders/5c/srt4fy4j1pd641bjfx75k5000000gn/T//ccS1q9JP.s 			page 7


 295              		.loc 1 59 13 view .LVU52
 296              		.loc 1 59 17 is_stmt 0 view .LVU53
 297 003c D4E90E89 		ldrd	r8, [r4, #56]
 298              		.loc 1 59 22 view .LVU54
 299 0040 B4F95000 		ldrsh	r0, [r4, #80]
 300 0044 FFF7FEFF 		bl	__aeabi_i2d
 301              	.LVL18:
 302 0048 0646     		mov	r6, r0
 303 004a 0F46     		mov	r7, r1
 304              		.loc 1 59 13 view .LVU55
 305 004c 0246     		mov	r2, r0
 306 004e 0B46     		mov	r3, r1
 307 0050 4046     		mov	r0, r8
 308 0052 4946     		mov	r1, r9
 309 0054 FFF7FEFF 		bl	__aeabi_dcmpgt
 310              	.LVL19:
 311 0058 08B1     		cbz	r0, .L27
 312              		.loc 1 59 36 is_stmt 1 discriminator 1 view .LVU56
 313              		.loc 1 59 41 is_stmt 0 discriminator 1 view .LVU57
 314 005a C4E90E67 		strd	r6, [r4, #56]
 315              	.L27:
  60:lib/pid/pid.cpp ****             if (pid_ < min_limit_) pid_ = min_limit_;
 316              		.loc 1 60 13 is_stmt 1 view .LVU58
 317              		.loc 1 60 17 is_stmt 0 view .LVU59
 318 005e D4E90E89 		ldrd	r8, [r4, #56]
 319              		.loc 1 60 22 view .LVU60
 320 0062 B4F95200 		ldrsh	r0, [r4, #82]
 321 0066 FFF7FEFF 		bl	__aeabi_i2d
 322              	.LVL20:
 323 006a 0646     		mov	r6, r0
 324 006c 0F46     		mov	r7, r1
 325              		.loc 1 60 13 view .LVU61
 326 006e 0246     		mov	r2, r0
 327 0070 0B46     		mov	r3, r1
 328 0072 4046     		mov	r0, r8
 329 0074 4946     		mov	r1, r9
 330 0076 FFF7FEFF 		bl	__aeabi_dcmplt
 331              	.LVL21:
 332 007a 08B1     		cbz	r0, .L29
 333              		.loc 1 60 36 is_stmt 1 discriminator 1 view .LVU62
 334              		.loc 1 60 41 is_stmt 0 discriminator 1 view .LVU63
 335 007c C4E90E67 		strd	r6, [r4, #56]
 336              	.L29:
  61:lib/pid/pid.cpp ****             sampling_timer.reset();
 337              		.loc 1 61 13 is_stmt 1 view .LVU64
 338              		.loc 1 61 33 is_stmt 0 view .LVU65
 339 0080 2846     		mov	r0, r5
 340 0082 FFF7FEFF 		bl	_ZN5Timer5resetEv
 341              	.LVL22:
 342              	.L9:
  62:lib/pid/pid.cpp ****       }
  63:lib/pid/pid.cpp **** }
 343              		.loc 1 63 1 view .LVU66
 344 0086 BDEC028B 		vldm	sp!, {d8}
 345              	.LCFI5:
 346              		.cfi_remember_state
 347              		.cfi_restore 80
ARM GAS  /var/folders/5c/srt4fy4j1pd641bjfx75k5000000gn/T//ccS1q9JP.s 			page 8


 348              		.cfi_restore 81
 349              		.cfi_def_cfa_offset 40
 350 008a BDE8F88F 		pop	{r3, r4, r5, r6, r7, r8, r9, r10, fp, pc}
 351              	.LVL23:
 352              	.L41:
 353              	.LCFI6:
 354              		.cfi_restore_state
  29:lib/pid/pid.cpp ****                   d_ = (p_ - pre_p_) / sampling_timer.read();          // 微分
 355              		.loc 1 29 19 is_stmt 1 view .LVU67
  29:lib/pid/pid.cpp ****                   d_ = (p_ - pre_p_) / sampling_timer.read();          // 微分
 356              		.loc 1 29 31 is_stmt 0 view .LVU68
 357 008e 78EEC87A 		vsub.f32	s15, s17, s16
 358 0092 17EE900A 		vmov	r0, s15
 359 0096 FFF7FEFF 		bl	__aeabi_f2d
 360              	.LVL24:
 361 009a 0246     		mov	r2, r0
 362 009c 0B46     		mov	r3, r1
  29:lib/pid/pid.cpp ****                   d_ = (p_ - pre_p_) / sampling_timer.read();          // 微分
 363              		.loc 1 29 22 view .LVU69
 364 009e C4E90023 		strd	r2, [r4]
  30:lib/pid/pid.cpp ****                   i_ += (p_ + pre_p_) * sampling_timer.read() * 0.5f;  // 台形積分
 365              		.loc 1 30 19 is_stmt 1 view .LVU70
  30:lib/pid/pid.cpp ****                   i_ += (p_ + pre_p_) * sampling_timer.read() * 0.5f;  // 台形積分
 366              		.loc 1 30 28 is_stmt 0 view .LVU71
 367 00a2 D4E90623 		ldrd	r2, [r4, #24]
 368 00a6 FFF7FEFF 		bl	__aeabi_dsub
 369              	.LVL25:
 370 00aa 0646     		mov	r6, r0
 371 00ac 0F46     		mov	r7, r1
  30:lib/pid/pid.cpp ****                   i_ += (p_ + pre_p_) * sampling_timer.read() * 0.5f;  // 台形積分
 372              		.loc 1 30 59 view .LVU72
 373 00ae 2846     		mov	r0, r5
 374 00b0 FFF7FEFF 		bl	_ZN5Timer4readEv
 375              	.LVL26:
 376 00b4 53EC102B 		vmov	r2, r3, d0
  30:lib/pid/pid.cpp ****                   i_ += (p_ + pre_p_) * sampling_timer.read() * 0.5f;  // 台形積分
 377              		.loc 1 30 38 view .LVU73
 378 00b8 3046     		mov	r0, r6
 379 00ba 3946     		mov	r1, r7
 380 00bc FFF7FEFF 		bl	__aeabi_ddiv
 381              	.LVL27:
  30:lib/pid/pid.cpp ****                   i_ += (p_ + pre_p_) * sampling_timer.read() * 0.5f;  // 台形積分
 382              		.loc 1 30 22 view .LVU74
 383 00c0 C4E90401 		strd	r0, [r4, #16]
  31:lib/pid/pid.cpp ****                   if (i_ > max_limit_) i_ = max_limit_;
 384              		.loc 1 31 19 is_stmt 1 view .LVU75
  31:lib/pid/pid.cpp ****                   if (i_ > max_limit_) i_ = max_limit_;
 385              		.loc 1 31 29 is_stmt 0 view .LVU76
 386 00c4 D4E90623 		ldrd	r2, [r4, #24]
 387 00c8 D4E90001 		ldrd	r0, [r4]
 388 00cc FFF7FEFF 		bl	__aeabi_dadd
 389              	.LVL28:
 390 00d0 0646     		mov	r6, r0
 391 00d2 0F46     		mov	r7, r1
  31:lib/pid/pid.cpp ****                   if (i_ > max_limit_) i_ = max_limit_;
 392              		.loc 1 31 60 view .LVU77
 393 00d4 2846     		mov	r0, r5
ARM GAS  /var/folders/5c/srt4fy4j1pd641bjfx75k5000000gn/T//ccS1q9JP.s 			page 9


 394 00d6 FFF7FEFF 		bl	_ZN5Timer4readEv
 395              	.LVL29:
 396 00da 53EC102B 		vmov	r2, r3, d0
  31:lib/pid/pid.cpp ****                   if (i_ > max_limit_) i_ = max_limit_;
 397              		.loc 1 31 39 view .LVU78
 398 00de 3046     		mov	r0, r6
 399 00e0 3946     		mov	r1, r7
 400 00e2 FFF7FEFF 		bl	__aeabi_dmul
 401              	.LVL30:
  31:lib/pid/pid.cpp ****                   if (i_ > max_limit_) i_ = max_limit_;
 402              		.loc 1 31 63 view .LVU79
 403 00e6 0022     		movs	r2, #0
 404 00e8 B94B     		ldr	r3, .L44
 405 00ea FFF7FEFF 		bl	__aeabi_dmul
 406              	.LVL31:
 407 00ee 0246     		mov	r2, r0
 408 00f0 0B46     		mov	r3, r1
  31:lib/pid/pid.cpp ****                   if (i_ > max_limit_) i_ = max_limit_;
 409              		.loc 1 31 22 view .LVU80
 410 00f2 D4E90201 		ldrd	r0, [r4, #8]
 411 00f6 FFF7FEFF 		bl	__aeabi_dadd
 412              	.LVL32:
 413 00fa 0646     		mov	r6, r0
 414 00fc 0F46     		mov	r7, r1
 415 00fe C4E90267 		strd	r6, [r4, #8]
  32:lib/pid/pid.cpp ****                   if (i_ < min_limit_) i_ = min_limit_;
 416              		.loc 1 32 19 is_stmt 1 view .LVU81
  32:lib/pid/pid.cpp ****                   if (i_ < min_limit_) i_ = min_limit_;
 417              		.loc 1 32 26 is_stmt 0 view .LVU82
 418 0102 B4F95000 		ldrsh	r0, [r4, #80]
 419 0106 FFF7FEFF 		bl	__aeabi_i2d
 420              	.LVL33:
 421 010a 8046     		mov	r8, r0
 422 010c 8946     		mov	r9, r1
  32:lib/pid/pid.cpp ****                   if (i_ < min_limit_) i_ = min_limit_;
 423              		.loc 1 32 19 view .LVU83
 424 010e 0246     		mov	r2, r0
 425 0110 0B46     		mov	r3, r1
 426 0112 3046     		mov	r0, r6
 427 0114 3946     		mov	r1, r7
 428 0116 FFF7FEFF 		bl	__aeabi_dcmpgt
 429              	.LVL34:
 430 011a 08B1     		cbz	r0, .L13
  32:lib/pid/pid.cpp ****                   if (i_ < min_limit_) i_ = min_limit_;
 431              		.loc 1 32 40 is_stmt 1 discriminator 1 view .LVU84
  32:lib/pid/pid.cpp ****                   if (i_ < min_limit_) i_ = min_limit_;
 432              		.loc 1 32 43 is_stmt 0 discriminator 1 view .LVU85
 433 011c C4E90289 		strd	r8, [r4, #8]
 434              	.L13:
  33:lib/pid/pid.cpp ****                   pre_p_ = p_;
 435              		.loc 1 33 19 is_stmt 1 view .LVU86
  33:lib/pid/pid.cpp ****                   pre_p_ = p_;
 436              		.loc 1 33 23 is_stmt 0 view .LVU87
 437 0120 D4E90289 		ldrd	r8, [r4, #8]
  33:lib/pid/pid.cpp ****                   pre_p_ = p_;
 438              		.loc 1 33 26 view .LVU88
 439 0124 B4F95200 		ldrsh	r0, [r4, #82]
ARM GAS  /var/folders/5c/srt4fy4j1pd641bjfx75k5000000gn/T//ccS1q9JP.s 			page 10


 440 0128 FFF7FEFF 		bl	__aeabi_i2d
 441              	.LVL35:
 442 012c 0646     		mov	r6, r0
 443 012e 0F46     		mov	r7, r1
  33:lib/pid/pid.cpp ****                   pre_p_ = p_;
 444              		.loc 1 33 19 view .LVU89
 445 0130 0246     		mov	r2, r0
 446 0132 0B46     		mov	r3, r1
 447 0134 4046     		mov	r0, r8
 448 0136 4946     		mov	r1, r9
 449 0138 FFF7FEFF 		bl	__aeabi_dcmplt
 450              	.LVL36:
 451 013c 08B1     		cbz	r0, .L15
  33:lib/pid/pid.cpp ****                   pre_p_ = p_;
 452              		.loc 1 33 40 is_stmt 1 discriminator 1 view .LVU90
  33:lib/pid/pid.cpp ****                   pre_p_ = p_;
 453              		.loc 1 33 43 is_stmt 0 discriminator 1 view .LVU91
 454 013e C4E90267 		strd	r6, [r4, #8]
 455              	.L15:
  34:lib/pid/pid.cpp **** 
 456              		.loc 1 34 19 is_stmt 1 view .LVU92
  34:lib/pid/pid.cpp **** 
 457              		.loc 1 34 28 is_stmt 0 view .LVU93
 458 0142 D4E90001 		ldrd	r0, [r4]
  34:lib/pid/pid.cpp **** 
 459              		.loc 1 34 26 view .LVU94
 460 0146 C4E90601 		strd	r0, [r4, #24]
  36:lib/pid/pid.cpp ****             } else if (type_ == 1) {
 461              		.loc 1 36 19 is_stmt 1 view .LVU95
  36:lib/pid/pid.cpp ****             } else if (type_ == 1) {
 462              		.loc 1 36 29 is_stmt 0 view .LVU96
 463 014a D4E90823 		ldrd	r2, [r4, #32]
 464 014e FFF7FEFF 		bl	__aeabi_dmul
 465              	.LVL37:
 466 0152 0646     		mov	r6, r0
 467 0154 0F46     		mov	r7, r1
  36:lib/pid/pid.cpp ****             } else if (type_ == 1) {
 468              		.loc 1 36 40 view .LVU97
 469 0156 D4E90A23 		ldrd	r2, [r4, #40]
 470 015a D4E90201 		ldrd	r0, [r4, #8]
 471 015e FFF7FEFF 		bl	__aeabi_dmul
 472              	.LVL38:
 473 0162 0246     		mov	r2, r0
 474 0164 0B46     		mov	r3, r1
  36:lib/pid/pid.cpp ****             } else if (type_ == 1) {
 475              		.loc 1 36 35 view .LVU98
 476 0166 3046     		mov	r0, r6
 477 0168 3946     		mov	r1, r7
 478 016a FFF7FEFF 		bl	__aeabi_dadd
 479              	.LVL39:
 480 016e 0646     		mov	r6, r0
 481 0170 0F46     		mov	r7, r1
  36:lib/pid/pid.cpp ****             } else if (type_ == 1) {
 482              		.loc 1 36 51 view .LVU99
 483 0172 D4E90C23 		ldrd	r2, [r4, #48]
 484 0176 D4E90401 		ldrd	r0, [r4, #16]
 485 017a FFF7FEFF 		bl	__aeabi_dmul
ARM GAS  /var/folders/5c/srt4fy4j1pd641bjfx75k5000000gn/T//ccS1q9JP.s 			page 11


 486              	.LVL40:
 487 017e 0246     		mov	r2, r0
 488 0180 0B46     		mov	r3, r1
  36:lib/pid/pid.cpp ****             } else if (type_ == 1) {
 489              		.loc 1 36 46 view .LVU100
 490 0182 3046     		mov	r0, r6
 491 0184 3946     		mov	r1, r7
 492 0186 FFF7FEFF 		bl	__aeabi_dadd
 493              	.LVL41:
  36:lib/pid/pid.cpp ****             } else if (type_ == 1) {
 494              		.loc 1 36 24 view .LVU101
 495 018a C4E90E01 		strd	r0, [r4, #56]
 496 018e 55E7     		b	.L17
 497              	.L42:
  38:lib/pid/pid.cpp ****                   d_ = (input - pre_input_) / sampling_timer.read();   // 微分
 498              		.loc 1 38 19 is_stmt 1 view .LVU102
  38:lib/pid/pid.cpp ****                   d_ = (input - pre_input_) / sampling_timer.read();   // 微分
 499              		.loc 1 38 31 is_stmt 0 view .LVU103
 500 0190 78EEC87A 		vsub.f32	s15, s17, s16
 501 0194 17EE900A 		vmov	r0, s15
 502 0198 FFF7FEFF 		bl	__aeabi_f2d
 503              	.LVL42:
  38:lib/pid/pid.cpp ****                   d_ = (input - pre_input_) / sampling_timer.read();   // 微分
 504              		.loc 1 38 22 view .LVU104
 505 019c C4E90001 		strd	r0, [r4]
  39:lib/pid/pid.cpp ****                   i_ += (p_ + pre_p_) * sampling_timer.read() * 0.5f;  // 台形積分
 506              		.loc 1 39 19 is_stmt 1 view .LVU105
  39:lib/pid/pid.cpp ****                   i_ += (p_ + pre_p_) * sampling_timer.read() * 0.5f;  // 台形積分
 507              		.loc 1 39 25 is_stmt 0 view .LVU106
 508 01a0 18EE100A 		vmov	r0, s16
 509 01a4 FFF7FEFF 		bl	__aeabi_f2d
 510              	.LVL43:
 511 01a8 0246     		mov	r2, r0
 512 01aa 0B46     		mov	r3, r1
 513 01ac 43EC182B 		vmov	d8, r2, r3
 514              	.LVL44:
  39:lib/pid/pid.cpp ****                   i_ += (p_ + pre_p_) * sampling_timer.read() * 0.5f;  // 台形積分
 515              		.loc 1 39 31 view .LVU107
 516 01b0 D4E91023 		ldrd	r2, [r4, #64]
 517 01b4 FFF7FEFF 		bl	__aeabi_dsub
 518              	.LVL45:
 519 01b8 0646     		mov	r6, r0
 520 01ba 0F46     		mov	r7, r1
  39:lib/pid/pid.cpp ****                   i_ += (p_ + pre_p_) * sampling_timer.read() * 0.5f;  // 台形積分
 521              		.loc 1 39 66 view .LVU108
 522 01bc 2846     		mov	r0, r5
 523 01be FFF7FEFF 		bl	_ZN5Timer4readEv
 524              	.LVL46:
 525 01c2 53EC102B 		vmov	r2, r3, d0
  39:lib/pid/pid.cpp ****                   i_ += (p_ + pre_p_) * sampling_timer.read() * 0.5f;  // 台形積分
 526              		.loc 1 39 45 view .LVU109
 527 01c6 3046     		mov	r0, r6
 528 01c8 3946     		mov	r1, r7
 529 01ca FFF7FEFF 		bl	__aeabi_ddiv
 530              	.LVL47:
  39:lib/pid/pid.cpp ****                   i_ += (p_ + pre_p_) * sampling_timer.read() * 0.5f;  // 台形積分
 531              		.loc 1 39 22 view .LVU110
ARM GAS  /var/folders/5c/srt4fy4j1pd641bjfx75k5000000gn/T//ccS1q9JP.s 			page 12


 532 01ce C4E90401 		strd	r0, [r4, #16]
  40:lib/pid/pid.cpp ****                   if (i_ > max_limit_) i_ = max_limit_;
 533              		.loc 1 40 19 is_stmt 1 view .LVU111
  40:lib/pid/pid.cpp ****                   if (i_ > max_limit_) i_ = max_limit_;
 534              		.loc 1 40 29 is_stmt 0 view .LVU112
 535 01d2 D4E90623 		ldrd	r2, [r4, #24]
 536 01d6 D4E90001 		ldrd	r0, [r4]
 537 01da FFF7FEFF 		bl	__aeabi_dadd
 538              	.LVL48:
 539 01de 0646     		mov	r6, r0
 540 01e0 0F46     		mov	r7, r1
  40:lib/pid/pid.cpp ****                   if (i_ > max_limit_) i_ = max_limit_;
 541              		.loc 1 40 60 view .LVU113
 542 01e2 2846     		mov	r0, r5
 543 01e4 FFF7FEFF 		bl	_ZN5Timer4readEv
 544              	.LVL49:
 545 01e8 53EC102B 		vmov	r2, r3, d0
  40:lib/pid/pid.cpp ****                   if (i_ > max_limit_) i_ = max_limit_;
 546              		.loc 1 40 39 view .LVU114
 547 01ec 3046     		mov	r0, r6
 548 01ee 3946     		mov	r1, r7
 549 01f0 FFF7FEFF 		bl	__aeabi_dmul
 550              	.LVL50:
  40:lib/pid/pid.cpp ****                   if (i_ > max_limit_) i_ = max_limit_;
 551              		.loc 1 40 63 view .LVU115
 552 01f4 0022     		movs	r2, #0
 553 01f6 764B     		ldr	r3, .L44
 554 01f8 FFF7FEFF 		bl	__aeabi_dmul
 555              	.LVL51:
 556 01fc 0246     		mov	r2, r0
 557 01fe 0B46     		mov	r3, r1
  40:lib/pid/pid.cpp ****                   if (i_ > max_limit_) i_ = max_limit_;
 558              		.loc 1 40 22 view .LVU116
 559 0200 D4E90201 		ldrd	r0, [r4, #8]
 560 0204 FFF7FEFF 		bl	__aeabi_dadd
 561              	.LVL52:
 562 0208 0646     		mov	r6, r0
 563 020a 0F46     		mov	r7, r1
 564 020c C4E90267 		strd	r6, [r4, #8]
  41:lib/pid/pid.cpp ****                   if (i_ < min_limit_) i_ = min_limit_;
 565              		.loc 1 41 19 is_stmt 1 view .LVU117
  41:lib/pid/pid.cpp ****                   if (i_ < min_limit_) i_ = min_limit_;
 566              		.loc 1 41 26 is_stmt 0 view .LVU118
 567 0210 B4F95000 		ldrsh	r0, [r4, #80]
 568 0214 FFF7FEFF 		bl	__aeabi_i2d
 569              	.LVL53:
 570 0218 8046     		mov	r8, r0
 571 021a 8946     		mov	r9, r1
  41:lib/pid/pid.cpp ****                   if (i_ < min_limit_) i_ = min_limit_;
 572              		.loc 1 41 19 view .LVU119
 573 021c 0246     		mov	r2, r0
 574 021e 0B46     		mov	r3, r1
 575 0220 3046     		mov	r0, r6
 576 0222 3946     		mov	r1, r7
 577 0224 FFF7FEFF 		bl	__aeabi_dcmpgt
 578              	.LVL54:
 579 0228 08B1     		cbz	r0, .L19
ARM GAS  /var/folders/5c/srt4fy4j1pd641bjfx75k5000000gn/T//ccS1q9JP.s 			page 13


  41:lib/pid/pid.cpp ****                   if (i_ < min_limit_) i_ = min_limit_;
 580              		.loc 1 41 40 is_stmt 1 discriminator 1 view .LVU120
  41:lib/pid/pid.cpp ****                   if (i_ < min_limit_) i_ = min_limit_;
 581              		.loc 1 41 43 is_stmt 0 discriminator 1 view .LVU121
 582 022a C4E90289 		strd	r8, [r4, #8]
 583              	.L19:
  42:lib/pid/pid.cpp ****                   pre_p_ = p_;
 584              		.loc 1 42 19 is_stmt 1 view .LVU122
  42:lib/pid/pid.cpp ****                   pre_p_ = p_;
 585              		.loc 1 42 23 is_stmt 0 view .LVU123
 586 022e D4E90289 		ldrd	r8, [r4, #8]
  42:lib/pid/pid.cpp ****                   pre_p_ = p_;
 587              		.loc 1 42 26 view .LVU124
 588 0232 B4F95200 		ldrsh	r0, [r4, #82]
 589 0236 FFF7FEFF 		bl	__aeabi_i2d
 590              	.LVL55:
 591 023a 0646     		mov	r6, r0
 592 023c 0F46     		mov	r7, r1
  42:lib/pid/pid.cpp ****                   pre_p_ = p_;
 593              		.loc 1 42 19 view .LVU125
 594 023e 0246     		mov	r2, r0
 595 0240 0B46     		mov	r3, r1
 596 0242 4046     		mov	r0, r8
 597 0244 4946     		mov	r1, r9
 598 0246 FFF7FEFF 		bl	__aeabi_dcmplt
 599              	.LVL56:
 600 024a 08B1     		cbz	r0, .L21
  42:lib/pid/pid.cpp ****                   pre_p_ = p_;
 601              		.loc 1 42 40 is_stmt 1 discriminator 1 view .LVU126
  42:lib/pid/pid.cpp ****                   pre_p_ = p_;
 602              		.loc 1 42 43 is_stmt 0 discriminator 1 view .LVU127
 603 024c C4E90267 		strd	r6, [r4, #8]
 604              	.L21:
  43:lib/pid/pid.cpp ****                   pre_input_ = input;
 605              		.loc 1 43 19 is_stmt 1 view .LVU128
  43:lib/pid/pid.cpp ****                   pre_input_ = input;
 606              		.loc 1 43 28 is_stmt 0 view .LVU129
 607 0250 D4E90001 		ldrd	r0, [r4]
  43:lib/pid/pid.cpp ****                   pre_input_ = input;
 608              		.loc 1 43 26 view .LVU130
 609 0254 C4E90601 		strd	r0, [r4, #24]
  44:lib/pid/pid.cpp **** 
 610              		.loc 1 44 19 is_stmt 1 view .LVU131
  44:lib/pid/pid.cpp **** 
 611              		.loc 1 44 30 is_stmt 0 view .LVU132
 612 0258 84ED108B 		vstr.64	d8, [r4, #64]
  46:lib/pid/pid.cpp ****             } else if (type_ == 2) {
 613              		.loc 1 46 19 is_stmt 1 view .LVU133
  46:lib/pid/pid.cpp ****             } else if (type_ == 2) {
 614              		.loc 1 46 29 is_stmt 0 view .LVU134
 615 025c D4E90823 		ldrd	r2, [r4, #32]
 616 0260 FFF7FEFF 		bl	__aeabi_dmul
 617              	.LVL57:
 618 0264 0646     		mov	r6, r0
 619 0266 0F46     		mov	r7, r1
  46:lib/pid/pid.cpp ****             } else if (type_ == 2) {
 620              		.loc 1 46 40 view .LVU135
ARM GAS  /var/folders/5c/srt4fy4j1pd641bjfx75k5000000gn/T//ccS1q9JP.s 			page 14


 621 0268 D4E90A23 		ldrd	r2, [r4, #40]
 622 026c D4E90201 		ldrd	r0, [r4, #8]
 623 0270 FFF7FEFF 		bl	__aeabi_dmul
 624              	.LVL58:
 625 0274 0246     		mov	r2, r0
 626 0276 0B46     		mov	r3, r1
  46:lib/pid/pid.cpp ****             } else if (type_ == 2) {
 627              		.loc 1 46 35 view .LVU136
 628 0278 3046     		mov	r0, r6
 629 027a 3946     		mov	r1, r7
 630 027c FFF7FEFF 		bl	__aeabi_dadd
 631              	.LVL59:
 632 0280 0646     		mov	r6, r0
 633 0282 0F46     		mov	r7, r1
  46:lib/pid/pid.cpp ****             } else if (type_ == 2) {
 634              		.loc 1 46 51 view .LVU137
 635 0284 D4E90C23 		ldrd	r2, [r4, #48]
 636 0288 D4E90401 		ldrd	r0, [r4, #16]
 637 028c FFF7FEFF 		bl	__aeabi_dmul
 638              	.LVL60:
 639 0290 0246     		mov	r2, r0
 640 0292 0B46     		mov	r3, r1
  46:lib/pid/pid.cpp ****             } else if (type_ == 2) {
 641              		.loc 1 46 46 view .LVU138
 642 0294 3046     		mov	r0, r6
 643 0296 3946     		mov	r1, r7
 644 0298 FFF7FEFF 		bl	__aeabi_dsub
 645              	.LVL61:
  46:lib/pid/pid.cpp ****             } else if (type_ == 2) {
 646              		.loc 1 46 24 view .LVU139
 647 029c C4E90E01 		strd	r0, [r4, #56]
 648 02a0 CCE6     		b	.L17
 649              	.LVL62:
 650              	.L43:
  48:lib/pid/pid.cpp ****                   d_ = (input - pre_input_) / sampling_timer.read();   // 微分
 651              		.loc 1 48 19 is_stmt 1 view .LVU140
  48:lib/pid/pid.cpp ****                   d_ = (input - pre_input_) / sampling_timer.read();   // 微分
 652              		.loc 1 48 31 is_stmt 0 view .LVU141
 653 02a2 78EEC87A 		vsub.f32	s15, s17, s16
 654 02a6 17EE900A 		vmov	r0, s15
 655 02aa FFF7FEFF 		bl	__aeabi_f2d
 656              	.LVL63:
  48:lib/pid/pid.cpp ****                   d_ = (input - pre_input_) / sampling_timer.read();   // 微分
 657              		.loc 1 48 22 view .LVU142
 658 02ae C4E90001 		strd	r0, [r4]
  49:lib/pid/pid.cpp ****                   i_ += (p_ + pre_p_) * sampling_timer.read() * 0.5f;  // 台形積分
 659              		.loc 1 49 19 is_stmt 1 view .LVU143
  49:lib/pid/pid.cpp ****                   i_ += (p_ + pre_p_) * sampling_timer.read() * 0.5f;  // 台形積分
 660              		.loc 1 49 25 is_stmt 0 view .LVU144
 661 02b2 18EE100A 		vmov	r0, s16
 662 02b6 FFF7FEFF 		bl	__aeabi_f2d
 663              	.LVL64:
 664 02ba 8046     		mov	r8, r0
 665 02bc 8946     		mov	r9, r1
  49:lib/pid/pid.cpp ****                   i_ += (p_ + pre_p_) * sampling_timer.read() * 0.5f;  // 台形積分
 666              		.loc 1 49 31 view .LVU145
 667 02be D4E91023 		ldrd	r2, [r4, #64]
ARM GAS  /var/folders/5c/srt4fy4j1pd641bjfx75k5000000gn/T//ccS1q9JP.s 			page 15


 668 02c2 FFF7FEFF 		bl	__aeabi_dsub
 669              	.LVL65:
 670 02c6 0646     		mov	r6, r0
 671 02c8 0F46     		mov	r7, r1
  49:lib/pid/pid.cpp ****                   i_ += (p_ + pre_p_) * sampling_timer.read() * 0.5f;  // 台形積分
 672              		.loc 1 49 66 view .LVU146
 673 02ca 2846     		mov	r0, r5
 674 02cc FFF7FEFF 		bl	_ZN5Timer4readEv
 675              	.LVL66:
 676 02d0 53EC102B 		vmov	r2, r3, d0
  49:lib/pid/pid.cpp ****                   i_ += (p_ + pre_p_) * sampling_timer.read() * 0.5f;  // 台形積分
 677              		.loc 1 49 45 view .LVU147
 678 02d4 3046     		mov	r0, r6
 679 02d6 3946     		mov	r1, r7
 680 02d8 FFF7FEFF 		bl	__aeabi_ddiv
 681              	.LVL67:
  49:lib/pid/pid.cpp ****                   i_ += (p_ + pre_p_) * sampling_timer.read() * 0.5f;  // 台形積分
 682              		.loc 1 49 22 view .LVU148
 683 02dc C4E90401 		strd	r0, [r4, #16]
  50:lib/pid/pid.cpp ****                   if (i_ > max_limit_) i_ = max_limit_;
 684              		.loc 1 50 19 is_stmt 1 view .LVU149
  50:lib/pid/pid.cpp ****                   if (i_ > max_limit_) i_ = max_limit_;
 685              		.loc 1 50 29 is_stmt 0 view .LVU150
 686 02e0 D4E90623 		ldrd	r2, [r4, #24]
 687 02e4 D4E90001 		ldrd	r0, [r4]
 688 02e8 FFF7FEFF 		bl	__aeabi_dadd
 689              	.LVL68:
 690 02ec 0646     		mov	r6, r0
 691 02ee 0F46     		mov	r7, r1
  50:lib/pid/pid.cpp ****                   if (i_ > max_limit_) i_ = max_limit_;
 692              		.loc 1 50 60 view .LVU151
 693 02f0 2846     		mov	r0, r5
 694 02f2 FFF7FEFF 		bl	_ZN5Timer4readEv
 695              	.LVL69:
 696 02f6 53EC102B 		vmov	r2, r3, d0
  50:lib/pid/pid.cpp ****                   if (i_ > max_limit_) i_ = max_limit_;
 697              		.loc 1 50 39 view .LVU152
 698 02fa 3046     		mov	r0, r6
 699 02fc 3946     		mov	r1, r7
 700 02fe FFF7FEFF 		bl	__aeabi_dmul
 701              	.LVL70:
  50:lib/pid/pid.cpp ****                   if (i_ > max_limit_) i_ = max_limit_;
 702              		.loc 1 50 63 view .LVU153
 703 0302 0022     		movs	r2, #0
 704 0304 324B     		ldr	r3, .L44
 705 0306 FFF7FEFF 		bl	__aeabi_dmul
 706              	.LVL71:
 707 030a 0246     		mov	r2, r0
 708 030c 0B46     		mov	r3, r1
  50:lib/pid/pid.cpp ****                   if (i_ > max_limit_) i_ = max_limit_;
 709              		.loc 1 50 22 view .LVU154
 710 030e D4E90201 		ldrd	r0, [r4, #8]
 711 0312 FFF7FEFF 		bl	__aeabi_dadd
 712              	.LVL72:
 713 0316 0646     		mov	r6, r0
 714 0318 0F46     		mov	r7, r1
 715 031a C4E90267 		strd	r6, [r4, #8]
ARM GAS  /var/folders/5c/srt4fy4j1pd641bjfx75k5000000gn/T//ccS1q9JP.s 			page 16


  51:lib/pid/pid.cpp ****                   if (i_ < min_limit_) i_ = min_limit_;
 716              		.loc 1 51 19 is_stmt 1 view .LVU155
  51:lib/pid/pid.cpp ****                   if (i_ < min_limit_) i_ = min_limit_;
 717              		.loc 1 51 26 is_stmt 0 view .LVU156
 718 031e B4F95000 		ldrsh	r0, [r4, #80]
 719 0322 FFF7FEFF 		bl	__aeabi_i2d
 720              	.LVL73:
 721 0326 8246     		mov	r10, r0
 722 0328 8B46     		mov	fp, r1
  51:lib/pid/pid.cpp ****                   if (i_ < min_limit_) i_ = min_limit_;
 723              		.loc 1 51 19 view .LVU157
 724 032a 0246     		mov	r2, r0
 725 032c 0B46     		mov	r3, r1
 726 032e 3046     		mov	r0, r6
 727 0330 3946     		mov	r1, r7
 728 0332 FFF7FEFF 		bl	__aeabi_dcmpgt
 729              	.LVL74:
 730 0336 08B1     		cbz	r0, .L23
  51:lib/pid/pid.cpp ****                   if (i_ < min_limit_) i_ = min_limit_;
 731              		.loc 1 51 40 is_stmt 1 discriminator 1 view .LVU158
  51:lib/pid/pid.cpp ****                   if (i_ < min_limit_) i_ = min_limit_;
 732              		.loc 1 51 43 is_stmt 0 discriminator 1 view .LVU159
 733 0338 C4E902AB 		strd	r10, [r4, #8]
 734              	.L23:
  52:lib/pid/pid.cpp ****                   pre_p_ = p_;
 735              		.loc 1 52 19 is_stmt 1 view .LVU160
  52:lib/pid/pid.cpp ****                   pre_p_ = p_;
 736              		.loc 1 52 23 is_stmt 0 view .LVU161
 737 033c D4E902AB 		ldrd	r10, [r4, #8]
  52:lib/pid/pid.cpp ****                   pre_p_ = p_;
 738              		.loc 1 52 26 view .LVU162
 739 0340 B4F95200 		ldrsh	r0, [r4, #82]
 740 0344 FFF7FEFF 		bl	__aeabi_i2d
 741              	.LVL75:
 742 0348 0646     		mov	r6, r0
 743 034a 0F46     		mov	r7, r1
  52:lib/pid/pid.cpp ****                   pre_p_ = p_;
 744              		.loc 1 52 19 view .LVU163
 745 034c 0246     		mov	r2, r0
 746 034e 0B46     		mov	r3, r1
 747 0350 5046     		mov	r0, r10
 748 0352 5946     		mov	r1, fp
 749 0354 FFF7FEFF 		bl	__aeabi_dcmplt
 750              	.LVL76:
 751 0358 08B1     		cbz	r0, .L25
  52:lib/pid/pid.cpp ****                   pre_p_ = p_;
 752              		.loc 1 52 40 is_stmt 1 discriminator 1 view .LVU164
  52:lib/pid/pid.cpp ****                   pre_p_ = p_;
 753              		.loc 1 52 43 is_stmt 0 discriminator 1 view .LVU165
 754 035a C4E90267 		strd	r6, [r4, #8]
 755              	.L25:
  53:lib/pid/pid.cpp ****                   p_ = input - pre_input_;
 756              		.loc 1 53 19 is_stmt 1 view .LVU166
  53:lib/pid/pid.cpp ****                   p_ = input - pre_input_;
 757              		.loc 1 53 28 is_stmt 0 view .LVU167
 758 035e D4E90023 		ldrd	r2, [r4]
  53:lib/pid/pid.cpp ****                   p_ = input - pre_input_;
ARM GAS  /var/folders/5c/srt4fy4j1pd641bjfx75k5000000gn/T//ccS1q9JP.s 			page 17


 759              		.loc 1 53 26 view .LVU168
 760 0362 C4E90623 		strd	r2, [r4, #24]
  54:lib/pid/pid.cpp ****                   pre_input_ = input;
 761              		.loc 1 54 19 is_stmt 1 view .LVU169
  54:lib/pid/pid.cpp ****                   pre_input_ = input;
 762              		.loc 1 54 30 is_stmt 0 view .LVU170
 763 0366 D4E91023 		ldrd	r2, [r4, #64]
 764 036a 4046     		mov	r0, r8
 765 036c 4946     		mov	r1, r9
 766 036e FFF7FEFF 		bl	__aeabi_dsub
 767              	.LVL77:
 768 0372 0246     		mov	r2, r0
 769 0374 0B46     		mov	r3, r1
  54:lib/pid/pid.cpp ****                   pre_input_ = input;
 770              		.loc 1 54 22 view .LVU171
 771 0376 C4E90023 		strd	r2, [r4]
  55:lib/pid/pid.cpp **** 
 772              		.loc 1 55 19 is_stmt 1 view .LVU172
  55:lib/pid/pid.cpp **** 
 773              		.loc 1 55 30 is_stmt 0 view .LVU173
 774 037a C4E91089 		strd	r8, [r4, #64]
  57:lib/pid/pid.cpp ****             }
 775              		.loc 1 57 19 is_stmt 1 view .LVU174
  57:lib/pid/pid.cpp ****             }
 776              		.loc 1 57 33 is_stmt 0 view .LVU175
 777 037e D4E90823 		ldrd	r2, [r4, #32]
 778 0382 FFF7FEFF 		bl	__aeabi_dmul
 779              	.LVL78:
 780 0386 0246     		mov	r2, r0
 781 0388 0B46     		mov	r3, r1
  57:lib/pid/pid.cpp ****             }
 782              		.loc 1 57 28 view .LVU176
 783 038a 0020     		movs	r0, #0
 784 038c 0021     		movs	r1, #0
 785 038e FFF7FEFF 		bl	__aeabi_dsub
 786              	.LVL79:
 787 0392 0646     		mov	r6, r0
 788 0394 0F46     		mov	r7, r1
  57:lib/pid/pid.cpp ****             }
 789              		.loc 1 57 44 view .LVU177
 790 0396 D4E90A23 		ldrd	r2, [r4, #40]
 791 039a D4E90201 		ldrd	r0, [r4, #8]
 792 039e FFF7FEFF 		bl	__aeabi_dmul
 793              	.LVL80:
 794 03a2 0246     		mov	r2, r0
 795 03a4 0B46     		mov	r3, r1
  57:lib/pid/pid.cpp ****             }
 796              		.loc 1 57 39 view .LVU178
 797 03a6 3046     		mov	r0, r6
 798 03a8 3946     		mov	r1, r7
 799 03aa FFF7FEFF 		bl	__aeabi_dadd
 800              	.LVL81:
 801 03ae 0646     		mov	r6, r0
 802 03b0 0F46     		mov	r7, r1
  57:lib/pid/pid.cpp ****             }
 803              		.loc 1 57 55 view .LVU179
 804 03b2 D4E90C23 		ldrd	r2, [r4, #48]
ARM GAS  /var/folders/5c/srt4fy4j1pd641bjfx75k5000000gn/T//ccS1q9JP.s 			page 18


 805 03b6 D4E90401 		ldrd	r0, [r4, #16]
 806 03ba FFF7FEFF 		bl	__aeabi_dmul
 807              	.LVL82:
 808 03be 0246     		mov	r2, r0
 809 03c0 0B46     		mov	r3, r1
  57:lib/pid/pid.cpp ****             }
 810              		.loc 1 57 50 view .LVU180
 811 03c2 3046     		mov	r0, r6
 812 03c4 3946     		mov	r1, r7
 813 03c6 FFF7FEFF 		bl	__aeabi_dsub
 814              	.LVL83:
  57:lib/pid/pid.cpp ****             }
 815              		.loc 1 57 24 view .LVU181
 816 03ca C4E90E01 		strd	r0, [r4, #56]
 817 03ce 35E6     		b	.L17
 818              	.L45:
 819              		.align	2
 820              	.L44:
 821 03d0 0000E03F 		.word	1071644672
 822              		.cfi_endproc
 823              	.LFE249:
 824              		.fnend
 826              		.global	__aeabi_d2f
 827              		.section	.text._ZN3PID3GetEv,"ax",%progbits
 828              		.align	1
 829              		.global	_ZN3PID3GetEv
 830              		.syntax unified
 831              		.thumb
 832              		.thumb_func
 834              	_ZN3PID3GetEv:
 835              		.fnstart
 836              	.LVL84:
 837              	.LFB250:
  64:lib/pid/pid.cpp **** 
  65:lib/pid/pid.cpp **** float PID::Get() {
 838              		.loc 1 65 18 is_stmt 1 view -0
 839              		.cfi_startproc
 840              		@ args = 0, pretend = 0, frame = 0
 841              		@ frame_needed = 0, uses_anonymous_args = 0
 842              		.loc 1 65 18 is_stmt 0 view .LVU183
 843 0000 08B5     		push	{r3, lr}
 844              	.LCFI7:
 845              		.cfi_def_cfa_offset 8
 846              		.cfi_offset 3, -8
 847              		.cfi_offset 14, -4
  66:lib/pid/pid.cpp ****       return pid_;
 848              		.loc 1 66 7 is_stmt 1 view .LVU184
 849              		.loc 1 66 14 is_stmt 0 view .LVU185
 850 0002 D0E90E01 		ldrd	r0, [r0, #56]
 851              	.LVL85:
 852              		.loc 1 66 14 view .LVU186
 853 0006 FFF7FEFF 		bl	__aeabi_d2f
 854              	.LVL86:
  67:lib/pid/pid.cpp **** }...
 855              		.loc 1 67 1 view .LVU187
 856 000a 00EE100A 		vmov	s0, r0
 857 000e 08BD     		pop	{r3, pc}
ARM GAS  /var/folders/5c/srt4fy4j1pd641bjfx75k5000000gn/T//ccS1q9JP.s 			page 19


 858              		.cfi_endproc
 859              	.LFE250:
 860              		.cantunwind
 861              		.fnend
 863              		.text
 864              	.Letext0:
 865              		.file 2 "/opt/ST/STM32CubeCLT_1.16.0/GNU-tools-for-STM32/arm-none-eabi/include/c++/12.3.1/cstdio"
 866              		.file 3 "/opt/ST/STM32CubeCLT_1.16.0/GNU-tools-for-STM32/arm-none-eabi/include/c++/12.3.1/arm-none
 867              		.file 4 "/opt/ST/STM32CubeCLT_1.16.0/GNU-tools-for-STM32/arm-none-eabi/include/machine/_default_ty
 868              		.file 5 "/opt/ST/STM32CubeCLT_1.16.0/GNU-tools-for-STM32/lib/gcc/arm-none-eabi/12.3.1/include/stdd
 869              		.file 6 "/opt/ST/STM32CubeCLT_1.16.0/GNU-tools-for-STM32/arm-none-eabi/include/sys/_types.h"
 870              		.file 7 "/opt/ST/STM32CubeCLT_1.16.0/GNU-tools-for-STM32/arm-none-eabi/include/sys/reent.h"
 871              		.file 8 "/opt/ST/STM32CubeCLT_1.16.0/GNU-tools-for-STM32/arm-none-eabi/include/sys/lock.h"
 872              		.file 9 "/opt/ST/STM32CubeCLT_1.16.0/GNU-tools-for-STM32/arm-none-eabi/include/stdio.h"
 873              		.file 10 "/opt/ST/STM32CubeCLT_1.16.0/GNU-tools-for-STM32/arm-none-eabi/include/sys/_stdint.h"
 874              		.file 11 "Lib/Timer/Timer.hpp"
 875              		.file 12 "lib/pid/pid.hpp"
ARM GAS  /var/folders/5c/srt4fy4j1pd641bjfx75k5000000gn/T//ccS1q9JP.s 			page 20


DEFINED SYMBOLS
                            *ABS*:00000000 pid.cpp
/var/folders/5c/srt4fy4j1pd641bjfx75k5000000gn/T//ccS1q9JP.s:21     .text._ZN3PIDC2Ev:00000000 $t
/var/folders/5c/srt4fy4j1pd641bjfx75k5000000gn/T//ccS1q9JP.s:27     .text._ZN3PIDC2Ev:00000000 _ZN3PIDC2Ev
      .ARM.exidx.text._ZN3PIDC2Ev:00000000 $d
/var/folders/5c/srt4fy4j1pd641bjfx75k5000000gn/T//ccS1q9JP.s:27     .text._ZN3PIDC2Ev:00000000 _ZN3PIDC1Ev
/var/folders/5c/srt4fy4j1pd641bjfx75k5000000gn/T//ccS1q9JP.s:67     .text._ZN3PID7SetGainEfff:00000000 $t
/var/folders/5c/srt4fy4j1pd641bjfx75k5000000gn/T//ccS1q9JP.s:73     .text._ZN3PID7SetGainEfff:00000000 _ZN3PID7SetGainEfff
.ARM.exidx.text._ZN3PID7SetGainEfff:00000000 $d
/var/folders/5c/srt4fy4j1pd641bjfx75k5000000gn/T//ccS1q9JP.s:124    .text._ZN3PID15SetSamplingFreqEt:00000000 $t
/var/folders/5c/srt4fy4j1pd641bjfx75k5000000gn/T//ccS1q9JP.s:130    .text._ZN3PID15SetSamplingFreqEt:00000000 _ZN3PID15SetSamplingFreqEt
.ARM.exidx.text._ZN3PID15SetSamplingFreqEt:00000000 $d
/var/folders/5c/srt4fy4j1pd641bjfx75k5000000gn/T//ccS1q9JP.s:167    .text._ZN3PID8SetLimitEss:00000000 $t
/var/folders/5c/srt4fy4j1pd641bjfx75k5000000gn/T//ccS1q9JP.s:173    .text._ZN3PID8SetLimitEss:00000000 _ZN3PID8SetLimitEss
.ARM.exidx.text._ZN3PID8SetLimitEss:00000000 $d
/var/folders/5c/srt4fy4j1pd641bjfx75k5000000gn/T//ccS1q9JP.s:196    .text._ZN3PID7SetTypeEh:00000000 $t
/var/folders/5c/srt4fy4j1pd641bjfx75k5000000gn/T//ccS1q9JP.s:202    .text._ZN3PID7SetTypeEh:00000000 _ZN3PID7SetTypeEh
.ARM.exidx.text._ZN3PID7SetTypeEh:00000000 $d
/var/folders/5c/srt4fy4j1pd641bjfx75k5000000gn/T//ccS1q9JP.s:229    .text._ZN3PID7ComputeEff:00000000 $t
/var/folders/5c/srt4fy4j1pd641bjfx75k5000000gn/T//ccS1q9JP.s:235    .text._ZN3PID7ComputeEff:00000000 _ZN3PID7ComputeEff
/var/folders/5c/srt4fy4j1pd641bjfx75k5000000gn/T//ccS1q9JP.s:821    .text._ZN3PID7ComputeEff:000003d0 $d
.ARM.extab.text._ZN3PID7ComputeEff:00000000 $d
.ARM.exidx.text._ZN3PID7ComputeEff:00000000 $d
/var/folders/5c/srt4fy4j1pd641bjfx75k5000000gn/T//ccS1q9JP.s:828    .text._ZN3PID3GetEv:00000000 $t
/var/folders/5c/srt4fy4j1pd641bjfx75k5000000gn/T//ccS1q9JP.s:834    .text._ZN3PID3GetEv:00000000 _ZN3PID3GetEv
    .ARM.exidx.text._ZN3PID3GetEv:00000000 $d

UNDEFINED SYMBOLS
_ZN5TimerC1Ev
__aeabi_unwind_cpp_pr0
__aeabi_f2d
__aeabi_dcmplt
__aeabi_dsub
__aeabi_ddiv
__aeabi_dadd
__aeabi_dmul
__aeabi_i2d
__aeabi_dcmpgt
_ZN5Timer4readEv
_ZN5Timer5resetEv
__aeabi_unwind_cpp_pr1
__aeabi_d2f
