ARM GAS  /var/folders/5c/srt4fy4j1pd641bjfx75k5000000gn/T//cc1Wr9Og.s 			page 1


   1              		.cpu cortex-m4
   2              		.arch armv7e-m
   3              		.fpu fpv4-sp-d16
   4              		.eabi_attribute 27, 1
   5              		.eabi_attribute 28, 1
   6              		.eabi_attribute 20, 1
   7              		.eabi_attribute 21, 1
   8              		.eabi_attribute 23, 3
   9              		.eabi_attribute 24, 1
  10              		.eabi_attribute 25, 1
  11              		.eabi_attribute 26, 1
  12              		.eabi_attribute 30, 1
  13              		.eabi_attribute 34, 1
  14              		.eabi_attribute 18, 4
  15              		.file	"pid.cpp"
  16              		.text
  17              	.Ltext0:
  18              		.cfi_sections	.debug_frame
  19              		.file 1 "lib/pid/pid.cpp"
  20              		.section	.text._ZN3PIDC2Ev,"ax",%progbits
  21              		.align	1
  22              		.global	_ZN3PIDC2Ev
  23              		.syntax unified
  24              		.thumb
  25              		.thumb_func
  27              	_ZN3PIDC2Ev:
  28              		.fnstart
  29              	.LVL0:
  30              	.LFB243:
   1:lib/pid/pid.cpp **** #include "pid.hpp"
   2:lib/pid/pid.cpp **** 
   3:lib/pid/pid.cpp **** PID::PID() {
  31              		.loc 1 3 1 view -0
  32              		.cfi_startproc
  33              		@ args = 0, pretend = 0, frame = 0
  34              		@ frame_needed = 0, uses_anonymous_args = 0
  35              		.loc 1 3 1 is_stmt 0 view .LVU1
  36 0000 10B5     		push	{r4, lr}
  37              		.save {r4, lr}
  38              	.LCFI0:
  39              		.cfi_def_cfa_offset 8
  40              		.cfi_offset 4, -8
  41              		.cfi_offset 14, -4
  42 0002 0446     		mov	r4, r0
  43              	.LBB2:
  44              		.loc 1 3 10 view .LVU2
  45 0004 2830     		adds	r0, r0, #40
  46              	.LVL1:
  47              		.loc 1 3 10 view .LVU3
  48 0006 FFF7FEFF 		bl	_ZN5TimerC1Ev
  49              	.LVL2:
  50              	.LBE2:
   4:lib/pid/pid.cpp **** }
  51              		.loc 1 4 1 view .LVU4
  52 000a 2046     		mov	r0, r4
  53 000c 10BD     		pop	{r4, pc}
  54              		.loc 1 4 1 view .LVU5
ARM GAS  /var/folders/5c/srt4fy4j1pd641bjfx75k5000000gn/T//cc1Wr9Og.s 			page 2


  55              		.cfi_endproc
  56              	.LFE243:
  57              		.fnend
  59              		.global	_ZN3PIDC1Ev
  60              		.thumb_set _ZN3PIDC1Ev,_ZN3PIDC2Ev
  61              		.section	.text._ZN3PID7SetGainEfff,"ax",%progbits
  62              		.align	1
  63              		.global	_ZN3PID7SetGainEfff
  64              		.syntax unified
  65              		.thumb
  66              		.thumb_func
  68              	_ZN3PID7SetGainEfff:
  69              		.fnstart
  70              	.LVL3:
  71              	.LFB245:
   5:lib/pid/pid.cpp **** 
   6:lib/pid/pid.cpp **** void PID::SetGain(float kp, float ki, float kd) {
  72              		.loc 1 6 49 is_stmt 1 view -0
  73              		.cfi_startproc
  74              		@ args = 0, pretend = 0, frame = 0
  75              		@ frame_needed = 0, uses_anonymous_args = 0
  76              		@ link register save eliminated.
   7:lib/pid/pid.cpp ****       this->kp_ = kp;
  77              		.loc 1 7 7 view .LVU7
  78              		.loc 1 7 17 is_stmt 0 view .LVU8
  79 0000 80ED040A 		vstr.32	s0, [r0, #16]
   8:lib/pid/pid.cpp ****       this->ki_ = ki;
  80              		.loc 1 8 7 is_stmt 1 view .LVU9
  81              		.loc 1 8 17 is_stmt 0 view .LVU10
  82 0004 C0ED050A 		vstr.32	s1, [r0, #20]
   9:lib/pid/pid.cpp ****       this->kd_ = kd;
  83              		.loc 1 9 7 is_stmt 1 view .LVU11
  84              		.loc 1 9 17 is_stmt 0 view .LVU12
  85 0008 80ED061A 		vstr.32	s2, [r0, #24]
  10:lib/pid/pid.cpp **** }
  86              		.loc 1 10 1 view .LVU13
  87 000c 7047     		bx	lr
  88              		.cfi_endproc
  89              	.LFE245:
  90              		.cantunwind
  91              		.fnend
  93              		.section	.text._ZN3PID15SetSamplingFreqEt,"ax",%progbits
  94              		.align	1
  95              		.global	_ZN3PID15SetSamplingFreqEt
  96              		.syntax unified
  97              		.thumb
  98              		.thumb_func
 100              	_ZN3PID15SetSamplingFreqEt:
 101              		.fnstart
 102              	.LVL4:
 103              	.LFB246:
  11:lib/pid/pid.cpp **** 
  12:lib/pid/pid.cpp **** void PID::SetSamplingFreq(uint16_t sampling_freq) {
 104              		.loc 1 12 51 is_stmt 1 view -0
 105              		.cfi_startproc
 106              		@ args = 0, pretend = 0, frame = 0
 107              		@ frame_needed = 0, uses_anonymous_args = 0
ARM GAS  /var/folders/5c/srt4fy4j1pd641bjfx75k5000000gn/T//cc1Wr9Og.s 			page 3


 108              		@ link register save eliminated.
 109              		.loc 1 12 51 is_stmt 0 view .LVU15
 110 0000 07EE901A 		vmov	s15, r1	@ int
  13:lib/pid/pid.cpp ****       this->sampling_period_ = 1.0f / sampling_freq;
 111              		.loc 1 13 7 is_stmt 1 view .LVU16
 112              		.loc 1 13 37 is_stmt 0 view .LVU17
 113 0004 F8EEE77A 		vcvt.f32.s32	s15, s15
 114 0008 F7EE006A 		vmov.f32	s13, #1.0e+0
 115 000c 86EEA77A 		vdiv.f32	s14, s13, s15
 116              		.loc 1 13 30 view .LVU18
 117 0010 80ED087A 		vstr.32	s14, [r0, #32]
  14:lib/pid/pid.cpp **** }
 118              		.loc 1 14 1 view .LVU19
 119 0014 7047     		bx	lr
 120              		.cfi_endproc
 121              	.LFE246:
 122              		.cantunwind
 123              		.fnend
 125              		.section	.text._ZN3PID8SetLimitEt,"ax",%progbits
 126              		.align	1
 127              		.global	_ZN3PID8SetLimitEt
 128              		.syntax unified
 129              		.thumb
 130              		.thumb_func
 132              	_ZN3PID8SetLimitEt:
 133              		.fnstart
 134              	.LVL5:
 135              	.LFB247:
  15:lib/pid/pid.cpp **** 
  16:lib/pid/pid.cpp **** void PID::SetLimit(uint16_t limit) {
 136              		.loc 1 16 36 is_stmt 1 view -0
 137              		.cfi_startproc
 138              		@ args = 0, pretend = 0, frame = 0
 139              		@ frame_needed = 0, uses_anonymous_args = 0
 140              		@ link register save eliminated.
  17:lib/pid/pid.cpp ****       this->limit_ = limit;
 141              		.loc 1 17 7 view .LVU21
 142              		.loc 1 17 20 is_stmt 0 view .LVU22
 143 0000 8184     		strh	r1, [r0, #36]	@ movhi
  18:lib/pid/pid.cpp **** }
 144              		.loc 1 18 1 view .LVU23
 145 0002 7047     		bx	lr
 146              		.cfi_endproc
 147              	.LFE247:
 148              		.cantunwind
 149              		.fnend
 151              		.global	__aeabi_f2d
 152              		.global	__aeabi_dcmplt
 153              		.global	__aeabi_ddiv
 154              		.global	__aeabi_d2f
 155              		.global	__aeabi_dmul
 156              		.global	__aeabi_dadd
 157              		.section	.text._ZN3PID7ComputeEff,"ax",%progbits
 158              		.align	1
 159              		.global	_ZN3PID7ComputeEff
 160              		.syntax unified
 161              		.thumb
ARM GAS  /var/folders/5c/srt4fy4j1pd641bjfx75k5000000gn/T//cc1Wr9Og.s 			page 4


 162              		.thumb_func
 164              	_ZN3PID7ComputeEff:
 165              		.fnstart
 166              	.LVL6:
 167              	.LFB248:
  19:lib/pid/pid.cpp **** 
  20:lib/pid/pid.cpp **** void PID::Compute(float input_, float target_) {
 168              		.loc 1 20 48 is_stmt 1 view -0
 169              		.cfi_startproc
 170              		@ args = 0, pretend = 0, frame = 0
 171              		@ frame_needed = 0, uses_anonymous_args = 0
 172              		.loc 1 20 48 is_stmt 0 view .LVU25
 173 0000 F8B5     		push	{r3, r4, r5, r6, r7, lr}
 174              		.save {r3, r4, r5, r6, r7, lr}
 175              	.LCFI1:
 176              		.cfi_def_cfa_offset 24
 177              		.cfi_offset 3, -24
 178              		.cfi_offset 4, -20
 179              		.cfi_offset 5, -16
 180              		.cfi_offset 6, -12
 181              		.cfi_offset 7, -8
 182              		.cfi_offset 14, -4
 183 0002 2DED028B 		vpush.64	{d8}
 184              		.vsave {d8}
 185              	.LCFI2:
 186              		.cfi_def_cfa_offset 32
 187              		.cfi_offset 80, -32
 188              		.cfi_offset 81, -28
 189 0006 0446     		mov	r4, r0
 190 0008 F0EE408A 		vmov.f32	s17, s0
 191 000c B0EE608A 		vmov.f32	s16, s1
  21:lib/pid/pid.cpp ****       if (sampling_timer.read() > sampling_period_) {            // 普通のやつ
 192              		.loc 1 21 7 is_stmt 1 view .LVU26
 193              		.loc 1 21 30 is_stmt 0 view .LVU27
 194 0010 00F12805 		add	r5, r0, #40
 195 0014 2846     		mov	r0, r5
 196              	.LVL7:
 197              		.loc 1 21 30 view .LVU28
 198 0016 FFF7FEFF 		bl	_ZN5Timer4readEv
 199              	.LVL8:
 200              		.loc 1 21 30 view .LVU29
 201 001a 57EC106B 		vmov	r6, r7, d0
 202              		.loc 1 21 35 view .LVU30
 203 001e 206A     		ldr	r0, [r4, #32]	@ float
 204 0020 FFF7FEFF 		bl	__aeabi_f2d
 205              	.LVL9:
 206              		.loc 1 21 7 view .LVU31
 207 0024 3246     		mov	r2, r6
 208 0026 3B46     		mov	r3, r7
 209 0028 FFF7FEFF 		bl	__aeabi_dcmplt
 210              	.LVL10:
 211 002c 10B9     		cbnz	r0, .L21
 212              	.L6:
  22:lib/pid/pid.cpp ****             p_ = target_ - input_;                               // 比例
  23:lib/pid/pid.cpp ****             d_ = (p_ - pre_p_) / sampling_timer.read();          // 微分
  24:lib/pid/pid.cpp ****             i_ += (p_ + pre_p_) * sampling_timer.read() * 0.5f;  // 台形積分
  25:lib/pid/pid.cpp ****             if (abs(i_) > limit_) i_ = limit_ * (i_ / abs(i_));
ARM GAS  /var/folders/5c/srt4fy4j1pd641bjfx75k5000000gn/T//cc1Wr9Og.s 			page 5


  26:lib/pid/pid.cpp ****             pre_p_ = p_;
  27:lib/pid/pid.cpp **** 
  28:lib/pid/pid.cpp ****             pid_ = p_ * kp_ + i_ * ki_ + d_ * kd_;
  29:lib/pid/pid.cpp **** 
  30:lib/pid/pid.cpp ****             if (abs(pid_) > limit_) {
  31:lib/pid/pid.cpp ****                   pid_ = limit_ * (abs(pid_) / pid_);
  32:lib/pid/pid.cpp ****             }
  33:lib/pid/pid.cpp **** 
  34:lib/pid/pid.cpp ****             sampling_timer.reset();
  35:lib/pid/pid.cpp ****       }
  36:lib/pid/pid.cpp **** }
 213              		.loc 1 36 1 view .LVU32
 214 002e BDEC028B 		vldm	sp!, {d8}
 215              	.LCFI3:
 216              		.cfi_remember_state
 217              		.cfi_restore 80
 218              		.cfi_restore 81
 219              		.cfi_def_cfa_offset 24
 220              	.LVL11:
 221              		.loc 1 36 1 view .LVU33
 222 0032 F8BD     		pop	{r3, r4, r5, r6, r7, pc}
 223              	.LVL12:
 224              	.L21:
 225              	.LCFI4:
 226              		.cfi_restore_state
  22:lib/pid/pid.cpp ****             p_ = target_ - input_;                               // 比例
 227              		.loc 1 22 13 is_stmt 1 view .LVU34
  22:lib/pid/pid.cpp ****             p_ = target_ - input_;                               // 比例
 228              		.loc 1 22 26 is_stmt 0 view .LVU35
 229 0034 38EE680A 		vsub.f32	s0, s16, s17
  22:lib/pid/pid.cpp ****             p_ = target_ - input_;                               // 比例
 230              		.loc 1 22 16 view .LVU36
 231 0038 84ED000A 		vstr.32	s0, [r4]
  23:lib/pid/pid.cpp ****             i_ += (p_ + pre_p_) * sampling_timer.read() * 0.5f;  // 台形積分
 232              		.loc 1 23 13 is_stmt 1 view .LVU37
  23:lib/pid/pid.cpp ****             i_ += (p_ + pre_p_) * sampling_timer.read() * 0.5f;  // 台形積分
 233              		.loc 1 23 24 is_stmt 0 view .LVU38
 234 003c D4ED037A 		vldr.32	s15, [r4, #12]
  23:lib/pid/pid.cpp ****             i_ += (p_ + pre_p_) * sampling_timer.read() * 0.5f;  // 台形積分
 235              		.loc 1 23 22 view .LVU39
 236 0040 70EE677A 		vsub.f32	s15, s0, s15
 237 0044 17EE900A 		vmov	r0, s15
 238 0048 FFF7FEFF 		bl	__aeabi_f2d
 239              	.LVL13:
 240 004c 0646     		mov	r6, r0
 241 004e 0F46     		mov	r7, r1
  23:lib/pid/pid.cpp ****             i_ += (p_ + pre_p_) * sampling_timer.read() * 0.5f;  // 台形積分
 242              		.loc 1 23 53 view .LVU40
 243 0050 2846     		mov	r0, r5
 244 0052 FFF7FEFF 		bl	_ZN5Timer4readEv
 245              	.LVL14:
 246 0056 53EC102B 		vmov	r2, r3, d0
  23:lib/pid/pid.cpp ****             i_ += (p_ + pre_p_) * sampling_timer.read() * 0.5f;  // 台形積分
 247              		.loc 1 23 32 view .LVU41
 248 005a 3046     		mov	r0, r6
 249 005c 3946     		mov	r1, r7
 250 005e FFF7FEFF 		bl	__aeabi_ddiv
ARM GAS  /var/folders/5c/srt4fy4j1pd641bjfx75k5000000gn/T//cc1Wr9Og.s 			page 6


 251              	.LVL15:
 252 0062 FFF7FEFF 		bl	__aeabi_d2f
 253              	.LVL16:
  23:lib/pid/pid.cpp ****             i_ += (p_ + pre_p_) * sampling_timer.read() * 0.5f;  // 台形積分
 254              		.loc 1 23 16 view .LVU42
 255 0066 A060     		str	r0, [r4, #8]	@ float
  24:lib/pid/pid.cpp ****             if (abs(i_) > limit_) i_ = limit_ * (i_ / abs(i_));
 256              		.loc 1 24 13 is_stmt 1 view .LVU43
  24:lib/pid/pid.cpp ****             if (abs(i_) > limit_) i_ = limit_ * (i_ / abs(i_));
 257              		.loc 1 24 20 is_stmt 0 view .LVU44
 258 0068 94ED007A 		vldr.32	s14, [r4]
  24:lib/pid/pid.cpp ****             if (abs(i_) > limit_) i_ = limit_ * (i_ / abs(i_));
 259              		.loc 1 24 25 view .LVU45
 260 006c D4ED037A 		vldr.32	s15, [r4, #12]
  24:lib/pid/pid.cpp ****             if (abs(i_) > limit_) i_ = limit_ * (i_ / abs(i_));
 261              		.loc 1 24 23 view .LVU46
 262 0070 77EE277A 		vadd.f32	s15, s14, s15
 263 0074 17EE900A 		vmov	r0, s15
 264 0078 FFF7FEFF 		bl	__aeabi_f2d
 265              	.LVL17:
 266 007c 0646     		mov	r6, r0
 267 007e 0F46     		mov	r7, r1
  24:lib/pid/pid.cpp ****             if (abs(i_) > limit_) i_ = limit_ * (i_ / abs(i_));
 268              		.loc 1 24 54 view .LVU47
 269 0080 2846     		mov	r0, r5
 270 0082 FFF7FEFF 		bl	_ZN5Timer4readEv
 271              	.LVL18:
 272 0086 53EC102B 		vmov	r2, r3, d0
  24:lib/pid/pid.cpp ****             if (abs(i_) > limit_) i_ = limit_ * (i_ / abs(i_));
 273              		.loc 1 24 33 view .LVU48
 274 008a 3046     		mov	r0, r6
 275 008c 3946     		mov	r1, r7
 276 008e FFF7FEFF 		bl	__aeabi_dmul
 277              	.LVL19:
  24:lib/pid/pid.cpp ****             if (abs(i_) > limit_) i_ = limit_ * (i_ / abs(i_));
 278              		.loc 1 24 57 view .LVU49
 279 0092 0022     		movs	r2, #0
 280 0094 2E4B     		ldr	r3, .L24
 281 0096 FFF7FEFF 		bl	__aeabi_dmul
 282              	.LVL20:
 283 009a 0646     		mov	r6, r0
 284 009c 0F46     		mov	r7, r1
  24:lib/pid/pid.cpp ****             if (abs(i_) > limit_) i_ = limit_ * (i_ / abs(i_));
 285              		.loc 1 24 13 view .LVU50
 286 009e 6068     		ldr	r0, [r4, #4]	@ float
 287 00a0 FFF7FEFF 		bl	__aeabi_f2d
 288              	.LVL21:
  24:lib/pid/pid.cpp ****             if (abs(i_) > limit_) i_ = limit_ * (i_ / abs(i_));
 289              		.loc 1 24 16 view .LVU51
 290 00a4 3246     		mov	r2, r6
 291 00a6 3B46     		mov	r3, r7
 292 00a8 FFF7FEFF 		bl	__aeabi_dadd
 293              	.LVL22:
 294 00ac FFF7FEFF 		bl	__aeabi_d2f
 295              	.LVL23:
 296 00b0 07EE900A 		vmov	s15, r0
 297 00b4 6060     		str	r0, [r4, #4]	@ float
ARM GAS  /var/folders/5c/srt4fy4j1pd641bjfx75k5000000gn/T//cc1Wr9Og.s 			page 7


  25:lib/pid/pid.cpp ****             pre_p_ = p_;
 298              		.loc 1 25 13 is_stmt 1 view .LVU52
  25:lib/pid/pid.cpp ****             pre_p_ = p_;
 299              		.loc 1 25 17 is_stmt 0 view .LVU53
 300 00b6 F5EEC07A 		vcmpe.f32	s15, #0
 301 00ba F1EE10FA 		vmrs	APSR_nzcv, FPSCR
 302 00be 41DD     		ble	.L22
 303 00c0 F0EE676A 		vmov.f32	s13, s15
 304              	.L9:
  25:lib/pid/pid.cpp ****             pre_p_ = p_;
 305              		.loc 1 25 27 discriminator 4 view .LVU54
 306 00c4 A38C     		ldrh	r3, [r4, #36]
 307 00c6 07EE103A 		vmov	s14, r3	@ int
  25:lib/pid/pid.cpp ****             pre_p_ = p_;
 308              		.loc 1 25 25 discriminator 4 view .LVU55
 309 00ca B8EEC77A 		vcvt.f32.s32	s14, s14
  25:lib/pid/pid.cpp ****             pre_p_ = p_;
 310              		.loc 1 25 13 discriminator 4 view .LVU56
 311 00ce B4EEE67A 		vcmpe.f32	s14, s13
 312 00d2 F1EE10FA 		vmrs	APSR_nzcv, FPSCR
 313 00d6 05D5     		bpl	.L10
  25:lib/pid/pid.cpp ****             pre_p_ = p_;
 314              		.loc 1 25 35 is_stmt 1 discriminator 9 view .LVU57
  25:lib/pid/pid.cpp ****             pre_p_ = p_;
 315              		.loc 1 25 53 is_stmt 0 discriminator 9 view .LVU58
 316 00d8 87EEA66A 		vdiv.f32	s12, s15, s13
  25:lib/pid/pid.cpp ****             pre_p_ = p_;
 317              		.loc 1 25 47 discriminator 9 view .LVU59
 318 00dc 67EE067A 		vmul.f32	s15, s14, s12
  25:lib/pid/pid.cpp ****             pre_p_ = p_;
 319              		.loc 1 25 38 discriminator 9 view .LVU60
 320 00e0 C4ED017A 		vstr.32	s15, [r4, #4]
 321              	.L10:
  26:lib/pid/pid.cpp **** 
 322              		.loc 1 26 13 is_stmt 1 view .LVU61
  26:lib/pid/pid.cpp **** 
 323              		.loc 1 26 22 is_stmt 0 view .LVU62
 324 00e4 D4ED007A 		vldr.32	s15, [r4]
  26:lib/pid/pid.cpp **** 
 325              		.loc 1 26 20 view .LVU63
 326 00e8 C4ED037A 		vstr.32	s15, [r4, #12]
  28:lib/pid/pid.cpp **** 
 327              		.loc 1 28 13 is_stmt 1 view .LVU64
  28:lib/pid/pid.cpp **** 
 328              		.loc 1 28 25 is_stmt 0 view .LVU65
 329 00ec D4ED046A 		vldr.32	s13, [r4, #16]
  28:lib/pid/pid.cpp **** 
 330              		.loc 1 28 23 view .LVU66
 331 00f0 67EEA67A 		vmul.f32	s15, s15, s13
  28:lib/pid/pid.cpp **** 
 332              		.loc 1 28 31 view .LVU67
 333 00f4 D4ED016A 		vldr.32	s13, [r4, #4]
  28:lib/pid/pid.cpp **** 
 334              		.loc 1 28 36 view .LVU68
 335 00f8 94ED056A 		vldr.32	s12, [r4, #20]
  28:lib/pid/pid.cpp **** 
 336              		.loc 1 28 34 view .LVU69
ARM GAS  /var/folders/5c/srt4fy4j1pd641bjfx75k5000000gn/T//cc1Wr9Og.s 			page 8


 337 00fc 66EE866A 		vmul.f32	s13, s13, s12
  28:lib/pid/pid.cpp **** 
 338              		.loc 1 28 29 view .LVU70
 339 0100 77EEA67A 		vadd.f32	s15, s15, s13
  28:lib/pid/pid.cpp **** 
 340              		.loc 1 28 42 view .LVU71
 341 0104 D4ED026A 		vldr.32	s13, [r4, #8]
  28:lib/pid/pid.cpp **** 
 342              		.loc 1 28 47 view .LVU72
 343 0108 94ED066A 		vldr.32	s12, [r4, #24]
  28:lib/pid/pid.cpp **** 
 344              		.loc 1 28 45 view .LVU73
 345 010c 66EE866A 		vmul.f32	s13, s13, s12
  28:lib/pid/pid.cpp **** 
 346              		.loc 1 28 40 view .LVU74
 347 0110 77EEA67A 		vadd.f32	s15, s15, s13
  28:lib/pid/pid.cpp **** 
 348              		.loc 1 28 18 view .LVU75
 349 0114 C4ED077A 		vstr.32	s15, [r4, #28]
  30:lib/pid/pid.cpp ****                   pid_ = limit_ * (abs(pid_) / pid_);
 350              		.loc 1 30 13 is_stmt 1 view .LVU76
  30:lib/pid/pid.cpp ****                   pid_ = limit_ * (abs(pid_) / pid_);
 351              		.loc 1 30 17 is_stmt 0 view .LVU77
 352 0118 F5EEC07A 		vcmpe.f32	s15, #0
 353 011c F1EE10FA 		vmrs	APSR_nzcv, FPSCR
 354 0120 13DD     		ble	.L23
 355 0122 F0EE676A 		vmov.f32	s13, s15
 356              	.L12:
  30:lib/pid/pid.cpp ****                   pid_ = limit_ * (abs(pid_) / pid_);
 357              		.loc 1 30 13 discriminator 4 view .LVU78
 358 0126 B4EEE67A 		vcmpe.f32	s14, s13
 359 012a F1EE10FA 		vmrs	APSR_nzcv, FPSCR
 360 012e 05D5     		bpl	.L13
  31:lib/pid/pid.cpp ****             }
 361              		.loc 1 31 19 is_stmt 1 discriminator 4 view .LVU79
  31:lib/pid/pid.cpp ****             }
 362              		.loc 1 31 46 is_stmt 0 discriminator 4 view .LVU80
 363 0130 86EEA76A 		vdiv.f32	s12, s13, s15
  31:lib/pid/pid.cpp ****             }
 364              		.loc 1 31 33 discriminator 4 view .LVU81
 365 0134 27EE067A 		vmul.f32	s14, s14, s12
  31:lib/pid/pid.cpp ****             }
 366              		.loc 1 31 24 discriminator 4 view .LVU82
 367 0138 84ED077A 		vstr.32	s14, [r4, #28]
 368              	.L13:
  34:lib/pid/pid.cpp ****       }
 369              		.loc 1 34 13 is_stmt 1 view .LVU83
  34:lib/pid/pid.cpp ****       }
 370              		.loc 1 34 33 is_stmt 0 view .LVU84
 371 013c 2846     		mov	r0, r5
 372 013e FFF7FEFF 		bl	_ZN5Timer5resetEv
 373              	.LVL24:
 374              		.loc 1 36 1 view .LVU85
 375 0142 74E7     		b	.L6
 376              	.L22:
  25:lib/pid/pid.cpp ****             pre_p_ = p_;
 377              		.loc 1 25 17 discriminator 2 view .LVU86
ARM GAS  /var/folders/5c/srt4fy4j1pd641bjfx75k5000000gn/T//cc1Wr9Og.s 			page 9


 378 0144 F1EE676A 		vneg.f32	s13, s15
 379 0148 BCE7     		b	.L9
 380              	.L23:
  30:lib/pid/pid.cpp ****                   pid_ = limit_ * (abs(pid_) / pid_);
 381              		.loc 1 30 17 discriminator 2 view .LVU87
 382 014a F1EE676A 		vneg.f32	s13, s15
 383 014e EAE7     		b	.L12
 384              	.L25:
 385              		.align	2
 386              	.L24:
 387 0150 0000E03F 		.word	1071644672
 388              		.cfi_endproc
 389              	.LFE248:
 390              		.fnend
 392              		.section	.text._ZN3PID3GetEv,"ax",%progbits
 393              		.align	1
 394              		.global	_ZN3PID3GetEv
 395              		.syntax unified
 396              		.thumb
 397              		.thumb_func
 399              	_ZN3PID3GetEv:
 400              		.fnstart
 401              	.LVL25:
 402              	.LFB249:
  37:lib/pid/pid.cpp **** 
  38:lib/pid/pid.cpp **** float PID::Get() {
 403              		.loc 1 38 18 is_stmt 1 view -0
 404              		.cfi_startproc
 405              		@ args = 0, pretend = 0, frame = 0
 406              		@ frame_needed = 0, uses_anonymous_args = 0
 407              		@ link register save eliminated.
  39:lib/pid/pid.cpp ****       return pid_;
 408              		.loc 1 39 7 view .LVU89
  40:lib/pid/pid.cpp **** }...
 409              		.loc 1 40 1 is_stmt 0 view .LVU90
 410 0000 90ED070A 		vldr.32	s0, [r0, #28]
 411 0004 7047     		bx	lr
 412              		.cfi_endproc
 413              	.LFE249:
 414              		.cantunwind
 415              		.fnend
 417              		.text
 418              	.Letext0:
 419              		.file 2 "/opt/ST/STM32CubeCLT_1.16.0/GNU-tools-for-STM32/arm-none-eabi/include/c++/12.3.1/cstdio"
 420              		.file 3 "/opt/ST/STM32CubeCLT_1.16.0/GNU-tools-for-STM32/arm-none-eabi/include/c++/12.3.1/arm-none
 421              		.file 4 "/opt/ST/STM32CubeCLT_1.16.0/GNU-tools-for-STM32/arm-none-eabi/include/machine/_default_ty
 422              		.file 5 "/opt/ST/STM32CubeCLT_1.16.0/GNU-tools-for-STM32/lib/gcc/arm-none-eabi/12.3.1/include/stdd
 423              		.file 6 "/opt/ST/STM32CubeCLT_1.16.0/GNU-tools-for-STM32/arm-none-eabi/include/sys/_types.h"
 424              		.file 7 "/opt/ST/STM32CubeCLT_1.16.0/GNU-tools-for-STM32/arm-none-eabi/include/sys/reent.h"
 425              		.file 8 "/opt/ST/STM32CubeCLT_1.16.0/GNU-tools-for-STM32/arm-none-eabi/include/sys/lock.h"
 426              		.file 9 "/opt/ST/STM32CubeCLT_1.16.0/GNU-tools-for-STM32/arm-none-eabi/include/stdio.h"
 427              		.file 10 "/opt/ST/STM32CubeCLT_1.16.0/GNU-tools-for-STM32/arm-none-eabi/include/sys/_stdint.h"
 428              		.file 11 "Lib/Timer/Timer.hpp"
 429              		.file 12 "lib/pid/pid.hpp"
ARM GAS  /var/folders/5c/srt4fy4j1pd641bjfx75k5000000gn/T//cc1Wr9Og.s 			page 10


DEFINED SYMBOLS
                            *ABS*:00000000 pid.cpp
/var/folders/5c/srt4fy4j1pd641bjfx75k5000000gn/T//cc1Wr9Og.s:21     .text._ZN3PIDC2Ev:00000000 $t
/var/folders/5c/srt4fy4j1pd641bjfx75k5000000gn/T//cc1Wr9Og.s:27     .text._ZN3PIDC2Ev:00000000 _ZN3PIDC2Ev
      .ARM.exidx.text._ZN3PIDC2Ev:00000000 $d
/var/folders/5c/srt4fy4j1pd641bjfx75k5000000gn/T//cc1Wr9Og.s:27     .text._ZN3PIDC2Ev:00000000 _ZN3PIDC1Ev
/var/folders/5c/srt4fy4j1pd641bjfx75k5000000gn/T//cc1Wr9Og.s:62     .text._ZN3PID7SetGainEfff:00000000 $t
/var/folders/5c/srt4fy4j1pd641bjfx75k5000000gn/T//cc1Wr9Og.s:68     .text._ZN3PID7SetGainEfff:00000000 _ZN3PID7SetGainEfff
.ARM.exidx.text._ZN3PID7SetGainEfff:00000000 $d
/var/folders/5c/srt4fy4j1pd641bjfx75k5000000gn/T//cc1Wr9Og.s:94     .text._ZN3PID15SetSamplingFreqEt:00000000 $t
/var/folders/5c/srt4fy4j1pd641bjfx75k5000000gn/T//cc1Wr9Og.s:100    .text._ZN3PID15SetSamplingFreqEt:00000000 _ZN3PID15SetSamplingFreqEt
.ARM.exidx.text._ZN3PID15SetSamplingFreqEt:00000000 $d
/var/folders/5c/srt4fy4j1pd641bjfx75k5000000gn/T//cc1Wr9Og.s:126    .text._ZN3PID8SetLimitEt:00000000 $t
/var/folders/5c/srt4fy4j1pd641bjfx75k5000000gn/T//cc1Wr9Og.s:132    .text._ZN3PID8SetLimitEt:00000000 _ZN3PID8SetLimitEt
.ARM.exidx.text._ZN3PID8SetLimitEt:00000000 $d
/var/folders/5c/srt4fy4j1pd641bjfx75k5000000gn/T//cc1Wr9Og.s:158    .text._ZN3PID7ComputeEff:00000000 $t
/var/folders/5c/srt4fy4j1pd641bjfx75k5000000gn/T//cc1Wr9Og.s:164    .text._ZN3PID7ComputeEff:00000000 _ZN3PID7ComputeEff
/var/folders/5c/srt4fy4j1pd641bjfx75k5000000gn/T//cc1Wr9Og.s:387    .text._ZN3PID7ComputeEff:00000150 $d
.ARM.extab.text._ZN3PID7ComputeEff:00000000 $d
.ARM.exidx.text._ZN3PID7ComputeEff:00000000 $d
/var/folders/5c/srt4fy4j1pd641bjfx75k5000000gn/T//cc1Wr9Og.s:393    .text._ZN3PID3GetEv:00000000 $t
/var/folders/5c/srt4fy4j1pd641bjfx75k5000000gn/T//cc1Wr9Og.s:399    .text._ZN3PID3GetEv:00000000 _ZN3PID3GetEv
    .ARM.exidx.text._ZN3PID3GetEv:00000000 $d

UNDEFINED SYMBOLS
_ZN5TimerC1Ev
__aeabi_unwind_cpp_pr0
__aeabi_f2d
__aeabi_dcmplt
__aeabi_ddiv
__aeabi_d2f
__aeabi_dmul
__aeabi_dadd
_ZN5Timer4readEv
_ZN5Timer5resetEv
__aeabi_unwind_cpp_pr1
