ARM GAS  /var/folders/5c/srt4fy4j1pd641bjfx75k5000000gn/T//ccIscy8m.s 			page 1


   1              		.cpu cortex-m4
   2              		.arch armv7e-m
   3              		.fpu fpv4-sp-d16
   4              		.eabi_attribute 27, 1
   5              		.eabi_attribute 28, 1
   6              		.eabi_attribute 20, 1
   7              		.eabi_attribute 21, 1
   8              		.eabi_attribute 23, 3
   9              		.eabi_attribute 24, 1
  10              		.eabi_attribute 25, 1
  11              		.eabi_attribute 26, 1
  12              		.eabi_attribute 30, 1
  13              		.eabi_attribute 34, 1
  14              		.eabi_attribute 18, 4
  15              		.file	"pid.cpp"
  16              		.text
  17              	.Ltext0:
  18              		.cfi_sections	.debug_frame
  19              		.file 1 "lib/pid/pid.cpp"
  20              		.section	.text._ZN3PIDC2Ev,"ax",%progbits
  21              		.align	1
  22              		.global	_ZN3PIDC2Ev
  23              		.syntax unified
  24              		.thumb
  25              		.thumb_func
  27              	_ZN3PIDC2Ev:
  28              		.fnstart
  29              	.LVL0:
  30              	.LFB243:
   1:lib/pid/pid.cpp **** #include "pid.hpp"
   2:lib/pid/pid.cpp **** 
   3:lib/pid/pid.cpp **** PID::PID() {
  31              		.loc 1 3 1 view -0
  32              		.cfi_startproc
  33              		@ args = 0, pretend = 0, frame = 0
  34              		@ frame_needed = 0, uses_anonymous_args = 0
  35              		.loc 1 3 1 is_stmt 0 view .LVU1
  36 0000 10B5     		push	{r4, lr}
  37              		.save {r4, lr}
  38              	.LCFI0:
  39              		.cfi_def_cfa_offset 8
  40              		.cfi_offset 4, -8
  41              		.cfi_offset 14, -4
  42 0002 0446     		mov	r4, r0
  43              	.LBB2:
  44              		.loc 1 3 10 view .LVU2
  45 0004 2830     		adds	r0, r0, #40
  46              	.LVL1:
  47              		.loc 1 3 10 view .LVU3
  48 0006 FFF7FEFF 		bl	_ZN5TimerC1Ev
  49              	.LVL2:
  50              	.LBE2:
   4:lib/pid/pid.cpp **** }
  51              		.loc 1 4 1 view .LVU4
  52 000a 2046     		mov	r0, r4
  53 000c 10BD     		pop	{r4, pc}
  54              		.loc 1 4 1 view .LVU5
ARM GAS  /var/folders/5c/srt4fy4j1pd641bjfx75k5000000gn/T//ccIscy8m.s 			page 2


  55              		.cfi_endproc
  56              	.LFE243:
  57              		.fnend
  59              		.global	_ZN3PIDC1Ev
  60              		.thumb_set _ZN3PIDC1Ev,_ZN3PIDC2Ev
  61              		.section	.text._ZN3PID7SetGainEfff,"ax",%progbits
  62              		.align	1
  63              		.global	_ZN3PID7SetGainEfff
  64              		.syntax unified
  65              		.thumb
  66              		.thumb_func
  68              	_ZN3PID7SetGainEfff:
  69              		.fnstart
  70              	.LVL3:
  71              	.LFB245:
   5:lib/pid/pid.cpp **** 
   6:lib/pid/pid.cpp **** void PID::SetGain(float kp, float ki, float kd) {
  72              		.loc 1 6 49 is_stmt 1 view -0
  73              		.cfi_startproc
  74              		@ args = 0, pretend = 0, frame = 0
  75              		@ frame_needed = 0, uses_anonymous_args = 0
  76              		@ link register save eliminated.
   7:lib/pid/pid.cpp ****       this->kp_ = kp;
  77              		.loc 1 7 7 view .LVU7
  78              		.loc 1 7 17 is_stmt 0 view .LVU8
  79 0000 80ED040A 		vstr.32	s0, [r0, #16]
   8:lib/pid/pid.cpp ****       this->ki_ = ki;
  80              		.loc 1 8 7 is_stmt 1 view .LVU9
  81              		.loc 1 8 17 is_stmt 0 view .LVU10
  82 0004 C0ED050A 		vstr.32	s1, [r0, #20]
   9:lib/pid/pid.cpp ****       this->kd_ = kd;
  83              		.loc 1 9 7 is_stmt 1 view .LVU11
  84              		.loc 1 9 17 is_stmt 0 view .LVU12
  85 0008 80ED061A 		vstr.32	s2, [r0, #24]
  10:lib/pid/pid.cpp **** }
  86              		.loc 1 10 1 view .LVU13
  87 000c 7047     		bx	lr
  88              		.cfi_endproc
  89              	.LFE245:
  90              		.cantunwind
  91              		.fnend
  93              		.section	.text._ZN3PID15SetSamplingFreqEt,"ax",%progbits
  94              		.align	1
  95              		.global	_ZN3PID15SetSamplingFreqEt
  96              		.syntax unified
  97              		.thumb
  98              		.thumb_func
 100              	_ZN3PID15SetSamplingFreqEt:
 101              		.fnstart
 102              	.LVL4:
 103              	.LFB246:
  11:lib/pid/pid.cpp **** 
  12:lib/pid/pid.cpp **** void PID::SetSamplingFreq(uint16_t sampling_freq) {
 104              		.loc 1 12 51 is_stmt 1 view -0
 105              		.cfi_startproc
 106              		@ args = 0, pretend = 0, frame = 0
 107              		@ frame_needed = 0, uses_anonymous_args = 0
ARM GAS  /var/folders/5c/srt4fy4j1pd641bjfx75k5000000gn/T//ccIscy8m.s 			page 3


 108              		@ link register save eliminated.
 109              		.loc 1 12 51 is_stmt 0 view .LVU15
 110 0000 07EE901A 		vmov	s15, r1	@ int
  13:lib/pid/pid.cpp ****       this->sampling_period_ = 1.0f / sampling_freq;
 111              		.loc 1 13 7 is_stmt 1 view .LVU16
 112              		.loc 1 13 37 is_stmt 0 view .LVU17
 113 0004 F8EEE77A 		vcvt.f32.s32	s15, s15
 114 0008 F7EE006A 		vmov.f32	s13, #1.0e+0
 115 000c 86EEA77A 		vdiv.f32	s14, s13, s15
 116              		.loc 1 13 30 view .LVU18
 117 0010 80ED087A 		vstr.32	s14, [r0, #32]
  14:lib/pid/pid.cpp **** }
 118              		.loc 1 14 1 view .LVU19
 119 0014 7047     		bx	lr
 120              		.cfi_endproc
 121              	.LFE246:
 122              		.cantunwind
 123              		.fnend
 125              		.section	.text._ZN3PID8SetLimitEt,"ax",%progbits
 126              		.align	1
 127              		.global	_ZN3PID8SetLimitEt
 128              		.syntax unified
 129              		.thumb
 130              		.thumb_func
 132              	_ZN3PID8SetLimitEt:
 133              		.fnstart
 134              	.LVL5:
 135              	.LFB247:
  15:lib/pid/pid.cpp **** 
  16:lib/pid/pid.cpp **** void PID::SetLimit(uint16_t limit) {
 136              		.loc 1 16 36 is_stmt 1 view -0
 137              		.cfi_startproc
 138              		@ args = 0, pretend = 0, frame = 0
 139              		@ frame_needed = 0, uses_anonymous_args = 0
 140              		@ link register save eliminated.
  17:lib/pid/pid.cpp ****       this->limit_ = limit;
 141              		.loc 1 17 7 view .LVU21
 142              		.loc 1 17 20 is_stmt 0 view .LVU22
 143 0000 8184     		strh	r1, [r0, #36]	@ movhi
  18:lib/pid/pid.cpp **** }
 144              		.loc 1 18 1 view .LVU23
 145 0002 7047     		bx	lr
 146              		.cfi_endproc
 147              	.LFE247:
 148              		.cantunwind
 149              		.fnend
 151              		.section	.text._ZN3PID7ComputeEff,"ax",%progbits
 152              		.align	1
 153              		.global	_ZN3PID7ComputeEff
 154              		.syntax unified
 155              		.thumb
 156              		.thumb_func
 158              	_ZN3PID7ComputeEff:
 159              		.fnstart
 160              	.LVL6:
 161              	.LFB248:
  19:lib/pid/pid.cpp **** 
ARM GAS  /var/folders/5c/srt4fy4j1pd641bjfx75k5000000gn/T//ccIscy8m.s 			page 4


  20:lib/pid/pid.cpp **** void PID::Compute(float input_, float target_) {
 162              		.loc 1 20 48 is_stmt 1 view -0
 163              		.cfi_startproc
 164              		@ args = 0, pretend = 0, frame = 0
 165              		@ frame_needed = 0, uses_anonymous_args = 0
 166              		.loc 1 20 48 is_stmt 0 view .LVU25
 167 0000 38B5     		push	{r3, r4, r5, lr}
 168              		.save {r3, r4, r5, lr}
 169              	.LCFI1:
 170              		.cfi_def_cfa_offset 16
 171              		.cfi_offset 3, -16
 172              		.cfi_offset 4, -12
 173              		.cfi_offset 5, -8
 174              		.cfi_offset 14, -4
 175 0002 2DED028B 		vpush.64	{d8}
 176              		.vsave {d8}
 177              	.LCFI2:
 178              		.cfi_def_cfa_offset 24
 179              		.cfi_offset 80, -24
 180              		.cfi_offset 81, -20
 181 0006 0446     		mov	r4, r0
 182 0008 F0EE408A 		vmov.f32	s17, s0
 183 000c B0EE608A 		vmov.f32	s16, s1
  21:lib/pid/pid.cpp ****       if (sampling_timer.read() > sampling_period_) {            // 普通のやつ
 184              		.loc 1 21 7 is_stmt 1 view .LVU26
 185              		.loc 1 21 30 is_stmt 0 view .LVU27
 186 0010 00F12805 		add	r5, r0, #40
 187 0014 2846     		mov	r0, r5
 188              	.LVL7:
 189              		.loc 1 21 30 view .LVU28
 190 0016 FFF7FEFF 		bl	_ZN5Timer4readEv
 191              	.LVL8:
 192              		.loc 1 21 35 view .LVU29
 193 001a D4ED087A 		vldr.32	s15, [r4, #32]
 194              		.loc 1 21 7 view .LVU30
 195 001e F4EEC07A 		vcmpe.f32	s15, s0
 196 0022 F1EE10FA 		vmrs	APSR_nzcv, FPSCR
 197 0026 02D4     		bmi	.L21
 198              	.LVL9:
 199              	.L6:
  22:lib/pid/pid.cpp ****             p_ = target_ - input_;                               // 比例
  23:lib/pid/pid.cpp ****             d_ = (p_ - pre_p_) / sampling_timer.read();          // 微分
  24:lib/pid/pid.cpp ****             i_ += (p_ + pre_p_) * sampling_timer.read() * 0.5f;  // 台形積分
  25:lib/pid/pid.cpp ****             if (abs(i_) > limit_) i_ = limit_ * (i_ / abs(i_));
  26:lib/pid/pid.cpp ****             pre_p_ = p_;
  27:lib/pid/pid.cpp **** 
  28:lib/pid/pid.cpp ****             pid_ = p_ * kp_ + i_ * ki_ + d_ * kd_;
  29:lib/pid/pid.cpp **** 
  30:lib/pid/pid.cpp ****             if (abs(pid_) > limit_) {
  31:lib/pid/pid.cpp ****                   pid_ = limit_ * (abs(pid_) / pid_);
  32:lib/pid/pid.cpp ****             }
  33:lib/pid/pid.cpp **** 
  34:lib/pid/pid.cpp ****             sampling_timer.reset();
  35:lib/pid/pid.cpp ****       }
  36:lib/pid/pid.cpp **** }
 200              		.loc 1 36 1 view .LVU31
 201 0028 BDEC028B 		vldm	sp!, {d8}
ARM GAS  /var/folders/5c/srt4fy4j1pd641bjfx75k5000000gn/T//ccIscy8m.s 			page 5


 202              	.LCFI3:
 203              		.cfi_remember_state
 204              		.cfi_restore 80
 205              		.cfi_restore 81
 206              		.cfi_def_cfa_offset 16
 207 002c 38BD     		pop	{r3, r4, r5, pc}
 208              	.LVL10:
 209              	.L21:
 210              	.LCFI4:
 211              		.cfi_restore_state
  22:lib/pid/pid.cpp ****             p_ = target_ - input_;                               // 比例
 212              		.loc 1 22 13 is_stmt 1 view .LVU32
  22:lib/pid/pid.cpp ****             p_ = target_ - input_;                               // 比例
 213              		.loc 1 22 26 is_stmt 0 view .LVU33
 214 002e 38EE680A 		vsub.f32	s0, s16, s17
  22:lib/pid/pid.cpp ****             p_ = target_ - input_;                               // 比例
 215              		.loc 1 22 16 view .LVU34
 216 0032 84ED000A 		vstr.32	s0, [r4]
  23:lib/pid/pid.cpp ****             i_ += (p_ + pre_p_) * sampling_timer.read() * 0.5f;  // 台形積分
 217              		.loc 1 23 13 is_stmt 1 view .LVU35
  23:lib/pid/pid.cpp ****             i_ += (p_ + pre_p_) * sampling_timer.read() * 0.5f;  // 台形積分
 218              		.loc 1 23 24 is_stmt 0 view .LVU36
 219 0036 D4ED037A 		vldr.32	s15, [r4, #12]
  23:lib/pid/pid.cpp ****             i_ += (p_ + pre_p_) * sampling_timer.read() * 0.5f;  // 台形積分
 220              		.loc 1 23 22 view .LVU37
 221 003a 30EE678A 		vsub.f32	s16, s0, s15
 222              	.LVL11:
  23:lib/pid/pid.cpp ****             i_ += (p_ + pre_p_) * sampling_timer.read() * 0.5f;  // 台形積分
 223              		.loc 1 23 53 view .LVU38
 224 003e 2846     		mov	r0, r5
 225 0040 FFF7FEFF 		bl	_ZN5Timer4readEv
 226              	.LVL12:
  23:lib/pid/pid.cpp ****             i_ += (p_ + pre_p_) * sampling_timer.read() * 0.5f;  // 台形積分
 227              		.loc 1 23 32 view .LVU39
 228 0044 C8EE007A 		vdiv.f32	s15, s16, s0
  23:lib/pid/pid.cpp ****             i_ += (p_ + pre_p_) * sampling_timer.read() * 0.5f;  // 台形積分
 229              		.loc 1 23 16 view .LVU40
 230 0048 C4ED027A 		vstr.32	s15, [r4, #8]
  24:lib/pid/pid.cpp ****             if (abs(i_) > limit_) i_ = limit_ * (i_ / abs(i_));
 231              		.loc 1 24 13 is_stmt 1 view .LVU41
  24:lib/pid/pid.cpp ****             if (abs(i_) > limit_) i_ = limit_ * (i_ / abs(i_));
 232              		.loc 1 24 20 is_stmt 0 view .LVU42
 233 004c 94ED008A 		vldr.32	s16, [r4]
  24:lib/pid/pid.cpp ****             if (abs(i_) > limit_) i_ = limit_ * (i_ / abs(i_));
 234              		.loc 1 24 25 view .LVU43
 235 0050 D4ED037A 		vldr.32	s15, [r4, #12]
  24:lib/pid/pid.cpp ****             if (abs(i_) > limit_) i_ = limit_ * (i_ / abs(i_));
 236              		.loc 1 24 23 view .LVU44
 237 0054 38EE278A 		vadd.f32	s16, s16, s15
  24:lib/pid/pid.cpp ****             if (abs(i_) > limit_) i_ = limit_ * (i_ / abs(i_));
 238              		.loc 1 24 54 view .LVU45
 239 0058 2846     		mov	r0, r5
 240 005a FFF7FEFF 		bl	_ZN5Timer4readEv
 241              	.LVL13:
  24:lib/pid/pid.cpp ****             if (abs(i_) > limit_) i_ = limit_ * (i_ / abs(i_));
 242              		.loc 1 24 33 view .LVU46
 243 005e 28EE008A 		vmul.f32	s16, s16, s0
ARM GAS  /var/folders/5c/srt4fy4j1pd641bjfx75k5000000gn/T//ccIscy8m.s 			page 6


  24:lib/pid/pid.cpp ****             if (abs(i_) > limit_) i_ = limit_ * (i_ / abs(i_));
 244              		.loc 1 24 57 view .LVU47
 245 0062 F6EE007A 		vmov.f32	s15, #5.0e-1
 246 0066 28EE278A 		vmul.f32	s16, s16, s15
  24:lib/pid/pid.cpp ****             if (abs(i_) > limit_) i_ = limit_ * (i_ / abs(i_));
 247              		.loc 1 24 13 view .LVU48
 248 006a D4ED017A 		vldr.32	s15, [r4, #4]
  24:lib/pid/pid.cpp ****             if (abs(i_) > limit_) i_ = limit_ * (i_ / abs(i_));
 249              		.loc 1 24 16 view .LVU49
 250 006e 77EE887A 		vadd.f32	s15, s15, s16
 251 0072 C4ED017A 		vstr.32	s15, [r4, #4]
  25:lib/pid/pid.cpp ****             pre_p_ = p_;
 252              		.loc 1 25 13 is_stmt 1 view .LVU50
  25:lib/pid/pid.cpp ****             pre_p_ = p_;
 253              		.loc 1 25 17 is_stmt 0 view .LVU51
 254 0076 F5EEC07A 		vcmpe.f32	s15, #0
 255 007a F1EE10FA 		vmrs	APSR_nzcv, FPSCR
 256 007e 41DD     		ble	.L22
 257 0080 F0EE676A 		vmov.f32	s13, s15
 258              	.L9:
  25:lib/pid/pid.cpp ****             pre_p_ = p_;
 259              		.loc 1 25 27 discriminator 4 view .LVU52
 260 0084 A38C     		ldrh	r3, [r4, #36]
 261 0086 07EE103A 		vmov	s14, r3	@ int
  25:lib/pid/pid.cpp ****             pre_p_ = p_;
 262              		.loc 1 25 25 discriminator 4 view .LVU53
 263 008a B8EEC77A 		vcvt.f32.s32	s14, s14
  25:lib/pid/pid.cpp ****             pre_p_ = p_;
 264              		.loc 1 25 13 discriminator 4 view .LVU54
 265 008e B4EEE67A 		vcmpe.f32	s14, s13
 266 0092 F1EE10FA 		vmrs	APSR_nzcv, FPSCR
 267 0096 05D5     		bpl	.L10
  25:lib/pid/pid.cpp ****             pre_p_ = p_;
 268              		.loc 1 25 35 is_stmt 1 discriminator 9 view .LVU55
  25:lib/pid/pid.cpp ****             pre_p_ = p_;
 269              		.loc 1 25 53 is_stmt 0 discriminator 9 view .LVU56
 270 0098 87EEA66A 		vdiv.f32	s12, s15, s13
  25:lib/pid/pid.cpp ****             pre_p_ = p_;
 271              		.loc 1 25 47 discriminator 9 view .LVU57
 272 009c 67EE067A 		vmul.f32	s15, s14, s12
  25:lib/pid/pid.cpp ****             pre_p_ = p_;
 273              		.loc 1 25 38 discriminator 9 view .LVU58
 274 00a0 C4ED017A 		vstr.32	s15, [r4, #4]
 275              	.L10:
  26:lib/pid/pid.cpp **** 
 276              		.loc 1 26 13 is_stmt 1 view .LVU59
  26:lib/pid/pid.cpp **** 
 277              		.loc 1 26 22 is_stmt 0 view .LVU60
 278 00a4 D4ED007A 		vldr.32	s15, [r4]
  26:lib/pid/pid.cpp **** 
 279              		.loc 1 26 20 view .LVU61
 280 00a8 C4ED037A 		vstr.32	s15, [r4, #12]
  28:lib/pid/pid.cpp **** 
 281              		.loc 1 28 13 is_stmt 1 view .LVU62
  28:lib/pid/pid.cpp **** 
 282              		.loc 1 28 25 is_stmt 0 view .LVU63
 283 00ac D4ED046A 		vldr.32	s13, [r4, #16]
ARM GAS  /var/folders/5c/srt4fy4j1pd641bjfx75k5000000gn/T//ccIscy8m.s 			page 7


  28:lib/pid/pid.cpp **** 
 284              		.loc 1 28 23 view .LVU64
 285 00b0 67EEA67A 		vmul.f32	s15, s15, s13
  28:lib/pid/pid.cpp **** 
 286              		.loc 1 28 31 view .LVU65
 287 00b4 D4ED016A 		vldr.32	s13, [r4, #4]
  28:lib/pid/pid.cpp **** 
 288              		.loc 1 28 36 view .LVU66
 289 00b8 94ED056A 		vldr.32	s12, [r4, #20]
  28:lib/pid/pid.cpp **** 
 290              		.loc 1 28 34 view .LVU67
 291 00bc 66EE866A 		vmul.f32	s13, s13, s12
  28:lib/pid/pid.cpp **** 
 292              		.loc 1 28 29 view .LVU68
 293 00c0 77EEA67A 		vadd.f32	s15, s15, s13
  28:lib/pid/pid.cpp **** 
 294              		.loc 1 28 42 view .LVU69
 295 00c4 D4ED026A 		vldr.32	s13, [r4, #8]
  28:lib/pid/pid.cpp **** 
 296              		.loc 1 28 47 view .LVU70
 297 00c8 94ED066A 		vldr.32	s12, [r4, #24]
  28:lib/pid/pid.cpp **** 
 298              		.loc 1 28 45 view .LVU71
 299 00cc 66EE866A 		vmul.f32	s13, s13, s12
  28:lib/pid/pid.cpp **** 
 300              		.loc 1 28 40 view .LVU72
 301 00d0 77EEA67A 		vadd.f32	s15, s15, s13
  28:lib/pid/pid.cpp **** 
 302              		.loc 1 28 18 view .LVU73
 303 00d4 C4ED077A 		vstr.32	s15, [r4, #28]
  30:lib/pid/pid.cpp ****                   pid_ = limit_ * (abs(pid_) / pid_);
 304              		.loc 1 30 13 is_stmt 1 view .LVU74
  30:lib/pid/pid.cpp ****                   pid_ = limit_ * (abs(pid_) / pid_);
 305              		.loc 1 30 17 is_stmt 0 view .LVU75
 306 00d8 F5EEC07A 		vcmpe.f32	s15, #0
 307 00dc F1EE10FA 		vmrs	APSR_nzcv, FPSCR
 308 00e0 13DD     		ble	.L23
 309 00e2 F0EE676A 		vmov.f32	s13, s15
 310              	.L12:
  30:lib/pid/pid.cpp ****                   pid_ = limit_ * (abs(pid_) / pid_);
 311              		.loc 1 30 13 discriminator 4 view .LVU76
 312 00e6 B4EEE67A 		vcmpe.f32	s14, s13
 313 00ea F1EE10FA 		vmrs	APSR_nzcv, FPSCR
 314 00ee 05D5     		bpl	.L13
  31:lib/pid/pid.cpp ****             }
 315              		.loc 1 31 19 is_stmt 1 discriminator 4 view .LVU77
  31:lib/pid/pid.cpp ****             }
 316              		.loc 1 31 46 is_stmt 0 discriminator 4 view .LVU78
 317 00f0 86EEA76A 		vdiv.f32	s12, s13, s15
  31:lib/pid/pid.cpp ****             }
 318              		.loc 1 31 33 discriminator 4 view .LVU79
 319 00f4 27EE067A 		vmul.f32	s14, s14, s12
  31:lib/pid/pid.cpp ****             }
 320              		.loc 1 31 24 discriminator 4 view .LVU80
 321 00f8 84ED077A 		vstr.32	s14, [r4, #28]
 322              	.L13:
  34:lib/pid/pid.cpp ****       }
ARM GAS  /var/folders/5c/srt4fy4j1pd641bjfx75k5000000gn/T//ccIscy8m.s 			page 8


 323              		.loc 1 34 13 is_stmt 1 view .LVU81
  34:lib/pid/pid.cpp ****       }
 324              		.loc 1 34 33 is_stmt 0 view .LVU82
 325 00fc 2846     		mov	r0, r5
 326 00fe FFF7FEFF 		bl	_ZN5Timer5resetEv
 327              	.LVL14:
 328              		.loc 1 36 1 view .LVU83
 329 0102 91E7     		b	.L6
 330              	.L22:
  25:lib/pid/pid.cpp ****             pre_p_ = p_;
 331              		.loc 1 25 17 discriminator 2 view .LVU84
 332 0104 F1EE676A 		vneg.f32	s13, s15
 333 0108 BCE7     		b	.L9
 334              	.L23:
  30:lib/pid/pid.cpp ****                   pid_ = limit_ * (abs(pid_) / pid_);
 335              		.loc 1 30 17 discriminator 2 view .LVU85
 336 010a F1EE676A 		vneg.f32	s13, s15
 337 010e EAE7     		b	.L12
 338              		.cfi_endproc
 339              	.LFE248:
 340              		.fnend
 342              		.section	.text._ZN3PID3GetEv,"ax",%progbits
 343              		.align	1
 344              		.global	_ZN3PID3GetEv
 345              		.syntax unified
 346              		.thumb
 347              		.thumb_func
 349              	_ZN3PID3GetEv:
 350              		.fnstart
 351              	.LVL15:
 352              	.LFB249:
  37:lib/pid/pid.cpp **** 
  38:lib/pid/pid.cpp **** float PID::Get() {
 353              		.loc 1 38 18 is_stmt 1 view -0
 354              		.cfi_startproc
 355              		@ args = 0, pretend = 0, frame = 0
 356              		@ frame_needed = 0, uses_anonymous_args = 0
 357              		@ link register save eliminated.
  39:lib/pid/pid.cpp ****       return pid_;
 358              		.loc 1 39 7 view .LVU87
  40:lib/pid/pid.cpp **** }...
 359              		.loc 1 40 1 is_stmt 0 view .LVU88
 360 0000 90ED070A 		vldr.32	s0, [r0, #28]
 361 0004 7047     		bx	lr
 362              		.cfi_endproc
 363              	.LFE249:
 364              		.cantunwind
 365              		.fnend
 367              		.text
 368              	.Letext0:
 369              		.file 2 "/opt/ST/STM32CubeCLT_1.16.0/GNU-tools-for-STM32/arm-none-eabi/include/c++/12.3.1/cstdio"
 370              		.file 3 "/opt/ST/STM32CubeCLT_1.16.0/GNU-tools-for-STM32/arm-none-eabi/include/c++/12.3.1/arm-none
 371              		.file 4 "/opt/ST/STM32CubeCLT_1.16.0/GNU-tools-for-STM32/arm-none-eabi/include/machine/_default_ty
 372              		.file 5 "/opt/ST/STM32CubeCLT_1.16.0/GNU-tools-for-STM32/lib/gcc/arm-none-eabi/12.3.1/include/stdd
 373              		.file 6 "/opt/ST/STM32CubeCLT_1.16.0/GNU-tools-for-STM32/arm-none-eabi/include/sys/_types.h"
 374              		.file 7 "/opt/ST/STM32CubeCLT_1.16.0/GNU-tools-for-STM32/arm-none-eabi/include/sys/reent.h"
 375              		.file 8 "/opt/ST/STM32CubeCLT_1.16.0/GNU-tools-for-STM32/arm-none-eabi/include/sys/lock.h"
ARM GAS  /var/folders/5c/srt4fy4j1pd641bjfx75k5000000gn/T//ccIscy8m.s 			page 9


 376              		.file 9 "/opt/ST/STM32CubeCLT_1.16.0/GNU-tools-for-STM32/arm-none-eabi/include/stdio.h"
 377              		.file 10 "/opt/ST/STM32CubeCLT_1.16.0/GNU-tools-for-STM32/arm-none-eabi/include/sys/_stdint.h"
 378              		.file 11 "Lib/Timer/Timer.hpp"
 379              		.file 12 "lib/pid/pid.hpp"
ARM GAS  /var/folders/5c/srt4fy4j1pd641bjfx75k5000000gn/T//ccIscy8m.s 			page 10

