ARM GAS  /var/folders/5c/srt4fy4j1pd641bjfx75k5000000gn/T//cc815vsF.s 			page 1


   1              		.cpu cortex-m4
   2              		.arch armv7e-m
   3              		.fpu fpv4-sp-d16
   4              		.eabi_attribute 27, 1
   5              		.eabi_attribute 28, 1
   6              		.eabi_attribute 20, 1
   7              		.eabi_attribute 21, 1
   8              		.eabi_attribute 23, 3
   9              		.eabi_attribute 24, 1
  10              		.eabi_attribute 25, 1
  11              		.eabi_attribute 26, 1
  12              		.eabi_attribute 30, 1
  13              		.eabi_attribute 34, 1
  14              		.eabi_attribute 18, 4
  15              		.file	"robot.cpp"
  16              		.text
  17              	.Ltext0:
  18              		.cfi_sections	.debug_frame
  19              		.file 1 "src/unit/robot/robot.cpp"
  20              		.section	.text._ZN14BufferedSerial4readEv,"axG",%progbits,_ZN14BufferedSerial4readEv,comdat
  21              		.align	1
  22              		.weak	_ZN14BufferedSerial4readEv
  23              		.syntax unified
  24              		.thumb
  25              		.thumb_func
  27              	_ZN14BufferedSerial4readEv:
  28              		.fnstart
  29              	.LVL0:
  30              	.LFB245:
  31              		.file 2 "Lib/BufferedSerial/BufferedSerial.hpp"
   1:Lib/BufferedSerial/BufferedSerial.hpp **** #ifndef __BUFFERED_SERIAL__
   2:Lib/BufferedSerial/BufferedSerial.hpp **** #define __BUFFERED_SERIAL__
   3:Lib/BufferedSerial/BufferedSerial.hpp **** 
   4:Lib/BufferedSerial/BufferedSerial.hpp **** #include <stdio.h>
   5:Lib/BufferedSerial/BufferedSerial.hpp **** 
   6:Lib/BufferedSerial/BufferedSerial.hpp **** #include "usart.h"
   7:Lib/BufferedSerial/BufferedSerial.hpp **** 
   8:Lib/BufferedSerial/BufferedSerial.hpp **** #ifdef __cplusplus
   9:Lib/BufferedSerial/BufferedSerial.hpp **** 
  10:Lib/BufferedSerial/BufferedSerial.hpp **** /*
  11:Lib/BufferedSerial/BufferedSerial.hpp ****  Initã®é †ç•ªã‚’DMAãŒå…ˆã«ãªã‚‹ã‚ˆã†ã«ã™ã‚‹
  12:Lib/BufferedSerial/BufferedSerial.hpp ****  - MX_DMA_Init();
  13:Lib/BufferedSerial/BufferedSerial.hpp ****  - MX_USART2_UART_Init();
  14:Lib/BufferedSerial/BufferedSerial.hpp ****  - DMAã¯Circularãƒ¢ãƒ¼ãƒ‰ã«ã™ã‚‹
  15:Lib/BufferedSerial/BufferedSerial.hpp **** */
  16:Lib/BufferedSerial/BufferedSerial.hpp **** 
  17:Lib/BufferedSerial/BufferedSerial.hpp **** class BufferedSerial {
  18:Lib/BufferedSerial/BufferedSerial.hpp ****      public:
  19:Lib/BufferedSerial/BufferedSerial.hpp ****       BufferedSerial(UART_HandleTypeDef *huart, uint16_t rxBufSize)
  20:Lib/BufferedSerial/BufferedSerial.hpp ****           : _huart(huart),
  21:Lib/BufferedSerial/BufferedSerial.hpp ****             _rxBuf(new uint8_t[rxBufSize]),
  22:Lib/BufferedSerial/BufferedSerial.hpp ****             rxTop(0),
  23:Lib/BufferedSerial/BufferedSerial.hpp ****             rxBtm(0),
  24:Lib/BufferedSerial/BufferedSerial.hpp ****             _rxBufSize(rxBufSize),
  25:Lib/BufferedSerial/BufferedSerial.hpp ****             _useDMA(false) {
  26:Lib/BufferedSerial/BufferedSerial.hpp ****       }
  27:Lib/BufferedSerial/BufferedSerial.hpp ****       void init(bool dma = false) {
ARM GAS  /var/folders/5c/srt4fy4j1pd641bjfx75k5000000gn/T//cc815vsF.s 			page 2


  28:Lib/BufferedSerial/BufferedSerial.hpp ****             _useDMA = dma;
  29:Lib/BufferedSerial/BufferedSerial.hpp ****             HAL_UART_Receive_DMA(_huart, _rxBuf, _rxBufSize);
  30:Lib/BufferedSerial/BufferedSerial.hpp ****             // printf("- Serial init\n");
  31:Lib/BufferedSerial/BufferedSerial.hpp ****       }
  32:Lib/BufferedSerial/BufferedSerial.hpp **** 
  33:Lib/BufferedSerial/BufferedSerial.hpp ****       bool available() {
  34:Lib/BufferedSerial/BufferedSerial.hpp ****             uint16_t rxTop = _rxBufSize - _huart->hdmarx->Instance->NDTR;
  35:Lib/BufferedSerial/BufferedSerial.hpp ****             return rxTop != rxBtm;
  36:Lib/BufferedSerial/BufferedSerial.hpp ****       }
  37:Lib/BufferedSerial/BufferedSerial.hpp **** 
  38:Lib/BufferedSerial/BufferedSerial.hpp ****       uint8_t read() {
  32              		.loc 2 38 15 view -0
  33              		.cfi_startproc
  34              		@ args = 0, pretend = 0, frame = 0
  35              		@ frame_needed = 0, uses_anonymous_args = 0
  36              		@ link register save eliminated.
  37              		.loc 2 38 15 is_stmt 0 view .LVU1
  38 0000 0246     		mov	r2, r0
  39:Lib/BufferedSerial/BufferedSerial.hpp ****             uint16_t rxTop = _rxBufSize - _huart->hdmarx->Instance->NDTR;
  39              		.loc 2 39 13 is_stmt 1 view .LVU2
  40              		.loc 2 39 30 is_stmt 0 view .LVU3
  41 0002 B0F80CC0 		ldrh	ip, [r0, #12]
  42              		.loc 2 39 43 view .LVU4
  43 0006 0368     		ldr	r3, [r0]
  44              		.loc 2 39 51 view .LVU5
  45 0008 DB6B     		ldr	r3, [r3, #60]
  46              		.loc 2 39 59 view .LVU6
  47 000a 1B68     		ldr	r3, [r3]
  48              		.loc 2 39 69 view .LVU7
  49 000c 5B68     		ldr	r3, [r3, #4]
  50              		.loc 2 39 41 view .LVU8
  51 000e 9BB2     		uxth	r3, r3
  52              		.loc 2 39 69 view .LVU9
  53 0010 ACEB0303 		sub	r3, ip, r3
  54 0014 9BB2     		uxth	r3, r3
  55              	.LVL1:
  40:Lib/BufferedSerial/BufferedSerial.hpp ****             if (rxTop == rxBtm) {
  56              		.loc 2 40 13 is_stmt 1 view .LVU10
  57              		.loc 2 40 26 is_stmt 0 view .LVU11
  58 0016 4189     		ldrh	r1, [r0, #10]
  59              		.loc 2 40 13 view .LVU12
  60 0018 9942     		cmp	r1, r3
  61 001a 08D0     		beq	.L3
  41:Lib/BufferedSerial/BufferedSerial.hpp ****                   return 0;
  42:Lib/BufferedSerial/BufferedSerial.hpp ****             }
  43:Lib/BufferedSerial/BufferedSerial.hpp ****             uint8_t data = _rxBuf[rxBtm];
  62              		.loc 2 43 13 is_stmt 1 view .LVU13
  63              		.loc 2 43 28 is_stmt 0 view .LVU14
  64 001c 4368     		ldr	r3, [r0, #4]
  65              	.LVL2:
  66              		.loc 2 43 21 view .LVU15
  67 001e 585C     		ldrb	r0, [r3, r1]	@ zero_extendqisi2
  68              	.LVL3:
  44:Lib/BufferedSerial/BufferedSerial.hpp ****             rxBtm = (rxBtm + 1) % _rxBufSize;
  69              		.loc 2 44 13 is_stmt 1 view .LVU16
  70              		.loc 2 44 28 is_stmt 0 view .LVU17
  71 0020 0131     		adds	r1, r1, #1
ARM GAS  /var/folders/5c/srt4fy4j1pd641bjfx75k5000000gn/T//cc815vsF.s 			page 3


  72              		.loc 2 44 33 view .LVU18
  73 0022 91FBFCF3 		sdiv	r3, r1, ip
  74 0026 0CFB1311 		mls	r1, ip, r3, r1
  75              		.loc 2 44 19 view .LVU19
  76 002a 5181     		strh	r1, [r2, #10]	@ movhi
  45:Lib/BufferedSerial/BufferedSerial.hpp ****             // printf("top:%d btm:%d NDTR:%d data:%d\n", rxTop, rxBtm, _huart->hdmarx->Instance->ND
  46:Lib/BufferedSerial/BufferedSerial.hpp ****             return data;
  77              		.loc 2 46 13 is_stmt 1 view .LVU20
  78              		.loc 2 46 20 is_stmt 0 view .LVU21
  79 002c 7047     		bx	lr
  80              	.LVL4:
  81              	.L3:
  41:Lib/BufferedSerial/BufferedSerial.hpp ****             }
  82              		.loc 2 41 26 view .LVU22
  83 002e 0020     		movs	r0, #0
  84              	.LVL5:
  47:Lib/BufferedSerial/BufferedSerial.hpp ****       }
  85              		.loc 2 47 7 view .LVU23
  86 0030 7047     		bx	lr
  87              		.cfi_endproc
  88              	.LFE245:
  89              		.cantunwind
  90              		.fnend
  92              		.section	.text._ZN12PwmSingleOut4initEv,"axG",%progbits,_ZN12PwmSingleOut4initEv,comdat
  93              		.align	1
  94              		.weak	_ZN12PwmSingleOut4initEv
  95              		.syntax unified
  96              		.thumb
  97              		.thumb_func
  99              	_ZN12PwmSingleOut4initEv:
 100              		.fnstart
 101              	.LVL6:
 102              	.LFB265:
 103              		.file 3 "Lib/PWMSingle/PWMSingle.hpp"
   1:Lib/PWMSingle/PWMSingle.hpp **** #ifndef __PWMSINGLE__
   2:Lib/PWMSingle/PWMSingle.hpp **** #define __PWMSINGLE__
   3:Lib/PWMSingle/PWMSingle.hpp **** 
   4:Lib/PWMSingle/PWMSingle.hpp **** #include "MyMath.hpp"
   5:Lib/PWMSingle/PWMSingle.hpp **** #include "tim.h"
   6:Lib/PWMSingle/PWMSingle.hpp **** 
   7:Lib/PWMSingle/PWMSingle.hpp **** #ifdef __cplusplus
   8:Lib/PWMSingle/PWMSingle.hpp **** extern "C" {
   9:Lib/PWMSingle/PWMSingle.hpp **** 
  10:Lib/PWMSingle/PWMSingle.hpp **** class PwmSingleOut {
  11:Lib/PWMSingle/PWMSingle.hpp ****      public:
  12:Lib/PWMSingle/PWMSingle.hpp ****       PwmSingleOut(TIM_HandleTypeDef *htim, uint32_t channel)
  13:Lib/PWMSingle/PWMSingle.hpp ****           : _htim(htim), _channel(channel), _maxValue(_htim->Init.Period) {
  14:Lib/PWMSingle/PWMSingle.hpp ****       }
  15:Lib/PWMSingle/PWMSingle.hpp **** 
  16:Lib/PWMSingle/PWMSingle.hpp ****       void init() {
 104              		.loc 3 16 12 is_stmt 1 view -0
 105              		.cfi_startproc
 106              		@ args = 0, pretend = 0, frame = 0
 107              		@ frame_needed = 0, uses_anonymous_args = 0
 108              		.loc 3 16 12 is_stmt 0 view .LVU25
 109 0000 10B5     		push	{r4, lr}
 110              		.save {r4, lr}
ARM GAS  /var/folders/5c/srt4fy4j1pd641bjfx75k5000000gn/T//cc815vsF.s 			page 4


 111              	.LCFI0:
 112              		.cfi_def_cfa_offset 8
 113              		.cfi_offset 4, -8
 114              		.cfi_offset 14, -4
 115 0002 0446     		mov	r4, r0
  17:Lib/PWMSingle/PWMSingle.hpp ****             HAL_TIM_PWM_Start(_htim, _channel);
 116              		.loc 3 17 13 is_stmt 1 view .LVU26
 117              		.loc 3 17 30 is_stmt 0 view .LVU27
 118 0004 4168     		ldr	r1, [r0, #4]
 119 0006 0068     		ldr	r0, [r0]
 120              	.LVL7:
 121              		.loc 3 17 30 view .LVU28
 122 0008 FFF7FEFF 		bl	HAL_TIM_PWM_Start
 123              	.LVL8:
  18:Lib/PWMSingle/PWMSingle.hpp ****             _maxValue = _htim->Init.Period;
 124              		.loc 3 18 13 is_stmt 1 view .LVU29
 125              		.loc 3 18 25 is_stmt 0 view .LVU30
 126 000c 2368     		ldr	r3, [r4]
 127              		.loc 3 18 37 view .LVU31
 128 000e DB68     		ldr	r3, [r3, #12]
 129              		.loc 3 18 23 view .LVU32
 130 0010 A360     		str	r3, [r4, #8]
  19:Lib/PWMSingle/PWMSingle.hpp ****       }
 131              		.loc 3 19 7 view .LVU33
 132 0012 10BD     		pop	{r4, pc}
 133              		.loc 3 19 7 view .LVU34
 134              		.cfi_endproc
 135              	.LFE265:
 136              		.fnend
 138              		.section	.text._ZN5RobotC2Ev,"ax",%progbits
 139              		.align	1
 140              		.global	_ZN5RobotC2Ev
 141              		.syntax unified
 142              		.thumb
 143              		.thumb_func
 145              	_ZN5RobotC2Ev:
 146              		.fnstart
 147              	.LVL9:
 148              	.LFB271:
   1:src/unit/robot/robot.cpp **** #include "robot.hpp"
   2:src/unit/robot/robot.cpp **** 
   3:src/unit/robot/robot.cpp **** uint16_t adc_get_val[3];
   4:src/unit/robot/robot.cpp **** 
   5:src/unit/robot/robot.cpp **** Robot::Robot() {
 149              		.loc 1 5 1 is_stmt 1 view -0
 150              		.cfi_startproc
 151              		@ args = 0, pretend = 0, frame = 0
 152              		@ frame_needed = 0, uses_anonymous_args = 0
 153              		.loc 1 5 1 is_stmt 0 view .LVU36
 154 0000 F0B5     		push	{r4, r5, r6, r7, lr}
 155              		.save {r4, r5, r6, r7, lr}
 156              	.LCFI1:
 157              		.cfi_def_cfa_offset 20
 158              		.cfi_offset 4, -20
 159              		.cfi_offset 5, -16
 160              		.cfi_offset 6, -12
 161              		.cfi_offset 7, -8
ARM GAS  /var/folders/5c/srt4fy4j1pd641bjfx75k5000000gn/T//cc815vsF.s 			page 5


 162              		.cfi_offset 14, -4
 163              		.pad #36
 164 0002 89B0     		sub	sp, sp, #36
 165              	.LCFI2:
 166              		.cfi_def_cfa_offset 56
 167 0004 0446     		mov	r4, r0
 168              	.LVL10:
 169              	.LBB70:
 170              	.LBB71:
 171              	.LBI71:
 172              		.file 4 "Lib/DigitalInOut/DigitalInOut.hpp"
   1:Lib/DigitalInOut/DigitalInOut.hpp **** #ifndef __DigitalInOut__
   2:Lib/DigitalInOut/DigitalInOut.hpp **** #define __DigitalInOut__
   3:Lib/DigitalInOut/DigitalInOut.hpp **** 
   4:Lib/DigitalInOut/DigitalInOut.hpp **** #include "main.h"
   5:Lib/DigitalInOut/DigitalInOut.hpp **** 
   6:Lib/DigitalInOut/DigitalInOut.hpp **** #ifdef __cplusplus
   7:Lib/DigitalInOut/DigitalInOut.hpp **** 
   8:Lib/DigitalInOut/DigitalInOut.hpp **** extern "C" {
   9:Lib/DigitalInOut/DigitalInOut.hpp **** 
  10:Lib/DigitalInOut/DigitalInOut.hpp **** class DigitalOut {
  11:Lib/DigitalInOut/DigitalInOut.hpp ****   public:
  12:Lib/DigitalInOut/DigitalInOut.hpp ****     DigitalOut(GPIO_TypeDef *port, uint16_t pin) : port(port), pin(pin) {
 173              		.loc 4 12 5 is_stmt 1 view .LVU37
 174              	.LBB72:
 175              		.loc 4 12 52 is_stmt 0 view .LVU38
 176 0006 6248     		ldr	r0, .L8
 177              	.LVL11:
 178              		.loc 4 12 52 view .LVU39
 179 0008 6062     		str	r0, [r4, #36]
 180              		.loc 4 12 64 view .LVU40
 181 000a 2021     		movs	r1, #32
 182 000c 2185     		strh	r1, [r4, #40]	@ movhi
  13:Lib/DigitalInOut/DigitalInOut.hpp ****         HAL_GPIO_WritePin(port, pin, GPIO_PIN_RESET);
 183              		.loc 4 13 9 is_stmt 1 view .LVU41
 184              		.loc 4 13 26 is_stmt 0 view .LVU42
 185 000e 0022     		movs	r2, #0
 186 0010 FFF7FEFF 		bl	HAL_GPIO_WritePin
 187              	.LVL12:
 188              		.loc 4 13 26 view .LVU43
 189              	.LBE72:
 190              	.LBE71:
 191              	.LBB73:
 192              	.LBI73:
  12:Lib/PWMSingle/PWMSingle.hpp ****           : _htim(htim), _channel(channel), _maxValue(_htim->Init.Period) {
 193              		.loc 3 12 7 is_stmt 1 view .LVU44
 194              	.LBB74:
  13:Lib/PWMSingle/PWMSingle.hpp ****       }
 195              		.loc 3 13 13 is_stmt 0 view .LVU45
 196 0014 5F4B     		ldr	r3, .L8+4
 197 0016 E362     		str	r3, [r4, #44]
  13:Lib/PWMSingle/PWMSingle.hpp ****       }
 198              		.loc 3 13 26 view .LVU46
 199 0018 0025     		movs	r5, #0
 200 001a 2563     		str	r5, [r4, #48]
  13:Lib/PWMSingle/PWMSingle.hpp ****       }
 201              		.loc 3 13 67 view .LVU47
ARM GAS  /var/folders/5c/srt4fy4j1pd641bjfx75k5000000gn/T//cc815vsF.s 			page 6


 202 001c DB68     		ldr	r3, [r3, #12]
  13:Lib/PWMSingle/PWMSingle.hpp ****       }
 203              		.loc 3 13 45 view .LVU48
 204 001e 6363     		str	r3, [r4, #52]
 205              	.LVL13:
  13:Lib/PWMSingle/PWMSingle.hpp ****       }
 206              		.loc 3 13 45 view .LVU49
 207              	.LBE74:
 208              	.LBE73:
 209              	.LBB75:
 210              	.LBI75:
  12:Lib/PWMSingle/PWMSingle.hpp ****           : _htim(htim), _channel(channel), _maxValue(_htim->Init.Period) {
 211              		.loc 3 12 7 is_stmt 1 view .LVU50
 212              	.LBB76:
  13:Lib/PWMSingle/PWMSingle.hpp ****       }
 213              		.loc 3 13 13 is_stmt 0 view .LVU51
 214 0020 5D4B     		ldr	r3, .L8+8
 215 0022 E363     		str	r3, [r4, #60]
  13:Lib/PWMSingle/PWMSingle.hpp ****       }
 216              		.loc 3 13 26 view .LVU52
 217 0024 0420     		movs	r0, #4
 218 0026 2064     		str	r0, [r4, #64]
  13:Lib/PWMSingle/PWMSingle.hpp ****       }
 219              		.loc 3 13 67 view .LVU53
 220 0028 DA68     		ldr	r2, [r3, #12]
  13:Lib/PWMSingle/PWMSingle.hpp ****       }
 221              		.loc 3 13 45 view .LVU54
 222 002a 6264     		str	r2, [r4, #68]
 223              	.LVL14:
  13:Lib/PWMSingle/PWMSingle.hpp ****       }
 224              		.loc 3 13 45 view .LVU55
 225              	.LBE76:
 226              	.LBE75:
 227              	.LBB77:
 228              	.LBI77:
  12:Lib/PWMSingle/PWMSingle.hpp ****           : _htim(htim), _channel(channel), _maxValue(_htim->Init.Period) {
 229              		.loc 3 12 7 is_stmt 1 view .LVU56
 230              	.LBB78:
  13:Lib/PWMSingle/PWMSingle.hpp ****       }
 231              		.loc 3 13 13 is_stmt 0 view .LVU57
 232 002c E364     		str	r3, [r4, #76]
  13:Lib/PWMSingle/PWMSingle.hpp ****       }
 233              		.loc 3 13 26 view .LVU58
 234 002e 2565     		str	r5, [r4, #80]
  13:Lib/PWMSingle/PWMSingle.hpp ****       }
 235              		.loc 3 13 45 view .LVU59
 236 0030 6265     		str	r2, [r4, #84]
 237              	.LVL15:
  13:Lib/PWMSingle/PWMSingle.hpp ****       }
 238              		.loc 3 13 45 view .LVU60
 239              	.LBE78:
 240              	.LBE77:
 241              	.LBB79:
 242              	.LBI79:
  12:Lib/PWMSingle/PWMSingle.hpp ****           : _htim(htim), _channel(channel), _maxValue(_htim->Init.Period) {
 243              		.loc 3 12 7 is_stmt 1 view .LVU61
 244              	.LBB80:
ARM GAS  /var/folders/5c/srt4fy4j1pd641bjfx75k5000000gn/T//cc815vsF.s 			page 7


  13:Lib/PWMSingle/PWMSingle.hpp ****       }
 245              		.loc 3 13 13 is_stmt 0 view .LVU62
 246 0032 5A4B     		ldr	r3, .L8+12
 247 0034 E365     		str	r3, [r4, #92]
  13:Lib/PWMSingle/PWMSingle.hpp ****       }
 248              		.loc 3 13 26 view .LVU63
 249 0036 4FF0080C 		mov	ip, #8
 250 003a C4F860C0 		str	ip, [r4, #96]
  13:Lib/PWMSingle/PWMSingle.hpp ****       }
 251              		.loc 3 13 67 view .LVU64
 252 003e D968     		ldr	r1, [r3, #12]
  13:Lib/PWMSingle/PWMSingle.hpp ****       }
 253              		.loc 3 13 45 view .LVU65
 254 0040 6166     		str	r1, [r4, #100]
 255              	.LVL16:
  13:Lib/PWMSingle/PWMSingle.hpp ****       }
 256              		.loc 3 13 45 view .LVU66
 257              	.LBE80:
 258              	.LBE79:
 259              	.LBB81:
 260              	.LBI81:
  12:Lib/PWMSingle/PWMSingle.hpp ****           : _htim(htim), _channel(channel), _maxValue(_htim->Init.Period) {
 261              		.loc 3 12 7 is_stmt 1 view .LVU67
 262              	.LBB82:
  13:Lib/PWMSingle/PWMSingle.hpp ****       }
 263              		.loc 3 13 13 is_stmt 0 view .LVU68
 264 0042 E366     		str	r3, [r4, #108]
  13:Lib/PWMSingle/PWMSingle.hpp ****       }
 265              		.loc 3 13 26 view .LVU69
 266 0044 0C27     		movs	r7, #12
 267 0046 2767     		str	r7, [r4, #112]
  13:Lib/PWMSingle/PWMSingle.hpp ****       }
 268              		.loc 3 13 45 view .LVU70
 269 0048 6167     		str	r1, [r4, #116]
 270              	.LVL17:
  13:Lib/PWMSingle/PWMSingle.hpp ****       }
 271              		.loc 3 13 45 view .LVU71
 272              	.LBE82:
 273              	.LBE81:
 274              	.LBB83:
 275              	.LBI83:
  12:Lib/PWMSingle/PWMSingle.hpp ****           : _htim(htim), _channel(channel), _maxValue(_htim->Init.Period) {
 276              		.loc 3 12 7 is_stmt 1 view .LVU72
 277              	.LBB84:
  13:Lib/PWMSingle/PWMSingle.hpp ****       }
 278              		.loc 3 13 13 is_stmt 0 view .LVU73
 279 004a 554A     		ldr	r2, .L8+16
 280 004c E267     		str	r2, [r4, #124]
  13:Lib/PWMSingle/PWMSingle.hpp ****       }
 281              		.loc 3 13 26 view .LVU74
 282 004e C4F88000 		str	r0, [r4, #128]
  13:Lib/PWMSingle/PWMSingle.hpp ****       }
 283              		.loc 3 13 67 view .LVU75
 284 0052 D668     		ldr	r6, [r2, #12]
  13:Lib/PWMSingle/PWMSingle.hpp ****       }
 285              		.loc 3 13 45 view .LVU76
 286 0054 C4F88460 		str	r6, [r4, #132]
ARM GAS  /var/folders/5c/srt4fy4j1pd641bjfx75k5000000gn/T//cc815vsF.s 			page 8


 287              	.LVL18:
  13:Lib/PWMSingle/PWMSingle.hpp ****       }
 288              		.loc 3 13 45 view .LVU77
 289              	.LBE84:
 290              	.LBE83:
 291              	.LBB85:
 292              	.LBI85:
  12:Lib/PWMSingle/PWMSingle.hpp ****           : _htim(htim), _channel(channel), _maxValue(_htim->Init.Period) {
 293              		.loc 3 12 7 is_stmt 1 view .LVU78
 294              	.LBB86:
  13:Lib/PWMSingle/PWMSingle.hpp ****       }
 295              		.loc 3 13 13 is_stmt 0 view .LVU79
 296 0058 C4F88C30 		str	r3, [r4, #140]
  13:Lib/PWMSingle/PWMSingle.hpp ****       }
 297              		.loc 3 13 26 view .LVU80
 298 005c C4F89000 		str	r0, [r4, #144]
  13:Lib/PWMSingle/PWMSingle.hpp ****       }
 299              		.loc 3 13 45 view .LVU81
 300 0060 C4F89410 		str	r1, [r4, #148]
 301              	.LVL19:
  13:Lib/PWMSingle/PWMSingle.hpp ****       }
 302              		.loc 3 13 45 view .LVU82
 303              	.LBE86:
 304              	.LBE85:
 305              	.LBB87:
 306              	.LBI87:
  12:Lib/PWMSingle/PWMSingle.hpp ****           : _htim(htim), _channel(channel), _maxValue(_htim->Init.Period) {
 307              		.loc 3 12 7 is_stmt 1 view .LVU83
 308              	.LBB88:
  13:Lib/PWMSingle/PWMSingle.hpp ****       }
 309              		.loc 3 13 13 is_stmt 0 view .LVU84
 310 0064 C4F89C20 		str	r2, [r4, #156]
  13:Lib/PWMSingle/PWMSingle.hpp ****       }
 311              		.loc 3 13 26 view .LVU85
 312 0068 C4F8A050 		str	r5, [r4, #160]
  13:Lib/PWMSingle/PWMSingle.hpp ****       }
 313              		.loc 3 13 45 view .LVU86
 314 006c C4F8A460 		str	r6, [r4, #164]
 315              	.LVL20:
  13:Lib/PWMSingle/PWMSingle.hpp ****       }
 316              		.loc 3 13 45 view .LVU87
 317              	.LBE88:
 318              	.LBE87:
 319              	.LBB89:
 320              	.LBI89:
  12:Lib/PWMSingle/PWMSingle.hpp ****           : _htim(htim), _channel(channel), _maxValue(_htim->Init.Period) {
 321              		.loc 3 12 7 is_stmt 1 view .LVU88
 322              	.LBB90:
  13:Lib/PWMSingle/PWMSingle.hpp ****       }
 323              		.loc 3 13 13 is_stmt 0 view .LVU89
 324 0070 C4F8AC20 		str	r2, [r4, #172]
  13:Lib/PWMSingle/PWMSingle.hpp ****       }
 325              		.loc 3 13 26 view .LVU90
 326 0074 C4F8B0C0 		str	ip, [r4, #176]
  13:Lib/PWMSingle/PWMSingle.hpp ****       }
 327              		.loc 3 13 45 view .LVU91
 328 0078 C4F8B460 		str	r6, [r4, #180]
ARM GAS  /var/folders/5c/srt4fy4j1pd641bjfx75k5000000gn/T//cc815vsF.s 			page 9


 329              	.LVL21:
  13:Lib/PWMSingle/PWMSingle.hpp ****       }
 330              		.loc 3 13 45 view .LVU92
 331              	.LBE90:
 332              	.LBE89:
 333              	.LBB91:
 334              	.LBI91:
  12:Lib/PWMSingle/PWMSingle.hpp ****           : _htim(htim), _channel(channel), _maxValue(_htim->Init.Period) {
 335              		.loc 3 12 7 is_stmt 1 view .LVU93
 336              	.LBB92:
  13:Lib/PWMSingle/PWMSingle.hpp ****       }
 337              		.loc 3 13 13 is_stmt 0 view .LVU94
 338 007c 494A     		ldr	r2, .L8+20
 339 007e C4F8BC20 		str	r2, [r4, #188]
  13:Lib/PWMSingle/PWMSingle.hpp ****       }
 340              		.loc 3 13 26 view .LVU95
 341 0082 C4F8C050 		str	r5, [r4, #192]
  13:Lib/PWMSingle/PWMSingle.hpp ****       }
 342              		.loc 3 13 67 view .LVU96
 343 0086 D668     		ldr	r6, [r2, #12]
  13:Lib/PWMSingle/PWMSingle.hpp ****       }
 344              		.loc 3 13 45 view .LVU97
 345 0088 C4F8C460 		str	r6, [r4, #196]
 346              	.LVL22:
  13:Lib/PWMSingle/PWMSingle.hpp ****       }
 347              		.loc 3 13 45 view .LVU98
 348              	.LBE92:
 349              	.LBE91:
 350              	.LBB93:
 351              	.LBI93:
  12:Lib/PWMSingle/PWMSingle.hpp ****           : _htim(htim), _channel(channel), _maxValue(_htim->Init.Period) {
 352              		.loc 3 12 7 is_stmt 1 view .LVU99
 353              	.LBB94:
  13:Lib/PWMSingle/PWMSingle.hpp ****       }
 354              		.loc 3 13 13 is_stmt 0 view .LVU100
 355 008c C4F8CC20 		str	r2, [r4, #204]
  13:Lib/PWMSingle/PWMSingle.hpp ****       }
 356              		.loc 3 13 26 view .LVU101
 357 0090 C4F8D000 		str	r0, [r4, #208]
  13:Lib/PWMSingle/PWMSingle.hpp ****       }
 358              		.loc 3 13 45 view .LVU102
 359 0094 C4F8D460 		str	r6, [r4, #212]
 360              	.LVL23:
  13:Lib/PWMSingle/PWMSingle.hpp ****       }
 361              		.loc 3 13 45 view .LVU103
 362              	.LBE94:
 363              	.LBE93:
 364              	.LBB95:
 365              	.LBI95:
  12:Lib/PWMSingle/PWMSingle.hpp ****           : _htim(htim), _channel(channel), _maxValue(_htim->Init.Period) {
 366              		.loc 3 12 7 is_stmt 1 view .LVU104
 367              	.LBB96:
  13:Lib/PWMSingle/PWMSingle.hpp ****       }
 368              		.loc 3 13 13 is_stmt 0 view .LVU105
 369 0098 C4F8DC30 		str	r3, [r4, #220]
  13:Lib/PWMSingle/PWMSingle.hpp ****       }
 370              		.loc 3 13 26 view .LVU106
ARM GAS  /var/folders/5c/srt4fy4j1pd641bjfx75k5000000gn/T//cc815vsF.s 			page 10


 371 009c C4F8E050 		str	r5, [r4, #224]
  13:Lib/PWMSingle/PWMSingle.hpp ****       }
 372              		.loc 3 13 45 view .LVU107
 373 00a0 C4F8E410 		str	r1, [r4, #228]
 374              	.LVL24:
  13:Lib/PWMSingle/PWMSingle.hpp ****       }
 375              		.loc 3 13 45 view .LVU108
 376              	.LBE96:
 377              	.LBE95:
 378              	.LBB97:
 379              	.LBI97:
  12:Lib/PWMSingle/PWMSingle.hpp ****           : _htim(htim), _channel(channel), _maxValue(_htim->Init.Period) {
 380              		.loc 3 12 7 is_stmt 1 view .LVU109
 381              	.LBB98:
  13:Lib/PWMSingle/PWMSingle.hpp ****       }
 382              		.loc 3 13 13 is_stmt 0 view .LVU110
 383 00a4 C4F8EC20 		str	r2, [r4, #236]
  13:Lib/PWMSingle/PWMSingle.hpp ****       }
 384              		.loc 3 13 26 view .LVU111
 385 00a8 C4F8F070 		str	r7, [r4, #240]
  13:Lib/PWMSingle/PWMSingle.hpp ****       }
 386              		.loc 3 13 45 view .LVU112
 387 00ac C4F8F460 		str	r6, [r4, #244]
 388              	.LVL25:
  13:Lib/PWMSingle/PWMSingle.hpp ****       }
 389              		.loc 3 13 45 view .LVU113
 390              	.LBE98:
 391              	.LBE97:
 392              	.LBB99:
 393              	.LBI99:
  12:Lib/DigitalInOut/DigitalInOut.hpp ****         HAL_GPIO_WritePin(port, pin, GPIO_PIN_RESET);
 394              		.loc 4 12 5 is_stmt 1 view .LVU114
 395              	.LBB100:
  12:Lib/DigitalInOut/DigitalInOut.hpp ****         HAL_GPIO_WritePin(port, pin, GPIO_PIN_RESET);
 396              		.loc 4 12 52 is_stmt 0 view .LVU115
 397 00b0 3D4E     		ldr	r6, .L8+24
 398 00b2 C4F8FC60 		str	r6, [r4, #252]
  12:Lib/DigitalInOut/DigitalInOut.hpp ****         HAL_GPIO_WritePin(port, pin, GPIO_PIN_RESET);
 399              		.loc 4 12 64 view .LVU116
 400 00b6 0121     		movs	r1, #1
 401 00b8 A4F80011 		strh	r1, [r4, #256]	@ movhi
 402              		.loc 4 13 9 is_stmt 1 view .LVU117
 403              		.loc 4 13 26 is_stmt 0 view .LVU118
 404 00bc 2A46     		mov	r2, r5
 405 00be 3046     		mov	r0, r6
 406 00c0 FFF7FEFF 		bl	HAL_GPIO_WritePin
 407              	.LVL26:
 408              		.loc 4 13 26 view .LVU119
 409              	.LBE100:
 410              	.LBE99:
 411              	.LBB101:
 412              	.LBI101:
  12:Lib/DigitalInOut/DigitalInOut.hpp ****         HAL_GPIO_WritePin(port, pin, GPIO_PIN_RESET);
 413              		.loc 4 12 5 is_stmt 1 view .LVU120
 414              	.LBB102:
  12:Lib/DigitalInOut/DigitalInOut.hpp ****         HAL_GPIO_WritePin(port, pin, GPIO_PIN_RESET);
 415              		.loc 4 12 52 is_stmt 0 view .LVU121
ARM GAS  /var/folders/5c/srt4fy4j1pd641bjfx75k5000000gn/T//cc815vsF.s 			page 11


 416 00c4 C4F80461 		str	r6, [r4, #260]
  12:Lib/DigitalInOut/DigitalInOut.hpp ****         HAL_GPIO_WritePin(port, pin, GPIO_PIN_RESET);
 417              		.loc 4 12 64 view .LVU122
 418 00c8 0221     		movs	r1, #2
 419 00ca A4F80811 		strh	r1, [r4, #264]	@ movhi
 420              		.loc 4 13 9 is_stmt 1 view .LVU123
 421              		.loc 4 13 26 is_stmt 0 view .LVU124
 422 00ce 2A46     		mov	r2, r5
 423 00d0 3046     		mov	r0, r6
 424 00d2 FFF7FEFF 		bl	HAL_GPIO_WritePin
 425              	.LVL27:
 426              		.loc 4 13 26 view .LVU125
 427              	.LBE102:
 428              	.LBE101:
 429              		.loc 1 5 14 view .LVU126
 430 00d6 231D     		adds	r3, r4, #4
 431 00d8 0693     		str	r3, [sp, #24]
 432 00da 04F11E03 		add	r3, r4, #30
 433 00de 0593     		str	r3, [sp, #20]
 434 00e0 04F1AC03 		add	r3, r4, #172
 435 00e4 0493     		str	r3, [sp, #16]
 436 00e6 04F19C03 		add	r3, r4, #156
 437 00ea 0393     		str	r3, [sp, #12]
 438 00ec 04F18C03 		add	r3, r4, #140
 439 00f0 0293     		str	r3, [sp, #8]
 440 00f2 04F17C03 		add	r3, r4, #124
 441 00f6 0193     		str	r3, [sp, #4]
 442 00f8 04F16C03 		add	r3, r4, #108
 443 00fc 0093     		str	r3, [sp]
 444 00fe 04F15C03 		add	r3, r4, #92
 445 0102 04F14C02 		add	r2, r4, #76
 446 0106 04F13C01 		add	r1, r4, #60
 447 010a 04F58870 		add	r0, r4, #272
 448 010e FFF7FEFF 		bl	_ZN10MotorDriveC1EP12PwmSingleOutS1_S1_S1_S1_S1_S1_S1_PsPh
 449              	.LVL28:
 450 0112 04F1CC02 		add	r2, r4, #204
 451 0116 04F1BC01 		add	r1, r4, #188
 452 011a 04F69800 		addw	r0, r4, #2200
 453 011e FFF7FEFF 		bl	_ZN13DribblerDriveC1EP12PwmSingleOutS1_
 454              	.LVL29:
 455 0122 04F1EC02 		add	r2, r4, #236
 456 0126 04F1DC01 		add	r1, r4, #220
 457 012a 04F52460 		add	r0, r4, #2624
 458 012e FFF7FEFF 		bl	_ZN13DribblerDriveC1EP12PwmSingleOutS1_
 459              	.LVL30:
 460 0132 04F58272 		add	r2, r4, #260
 461 0136 04F1FC01 		add	r1, r4, #252
 462 013a 04F6E830 		addw	r0, r4, #3048
 463 013e FFF7FEFF 		bl	_ZN6KickerC1EP10DigitalOutS1_
 464              	.LVL31:
 465              	.LBB103:
 466              	.LBI103:
  19:Lib/BufferedSerial/BufferedSerial.hpp ****           : _huart(huart),
 467              		.loc 2 19 7 is_stmt 1 view .LVU127
 468              	.LBB104:
  20:Lib/BufferedSerial/BufferedSerial.hpp ****             _rxBuf(new uint8_t[rxBufSize]),
 469              		.loc 2 20 13 is_stmt 0 view .LVU128
ARM GAS  /var/folders/5c/srt4fy4j1pd641bjfx75k5000000gn/T//cc815vsF.s 			page 12


 470 0142 1A4B     		ldr	r3, .L8+28
 471 0144 C4F8FC3B 		str	r3, [r4, #3068]
  21:Lib/BufferedSerial/BufferedSerial.hpp ****             rxTop(0),
 472              		.loc 2 21 41 view .LVU129
 473 0148 8020     		movs	r0, #128
 474 014a FFF7FEFF 		bl	_Znaj
 475              	.LVL32:
  21:Lib/BufferedSerial/BufferedSerial.hpp ****             rxTop(0),
 476              		.loc 2 21 13 view .LVU130
 477 014e C4F8000C 		str	r0, [r4, #3072]
  22:Lib/BufferedSerial/BufferedSerial.hpp ****             rxBtm(0),
 478              		.loc 2 22 13 view .LVU131
 479 0152 A4F8045C 		strh	r5, [r4, #3076]	@ movhi
  23:Lib/BufferedSerial/BufferedSerial.hpp ****             _rxBufSize(rxBufSize),
 480              		.loc 2 23 13 view .LVU132
 481 0156 A4F8065C 		strh	r5, [r4, #3078]	@ movhi
  24:Lib/BufferedSerial/BufferedSerial.hpp ****             _useDMA(false) {
 482              		.loc 2 24 13 view .LVU133
 483 015a 8023     		movs	r3, #128
 484 015c A4F8083C 		strh	r3, [r4, #3080]	@ movhi
  25:Lib/BufferedSerial/BufferedSerial.hpp ****       }
 485              		.loc 2 25 13 view .LVU134
 486 0160 84F80A5C 		strb	r5, [r4, #3082]
 487              	.LVL33:
  25:Lib/BufferedSerial/BufferedSerial.hpp ****       }
 488              		.loc 2 25 13 view .LVU135
 489              	.LBE104:
 490              	.LBE103:
 491              	.LBB105:
 492              	.LBI105:
  19:Lib/BufferedSerial/BufferedSerial.hpp ****           : _huart(huart),
 493              		.loc 2 19 7 is_stmt 1 view .LVU136
 494              	.LBB106:
  20:Lib/BufferedSerial/BufferedSerial.hpp ****             _rxBuf(new uint8_t[rxBufSize]),
 495              		.loc 2 20 13 is_stmt 0 view .LVU137
 496 0164 124B     		ldr	r3, .L8+32
 497 0166 C4F80C3C 		str	r3, [r4, #3084]
  21:Lib/BufferedSerial/BufferedSerial.hpp ****             rxTop(0),
 498              		.loc 2 21 41 view .LVU138
 499 016a 4FF48070 		mov	r0, #256
 500 016e FFF7FEFF 		bl	_Znaj
 501              	.LVL34:
  21:Lib/BufferedSerial/BufferedSerial.hpp ****             rxTop(0),
 502              		.loc 2 21 13 view .LVU139
 503 0172 C4F8100C 		str	r0, [r4, #3088]
  22:Lib/BufferedSerial/BufferedSerial.hpp ****             rxBtm(0),
 504              		.loc 2 22 13 view .LVU140
 505 0176 A4F8145C 		strh	r5, [r4, #3092]	@ movhi
  23:Lib/BufferedSerial/BufferedSerial.hpp ****             _rxBufSize(rxBufSize),
 506              		.loc 2 23 13 view .LVU141
 507 017a A4F8165C 		strh	r5, [r4, #3094]	@ movhi
  24:Lib/BufferedSerial/BufferedSerial.hpp ****             _useDMA(false) {
 508              		.loc 2 24 13 view .LVU142
 509 017e 4FF48073 		mov	r3, #256
 510 0182 A4F8183C 		strh	r3, [r4, #3096]	@ movhi
  25:Lib/BufferedSerial/BufferedSerial.hpp ****       }
 511              		.loc 2 25 13 view .LVU143
ARM GAS  /var/folders/5c/srt4fy4j1pd641bjfx75k5000000gn/T//cc815vsF.s 			page 13


 512 0186 84F81A5C 		strb	r5, [r4, #3098]
 513              	.LVL35:
  25:Lib/BufferedSerial/BufferedSerial.hpp ****       }
 514              		.loc 2 25 13 view .LVU144
 515              	.LBE106:
 516              	.LBE105:
 517              	.LBE70:
   6:src/unit/robot/robot.cpp **** }
 518              		.loc 1 6 1 view .LVU145
 519 018a 2046     		mov	r0, r4
 520 018c 09B0     		add	sp, sp, #36
 521              	.LCFI3:
 522              		.cfi_def_cfa_offset 20
 523              		@ sp needed
 524 018e F0BD     		pop	{r4, r5, r6, r7, pc}
 525              	.LVL36:
 526              	.L9:
 527              		.loc 1 6 1 view .LVU146
 528              		.align	2
 529              	.L8:
 530 0190 00000240 		.word	1073872896
 531 0194 00000000 		.word	htim13
 532 0198 00000000 		.word	htim12
 533 019c 00000000 		.word	htim2
 534 01a0 00000000 		.word	htim3
 535 01a4 00000000 		.word	htim4
 536 01a8 00080240 		.word	1073874944
 537 01ac 00000000 		.word	huart1
 538 01b0 00000000 		.word	huart2
 539              		.cfi_endproc
 540              	.LFE271:
 541              		.fnend
 543              		.global	_ZN5RobotC1Ev
 544              		.thumb_set _ZN5RobotC1Ev,_ZN5RobotC2Ev
 545              		.section	.text._ZN5Robot12HardwareInitEv,"ax",%progbits
 546              		.align	1
 547              		.global	_ZN5Robot12HardwareInitEv
 548              		.syntax unified
 549              		.thumb
 550              		.thumb_func
 552              	_ZN5Robot12HardwareInitEv:
 553              		.fnstart
 554              	.LVL37:
 555              	.LFB273:
   7:src/unit/robot/robot.cpp **** 
   8:src/unit/robot/robot.cpp **** void Robot::HardwareInit() {
 556              		.loc 1 8 28 is_stmt 1 view -0
 557              		.cfi_startproc
 558              		@ args = 0, pretend = 0, frame = 0
 559              		@ frame_needed = 0, uses_anonymous_args = 0
 560              		.loc 1 8 28 is_stmt 0 view .LVU148
 561 0000 38B5     		push	{r3, r4, r5, lr}
 562              		.save {r3, r4, r5, lr}
 563              	.LCFI4:
 564              		.cfi_def_cfa_offset 16
 565              		.cfi_offset 3, -16
 566              		.cfi_offset 4, -12
ARM GAS  /var/folders/5c/srt4fy4j1pd641bjfx75k5000000gn/T//cc815vsF.s 			page 14


 567              		.cfi_offset 5, -8
 568              		.cfi_offset 14, -4
 569 0002 0446     		mov	r4, r0
   9:src/unit/robot/robot.cpp ****       HAL_ADC_Start(&hadc1);
 570              		.loc 1 9 7 is_stmt 1 view .LVU149
 571              		.loc 1 9 20 is_stmt 0 view .LVU150
 572 0004 2E4D     		ldr	r5, .L14
 573 0006 2846     		mov	r0, r5
 574              	.LVL38:
 575              		.loc 1 9 20 view .LVU151
 576 0008 FFF7FEFF 		bl	HAL_ADC_Start
 577              	.LVL39:
  10:src/unit/robot/robot.cpp ****       HAL_ADC_Start_DMA(&hadc1, (uint32_t *)&adc_get_val, 3);
 578              		.loc 1 10 7 is_stmt 1 view .LVU152
 579              		.loc 1 10 24 is_stmt 0 view .LVU153
 580 000c 0322     		movs	r2, #3
 581 000e 2D49     		ldr	r1, .L14+4
 582 0010 2846     		mov	r0, r5
 583 0012 FFF7FEFF 		bl	HAL_ADC_Start_DMA
 584              	.LVL40:
  11:src/unit/robot/robot.cpp ****       for (uint8_t i = 0; i < 3; i++) {
 585              		.loc 1 11 7 is_stmt 1 view .LVU154
 586              	.LBB107:
 587              		.loc 1 11 20 is_stmt 0 view .LVU155
 588 0016 0022     		movs	r2, #0
 589              		.loc 1 11 7 view .LVU156
 590 0018 06E0     		b	.L11
 591              	.LVL41:
 592              	.L12:
  12:src/unit/robot/robot.cpp ****             while (!(adc_get_val[i] > 0));
 593              		.loc 1 12 20 is_stmt 1 discriminator 1 view .LVU157
 594              		.loc 1 12 35 is_stmt 0 discriminator 1 view .LVU158
 595 001a 2A4B     		ldr	r3, .L14+4
 596 001c 33F81230 		ldrh	r3, [r3, r2, lsl #1]
 597              		.loc 1 12 20 discriminator 1 view .LVU159
 598 0020 002B     		cmp	r3, #0
 599 0022 FAD0     		beq	.L12
  11:src/unit/robot/robot.cpp ****       for (uint8_t i = 0; i < 3; i++) {
 600              		.loc 1 11 7 is_stmt 1 discriminator 2 view .LVU160
 601 0024 0132     		adds	r2, r2, #1
 602              	.LVL42:
  11:src/unit/robot/robot.cpp ****       for (uint8_t i = 0; i < 3; i++) {
 603              		.loc 1 11 7 is_stmt 0 discriminator 2 view .LVU161
 604 0026 D2B2     		uxtb	r2, r2
 605              	.LVL43:
 606              	.L11:
  11:src/unit/robot/robot.cpp ****       for (uint8_t i = 0; i < 3; i++) {
 607              		.loc 1 11 29 is_stmt 1 discriminator 1 view .LVU162
 608 0028 022A     		cmp	r2, #2
 609 002a F6D9     		bls	.L12
 610              	.LBE107:
  13:src/unit/robot/robot.cpp ****       }
  14:src/unit/robot/robot.cpp **** 
  15:src/unit/robot/robot.cpp ****       // è«¸ã€…ã®åˆæœŸåŒ–
  16:src/unit/robot/robot.cpp ****       serial1.init();
 611              		.loc 1 16 7 view .LVU163
 612              	.LVL44:
ARM GAS  /var/folders/5c/srt4fy4j1pd641bjfx75k5000000gn/T//cc815vsF.s 			page 15


 613              	.LBB108:
 614              	.LBI108:
  27:Lib/BufferedSerial/BufferedSerial.hpp ****             _useDMA = dma;
 615              		.loc 2 27 12 view .LVU164
 616              	.LBB109:
  28:Lib/BufferedSerial/BufferedSerial.hpp ****             HAL_UART_Receive_DMA(_huart, _rxBuf, _rxBufSize);
 617              		.loc 2 28 13 view .LVU165
  28:Lib/BufferedSerial/BufferedSerial.hpp ****             HAL_UART_Receive_DMA(_huart, _rxBuf, _rxBufSize);
 618              		.loc 2 28 21 is_stmt 0 view .LVU166
 619 002c 0025     		movs	r5, #0
 620 002e 84F80A5C 		strb	r5, [r4, #3082]
  29:Lib/BufferedSerial/BufferedSerial.hpp ****             // printf("- Serial init\n");
 621              		.loc 2 29 13 is_stmt 1 view .LVU167
  29:Lib/BufferedSerial/BufferedSerial.hpp ****             // printf("- Serial init\n");
 622              		.loc 2 29 33 is_stmt 0 view .LVU168
 623 0032 B4F8082C 		ldrh	r2, [r4, #3080]
 624              	.LVL45:
  29:Lib/BufferedSerial/BufferedSerial.hpp ****             // printf("- Serial init\n");
 625              		.loc 2 29 33 view .LVU169
 626 0036 D4F8001C 		ldr	r1, [r4, #3072]
 627 003a D4F8FC0B 		ldr	r0, [r4, #3068]
 628 003e FFF7FEFF 		bl	HAL_UART_Receive_DMA
 629              	.LVL46:
  29:Lib/BufferedSerial/BufferedSerial.hpp ****             // printf("- Serial init\n");
 630              		.loc 2 29 33 view .LVU170
 631              	.LBE109:
 632              	.LBE108:
  17:src/unit/robot/robot.cpp ****       serial2.init();
 633              		.loc 1 17 7 is_stmt 1 view .LVU171
 634              	.LBB110:
 635              	.LBI110:
  27:Lib/BufferedSerial/BufferedSerial.hpp ****             _useDMA = dma;
 636              		.loc 2 27 12 view .LVU172
 637              	.LBB111:
  28:Lib/BufferedSerial/BufferedSerial.hpp ****             HAL_UART_Receive_DMA(_huart, _rxBuf, _rxBufSize);
 638              		.loc 2 28 13 view .LVU173
  28:Lib/BufferedSerial/BufferedSerial.hpp ****             HAL_UART_Receive_DMA(_huart, _rxBuf, _rxBufSize);
 639              		.loc 2 28 21 is_stmt 0 view .LVU174
 640 0042 84F81A5C 		strb	r5, [r4, #3098]
  29:Lib/BufferedSerial/BufferedSerial.hpp ****             // printf("- Serial init\n");
 641              		.loc 2 29 13 is_stmt 1 view .LVU175
  29:Lib/BufferedSerial/BufferedSerial.hpp ****             // printf("- Serial init\n");
 642              		.loc 2 29 33 is_stmt 0 view .LVU176
 643 0046 B4F8182C 		ldrh	r2, [r4, #3096]
 644 004a D4F8101C 		ldr	r1, [r4, #3088]
 645 004e D4F80C0C 		ldr	r0, [r4, #3084]
 646 0052 FFF7FEFF 		bl	HAL_UART_Receive_DMA
 647              	.LVL47:
  29:Lib/BufferedSerial/BufferedSerial.hpp ****             // printf("- Serial init\n");
 648              		.loc 2 29 33 view .LVU177
 649              	.LBE111:
 650              	.LBE110:
  18:src/unit/robot/robot.cpp ****       ledh.init();
 651              		.loc 1 18 7 is_stmt 1 view .LVU178
 652              		.loc 1 18 16 is_stmt 0 view .LVU179
 653 0056 04F12C00 		add	r0, r4, #44
 654 005a FFF7FEFF 		bl	_ZN12PwmSingleOut4initEv
ARM GAS  /var/folders/5c/srt4fy4j1pd641bjfx75k5000000gn/T//cc815vsF.s 			page 16


 655              	.LVL48:
  19:src/unit/robot/robot.cpp ****       motor1a.init();
 656              		.loc 1 19 7 is_stmt 1 view .LVU180
 657              		.loc 1 19 19 is_stmt 0 view .LVU181
 658 005e 04F13C00 		add	r0, r4, #60
 659 0062 FFF7FEFF 		bl	_ZN12PwmSingleOut4initEv
 660              	.LVL49:
  20:src/unit/robot/robot.cpp ****       motor1b.init();
 661              		.loc 1 20 7 is_stmt 1 view .LVU182
 662              		.loc 1 20 19 is_stmt 0 view .LVU183
 663 0066 04F14C00 		add	r0, r4, #76
 664 006a FFF7FEFF 		bl	_ZN12PwmSingleOut4initEv
 665              	.LVL50:
  21:src/unit/robot/robot.cpp ****       motor2a.init();
 666              		.loc 1 21 7 is_stmt 1 view .LVU184
 667              		.loc 1 21 19 is_stmt 0 view .LVU185
 668 006e 04F15C00 		add	r0, r4, #92
 669 0072 FFF7FEFF 		bl	_ZN12PwmSingleOut4initEv
 670              	.LVL51:
  22:src/unit/robot/robot.cpp ****       motor2b.init();
 671              		.loc 1 22 7 is_stmt 1 view .LVU186
 672              		.loc 1 22 19 is_stmt 0 view .LVU187
 673 0076 04F16C00 		add	r0, r4, #108
 674 007a FFF7FEFF 		bl	_ZN12PwmSingleOut4initEv
 675              	.LVL52:
  23:src/unit/robot/robot.cpp ****       motor3a.init();
 676              		.loc 1 23 7 is_stmt 1 view .LVU188
 677              		.loc 1 23 19 is_stmt 0 view .LVU189
 678 007e 04F17C00 		add	r0, r4, #124
 679 0082 FFF7FEFF 		bl	_ZN12PwmSingleOut4initEv
 680              	.LVL53:
  24:src/unit/robot/robot.cpp ****       motor3b.init();
 681              		.loc 1 24 7 is_stmt 1 view .LVU190
 682              		.loc 1 24 19 is_stmt 0 view .LVU191
 683 0086 04F18C00 		add	r0, r4, #140
 684 008a FFF7FEFF 		bl	_ZN12PwmSingleOut4initEv
 685              	.LVL54:
  25:src/unit/robot/robot.cpp ****       motor4a.init();
 686              		.loc 1 25 7 is_stmt 1 view .LVU192
 687              		.loc 1 25 19 is_stmt 0 view .LVU193
 688 008e 04F19C00 		add	r0, r4, #156
 689 0092 FFF7FEFF 		bl	_ZN12PwmSingleOut4initEv
 690              	.LVL55:
  26:src/unit/robot/robot.cpp ****       motor4b.init();
 691              		.loc 1 26 7 is_stmt 1 view .LVU194
 692              		.loc 1 26 19 is_stmt 0 view .LVU195
 693 0096 04F1AC00 		add	r0, r4, #172
 694 009a FFF7FEFF 		bl	_ZN12PwmSingleOut4initEv
 695              	.LVL56:
  27:src/unit/robot/robot.cpp ****       dribbler_front_a.init();
 696              		.loc 1 27 7 is_stmt 1 view .LVU196
 697              		.loc 1 27 28 is_stmt 0 view .LVU197
 698 009e 04F1BC00 		add	r0, r4, #188
 699 00a2 FFF7FEFF 		bl	_ZN12PwmSingleOut4initEv
 700              	.LVL57:
  28:src/unit/robot/robot.cpp ****       dribbler_front_b.init();
 701              		.loc 1 28 7 is_stmt 1 view .LVU198
ARM GAS  /var/folders/5c/srt4fy4j1pd641bjfx75k5000000gn/T//cc815vsF.s 			page 17


 702              		.loc 1 28 28 is_stmt 0 view .LVU199
 703 00a6 04F1CC00 		add	r0, r4, #204
 704 00aa FFF7FEFF 		bl	_ZN12PwmSingleOut4initEv
 705              	.LVL58:
  29:src/unit/robot/robot.cpp ****       dribbler_back_a.init();
 706              		.loc 1 29 7 is_stmt 1 view .LVU200
 707              		.loc 1 29 27 is_stmt 0 view .LVU201
 708 00ae 04F1DC00 		add	r0, r4, #220
 709 00b2 FFF7FEFF 		bl	_ZN12PwmSingleOut4initEv
 710              	.LVL59:
  30:src/unit/robot/robot.cpp ****       dribbler_back_b.init();
 711              		.loc 1 30 7 is_stmt 1 view .LVU202
 712              		.loc 1 30 27 is_stmt 0 view .LVU203
 713 00b6 04F1EC00 		add	r0, r4, #236
 714 00ba FFF7FEFF 		bl	_ZN12PwmSingleOut4initEv
 715              	.LVL60:
  31:src/unit/robot/robot.cpp **** 
  32:src/unit/robot/robot.cpp ****       // æŽ¥ç¶šç¢ºèª
  33:src/unit/robot/robot.cpp ****       // motor.CheckConnection();
  34:src/unit/robot/robot.cpp ****       // HAL_Delay(200);
  35:src/unit/robot/robot.cpp ****       // dribbler_front.CheckConnection();
  36:src/unit/robot/robot.cpp ****       // dribbler_back.CheckConnection();
  37:src/unit/robot/robot.cpp **** }
 716              		.loc 1 37 1 view .LVU204
 717 00be 38BD     		pop	{r3, r4, r5, pc}
 718              	.LVL61:
 719              	.L15:
 720              		.loc 1 37 1 view .LVU205
 721              		.align	2
 722              	.L14:
 723 00c0 00000000 		.word	hadc1
 724 00c4 00000000 		.word	adc_get_val
 725              		.cfi_endproc
 726              	.LFE273:
 727              		.fnend
 729              		.section	.text._ZN5Robot10GetSensorsEv,"ax",%progbits
 730              		.align	1
 731              		.global	_ZN5Robot10GetSensorsEv
 732              		.syntax unified
 733              		.thumb
 734              		.thumb_func
 736              	_ZN5Robot10GetSensorsEv:
 737              		.fnstart
 738              	.LVL62:
 739              	.LFB274:
  38:src/unit/robot/robot.cpp **** 
  39:src/unit/robot/robot.cpp **** void Robot::GetSensors() {
 740              		.loc 1 39 26 is_stmt 1 view -0
 741              		.cfi_startproc
 742              		@ args = 0, pretend = 0, frame = 0
 743              		@ frame_needed = 0, uses_anonymous_args = 0
 744              		@ link register save eliminated.
  40:src/unit/robot/robot.cpp ****       const float voltage_conversion = 0.01298828125;
 745              		.loc 1 40 7 view .LVU207
  41:src/unit/robot/robot.cpp ****       info.voltage = adc_get_val[0] * voltage_conversion;
 746              		.loc 1 41 7 view .LVU208
 747              		.loc 1 41 35 is_stmt 0 view .LVU209
ARM GAS  /var/folders/5c/srt4fy4j1pd641bjfx75k5000000gn/T//cc815vsF.s 			page 18


 748 0000 064B     		ldr	r3, .L17
 749 0002 1B88     		ldrh	r3, [r3]
 750 0004 07EE903A 		vmov	s15, r3	@ int
 751              		.loc 1 41 37 view .LVU210
 752 0008 F8EEE77A 		vcvt.f32.s32	s15, s15
 753 000c 9FED047A 		vldr.32	s14, .L17+4
 754 0010 67EE877A 		vmul.f32	s15, s15, s14
 755              		.loc 1 41 20 view .LVU211
 756 0014 C0ED007A 		vstr.32	s15, [r0]
  42:src/unit/robot/robot.cpp **** }
 757              		.loc 1 42 1 view .LVU212
 758 0018 7047     		bx	lr
 759              	.L18:
 760 001a 00BF     		.align	2
 761              	.L17:
 762 001c 00000000 		.word	adc_get_val
 763 0020 CDCC543C 		.word	1012190413
 764              		.cfi_endproc
 765              	.LFE274:
 766              		.cantunwind
 767              		.fnend
 769              		.global	__aeabi_i2d
 770              		.global	__aeabi_dmul
 771              		.global	__aeabi_dsub
 772              		.global	__aeabi_d2iz
 773              		.section	.text._ZN5Robot11RecvImuUartEv,"ax",%progbits
 774              		.align	1
 775              		.global	_ZN5Robot11RecvImuUartEv
 776              		.syntax unified
 777              		.thumb
 778              		.thumb_func
 780              	_ZN5Robot11RecvImuUartEv:
 781              		.fnstart
 782              	.LVL63:
 783              	.LFB275:
  43:src/unit/robot/robot.cpp **** 
  44:src/unit/robot/robot.cpp **** void Robot::RecvImuUart() {
 784              		.loc 1 44 27 is_stmt 1 view -0
 785              		.cfi_startproc
 786              		@ args = 0, pretend = 0, frame = 0
 787              		@ frame_needed = 0, uses_anonymous_args = 0
 788              		.loc 1 44 27 is_stmt 0 view .LVU214
 789 0000 38B5     		push	{r3, r4, r5, lr}
 790              	.LCFI5:
 791              		.cfi_def_cfa_offset 16
 792              		.cfi_offset 3, -16
 793              		.cfi_offset 4, -12
 794              		.cfi_offset 5, -8
 795              		.cfi_offset 14, -4
 796 0002 0446     		mov	r4, r0
  45:src/unit/robot/robot.cpp ****       static const uint8_t HEADER = 0xFF;  // ãƒ˜ãƒƒãƒ€
 797              		.loc 1 45 7 is_stmt 1 view .LVU215
  46:src/unit/robot/robot.cpp ****       static const uint8_t FOOTER = 0xAA;  // ãƒ˜ãƒƒãƒ€
 798              		.loc 1 46 7 view .LVU216
  47:src/unit/robot/robot.cpp ****       static const uint8_t dataSize = 6;   // ãƒ‡ãƒ¼ã‚¿ã®ã‚µã‚¤ã‚º
 799              		.loc 1 47 7 view .LVU217
  48:src/unit/robot/robot.cpp ****       static uint8_t index = 0;            // å—ä¿¡ã—ãŸãƒ‡ãƒ¼ã‚¿ã®ã‚¤ãƒ³ãƒ‡ãƒƒã‚¯ã‚¹ã‚«ã‚¦ãƒ³ã‚
ARM GAS  /var/folders/5c/srt4fy4j1pd641bjfx75k5000000gn/T//cc815vsF.s 			page 19


 800              		.loc 1 48 7 view .LVU218
  49:src/unit/robot/robot.cpp ****       static uint8_t recv_data[dataSize];  // å—ä¿¡ã—ãŸãƒ‡ãƒ¼ã‚¿
 801              		.loc 1 49 7 view .LVU219
  50:src/unit/robot/robot.cpp ****       static uint8_t recv_byte;
 802              		.loc 1 50 7 view .LVU220
  51:src/unit/robot/robot.cpp **** 
  52:src/unit/robot/robot.cpp ****       while (serial1.available()) {
 803              		.loc 1 52 7 view .LVU221
 804 0004 0BE0     		b	.L20
 805              	.LVL64:
 806              	.L30:
  53:src/unit/robot/robot.cpp ****             recv_byte = serial1.read();
  54:src/unit/robot/robot.cpp ****             if (index == 0) {
  55:src/unit/robot/robot.cpp ****                   if (recv_byte == HEADER) {
  56:src/unit/robot/robot.cpp ****                         index++;
 807              		.loc 1 56 25 view .LVU222
 808              		.loc 1 56 30 is_stmt 0 view .LVU223
 809 0006 0133     		adds	r3, r3, #1
 810 0008 354A     		ldr	r2, .L32+8
 811 000a 1370     		strb	r3, [r2]
 812 000c 07E0     		b	.L20
 813              	.L21:
  57:src/unit/robot/robot.cpp ****                   } else {
  58:src/unit/robot/robot.cpp ****                         index = 0;
  59:src/unit/robot/robot.cpp ****                   }
  60:src/unit/robot/robot.cpp ****             } else if (index == (dataSize + 1)) {
 814              		.loc 1 60 20 is_stmt 1 view .LVU224
 815 000e 072B     		cmp	r3, #7
 816 0010 23D0     		beq	.L28
  61:src/unit/robot/robot.cpp ****                   if (recv_byte == FOOTER) {
  62:src/unit/robot/robot.cpp ****                         info.Imu.yaw = ((((uint16_t)recv_data[0] << 8) & 0xFF00) | ((int16_t)recv_d
  63:src/unit/robot/robot.cpp ****                         info.Imu.pitch = ((((uint16_t)recv_data[2] << 8) & 0xFF00) | ((int16_t)recv
  64:src/unit/robot/robot.cpp ****                         info.Imu.roll = ((((uint16_t)recv_data[4] << 8) & 0xFF00) | ((int16_t)recv_
  65:src/unit/robot/robot.cpp ****                   }
  66:src/unit/robot/robot.cpp ****                   index = 0;
  67:src/unit/robot/robot.cpp ****             } else {
  68:src/unit/robot/robot.cpp ****                   recv_data[index - 1] = recv_byte;
 817              		.loc 1 68 19 view .LVU225
 818              		.loc 1 68 35 is_stmt 0 view .LVU226
 819 0012 5A1E     		subs	r2, r3, #1
 820              		.loc 1 68 40 view .LVU227
 821 0014 3349     		ldr	r1, .L32+12
 822 0016 8854     		strb	r0, [r1, r2]
  69:src/unit/robot/robot.cpp ****                   index++;
 823              		.loc 1 69 19 is_stmt 1 view .LVU228
 824              		.loc 1 69 24 is_stmt 0 view .LVU229
 825 0018 0133     		adds	r3, r3, #1
 826 001a 314A     		ldr	r2, .L32+8
 827 001c 1370     		strb	r3, [r2]
 828              	.L20:
  52:src/unit/robot/robot.cpp ****             recv_byte = serial1.read();
 829              		.loc 1 52 31 is_stmt 1 view .LVU230
 830              	.LVL65:
 831              	.LBB112:
 832              	.LBI112:
  33:Lib/BufferedSerial/BufferedSerial.hpp ****             uint16_t rxTop = _rxBufSize - _huart->hdmarx->Instance->NDTR;
 833              		.loc 2 33 12 view .LVU231
ARM GAS  /var/folders/5c/srt4fy4j1pd641bjfx75k5000000gn/T//cc815vsF.s 			page 20


 834              	.LBB113:
  34:Lib/BufferedSerial/BufferedSerial.hpp ****             return rxTop != rxBtm;
 835              		.loc 2 34 13 view .LVU232
  34:Lib/BufferedSerial/BufferedSerial.hpp ****             return rxTop != rxBtm;
 836              		.loc 2 34 30 is_stmt 0 view .LVU233
 837 001e B4F8083C 		ldrh	r3, [r4, #3080]
  34:Lib/BufferedSerial/BufferedSerial.hpp ****             return rxTop != rxBtm;
 838              		.loc 2 34 43 view .LVU234
 839 0022 D4F8FC2B 		ldr	r2, [r4, #3068]
  34:Lib/BufferedSerial/BufferedSerial.hpp ****             return rxTop != rxBtm;
 840              		.loc 2 34 51 view .LVU235
 841 0026 D26B     		ldr	r2, [r2, #60]
  34:Lib/BufferedSerial/BufferedSerial.hpp ****             return rxTop != rxBtm;
 842              		.loc 2 34 59 view .LVU236
 843 0028 1268     		ldr	r2, [r2]
  34:Lib/BufferedSerial/BufferedSerial.hpp ****             return rxTop != rxBtm;
 844              		.loc 2 34 69 view .LVU237
 845 002a 5268     		ldr	r2, [r2, #4]
  34:Lib/BufferedSerial/BufferedSerial.hpp ****             return rxTop != rxBtm;
 846              		.loc 2 34 41 view .LVU238
 847 002c 92B2     		uxth	r2, r2
  34:Lib/BufferedSerial/BufferedSerial.hpp ****             return rxTop != rxBtm;
 848              		.loc 2 34 69 view .LVU239
 849 002e 9B1A     		subs	r3, r3, r2
 850 0030 9BB2     		uxth	r3, r3
 851              	.LVL66:
  35:Lib/BufferedSerial/BufferedSerial.hpp ****       }
 852              		.loc 2 35 13 is_stmt 1 view .LVU240
  35:Lib/BufferedSerial/BufferedSerial.hpp ****       }
 853              		.loc 2 35 29 is_stmt 0 view .LVU241
 854 0032 B4F8062C 		ldrh	r2, [r4, #3078]
 855              	.LVL67:
  35:Lib/BufferedSerial/BufferedSerial.hpp ****       }
 856              		.loc 2 35 29 view .LVU242
 857              	.LBE113:
 858              	.LBE112:
  52:src/unit/robot/robot.cpp ****             recv_byte = serial1.read();
 859              		.loc 1 52 31 view .LVU243
 860 0036 9342     		cmp	r3, r2
 861 0038 4DD0     		beq	.L29
  53:src/unit/robot/robot.cpp ****             if (index == 0) {
 862              		.loc 1 53 13 is_stmt 1 view .LVU244
  53:src/unit/robot/robot.cpp ****             if (index == 0) {
 863              		.loc 1 53 37 is_stmt 0 view .LVU245
 864 003a 04F6FC30 		addw	r0, r4, #3068
 865 003e FFF7FEFF 		bl	_ZN14BufferedSerial4readEv
 866              	.LVL68:
  53:src/unit/robot/robot.cpp ****             if (index == 0) {
 867              		.loc 1 53 23 view .LVU246
 868 0042 294B     		ldr	r3, .L32+16
 869 0044 1870     		strb	r0, [r3]
  54:src/unit/robot/robot.cpp ****                   if (recv_byte == HEADER) {
 870              		.loc 1 54 13 is_stmt 1 view .LVU247
  54:src/unit/robot/robot.cpp ****                   if (recv_byte == HEADER) {
 871              		.loc 1 54 23 is_stmt 0 view .LVU248
 872 0046 264B     		ldr	r3, .L32+8
 873 0048 1B78     		ldrb	r3, [r3]	@ zero_extendqisi2
ARM GAS  /var/folders/5c/srt4fy4j1pd641bjfx75k5000000gn/T//cc815vsF.s 			page 21


  54:src/unit/robot/robot.cpp ****                   if (recv_byte == HEADER) {
 874              		.loc 1 54 13 view .LVU249
 875 004a 002B     		cmp	r3, #0
 876 004c DFD1     		bne	.L21
  55:src/unit/robot/robot.cpp ****                         index++;
 877              		.loc 1 55 19 is_stmt 1 view .LVU250
 878 004e FF28     		cmp	r0, #255
 879 0050 D9D0     		beq	.L30
  58:src/unit/robot/robot.cpp ****                   }
 880              		.loc 1 58 25 view .LVU251
  58:src/unit/robot/robot.cpp ****                   }
 881              		.loc 1 58 31 is_stmt 0 view .LVU252
 882 0052 234B     		ldr	r3, .L32+8
 883 0054 0022     		movs	r2, #0
 884 0056 1A70     		strb	r2, [r3]
 885 0058 E1E7     		b	.L20
 886              	.L28:
  61:src/unit/robot/robot.cpp ****                         info.Imu.yaw = ((((uint16_t)recv_data[0] << 8) & 0xFF00) | ((int16_t)recv_d
 887              		.loc 1 61 19 is_stmt 1 view .LVU253
 888 005a AA28     		cmp	r0, #170
 889 005c 03D0     		beq	.L31
 890              	.L25:
  66:src/unit/robot/robot.cpp ****             } else {
 891              		.loc 1 66 19 view .LVU254
  66:src/unit/robot/robot.cpp ****             } else {
 892              		.loc 1 66 25 is_stmt 0 view .LVU255
 893 005e 204B     		ldr	r3, .L32+8
 894 0060 0022     		movs	r2, #0
 895 0062 1A70     		strb	r2, [r3]
 896 0064 DBE7     		b	.L20
 897              	.L31:
  62:src/unit/robot/robot.cpp ****                         info.Imu.pitch = ((((uint16_t)recv_data[2] << 8) & 0xFF00) | ((int16_t)recv
 898              		.loc 1 62 25 is_stmt 1 view .LVU256
  62:src/unit/robot/robot.cpp ****                         info.Imu.pitch = ((((uint16_t)recv_data[2] << 8) & 0xFF00) | ((int16_t)recv
 899              		.loc 1 62 64 is_stmt 0 view .LVU257
 900 0066 1F4D     		ldr	r5, .L32+12
 901 0068 2878     		ldrb	r0, [r5]	@ zero_extendqisi2
  62:src/unit/robot/robot.cpp ****                         info.Imu.pitch = ((((uint16_t)recv_data[2] << 8) & 0xFF00) | ((int16_t)recv
 902              		.loc 1 62 105 view .LVU258
 903 006a 6B78     		ldrb	r3, [r5, #1]	@ zero_extendqisi2
  62:src/unit/robot/robot.cpp ****                         info.Imu.pitch = ((((uint16_t)recv_data[2] << 8) & 0xFF00) | ((int16_t)recv
 904              		.loc 1 62 118 view .LVU259
 905 006c 43EA0020 		orr	r0, r3, r0, lsl #8
 906 0070 FFF7FEFF 		bl	__aeabi_i2d
 907              	.LVL69:
 908 0074 18A3     		adr	r3, .L32
 909 0076 D3E90023 		ldrd	r2, [r3]
 910 007a FFF7FEFF 		bl	__aeabi_dmul
 911              	.LVL70:
  62:src/unit/robot/robot.cpp ****                         info.Imu.pitch = ((((uint16_t)recv_data[2] << 8) & 0xFF00) | ((int16_t)recv
 912              		.loc 1 62 124 view .LVU260
 913 007e 0022     		movs	r2, #0
 914 0080 1A4B     		ldr	r3, .L32+20
 915 0082 FFF7FEFF 		bl	__aeabi_dsub
 916              	.LVL71:
  62:src/unit/robot/robot.cpp ****                         info.Imu.pitch = ((((uint16_t)recv_data[2] << 8) & 0xFF00) | ((int16_t)recv
 917              		.loc 1 62 38 view .LVU261
ARM GAS  /var/folders/5c/srt4fy4j1pd641bjfx75k5000000gn/T//cc815vsF.s 			page 22


 918 0086 FFF7FEFF 		bl	__aeabi_d2iz
 919              	.LVL72:
 920 008a E083     		strh	r0, [r4, #30]	@ movhi
  63:src/unit/robot/robot.cpp ****                         info.Imu.roll = ((((uint16_t)recv_data[4] << 8) & 0xFF00) | ((int16_t)recv_
 921              		.loc 1 63 25 is_stmt 1 view .LVU262
  63:src/unit/robot/robot.cpp ****                         info.Imu.roll = ((((uint16_t)recv_data[4] << 8) & 0xFF00) | ((int16_t)recv_
 922              		.loc 1 63 66 is_stmt 0 view .LVU263
 923 008c A878     		ldrb	r0, [r5, #2]	@ zero_extendqisi2
  63:src/unit/robot/robot.cpp ****                         info.Imu.roll = ((((uint16_t)recv_data[4] << 8) & 0xFF00) | ((int16_t)recv_
 924              		.loc 1 63 107 view .LVU264
 925 008e EB78     		ldrb	r3, [r5, #3]	@ zero_extendqisi2
  63:src/unit/robot/robot.cpp ****                         info.Imu.roll = ((((uint16_t)recv_data[4] << 8) & 0xFF00) | ((int16_t)recv_
 926              		.loc 1 63 120 view .LVU265
 927 0090 43EA0020 		orr	r0, r3, r0, lsl #8
 928 0094 FFF7FEFF 		bl	__aeabi_i2d
 929              	.LVL73:
 930 0098 0FA3     		adr	r3, .L32
 931 009a D3E90023 		ldrd	r2, [r3]
 932 009e FFF7FEFF 		bl	__aeabi_dmul
 933              	.LVL74:
  63:src/unit/robot/robot.cpp ****                         info.Imu.roll = ((((uint16_t)recv_data[4] << 8) & 0xFF00) | ((int16_t)recv_
 934              		.loc 1 63 126 view .LVU266
 935 00a2 0022     		movs	r2, #0
 936 00a4 114B     		ldr	r3, .L32+20
 937 00a6 FFF7FEFF 		bl	__aeabi_dsub
 938              	.LVL75:
  63:src/unit/robot/robot.cpp ****                         info.Imu.roll = ((((uint16_t)recv_data[4] << 8) & 0xFF00) | ((int16_t)recv_
 939              		.loc 1 63 40 view .LVU267
 940 00aa FFF7FEFF 		bl	__aeabi_d2iz
 941              	.LVL76:
 942 00ae 2084     		strh	r0, [r4, #32]	@ movhi
  64:src/unit/robot/robot.cpp ****                   }
 943              		.loc 1 64 25 is_stmt 1 view .LVU268
  64:src/unit/robot/robot.cpp ****                   }
 944              		.loc 1 64 65 is_stmt 0 view .LVU269
 945 00b0 2879     		ldrb	r0, [r5, #4]	@ zero_extendqisi2
  64:src/unit/robot/robot.cpp ****                   }
 946              		.loc 1 64 106 view .LVU270
 947 00b2 6B79     		ldrb	r3, [r5, #5]	@ zero_extendqisi2
  64:src/unit/robot/robot.cpp ****                   }
 948              		.loc 1 64 119 view .LVU271
 949 00b4 43EA0020 		orr	r0, r3, r0, lsl #8
 950 00b8 FFF7FEFF 		bl	__aeabi_i2d
 951              	.LVL77:
 952 00bc 06A3     		adr	r3, .L32
 953 00be D3E90023 		ldrd	r2, [r3]
 954 00c2 FFF7FEFF 		bl	__aeabi_dmul
 955              	.LVL78:
  64:src/unit/robot/robot.cpp ****                   }
 956              		.loc 1 64 125 view .LVU272
 957 00c6 0022     		movs	r2, #0
 958 00c8 084B     		ldr	r3, .L32+20
 959 00ca FFF7FEFF 		bl	__aeabi_dsub
 960              	.LVL79:
  64:src/unit/robot/robot.cpp ****                   }
 961              		.loc 1 64 39 view .LVU273
 962 00ce FFF7FEFF 		bl	__aeabi_d2iz
ARM GAS  /var/folders/5c/srt4fy4j1pd641bjfx75k5000000gn/T//cc815vsF.s 			page 23


 963              	.LVL80:
 964 00d2 6084     		strh	r0, [r4, #34]	@ movhi
 965 00d4 C3E7     		b	.L25
 966              	.L29:
  70:src/unit/robot/robot.cpp ****             }
  71:src/unit/robot/robot.cpp ****       }
  72:src/unit/robot/robot.cpp **** }
 967              		.loc 1 72 1 view .LVU274
 968 00d6 38BD     		pop	{r3, r4, r5, pc}
 969              	.LVL81:
 970              	.L33:
 971              		.loc 1 72 1 view .LVU275
 972              		.align	3
 973              	.L32:
 974 00d8 9A999999 		.word	-1717986918
 975 00dc 9999B93F 		.word	1069128089
 976 00e0 00000000 		.word	_ZZN5Robot11RecvImuUartEvE5index
 977 00e4 00000000 		.word	_ZZN5Robot11RecvImuUartEvE9recv_data
 978 00e8 00000000 		.word	_ZZN5Robot11RecvImuUartEvE9recv_byte
 979 00ec 00806640 		.word	1080459264
 980              		.cfi_endproc
 981              	.LFE275:
 982              		.cantunwind
 983              		.fnend
 985              		.section	.text._ZN5Robot12RecvLineUartEv,"ax",%progbits
 986              		.align	1
 987              		.global	_ZN5Robot12RecvLineUartEv
 988              		.syntax unified
 989              		.thumb
 990              		.thumb_func
 992              	_ZN5Robot12RecvLineUartEv:
 993              		.fnstart
 994              	.LVL82:
 995              	.LFB276:
  73:src/unit/robot/robot.cpp **** 
  74:src/unit/robot/robot.cpp **** void Robot::RecvLineUart() {
 996              		.loc 1 74 28 is_stmt 1 view -0
 997              		.cfi_startproc
 998              		@ args = 0, pretend = 0, frame = 8
 999              		@ frame_needed = 0, uses_anonymous_args = 0
 1000              		.loc 1 74 28 is_stmt 0 view .LVU277
 1001 0000 10B5     		push	{r4, lr}
 1002              		.save {r4, lr}
 1003              	.LCFI6:
 1004              		.cfi_def_cfa_offset 8
 1005              		.cfi_offset 4, -8
 1006              		.cfi_offset 14, -4
 1007              		.pad #8
 1008 0002 82B0     		sub	sp, sp, #8
 1009              	.LCFI7:
 1010              		.cfi_def_cfa_offset 16
 1011 0004 0446     		mov	r4, r0
  75:src/unit/robot/robot.cpp ****       static const uint8_t HEADER = 0xFF;   // ãƒ˜ãƒƒãƒ€
 1012              		.loc 1 75 7 is_stmt 1 view .LVU278
  76:src/unit/robot/robot.cpp ****       static const uint8_t FOOTER = 0xAA;   // ãƒ˜ãƒƒãƒ€
 1013              		.loc 1 76 7 view .LVU279
  77:src/unit/robot/robot.cpp ****       static const uint8_t data_size = 4;   // ãƒ‡ãƒ¼ã‚¿ã®ã‚µã‚¤ã‚º
ARM GAS  /var/folders/5c/srt4fy4j1pd641bjfx75k5000000gn/T//cc815vsF.s 			page 24


 1014              		.loc 1 77 7 view .LVU280
  78:src/unit/robot/robot.cpp ****       static uint8_t index = 0;             // å—ä¿¡ã—ãŸãƒ‡ãƒ¼ã‚¿ã®ã‚¤ãƒ³ãƒ‡ãƒƒã‚¯ã‚¹ã‚«ã‚¦ãƒ³ã
 1015              		.loc 1 78 7 view .LVU281
  79:src/unit/robot/robot.cpp ****       static uint8_t recv_data[data_size];  // å—ä¿¡ã—ãŸãƒ‡ãƒ¼ã‚¿
 1016              		.loc 1 79 7 view .LVU282
  80:src/unit/robot/robot.cpp ****       static uint8_t recv_byte;
 1017              		.loc 1 80 7 view .LVU283
  81:src/unit/robot/robot.cpp ****       serial2.write(info.Line.on_led);
 1018              		.loc 1 81 7 view .LVU284
 1019              		.loc 1 81 31 is_stmt 0 view .LVU285
 1020 0006 037C     		ldrb	r3, [r0, #16]	@ zero_extendqisi2
 1021              	.LVL83:
 1022              		.loc 1 81 31 view .LVU286
 1023 0008 8DF80730 		strb	r3, [sp, #7]
 1024              	.LVL84:
 1025              	.LBB114:
 1026              	.LBI114:
  48:Lib/BufferedSerial/BufferedSerial.hpp **** 
  49:Lib/BufferedSerial/BufferedSerial.hpp ****       void write(uint8_t data) {
 1027              		.loc 2 49 12 is_stmt 1 view .LVU287
 1028              	.LBB115:
  50:Lib/BufferedSerial/BufferedSerial.hpp ****             HAL_UART_Transmit(_huart, &data, 1, 100);
 1029              		.loc 2 50 13 view .LVU288
 1030              		.loc 2 50 30 is_stmt 0 view .LVU289
 1031 000c 6423     		movs	r3, #100
 1032              	.LVL85:
 1033              		.loc 2 50 30 view .LVU290
 1034 000e 0122     		movs	r2, #1
 1035 0010 0DF10701 		add	r1, sp, #7
 1036              	.LVL86:
 1037              		.loc 2 50 30 view .LVU291
 1038 0014 D0F80C0C 		ldr	r0, [r0, #3084]
 1039              	.LVL87:
 1040              		.loc 2 50 30 view .LVU292
 1041 0018 FFF7FEFF 		bl	HAL_UART_Transmit
 1042              	.LVL88:
 1043              		.loc 2 50 30 view .LVU293
 1044              	.LBE115:
 1045              	.LBE114:
  82:src/unit/robot/robot.cpp **** 
  83:src/unit/robot/robot.cpp ****       while (serial2.available()) {
 1046              		.loc 1 83 7 is_stmt 1 view .LVU294
 1047 001c 10E0     		b	.L35
 1048              	.L45:
  84:src/unit/robot/robot.cpp ****             recv_byte = serial2.read();
  85:src/unit/robot/robot.cpp ****             if (index == 0) {
  86:src/unit/robot/robot.cpp ****                   if (recv_byte == HEADER) {
  87:src/unit/robot/robot.cpp ****                         index++;
 1049              		.loc 1 87 25 view .LVU295
 1050              		.loc 1 87 30 is_stmt 0 view .LVU296
 1051 001e 0133     		adds	r3, r3, #1
 1052 0020 1F4A     		ldr	r2, .L47
 1053 0022 1370     		strb	r3, [r2]
 1054 0024 07E0     		b	.L38
 1055              	.L36:
  88:src/unit/robot/robot.cpp ****                   } else {
  89:src/unit/robot/robot.cpp ****                         index = 0;
ARM GAS  /var/folders/5c/srt4fy4j1pd641bjfx75k5000000gn/T//cc815vsF.s 			page 25


  90:src/unit/robot/robot.cpp ****                   }
  91:src/unit/robot/robot.cpp ****             } else if (index == (data_size + 1)) {
 1056              		.loc 1 91 20 is_stmt 1 view .LVU297
 1057 0026 052B     		cmp	r3, #5
 1058 0028 28D0     		beq	.L43
  92:src/unit/robot/robot.cpp ****                   if (recv_byte == FOOTER) {
  93:src/unit/robot/robot.cpp ****                         info.motor_rps[0] = recv_data[0];
  94:src/unit/robot/robot.cpp ****                         info.motor_rps[1] = recv_data[1];
  95:src/unit/robot/robot.cpp ****                         info.motor_rps[2] = recv_data[2];
  96:src/unit/robot/robot.cpp ****                         info.motor_rps[3] = recv_data[3];
  97:src/unit/robot/robot.cpp ****                         // info.Line.interval = recv_data[2];
  98:src/unit/robot/robot.cpp ****                         // info.Line.is_on_line = (recv_data[3] >> 2) & 1;
  99:src/unit/robot/robot.cpp ****                         // info.Line.is_leftside = (recv_data[3] >> 1) & 1;
 100:src/unit/robot/robot.cpp ****                         // info.Line.is_rightside = recv_data[3] & 1;
 101:src/unit/robot/robot.cpp ****                         // info.Line.dir = recv_data[4] * 2 - 180;
 102:src/unit/robot/robot.cpp ****                         // info.Line.inside_dir = recv_data[5] * 2 - 180;
 103:src/unit/robot/robot.cpp ****                   }
 104:src/unit/robot/robot.cpp ****                   index = 0;
 105:src/unit/robot/robot.cpp ****             } else {
 106:src/unit/robot/robot.cpp ****                   recv_data[index - 1] = recv_byte;
 1059              		.loc 1 106 19 view .LVU298
 1060              		.loc 1 106 35 is_stmt 0 view .LVU299
 1061 002a 5A1E     		subs	r2, r3, #1
 1062              		.loc 1 106 40 view .LVU300
 1063 002c 1D49     		ldr	r1, .L47+4
 1064 002e 8854     		strb	r0, [r1, r2]
 107:src/unit/robot/robot.cpp ****                   index++;
 1065              		.loc 1 107 19 is_stmt 1 view .LVU301
 1066              		.loc 1 107 24 is_stmt 0 view .LVU302
 1067 0030 0133     		adds	r3, r3, #1
 1068 0032 1B4A     		ldr	r2, .L47
 1069 0034 1370     		strb	r3, [r2]
 1070              	.L38:
 108:src/unit/robot/robot.cpp ****             }
 109:src/unit/robot/robot.cpp ****             led1 = 1;
 1071              		.loc 1 109 13 is_stmt 1 view .LVU303
 1072              	.LVL89:
 1073              	.LBB116:
 1074              	.LBI116:
  14:Lib/DigitalInOut/DigitalInOut.hpp ****     }
  15:Lib/DigitalInOut/DigitalInOut.hpp ****     void write(bool value) {
  16:Lib/DigitalInOut/DigitalInOut.hpp ****         HAL_GPIO_WritePin(port, pin, value ? GPIO_PIN_SET : GPIO_PIN_RESET);
  17:Lib/DigitalInOut/DigitalInOut.hpp ****     }
  18:Lib/DigitalInOut/DigitalInOut.hpp **** 
  19:Lib/DigitalInOut/DigitalInOut.hpp ****     void operator=(bool value) {
 1075              		.loc 4 19 10 view .LVU304
 1076              	.LBB117:
  20:Lib/DigitalInOut/DigitalInOut.hpp ****         HAL_GPIO_WritePin(port, pin, value ? GPIO_PIN_SET : GPIO_PIN_RESET);
 1077              		.loc 4 20 9 view .LVU305
 1078              		.loc 4 20 26 is_stmt 0 view .LVU306
 1079 0036 0122     		movs	r2, #1
 1080 0038 218D     		ldrh	r1, [r4, #40]
 1081 003a 606A     		ldr	r0, [r4, #36]
 1082 003c FFF7FEFF 		bl	HAL_GPIO_WritePin
 1083              	.LVL90:
 1084              	.L35:
 1085              		.loc 4 20 26 view .LVU307
ARM GAS  /var/folders/5c/srt4fy4j1pd641bjfx75k5000000gn/T//cc815vsF.s 			page 26


 1086              	.LBE117:
 1087              	.LBE116:
  83:src/unit/robot/robot.cpp ****             recv_byte = serial2.read();
 1088              		.loc 1 83 31 is_stmt 1 view .LVU308
 1089              	.LBB118:
 1090              	.LBI118:
  33:Lib/BufferedSerial/BufferedSerial.hpp ****             uint16_t rxTop = _rxBufSize - _huart->hdmarx->Instance->NDTR;
 1091              		.loc 2 33 12 view .LVU309
 1092              	.LBB119:
  34:Lib/BufferedSerial/BufferedSerial.hpp ****             return rxTop != rxBtm;
 1093              		.loc 2 34 13 view .LVU310
  34:Lib/BufferedSerial/BufferedSerial.hpp ****             return rxTop != rxBtm;
 1094              		.loc 2 34 30 is_stmt 0 view .LVU311
 1095 0040 B4F8183C 		ldrh	r3, [r4, #3096]
  34:Lib/BufferedSerial/BufferedSerial.hpp ****             return rxTop != rxBtm;
 1096              		.loc 2 34 43 view .LVU312
 1097 0044 D4F80C2C 		ldr	r2, [r4, #3084]
  34:Lib/BufferedSerial/BufferedSerial.hpp ****             return rxTop != rxBtm;
 1098              		.loc 2 34 51 view .LVU313
 1099 0048 D26B     		ldr	r2, [r2, #60]
  34:Lib/BufferedSerial/BufferedSerial.hpp ****             return rxTop != rxBtm;
 1100              		.loc 2 34 59 view .LVU314
 1101 004a 1268     		ldr	r2, [r2]
  34:Lib/BufferedSerial/BufferedSerial.hpp ****             return rxTop != rxBtm;
 1102              		.loc 2 34 69 view .LVU315
 1103 004c 5268     		ldr	r2, [r2, #4]
  34:Lib/BufferedSerial/BufferedSerial.hpp ****             return rxTop != rxBtm;
 1104              		.loc 2 34 41 view .LVU316
 1105 004e 92B2     		uxth	r2, r2
  34:Lib/BufferedSerial/BufferedSerial.hpp ****             return rxTop != rxBtm;
 1106              		.loc 2 34 69 view .LVU317
 1107 0050 9B1A     		subs	r3, r3, r2
 1108 0052 9BB2     		uxth	r3, r3
 1109              	.LVL91:
  35:Lib/BufferedSerial/BufferedSerial.hpp ****       }
 1110              		.loc 2 35 13 is_stmt 1 view .LVU318
  35:Lib/BufferedSerial/BufferedSerial.hpp ****       }
 1111              		.loc 2 35 29 is_stmt 0 view .LVU319
 1112 0054 B4F8162C 		ldrh	r2, [r4, #3094]
 1113              	.LVL92:
  35:Lib/BufferedSerial/BufferedSerial.hpp ****       }
 1114              		.loc 2 35 29 view .LVU320
 1115              	.LBE119:
 1116              	.LBE118:
  83:src/unit/robot/robot.cpp ****             recv_byte = serial2.read();
 1117              		.loc 1 83 31 view .LVU321
 1118 0058 9342     		cmp	r3, r2
 1119 005a 1FD0     		beq	.L44
  84:src/unit/robot/robot.cpp ****             if (index == 0) {
 1120              		.loc 1 84 13 is_stmt 1 view .LVU322
  84:src/unit/robot/robot.cpp ****             if (index == 0) {
 1121              		.loc 1 84 37 is_stmt 0 view .LVU323
 1122 005c 04F60C40 		addw	r0, r4, #3084
 1123 0060 FFF7FEFF 		bl	_ZN14BufferedSerial4readEv
 1124              	.LVL93:
  84:src/unit/robot/robot.cpp ****             if (index == 0) {
 1125              		.loc 1 84 23 view .LVU324
ARM GAS  /var/folders/5c/srt4fy4j1pd641bjfx75k5000000gn/T//cc815vsF.s 			page 27


 1126 0064 104B     		ldr	r3, .L47+8
 1127 0066 1870     		strb	r0, [r3]
  85:src/unit/robot/robot.cpp ****                   if (recv_byte == HEADER) {
 1128              		.loc 1 85 13 is_stmt 1 view .LVU325
  85:src/unit/robot/robot.cpp ****                   if (recv_byte == HEADER) {
 1129              		.loc 1 85 23 is_stmt 0 view .LVU326
 1130 0068 0D4B     		ldr	r3, .L47
 1131 006a 1B78     		ldrb	r3, [r3]	@ zero_extendqisi2
  85:src/unit/robot/robot.cpp ****                   if (recv_byte == HEADER) {
 1132              		.loc 1 85 13 view .LVU327
 1133 006c 002B     		cmp	r3, #0
 1134 006e DAD1     		bne	.L36
  86:src/unit/robot/robot.cpp ****                         index++;
 1135              		.loc 1 86 19 is_stmt 1 view .LVU328
 1136 0070 FF28     		cmp	r0, #255
 1137 0072 D4D0     		beq	.L45
  89:src/unit/robot/robot.cpp ****                   }
 1138              		.loc 1 89 25 view .LVU329
  89:src/unit/robot/robot.cpp ****                   }
 1139              		.loc 1 89 31 is_stmt 0 view .LVU330
 1140 0074 0A4B     		ldr	r3, .L47
 1141 0076 0022     		movs	r2, #0
 1142 0078 1A70     		strb	r2, [r3]
 1143 007a DCE7     		b	.L38
 1144              	.L43:
  92:src/unit/robot/robot.cpp ****                         info.motor_rps[0] = recv_data[0];
 1145              		.loc 1 92 19 is_stmt 1 view .LVU331
 1146 007c AA28     		cmp	r0, #170
 1147 007e 03D0     		beq	.L46
 1148              	.L40:
 104:src/unit/robot/robot.cpp ****             } else {
 1149              		.loc 1 104 19 view .LVU332
 104:src/unit/robot/robot.cpp ****             } else {
 1150              		.loc 1 104 25 is_stmt 0 view .LVU333
 1151 0080 074B     		ldr	r3, .L47
 1152 0082 0022     		movs	r2, #0
 1153 0084 1A70     		strb	r2, [r3]
 1154 0086 D6E7     		b	.L38
 1155              	.L46:
  93:src/unit/robot/robot.cpp ****                         info.motor_rps[1] = recv_data[1];
 1156              		.loc 1 93 25 is_stmt 1 view .LVU334
  93:src/unit/robot/robot.cpp ****                         info.motor_rps[1] = recv_data[1];
 1157              		.loc 1 93 56 is_stmt 0 view .LVU335
 1158 0088 064B     		ldr	r3, .L47+4
 1159 008a 1A78     		ldrb	r2, [r3]	@ zero_extendqisi2
  93:src/unit/robot/robot.cpp ****                         info.motor_rps[1] = recv_data[1];
 1160              		.loc 1 93 43 view .LVU336
 1161 008c 2271     		strb	r2, [r4, #4]
  94:src/unit/robot/robot.cpp ****                         info.motor_rps[2] = recv_data[2];
 1162              		.loc 1 94 25 is_stmt 1 view .LVU337
  94:src/unit/robot/robot.cpp ****                         info.motor_rps[2] = recv_data[2];
 1163              		.loc 1 94 56 is_stmt 0 view .LVU338
 1164 008e 5A78     		ldrb	r2, [r3, #1]	@ zero_extendqisi2
  94:src/unit/robot/robot.cpp ****                         info.motor_rps[2] = recv_data[2];
 1165              		.loc 1 94 43 view .LVU339
 1166 0090 6271     		strb	r2, [r4, #5]
  95:src/unit/robot/robot.cpp ****                         info.motor_rps[3] = recv_data[3];
ARM GAS  /var/folders/5c/srt4fy4j1pd641bjfx75k5000000gn/T//cc815vsF.s 			page 28


 1167              		.loc 1 95 25 is_stmt 1 view .LVU340
  95:src/unit/robot/robot.cpp ****                         info.motor_rps[3] = recv_data[3];
 1168              		.loc 1 95 56 is_stmt 0 view .LVU341
 1169 0092 9A78     		ldrb	r2, [r3, #2]	@ zero_extendqisi2
  95:src/unit/robot/robot.cpp ****                         info.motor_rps[3] = recv_data[3];
 1170              		.loc 1 95 43 view .LVU342
 1171 0094 A271     		strb	r2, [r4, #6]
  96:src/unit/robot/robot.cpp ****                         // info.Line.interval = recv_data[2];
 1172              		.loc 1 96 25 is_stmt 1 view .LVU343
  96:src/unit/robot/robot.cpp ****                         // info.Line.interval = recv_data[2];
 1173              		.loc 1 96 56 is_stmt 0 view .LVU344
 1174 0096 DB78     		ldrb	r3, [r3, #3]	@ zero_extendqisi2
  96:src/unit/robot/robot.cpp ****                         // info.Line.interval = recv_data[2];
 1175              		.loc 1 96 43 view .LVU345
 1176 0098 E371     		strb	r3, [r4, #7]
 1177 009a F1E7     		b	.L40
 1178              	.L44:
 110:src/unit/robot/robot.cpp ****       }
 111:src/unit/robot/robot.cpp **** }...
 1179              		.loc 1 111 1 view .LVU346
 1180 009c 02B0     		add	sp, sp, #8
 1181              	.LCFI8:
 1182              		.cfi_def_cfa_offset 8
 1183              		@ sp needed
 1184 009e 10BD     		pop	{r4, pc}
 1185              	.LVL94:
 1186              	.L48:
 1187              		.loc 1 111 1 view .LVU347
 1188              		.align	2
 1189              	.L47:
 1190 00a0 00000000 		.word	_ZZN5Robot12RecvLineUartEvE5index
 1191 00a4 00000000 		.word	_ZZN5Robot12RecvLineUartEvE9recv_data
 1192 00a8 00000000 		.word	_ZZN5Robot12RecvLineUartEvE9recv_byte
 1193              		.cfi_endproc
 1194              	.LFE276:
 1195              		.fnend
 1197              		.section	.bss._ZZN5Robot12RecvLineUartEvE9recv_byte,"aw",%nobits
 1200              	_ZZN5Robot12RecvLineUartEvE9recv_byte:
 1201 0000 00       		.space	1
 1202              		.section	.bss._ZZN5Robot12RecvLineUartEvE9recv_data,"aw",%nobits
 1203              		.align	2
 1206              	_ZZN5Robot12RecvLineUartEvE9recv_data:
 1207 0000 00000000 		.space	4
 1208              		.section	.bss._ZZN5Robot12RecvLineUartEvE5index,"aw",%nobits
 1211              	_ZZN5Robot12RecvLineUartEvE5index:
 1212 0000 00       		.space	1
 1213              		.section	.bss._ZZN5Robot11RecvImuUartEvE9recv_byte,"aw",%nobits
 1216              	_ZZN5Robot11RecvImuUartEvE9recv_byte:
 1217 0000 00       		.space	1
 1218              		.section	.bss._ZZN5Robot11RecvImuUartEvE9recv_data,"aw",%nobits
 1219              		.align	2
 1222              	_ZZN5Robot11RecvImuUartEvE9recv_data:
 1223 0000 00000000 		.space	6
 1223      0000
 1224              		.section	.bss._ZZN5Robot11RecvImuUartEvE5index,"aw",%nobits
 1227              	_ZZN5Robot11RecvImuUartEvE5index:
 1228 0000 00       		.space	1
ARM GAS  /var/folders/5c/srt4fy4j1pd641bjfx75k5000000gn/T//cc815vsF.s 			page 29


 1229              		.global	adc_get_val
 1230              		.section	.bss.adc_get_val,"aw",%nobits
 1231              		.align	2
 1234              	adc_get_val:
 1235 0000 00000000 		.space	6
 1235      0000
 1236              		.text
 1237              	.Letext0:
 1238              		.file 5 "/opt/ST/STM32CubeCLT_1.16.0/GNU-tools-for-STM32/arm-none-eabi/include/machine/_default_ty
 1239              		.file 6 "/opt/ST/STM32CubeCLT_1.16.0/GNU-tools-for-STM32/lib/gcc/arm-none-eabi/12.3.1/include/stdd
 1240              		.file 7 "/opt/ST/STM32CubeCLT_1.16.0/GNU-tools-for-STM32/arm-none-eabi/include/sys/_types.h"
 1241              		.file 8 "/opt/ST/STM32CubeCLT_1.16.0/GNU-tools-for-STM32/arm-none-eabi/include/sys/reent.h"
 1242              		.file 9 "/opt/ST/STM32CubeCLT_1.16.0/GNU-tools-for-STM32/arm-none-eabi/include/sys/lock.h"
 1243              		.file 10 "/opt/ST/STM32CubeCLT_1.16.0/GNU-tools-for-STM32/arm-none-eabi/include/stdio.h"
 1244              		.file 11 "/opt/ST/STM32CubeCLT_1.16.0/GNU-tools-for-STM32/arm-none-eabi/include/sys/_stdint.h"
 1245              		.file 12 "Drivers/CMSIS/Device/ST/STM32F4xx/Include/stm32f446xx.h"
 1246              		.file 13 "Drivers/CMSIS/Device/ST/STM32F4xx/Include/stm32f4xx.h"
 1247              		.file 14 "Drivers/STM32F4xx_HAL_Driver/Inc/stm32f4xx_hal_def.h"
 1248              		.file 15 "Drivers/STM32F4xx_HAL_Driver/Inc/stm32f4xx_hal_gpio.h"
 1249              		.file 16 "Drivers/STM32F4xx_HAL_Driver/Inc/stm32f4xx_hal_dma.h"
 1250              		.file 17 "Drivers/STM32F4xx_HAL_Driver/Inc/stm32f4xx_hal_adc.h"
 1251              		.file 18 "Drivers/STM32F4xx_HAL_Driver/Inc/stm32f4xx_hal_tim.h"
 1252              		.file 19 "Drivers/STM32F4xx_HAL_Driver/Inc/stm32f4xx_hal_uart.h"
 1253              		.file 20 "Drivers/STM32F4xx_HAL_Driver/Inc/stm32f4xx_hal.h"
 1254              		.file 21 "Core/Inc/usart.h"
 1255              		.file 22 "Lib/MovingAve/MovingAve.hpp"
 1256              		.file 23 "/opt/ST/STM32CubeCLT_1.16.0/GNU-tools-for-STM32/arm-none-eabi/include/c++/12.3.1/cstdio"
 1257              		.file 24 "/opt/ST/STM32CubeCLT_1.16.0/GNU-tools-for-STM32/arm-none-eabi/include/c++/12.3.1/arm-non
 1258              		.file 25 "Core/Inc/tim.h"
 1259              		.file 26 "Lib/Timer/Timer.hpp"
 1260              		.file 27 "Core/Inc/adc.h"
 1261              		.file 28 "src/unit/dribbler_drive/dribbler_drive.hpp"
 1262              		.file 29 "src/unit/kicker/kicker.hpp"
 1263              		.file 30 "Lib/pid/pid.hpp"
 1264              		.file 31 "src/unit/motor_drive/motor_drive.hpp"
 1265              		.file 32 "src/unit/robot/robot.hpp"
ARM GAS  /var/folders/5c/srt4fy4j1pd641bjfx75k5000000gn/T//cc815vsF.s 			page 30


DEFINED SYMBOLS
                            *ABS*:00000000 robot.cpp
/var/folders/5c/srt4fy4j1pd641bjfx75k5000000gn/T//cc815vsF.s:21     .text._ZN14BufferedSerial4readEv:00000000 $t
/var/folders/5c/srt4fy4j1pd641bjfx75k5000000gn/T//cc815vsF.s:27     .text._ZN14BufferedSerial4readEv:00000000 _ZN14BufferedSerial4readEv
.ARM.exidx.text._ZN14BufferedSerial4readEv:00000000 $d
/var/folders/5c/srt4fy4j1pd641bjfx75k5000000gn/T//cc815vsF.s:93     .text._ZN12PwmSingleOut4initEv:00000000 $t
/var/folders/5c/srt4fy4j1pd641bjfx75k5000000gn/T//cc815vsF.s:99     .text._ZN12PwmSingleOut4initEv:00000000 _ZN12PwmSingleOut4initEv
.ARM.exidx.text._ZN12PwmSingleOut4initEv:00000000 $d
/var/folders/5c/srt4fy4j1pd641bjfx75k5000000gn/T//cc815vsF.s:139    .text._ZN5RobotC2Ev:00000000 $t
/var/folders/5c/srt4fy4j1pd641bjfx75k5000000gn/T//cc815vsF.s:145    .text._ZN5RobotC2Ev:00000000 _ZN5RobotC2Ev
/var/folders/5c/srt4fy4j1pd641bjfx75k5000000gn/T//cc815vsF.s:530    .text._ZN5RobotC2Ev:00000190 $d
    .ARM.exidx.text._ZN5RobotC2Ev:00000000 $d
/var/folders/5c/srt4fy4j1pd641bjfx75k5000000gn/T//cc815vsF.s:145    .text._ZN5RobotC2Ev:00000000 _ZN5RobotC1Ev
/var/folders/5c/srt4fy4j1pd641bjfx75k5000000gn/T//cc815vsF.s:546    .text._ZN5Robot12HardwareInitEv:00000000 $t
/var/folders/5c/srt4fy4j1pd641bjfx75k5000000gn/T//cc815vsF.s:552    .text._ZN5Robot12HardwareInitEv:00000000 _ZN5Robot12HardwareInitEv
/var/folders/5c/srt4fy4j1pd641bjfx75k5000000gn/T//cc815vsF.s:723    .text._ZN5Robot12HardwareInitEv:000000c0 $d
/var/folders/5c/srt4fy4j1pd641bjfx75k5000000gn/T//cc815vsF.s:1234   .bss.adc_get_val:00000000 adc_get_val
.ARM.exidx.text._ZN5Robot12HardwareInitEv:00000000 $d
/var/folders/5c/srt4fy4j1pd641bjfx75k5000000gn/T//cc815vsF.s:730    .text._ZN5Robot10GetSensorsEv:00000000 $t
/var/folders/5c/srt4fy4j1pd641bjfx75k5000000gn/T//cc815vsF.s:736    .text._ZN5Robot10GetSensorsEv:00000000 _ZN5Robot10GetSensorsEv
/var/folders/5c/srt4fy4j1pd641bjfx75k5000000gn/T//cc815vsF.s:762    .text._ZN5Robot10GetSensorsEv:0000001c $d
.ARM.exidx.text._ZN5Robot10GetSensorsEv:00000000 $d
/var/folders/5c/srt4fy4j1pd641bjfx75k5000000gn/T//cc815vsF.s:774    .text._ZN5Robot11RecvImuUartEv:00000000 $t
/var/folders/5c/srt4fy4j1pd641bjfx75k5000000gn/T//cc815vsF.s:780    .text._ZN5Robot11RecvImuUartEv:00000000 _ZN5Robot11RecvImuUartEv
/var/folders/5c/srt4fy4j1pd641bjfx75k5000000gn/T//cc815vsF.s:974    .text._ZN5Robot11RecvImuUartEv:000000d8 $d
/var/folders/5c/srt4fy4j1pd641bjfx75k5000000gn/T//cc815vsF.s:1227   .bss._ZZN5Robot11RecvImuUartEvE5index:00000000 _ZZN5Robot11RecvImuUartEvE5index
/var/folders/5c/srt4fy4j1pd641bjfx75k5000000gn/T//cc815vsF.s:1222   .bss._ZZN5Robot11RecvImuUartEvE9recv_data:00000000 _ZZN5Robot11RecvImuUartEvE9recv_data
/var/folders/5c/srt4fy4j1pd641bjfx75k5000000gn/T//cc815vsF.s:1216   .bss._ZZN5Robot11RecvImuUartEvE9recv_byte:00000000 _ZZN5Robot11RecvImuUartEvE9recv_byte
.ARM.exidx.text._ZN5Robot11RecvImuUartEv:00000000 $d
/var/folders/5c/srt4fy4j1pd641bjfx75k5000000gn/T//cc815vsF.s:986    .text._ZN5Robot12RecvLineUartEv:00000000 $t
/var/folders/5c/srt4fy4j1pd641bjfx75k5000000gn/T//cc815vsF.s:992    .text._ZN5Robot12RecvLineUartEv:00000000 _ZN5Robot12RecvLineUartEv
/var/folders/5c/srt4fy4j1pd641bjfx75k5000000gn/T//cc815vsF.s:1190   .text._ZN5Robot12RecvLineUartEv:000000a0 $d
/var/folders/5c/srt4fy4j1pd641bjfx75k5000000gn/T//cc815vsF.s:1211   .bss._ZZN5Robot12RecvLineUartEvE5index:00000000 _ZZN5Robot12RecvLineUartEvE5index
/var/folders/5c/srt4fy4j1pd641bjfx75k5000000gn/T//cc815vsF.s:1206   .bss._ZZN5Robot12RecvLineUartEvE9recv_data:00000000 _ZZN5Robot12RecvLineUartEvE9recv_data
/var/folders/5c/srt4fy4j1pd641bjfx75k5000000gn/T//cc815vsF.s:1200   .bss._ZZN5Robot12RecvLineUartEvE9recv_byte:00000000 _ZZN5Robot12RecvLineUartEvE9recv_byte
.ARM.exidx.text._ZN5Robot12RecvLineUartEv:00000000 $d
/var/folders/5c/srt4fy4j1pd641bjfx75k5000000gn/T//cc815vsF.s:1201   .bss._ZZN5Robot12RecvLineUartEvE9recv_byte:00000000 $d
/var/folders/5c/srt4fy4j1pd641bjfx75k5000000gn/T//cc815vsF.s:1203   .bss._ZZN5Robot12RecvLineUartEvE9recv_data:00000000 $d
/var/folders/5c/srt4fy4j1pd641bjfx75k5000000gn/T//cc815vsF.s:1212   .bss._ZZN5Robot12RecvLineUartEvE5index:00000000 $d
/var/folders/5c/srt4fy4j1pd641bjfx75k5000000gn/T//cc815vsF.s:1217   .bss._ZZN5Robot11RecvImuUartEvE9recv_byte:00000000 $d
/var/folders/5c/srt4fy4j1pd641bjfx75k5000000gn/T//cc815vsF.s:1219   .bss._ZZN5Robot11RecvImuUartEvE9recv_data:00000000 $d
/var/folders/5c/srt4fy4j1pd641bjfx75k5000000gn/T//cc815vsF.s:1228   .bss._ZZN5Robot11RecvImuUartEvE5index:00000000 $d
/var/folders/5c/srt4fy4j1pd641bjfx75k5000000gn/T//cc815vsF.s:1231   .bss.adc_get_val:00000000 $d

UNDEFINED SYMBOLS
HAL_TIM_PWM_Start
__aeabi_unwind_cpp_pr0
HAL_GPIO_WritePin
_ZN10MotorDriveC1EP12PwmSingleOutS1_S1_S1_S1_S1_S1_S1_PsPh
_ZN13DribblerDriveC1EP12PwmSingleOutS1_
_ZN6KickerC1EP10DigitalOutS1_
_Znaj
htim13
htim12
htim2
htim3
htim4
ARM GAS  /var/folders/5c/srt4fy4j1pd641bjfx75k5000000gn/T//cc815vsF.s 			page 31


huart1
huart2
HAL_ADC_Start
HAL_ADC_Start_DMA
HAL_UART_Receive_DMA
hadc1
__aeabi_i2d
__aeabi_dmul
__aeabi_dsub
__aeabi_d2iz
HAL_UART_Transmit
