ARM GAS  /var/folders/5c/srt4fy4j1pd641bjfx75k5000000gn/T//ccCyP7bK.s 			page 1


   1              		.cpu cortex-m4
   2              		.arch armv7e-m
   3              		.fpu fpv4-sp-d16
   4              		.eabi_attribute 27, 1
   5              		.eabi_attribute 28, 1
   6              		.eabi_attribute 20, 1
   7              		.eabi_attribute 21, 1
   8              		.eabi_attribute 23, 3
   9              		.eabi_attribute 24, 1
  10              		.eabi_attribute 25, 1
  11              		.eabi_attribute 26, 1
  12              		.eabi_attribute 30, 1
  13              		.eabi_attribute 34, 1
  14              		.eabi_attribute 18, 4
  15              		.file	"robot.cpp"
  16              		.text
  17              	.Ltext0:
  18              		.cfi_sections	.debug_frame
  19              		.file 1 "src/unit/robot/robot.cpp"
  20              		.section	.text._ZN14BufferedSerial9availableEv,"axG",%progbits,_ZN14BufferedSerial9availableEv,com
  21              		.align	1
  22              		.weak	_ZN14BufferedSerial9availableEv
  23              		.syntax unified
  24              		.thumb
  25              		.thumb_func
  27              	_ZN14BufferedSerial9availableEv:
  28              		.fnstart
  29              	.LVL0:
  30              	.LFB247:
  31              		.file 2 "Lib/BufferedSerial/BufferedSerial.hpp"
   1:Lib/BufferedSerial/BufferedSerial.hpp **** #ifndef __BUFFERED_SERIAL__
   2:Lib/BufferedSerial/BufferedSerial.hpp **** #define __BUFFERED_SERIAL__
   3:Lib/BufferedSerial/BufferedSerial.hpp **** 
   4:Lib/BufferedSerial/BufferedSerial.hpp **** #include <stdio.h>
   5:Lib/BufferedSerial/BufferedSerial.hpp **** 
   6:Lib/BufferedSerial/BufferedSerial.hpp **** #include "usart.h"
   7:Lib/BufferedSerial/BufferedSerial.hpp **** 
   8:Lib/BufferedSerial/BufferedSerial.hpp **** #ifdef __cplusplus
   9:Lib/BufferedSerial/BufferedSerial.hpp **** 
  10:Lib/BufferedSerial/BufferedSerial.hpp **** /*
  11:Lib/BufferedSerial/BufferedSerial.hpp ****  Initの順番をDMAが先になるようにする
  12:Lib/BufferedSerial/BufferedSerial.hpp ****  - MX_DMA_Init();
  13:Lib/BufferedSerial/BufferedSerial.hpp ****  - MX_USART2_UART_Init();
  14:Lib/BufferedSerial/BufferedSerial.hpp ****  - DMAはCircularモードにする
  15:Lib/BufferedSerial/BufferedSerial.hpp **** */
  16:Lib/BufferedSerial/BufferedSerial.hpp **** 
  17:Lib/BufferedSerial/BufferedSerial.hpp **** class BufferedSerial {
  18:Lib/BufferedSerial/BufferedSerial.hpp ****      public:
  19:Lib/BufferedSerial/BufferedSerial.hpp ****       BufferedSerial(UART_HandleTypeDef *huart, uint16_t rxBufSize)
  20:Lib/BufferedSerial/BufferedSerial.hpp ****           : _huart(huart),
  21:Lib/BufferedSerial/BufferedSerial.hpp ****             _rxBuf(new uint8_t[rxBufSize]),
  22:Lib/BufferedSerial/BufferedSerial.hpp ****             rxTop(0),
  23:Lib/BufferedSerial/BufferedSerial.hpp ****             rxBtm(0),
  24:Lib/BufferedSerial/BufferedSerial.hpp ****             _rxBufSize(rxBufSize),
  25:Lib/BufferedSerial/BufferedSerial.hpp ****             _useDMA(false) {}
  26:Lib/BufferedSerial/BufferedSerial.hpp ****       ~BufferedSerial() {
  27:Lib/BufferedSerial/BufferedSerial.hpp ****             delete[] _rxBuf;
ARM GAS  /var/folders/5c/srt4fy4j1pd641bjfx75k5000000gn/T//ccCyP7bK.s 			page 2


  28:Lib/BufferedSerial/BufferedSerial.hpp ****       }
  29:Lib/BufferedSerial/BufferedSerial.hpp **** 
  30:Lib/BufferedSerial/BufferedSerial.hpp ****       void init(bool dma = false) {
  31:Lib/BufferedSerial/BufferedSerial.hpp ****             _useDMA = dma;
  32:Lib/BufferedSerial/BufferedSerial.hpp ****             HAL_UART_Receive_DMA(_huart, _rxBuf, _rxBufSize);
  33:Lib/BufferedSerial/BufferedSerial.hpp ****       }
  34:Lib/BufferedSerial/BufferedSerial.hpp **** 
  35:Lib/BufferedSerial/BufferedSerial.hpp ****       bool available() {
  32              		.loc 2 35 12 view -0
  33              		.cfi_startproc
  34              		@ args = 0, pretend = 0, frame = 0
  35              		@ frame_needed = 0, uses_anonymous_args = 0
  36              		.loc 2 35 12 is_stmt 0 view .LVU1
  37 0000 10B5     		push	{r4, lr}
  38              		.save {r4, lr}
  39              	.LCFI0:
  40              		.cfi_def_cfa_offset 8
  41              		.cfi_offset 4, -8
  42              		.cfi_offset 14, -4
  43 0002 0446     		mov	r4, r0
  36:Lib/BufferedSerial/BufferedSerial.hpp ****             if (__HAL_UART_GET_FLAG(_huart, UART_FLAG_ORE) || __HAL_UART_GET_FLAG(_huart, UART_FLAG
  44              		.loc 2 36 13 is_stmt 1 view .LVU2
  45              		.loc 2 36 17 is_stmt 0 view .LVU3
  46 0004 0068     		ldr	r0, [r0]
  47              	.LVL1:
  48              		.loc 2 36 17 view .LVU4
  49 0006 0368     		ldr	r3, [r0]
  50 0008 1A68     		ldr	r2, [r3]
  51              		.loc 2 36 150 view .LVU5
  52 000a 12F0080F 		tst	r2, #8
  53 000e 0BD1     		bne	.L2
  54              		.loc 2 36 63 discriminator 2 view .LVU6
  55 0010 1A68     		ldr	r2, [r3]
  56              		.loc 2 36 60 discriminator 2 view .LVU7
  57 0012 12F0040F 		tst	r2, #4
  58 0016 07D1     		bne	.L2
  59              		.loc 2 36 108 discriminator 4 view .LVU8
  60 0018 1A68     		ldr	r2, [r3]
  61              		.loc 2 36 105 discriminator 4 view .LVU9
  62 001a 12F0020F 		tst	r2, #2
  63 001e 03D1     		bne	.L2
  64              		.loc 2 36 153 discriminator 6 view .LVU10
  65 0020 1B68     		ldr	r3, [r3]
  66              		.loc 2 36 150 discriminator 6 view .LVU11
  67 0022 13F0010F 		tst	r3, #1
  68 0026 06D0     		beq	.L3
  69              	.L2:
  37:Lib/BufferedSerial/BufferedSerial.hpp ****                   HAL_UART_Abort(_huart);
  70              		.loc 2 37 19 is_stmt 1 view .LVU12
  71              		.loc 2 37 33 is_stmt 0 view .LVU13
  72 0028 FFF7FEFF 		bl	HAL_UART_Abort
  73              	.LVL2:
  38:Lib/BufferedSerial/BufferedSerial.hpp ****                   HAL_UART_Receive_DMA(_huart, _rxBuf, _rxBufSize);
  74              		.loc 2 38 19 is_stmt 1 view .LVU14
  75              		.loc 2 38 39 is_stmt 0 view .LVU15
  76 002c A289     		ldrh	r2, [r4, #12]
  77 002e 6168     		ldr	r1, [r4, #4]
ARM GAS  /var/folders/5c/srt4fy4j1pd641bjfx75k5000000gn/T//ccCyP7bK.s 			page 3


  78 0030 2068     		ldr	r0, [r4]
  79 0032 FFF7FEFF 		bl	HAL_UART_Receive_DMA
  80              	.LVL3:
  81              	.L3:
  39:Lib/BufferedSerial/BufferedSerial.hpp ****             }
  40:Lib/BufferedSerial/BufferedSerial.hpp ****             uint16_t rxTop = _rxBufSize - _huart->hdmarx->Instance->NDTR;
  82              		.loc 2 40 13 is_stmt 1 view .LVU16
  83              		.loc 2 40 30 is_stmt 0 view .LVU17
  84 0036 A389     		ldrh	r3, [r4, #12]
  85              		.loc 2 40 43 view .LVU18
  86 0038 2268     		ldr	r2, [r4]
  87              		.loc 2 40 51 view .LVU19
  88 003a D26B     		ldr	r2, [r2, #60]
  89              		.loc 2 40 59 view .LVU20
  90 003c 1268     		ldr	r2, [r2]
  91              		.loc 2 40 69 view .LVU21
  92 003e 5268     		ldr	r2, [r2, #4]
  93              		.loc 2 40 41 view .LVU22
  94 0040 92B2     		uxth	r2, r2
  95              		.loc 2 40 69 view .LVU23
  96 0042 9B1A     		subs	r3, r3, r2
  97 0044 9BB2     		uxth	r3, r3
  98              	.LVL4:
  41:Lib/BufferedSerial/BufferedSerial.hpp ****             return rxTop != rxBtm;
  99              		.loc 2 41 13 is_stmt 1 view .LVU24
 100              		.loc 2 41 29 is_stmt 0 view .LVU25
 101 0046 6089     		ldrh	r0, [r4, #10]
  42:Lib/BufferedSerial/BufferedSerial.hpp ****       }
 102              		.loc 2 42 7 view .LVU26
 103 0048 C01A     		subs	r0, r0, r3
 104 004a 18BF     		it	ne
 105 004c 0120     		movne	r0, #1
 106 004e 10BD     		pop	{r4, pc}
 107              		.loc 2 42 7 view .LVU27
 108              		.cfi_endproc
 109              	.LFE247:
 110              		.fnend
 112              		.section	.text._ZN14BufferedSerial4readEv,"axG",%progbits,_ZN14BufferedSerial4readEv,comdat
 113              		.align	1
 114              		.weak	_ZN14BufferedSerial4readEv
 115              		.syntax unified
 116              		.thumb
 117              		.thumb_func
 119              	_ZN14BufferedSerial4readEv:
 120              		.fnstart
 121              	.LVL5:
 122              	.LFB248:
  43:Lib/BufferedSerial/BufferedSerial.hpp **** 
  44:Lib/BufferedSerial/BufferedSerial.hpp ****       uint8_t read() {
 123              		.loc 2 44 15 is_stmt 1 view -0
 124              		.cfi_startproc
 125              		@ args = 0, pretend = 0, frame = 0
 126              		@ frame_needed = 0, uses_anonymous_args = 0
 127              		@ link register save eliminated.
 128              		.loc 2 44 15 is_stmt 0 view .LVU29
 129 0000 0246     		mov	r2, r0
  45:Lib/BufferedSerial/BufferedSerial.hpp ****             uint16_t rxTop = _rxBufSize - _huart->hdmarx->Instance->NDTR;
ARM GAS  /var/folders/5c/srt4fy4j1pd641bjfx75k5000000gn/T//ccCyP7bK.s 			page 4


 130              		.loc 2 45 13 is_stmt 1 view .LVU30
 131              		.loc 2 45 30 is_stmt 0 view .LVU31
 132 0002 B0F80CC0 		ldrh	ip, [r0, #12]
 133              		.loc 2 45 43 view .LVU32
 134 0006 0368     		ldr	r3, [r0]
 135              		.loc 2 45 51 view .LVU33
 136 0008 DB6B     		ldr	r3, [r3, #60]
 137              		.loc 2 45 59 view .LVU34
 138 000a 1B68     		ldr	r3, [r3]
 139              		.loc 2 45 69 view .LVU35
 140 000c 5B68     		ldr	r3, [r3, #4]
 141              		.loc 2 45 41 view .LVU36
 142 000e 9BB2     		uxth	r3, r3
 143              		.loc 2 45 69 view .LVU37
 144 0010 ACEB0303 		sub	r3, ip, r3
 145 0014 9BB2     		uxth	r3, r3
 146              	.LVL6:
  46:Lib/BufferedSerial/BufferedSerial.hpp ****             if (rxTop == rxBtm) {
 147              		.loc 2 46 13 is_stmt 1 view .LVU38
 148              		.loc 2 46 26 is_stmt 0 view .LVU39
 149 0016 4189     		ldrh	r1, [r0, #10]
 150              		.loc 2 46 13 view .LVU40
 151 0018 9942     		cmp	r1, r3
 152 001a 08D0     		beq	.L7
  47:Lib/BufferedSerial/BufferedSerial.hpp ****                   return 0;
  48:Lib/BufferedSerial/BufferedSerial.hpp ****             }
  49:Lib/BufferedSerial/BufferedSerial.hpp ****             uint8_t data = _rxBuf[rxBtm];
 153              		.loc 2 49 13 is_stmt 1 view .LVU41
 154              		.loc 2 49 28 is_stmt 0 view .LVU42
 155 001c 4368     		ldr	r3, [r0, #4]
 156              	.LVL7:
 157              		.loc 2 49 21 view .LVU43
 158 001e 585C     		ldrb	r0, [r3, r1]	@ zero_extendqisi2
 159              	.LVL8:
  50:Lib/BufferedSerial/BufferedSerial.hpp ****             rxBtm = (rxBtm + 1) % _rxBufSize;
 160              		.loc 2 50 13 is_stmt 1 view .LVU44
 161              		.loc 2 50 28 is_stmt 0 view .LVU45
 162 0020 0131     		adds	r1, r1, #1
 163              		.loc 2 50 33 view .LVU46
 164 0022 91FBFCF3 		sdiv	r3, r1, ip
 165 0026 0CFB1311 		mls	r1, ip, r3, r1
 166              		.loc 2 50 19 view .LVU47
 167 002a 5181     		strh	r1, [r2, #10]	@ movhi
  51:Lib/BufferedSerial/BufferedSerial.hpp ****             return data;
 168              		.loc 2 51 13 is_stmt 1 view .LVU48
 169              		.loc 2 51 20 is_stmt 0 view .LVU49
 170 002c 7047     		bx	lr
 171              	.LVL9:
 172              	.L7:
  47:Lib/BufferedSerial/BufferedSerial.hpp ****                   return 0;
 173              		.loc 2 47 26 view .LVU50
 174 002e 0020     		movs	r0, #0
 175              	.LVL10:
  52:Lib/BufferedSerial/BufferedSerial.hpp ****       }
 176              		.loc 2 52 7 view .LVU51
 177 0030 7047     		bx	lr
 178              		.cfi_endproc
ARM GAS  /var/folders/5c/srt4fy4j1pd641bjfx75k5000000gn/T//ccCyP7bK.s 			page 5


 179              	.LFE248:
 180              		.cantunwind
 181              		.fnend
 183              		.section	.text._ZN12PwmSingleOut4initEv,"axG",%progbits,_ZN12PwmSingleOut4initEv,comdat
 184              		.align	1
 185              		.weak	_ZN12PwmSingleOut4initEv
 186              		.syntax unified
 187              		.thumb
 188              		.thumb_func
 190              	_ZN12PwmSingleOut4initEv:
 191              		.fnstart
 192              	.LVL11:
 193              	.LFB267:
 194              		.file 3 "Lib/PWMSingle/PWMSingle.hpp"
   1:Lib/PWMSingle/PWMSingle.hpp **** #ifndef __PWMSINGLE__
   2:Lib/PWMSingle/PWMSingle.hpp **** #define __PWMSINGLE__
   3:Lib/PWMSingle/PWMSingle.hpp **** 
   4:Lib/PWMSingle/PWMSingle.hpp **** #include "MyMath.hpp"
   5:Lib/PWMSingle/PWMSingle.hpp **** #include "tim.h"
   6:Lib/PWMSingle/PWMSingle.hpp **** 
   7:Lib/PWMSingle/PWMSingle.hpp **** #ifdef __cplusplus
   8:Lib/PWMSingle/PWMSingle.hpp **** extern "C" {
   9:Lib/PWMSingle/PWMSingle.hpp **** 
  10:Lib/PWMSingle/PWMSingle.hpp **** class PwmSingleOut {
  11:Lib/PWMSingle/PWMSingle.hpp ****      public:
  12:Lib/PWMSingle/PWMSingle.hpp ****       PwmSingleOut(TIM_HandleTypeDef *htim, uint32_t channel)
  13:Lib/PWMSingle/PWMSingle.hpp ****           : _htim(htim), _channel(channel), _maxValue(_htim->Init.Period) {
  14:Lib/PWMSingle/PWMSingle.hpp ****       }
  15:Lib/PWMSingle/PWMSingle.hpp **** 
  16:Lib/PWMSingle/PWMSingle.hpp ****       void init() {
 195              		.loc 3 16 12 is_stmt 1 view -0
 196              		.cfi_startproc
 197              		@ args = 0, pretend = 0, frame = 0
 198              		@ frame_needed = 0, uses_anonymous_args = 0
 199              		.loc 3 16 12 is_stmt 0 view .LVU53
 200 0000 10B5     		push	{r4, lr}
 201              		.save {r4, lr}
 202              	.LCFI1:
 203              		.cfi_def_cfa_offset 8
 204              		.cfi_offset 4, -8
 205              		.cfi_offset 14, -4
 206 0002 0446     		mov	r4, r0
  17:Lib/PWMSingle/PWMSingle.hpp ****             HAL_TIM_PWM_Start(_htim, _channel);
 207              		.loc 3 17 13 is_stmt 1 view .LVU54
 208              		.loc 3 17 30 is_stmt 0 view .LVU55
 209 0004 4168     		ldr	r1, [r0, #4]
 210 0006 0068     		ldr	r0, [r0]
 211              	.LVL12:
 212              		.loc 3 17 30 view .LVU56
 213 0008 FFF7FEFF 		bl	HAL_TIM_PWM_Start
 214              	.LVL13:
  18:Lib/PWMSingle/PWMSingle.hpp ****             _maxValue = _htim->Init.Period;
 215              		.loc 3 18 13 is_stmt 1 view .LVU57
 216              		.loc 3 18 25 is_stmt 0 view .LVU58
 217 000c 2368     		ldr	r3, [r4]
 218              		.loc 3 18 37 view .LVU59
 219 000e DB68     		ldr	r3, [r3, #12]
ARM GAS  /var/folders/5c/srt4fy4j1pd641bjfx75k5000000gn/T//ccCyP7bK.s 			page 6


 220              		.loc 3 18 23 view .LVU60
 221 0010 A360     		str	r3, [r4, #8]
  19:Lib/PWMSingle/PWMSingle.hpp ****       }
 222              		.loc 3 19 7 view .LVU61
 223 0012 10BD     		pop	{r4, pc}
 224              		.loc 3 19 7 view .LVU62
 225              		.cfi_endproc
 226              	.LFE267:
 227              		.fnend
 229              		.section	.text._ZN5RobotC2Ev,"ax",%progbits
 230              		.align	1
 231              		.global	_ZN5RobotC2Ev
 232              		.syntax unified
 233              		.thumb
 234              		.thumb_func
 236              	_ZN5RobotC2Ev:
 237              		.fnstart
 238              	.LVL14:
 239              	.LFB288:
   1:src/unit/robot/robot.cpp **** #include "robot.hpp"
   2:src/unit/robot/robot.cpp **** 
   3:src/unit/robot/robot.cpp **** uint16_t adc_get_val[3];
   4:src/unit/robot/robot.cpp **** 
   5:src/unit/robot/robot.cpp **** Robot::Robot() {
 240              		.loc 1 5 1 is_stmt 1 view -0
 241              		.cfi_startproc
 242              		@ args = 0, pretend = 0, frame = 0
 243              		@ frame_needed = 0, uses_anonymous_args = 0
 244              		.loc 1 5 1 is_stmt 0 view .LVU64
 245 0000 F0B5     		push	{r4, r5, r6, r7, lr}
 246              		.save {r4, r5, r6, r7, lr}
 247              	.LCFI2:
 248              		.cfi_def_cfa_offset 20
 249              		.cfi_offset 4, -20
 250              		.cfi_offset 5, -16
 251              		.cfi_offset 6, -12
 252              		.cfi_offset 7, -8
 253              		.cfi_offset 14, -4
 254              		.pad #36
 255 0002 89B0     		sub	sp, sp, #36
 256              	.LCFI3:
 257              		.cfi_def_cfa_offset 56
 258 0004 0446     		mov	r4, r0
 259              	.LVL15:
 260              	.LBB148:
 261              	.LBB149:
 262              	.LBI149:
 263              		.file 4 "src/unit/robot/robot.hpp"
   1:src/unit/robot/robot.hpp **** #ifndef __ROBOT__
   2:src/unit/robot/robot.hpp **** #define __ROBOT__
   3:src/unit/robot/robot.hpp **** 
   4:src/unit/robot/robot.hpp **** #include "BufferedSerial.hpp"
   5:src/unit/robot/robot.hpp **** #include "DigitalInOut.hpp"
   6:src/unit/robot/robot.hpp **** #include "MovingAve.hpp"
   7:src/unit/robot/robot.hpp **** #include "PWMSingle.hpp"
   8:src/unit/robot/robot.hpp **** #include "Timer.hpp"
   9:src/unit/robot/robot.hpp **** #include "adc.h"
ARM GAS  /var/folders/5c/srt4fy4j1pd641bjfx75k5000000gn/T//ccCyP7bK.s 			page 7


  10:src/unit/robot/robot.hpp **** #include "config.h"
  11:src/unit/robot/robot.hpp **** #include "dribbler_drive.hpp"
  12:src/unit/robot/robot.hpp **** #include "kicker.hpp"
  13:src/unit/robot/robot.hpp **** #include "main.h"
  14:src/unit/robot/robot.hpp **** #include "motor_drive.hpp"
  15:src/unit/robot/robot.hpp **** 
  16:src/unit/robot/robot.hpp **** #define VOLTAGE_CONVERTION 0.01298828125
  17:src/unit/robot/robot.hpp **** 
  18:src/unit/robot/robot.hpp **** typedef struct {
  19:src/unit/robot/robot.hpp ****       float voltage;
  20:src/unit/robot/robot.hpp ****       uint8_t motor_rps[4];
  21:src/unit/robot/robot.hpp **** 
  22:src/unit/robot/robot.hpp ****       uint8_t mode;
  23:src/unit/robot/robot.hpp **** 
  24:src/unit/robot/robot.hpp ****       float moving_speed, line_moving_speed;
  25:src/unit/robot/robot.hpp ****       struct {
  26:src/unit/robot/robot.hpp ****             bool is_initialized = 0;
  27:src/unit/robot/robot.hpp **** 
  28:src/unit/robot/robot.hpp ****             uint8_t interval;
  29:src/unit/robot/robot.hpp ****             uint8_t depth;
  30:src/unit/robot/robot.hpp ****             bool is_on_line;
  31:src/unit/robot/robot.hpp ****             bool is_leftside;
  32:src/unit/robot/robot.hpp ****             bool is_rightside;
  33:src/unit/robot/robot.hpp ****             int16_t dir;
  34:src/unit/robot/robot.hpp ****             int16_t inside_dir;
  35:src/unit/robot/robot.hpp **** 
  36:src/unit/robot/robot.hpp ****             bool on_led;
  37:src/unit/robot/robot.hpp ****       } Line;
  38:src/unit/robot/robot.hpp ****       struct {
  39:src/unit/robot/robot.hpp ****             uint16_t front_val;
  40:src/unit/robot/robot.hpp ****             bool is_front;
  41:src/unit/robot/robot.hpp ****             uint16_t back_val;
  42:src/unit/robot/robot.hpp ****             bool is_back;
  43:src/unit/robot/robot.hpp ****       } Catch;
  44:src/unit/robot/robot.hpp ****       struct {
  45:src/unit/robot/robot.hpp ****             bool is_initialized = 0;
  46:src/unit/robot/robot.hpp **** 
  47:src/unit/robot/robot.hpp ****             int16_t yaw;
  48:src/unit/robot/robot.hpp ****             int16_t pitch;
  49:src/unit/robot/robot.hpp ****             int16_t roll;
  50:src/unit/robot/robot.hpp ****       } Imu;
  51:src/unit/robot/robot.hpp **** 
  52:src/unit/robot/robot.hpp ****       struct {
  53:src/unit/robot/robot.hpp ****             bool set_yaw_zero;
  54:src/unit/robot/robot.hpp ****             uint8_t dribbler_sig;
  55:src/unit/robot/robot.hpp ****       } Ui;
  56:src/unit/robot/robot.hpp **** 
  57:src/unit/robot/robot.hpp ****       struct {
  58:src/unit/robot/robot.hpp ****             bool is_initialized = 0;
  59:src/unit/robot/robot.hpp **** 
  60:src/unit/robot/robot.hpp ****             int16_t ball_dir;
  61:src/unit/robot/robot.hpp ****             int16_t ball_dis;
  62:src/unit/robot/robot.hpp ****             int16_t yellow_goal_dir;
  63:src/unit/robot/robot.hpp ****             int16_t yellow_goal_height;
  64:src/unit/robot/robot.hpp ****             int16_t blue_goal_dir;
  65:src/unit/robot/robot.hpp ****             int16_t blue_goal_height;
  66:src/unit/robot/robot.hpp ****             int8_t own_x;
ARM GAS  /var/folders/5c/srt4fy4j1pd641bjfx75k5000000gn/T//ccCyP7bK.s 			page 8


  67:src/unit/robot/robot.hpp ****             int8_t own_y;
  68:src/unit/robot/robot.hpp ****             int16_t center_dir;
  69:src/unit/robot/robot.hpp ****             int16_t center_dis;
  70:src/unit/robot/robot.hpp **** 
  71:src/unit/robot/robot.hpp ****             bool is_goal_front;
  72:src/unit/robot/robot.hpp ****             uint8_t proximity[4];
  73:src/unit/robot/robot.hpp ****       } Cam;
  74:src/unit/robot/robot.hpp **** 
  75:src/unit/robot/robot.hpp ****       struct {
  76:src/unit/robot/robot.hpp ****             bool is_initialized = 0;
  77:src/unit/robot/robot.hpp ****             bool is_connected = 0;
  78:src/unit/robot/robot.hpp ****             bool is_moving = 0;
  79:src/unit/robot/robot.hpp ****             bool is_catching_ball = 0;
  80:src/unit/robot/robot.hpp ****       } Bluetooth;
  81:src/unit/robot/robot.hpp **** 
  82:src/unit/robot/robot.hpp **** } RobotInfo;
 264              		.loc 4 82 3 is_stmt 1 view .LVU65
 265              	.LBB150:
 266              	.LBI150:
  25:src/unit/robot/robot.hpp ****             bool is_initialized = 0;
 267              		.loc 4 25 14 view .LVU66
 268              	.LBB151:
 269 0006 0025     		movs	r5, #0
 270 0008 0575     		strb	r5, [r0, #20]
 271              	.LVL16:
  25:src/unit/robot/robot.hpp ****             bool is_initialized = 0;
 272              		.loc 4 25 14 is_stmt 0 view .LVU67
 273              	.LBE151:
 274              	.LBE150:
 275              	.LBB152:
 276              	.LBI152:
  44:src/unit/robot/robot.hpp ****             bool is_initialized = 0;
 277              		.loc 4 44 14 is_stmt 1 view .LVU68
 278              	.LBB153:
 279 000a 80F82850 		strb	r5, [r0, #40]
 280              	.LVL17:
  44:src/unit/robot/robot.hpp ****             bool is_initialized = 0;
 281              		.loc 4 44 14 is_stmt 0 view .LVU69
 282              	.LBE153:
 283              	.LBE152:
 284              	.LBB154:
 285              	.LBI154:
  57:src/unit/robot/robot.hpp ****             bool is_initialized = 0;
 286              		.loc 4 57 14 is_stmt 1 view .LVU70
 287              	.LBB155:
 288 000e 80F83250 		strb	r5, [r0, #50]
 289              	.LVL18:
  57:src/unit/robot/robot.hpp ****             bool is_initialized = 0;
 290              		.loc 4 57 14 is_stmt 0 view .LVU71
 291              	.LBE155:
 292              	.LBE154:
 293              	.LBB156:
 294              	.LBI156:
  75:src/unit/robot/robot.hpp ****             bool is_initialized = 0;
 295              		.loc 4 75 14 is_stmt 1 view .LVU72
 296              	.LBB157:
 297 0012 80F84C50 		strb	r5, [r0, #76]
ARM GAS  /var/folders/5c/srt4fy4j1pd641bjfx75k5000000gn/T//ccCyP7bK.s 			page 9


 298 0016 80F84D50 		strb	r5, [r0, #77]
 299 001a 80F84E50 		strb	r5, [r0, #78]
 300 001e 80F84F50 		strb	r5, [r0, #79]
 301              	.LVL19:
  75:src/unit/robot/robot.hpp ****             bool is_initialized = 0;
 302              		.loc 4 75 14 is_stmt 0 view .LVU73
 303              	.LBE157:
 304              	.LBE156:
 305              	.LBE149:
 306              	.LBB158:
 307              	.LBI158:
 308              		.file 5 "Lib/DigitalInOut/DigitalInOut.hpp"
   1:Lib/DigitalInOut/DigitalInOut.hpp **** #ifndef __DigitalInOut__
   2:Lib/DigitalInOut/DigitalInOut.hpp **** #define __DigitalInOut__
   3:Lib/DigitalInOut/DigitalInOut.hpp **** 
   4:Lib/DigitalInOut/DigitalInOut.hpp **** #include "main.h"
   5:Lib/DigitalInOut/DigitalInOut.hpp **** 
   6:Lib/DigitalInOut/DigitalInOut.hpp **** #ifdef __cplusplus
   7:Lib/DigitalInOut/DigitalInOut.hpp **** 
   8:Lib/DigitalInOut/DigitalInOut.hpp **** extern "C" {
   9:Lib/DigitalInOut/DigitalInOut.hpp **** 
  10:Lib/DigitalInOut/DigitalInOut.hpp **** class DigitalOut {
  11:Lib/DigitalInOut/DigitalInOut.hpp ****   public:
  12:Lib/DigitalInOut/DigitalInOut.hpp ****     DigitalOut(GPIO_TypeDef *port, uint16_t pin) : port(port), pin(pin) {
 309              		.loc 5 12 5 is_stmt 1 view .LVU74
 310              	.LBB159:
 311              		.loc 5 12 52 is_stmt 0 view .LVU75
 312 0022 9748     		ldr	r0, .L26
 313              	.LVL20:
 314              		.loc 5 12 52 view .LVU76
 315 0024 2065     		str	r0, [r4, #80]
 316              		.loc 5 12 64 view .LVU77
 317 0026 2021     		movs	r1, #32
 318 0028 A4F85410 		strh	r1, [r4, #84]	@ movhi
  13:Lib/DigitalInOut/DigitalInOut.hpp ****         HAL_GPIO_WritePin(port, pin, GPIO_PIN_RESET);
 319              		.loc 5 13 9 is_stmt 1 view .LVU78
 320              		.loc 5 13 26 is_stmt 0 view .LVU79
 321 002c 2A46     		mov	r2, r5
 322              	.LEHB0:
 323 002e FFF7FEFF 		bl	HAL_GPIO_WritePin
 324              	.LVL21:
 325              		.loc 5 13 26 view .LVU80
 326              	.LBE159:
 327              	.LBE158:
 328              	.LBB160:
 329              	.LBI160:
  12:Lib/PWMSingle/PWMSingle.hpp ****           : _htim(htim), _channel(channel), _maxValue(_htim->Init.Period) {
 330              		.loc 3 12 7 is_stmt 1 view .LVU81
 331              	.LBB161:
  13:Lib/PWMSingle/PWMSingle.hpp ****       }
 332              		.loc 3 13 13 is_stmt 0 view .LVU82
 333 0032 944B     		ldr	r3, .L26+4
 334 0034 A365     		str	r3, [r4, #88]
  13:Lib/PWMSingle/PWMSingle.hpp ****       }
 335              		.loc 3 13 26 view .LVU83
 336 0036 E565     		str	r5, [r4, #92]
  13:Lib/PWMSingle/PWMSingle.hpp ****       }
ARM GAS  /var/folders/5c/srt4fy4j1pd641bjfx75k5000000gn/T//ccCyP7bK.s 			page 10


 337              		.loc 3 13 67 view .LVU84
 338 0038 DB68     		ldr	r3, [r3, #12]
  13:Lib/PWMSingle/PWMSingle.hpp ****       }
 339              		.loc 3 13 45 view .LVU85
 340 003a 2366     		str	r3, [r4, #96]
 341              	.LVL22:
  13:Lib/PWMSingle/PWMSingle.hpp ****       }
 342              		.loc 3 13 45 view .LVU86
 343              	.LBE161:
 344              	.LBE160:
 345              	.LBB162:
 346              	.LBI162:
  12:Lib/PWMSingle/PWMSingle.hpp ****           : _htim(htim), _channel(channel), _maxValue(_htim->Init.Period) {
 347              		.loc 3 12 7 is_stmt 1 view .LVU87
 348              	.LBB163:
  13:Lib/PWMSingle/PWMSingle.hpp ****       }
 349              		.loc 3 13 13 is_stmt 0 view .LVU88
 350 003c 924B     		ldr	r3, .L26+8
 351 003e A366     		str	r3, [r4, #104]
  13:Lib/PWMSingle/PWMSingle.hpp ****       }
 352              		.loc 3 13 26 view .LVU89
 353 0040 0420     		movs	r0, #4
 354 0042 E066     		str	r0, [r4, #108]
  13:Lib/PWMSingle/PWMSingle.hpp ****       }
 355              		.loc 3 13 67 view .LVU90
 356 0044 DA68     		ldr	r2, [r3, #12]
  13:Lib/PWMSingle/PWMSingle.hpp ****       }
 357              		.loc 3 13 45 view .LVU91
 358 0046 2267     		str	r2, [r4, #112]
 359              	.LVL23:
  13:Lib/PWMSingle/PWMSingle.hpp ****       }
 360              		.loc 3 13 45 view .LVU92
 361              	.LBE163:
 362              	.LBE162:
 363              	.LBB164:
 364              	.LBI164:
  12:Lib/PWMSingle/PWMSingle.hpp ****           : _htim(htim), _channel(channel), _maxValue(_htim->Init.Period) {
 365              		.loc 3 12 7 is_stmt 1 view .LVU93
 366              	.LBB165:
  13:Lib/PWMSingle/PWMSingle.hpp ****       }
 367              		.loc 3 13 13 is_stmt 0 view .LVU94
 368 0048 A367     		str	r3, [r4, #120]
  13:Lib/PWMSingle/PWMSingle.hpp ****       }
 369              		.loc 3 13 26 view .LVU95
 370 004a E567     		str	r5, [r4, #124]
  13:Lib/PWMSingle/PWMSingle.hpp ****       }
 371              		.loc 3 13 45 view .LVU96
 372 004c C4F88020 		str	r2, [r4, #128]
 373              	.LVL24:
  13:Lib/PWMSingle/PWMSingle.hpp ****       }
 374              		.loc 3 13 45 view .LVU97
 375              	.LBE165:
 376              	.LBE164:
 377              	.LBB166:
 378              	.LBI166:
  12:Lib/PWMSingle/PWMSingle.hpp ****           : _htim(htim), _channel(channel), _maxValue(_htim->Init.Period) {
 379              		.loc 3 12 7 is_stmt 1 view .LVU98
ARM GAS  /var/folders/5c/srt4fy4j1pd641bjfx75k5000000gn/T//ccCyP7bK.s 			page 11


 380              	.LBB167:
  13:Lib/PWMSingle/PWMSingle.hpp ****       }
 381              		.loc 3 13 13 is_stmt 0 view .LVU99
 382 0050 8E4B     		ldr	r3, .L26+12
 383 0052 C4F88830 		str	r3, [r4, #136]
  13:Lib/PWMSingle/PWMSingle.hpp ****       }
 384              		.loc 3 13 26 view .LVU100
 385 0056 4FF0080C 		mov	ip, #8
 386 005a C4F88CC0 		str	ip, [r4, #140]
  13:Lib/PWMSingle/PWMSingle.hpp ****       }
 387              		.loc 3 13 67 view .LVU101
 388 005e D968     		ldr	r1, [r3, #12]
  13:Lib/PWMSingle/PWMSingle.hpp ****       }
 389              		.loc 3 13 45 view .LVU102
 390 0060 C4F89010 		str	r1, [r4, #144]
 391              	.LVL25:
  13:Lib/PWMSingle/PWMSingle.hpp ****       }
 392              		.loc 3 13 45 view .LVU103
 393              	.LBE167:
 394              	.LBE166:
 395              	.LBB168:
 396              	.LBI168:
  12:Lib/PWMSingle/PWMSingle.hpp ****           : _htim(htim), _channel(channel), _maxValue(_htim->Init.Period) {
 397              		.loc 3 12 7 is_stmt 1 view .LVU104
 398              	.LBB169:
  13:Lib/PWMSingle/PWMSingle.hpp ****       }
 399              		.loc 3 13 13 is_stmt 0 view .LVU105
 400 0064 C4F89830 		str	r3, [r4, #152]
  13:Lib/PWMSingle/PWMSingle.hpp ****       }
 401              		.loc 3 13 26 view .LVU106
 402 0068 0C27     		movs	r7, #12
 403 006a C4F89C70 		str	r7, [r4, #156]
  13:Lib/PWMSingle/PWMSingle.hpp ****       }
 404              		.loc 3 13 45 view .LVU107
 405 006e C4F8A010 		str	r1, [r4, #160]
 406              	.LVL26:
  13:Lib/PWMSingle/PWMSingle.hpp ****       }
 407              		.loc 3 13 45 view .LVU108
 408              	.LBE169:
 409              	.LBE168:
 410              	.LBB170:
 411              	.LBI170:
  12:Lib/PWMSingle/PWMSingle.hpp ****           : _htim(htim), _channel(channel), _maxValue(_htim->Init.Period) {
 412              		.loc 3 12 7 is_stmt 1 view .LVU109
 413              	.LBB171:
  13:Lib/PWMSingle/PWMSingle.hpp ****       }
 414              		.loc 3 13 13 is_stmt 0 view .LVU110
 415 0072 874A     		ldr	r2, .L26+16
 416 0074 C4F8A820 		str	r2, [r4, #168]
  13:Lib/PWMSingle/PWMSingle.hpp ****       }
 417              		.loc 3 13 26 view .LVU111
 418 0078 C4F8AC00 		str	r0, [r4, #172]
  13:Lib/PWMSingle/PWMSingle.hpp ****       }
 419              		.loc 3 13 67 view .LVU112
 420 007c D668     		ldr	r6, [r2, #12]
  13:Lib/PWMSingle/PWMSingle.hpp ****       }
 421              		.loc 3 13 45 view .LVU113
ARM GAS  /var/folders/5c/srt4fy4j1pd641bjfx75k5000000gn/T//ccCyP7bK.s 			page 12


 422 007e C4F8B060 		str	r6, [r4, #176]
 423              	.LVL27:
  13:Lib/PWMSingle/PWMSingle.hpp ****       }
 424              		.loc 3 13 45 view .LVU114
 425              	.LBE171:
 426              	.LBE170:
 427              	.LBB172:
 428              	.LBI172:
  12:Lib/PWMSingle/PWMSingle.hpp ****           : _htim(htim), _channel(channel), _maxValue(_htim->Init.Period) {
 429              		.loc 3 12 7 is_stmt 1 view .LVU115
 430              	.LBB173:
  13:Lib/PWMSingle/PWMSingle.hpp ****       }
 431              		.loc 3 13 13 is_stmt 0 view .LVU116
 432 0082 C4F8B830 		str	r3, [r4, #184]
  13:Lib/PWMSingle/PWMSingle.hpp ****       }
 433              		.loc 3 13 26 view .LVU117
 434 0086 C4F8BC00 		str	r0, [r4, #188]
  13:Lib/PWMSingle/PWMSingle.hpp ****       }
 435              		.loc 3 13 45 view .LVU118
 436 008a C4F8C010 		str	r1, [r4, #192]
 437              	.LVL28:
  13:Lib/PWMSingle/PWMSingle.hpp ****       }
 438              		.loc 3 13 45 view .LVU119
 439              	.LBE173:
 440              	.LBE172:
 441              	.LBB174:
 442              	.LBI174:
  12:Lib/PWMSingle/PWMSingle.hpp ****           : _htim(htim), _channel(channel), _maxValue(_htim->Init.Period) {
 443              		.loc 3 12 7 is_stmt 1 view .LVU120
 444              	.LBB175:
  13:Lib/PWMSingle/PWMSingle.hpp ****       }
 445              		.loc 3 13 13 is_stmt 0 view .LVU121
 446 008e C4F8C820 		str	r2, [r4, #200]
  13:Lib/PWMSingle/PWMSingle.hpp ****       }
 447              		.loc 3 13 26 view .LVU122
 448 0092 C4F8CC50 		str	r5, [r4, #204]
  13:Lib/PWMSingle/PWMSingle.hpp ****       }
 449              		.loc 3 13 45 view .LVU123
 450 0096 C4F8D060 		str	r6, [r4, #208]
 451              	.LVL29:
  13:Lib/PWMSingle/PWMSingle.hpp ****       }
 452              		.loc 3 13 45 view .LVU124
 453              	.LBE175:
 454              	.LBE174:
 455              	.LBB176:
 456              	.LBI176:
  12:Lib/PWMSingle/PWMSingle.hpp ****           : _htim(htim), _channel(channel), _maxValue(_htim->Init.Period) {
 457              		.loc 3 12 7 is_stmt 1 view .LVU125
 458              	.LBB177:
  13:Lib/PWMSingle/PWMSingle.hpp ****       }
 459              		.loc 3 13 13 is_stmt 0 view .LVU126
 460 009a C4F8D820 		str	r2, [r4, #216]
  13:Lib/PWMSingle/PWMSingle.hpp ****       }
 461              		.loc 3 13 26 view .LVU127
 462 009e C4F8DCC0 		str	ip, [r4, #220]
  13:Lib/PWMSingle/PWMSingle.hpp ****       }
 463              		.loc 3 13 45 view .LVU128
ARM GAS  /var/folders/5c/srt4fy4j1pd641bjfx75k5000000gn/T//ccCyP7bK.s 			page 13


 464 00a2 C4F8E060 		str	r6, [r4, #224]
 465              	.LVL30:
  13:Lib/PWMSingle/PWMSingle.hpp ****       }
 466              		.loc 3 13 45 view .LVU129
 467              	.LBE177:
 468              	.LBE176:
 469              	.LBB178:
 470              	.LBI178:
  12:Lib/PWMSingle/PWMSingle.hpp ****           : _htim(htim), _channel(channel), _maxValue(_htim->Init.Period) {
 471              		.loc 3 12 7 is_stmt 1 view .LVU130
 472              	.LBB179:
  13:Lib/PWMSingle/PWMSingle.hpp ****       }
 473              		.loc 3 13 13 is_stmt 0 view .LVU131
 474 00a6 7B4A     		ldr	r2, .L26+20
 475 00a8 C4F8E820 		str	r2, [r4, #232]
  13:Lib/PWMSingle/PWMSingle.hpp ****       }
 476              		.loc 3 13 26 view .LVU132
 477 00ac C4F8EC50 		str	r5, [r4, #236]
  13:Lib/PWMSingle/PWMSingle.hpp ****       }
 478              		.loc 3 13 67 view .LVU133
 479 00b0 D668     		ldr	r6, [r2, #12]
  13:Lib/PWMSingle/PWMSingle.hpp ****       }
 480              		.loc 3 13 45 view .LVU134
 481 00b2 C4F8F060 		str	r6, [r4, #240]
 482              	.LVL31:
  13:Lib/PWMSingle/PWMSingle.hpp ****       }
 483              		.loc 3 13 45 view .LVU135
 484              	.LBE179:
 485              	.LBE178:
 486              	.LBB180:
 487              	.LBI180:
  12:Lib/PWMSingle/PWMSingle.hpp ****           : _htim(htim), _channel(channel), _maxValue(_htim->Init.Period) {
 488              		.loc 3 12 7 is_stmt 1 view .LVU136
 489              	.LBB181:
  13:Lib/PWMSingle/PWMSingle.hpp ****       }
 490              		.loc 3 13 13 is_stmt 0 view .LVU137
 491 00b6 C4F8F820 		str	r2, [r4, #248]
  13:Lib/PWMSingle/PWMSingle.hpp ****       }
 492              		.loc 3 13 26 view .LVU138
 493 00ba C4F8FC00 		str	r0, [r4, #252]
  13:Lib/PWMSingle/PWMSingle.hpp ****       }
 494              		.loc 3 13 45 view .LVU139
 495 00be C4F80061 		str	r6, [r4, #256]
 496              	.LVL32:
  13:Lib/PWMSingle/PWMSingle.hpp ****       }
 497              		.loc 3 13 45 view .LVU140
 498              	.LBE181:
 499              	.LBE180:
 500              	.LBB182:
 501              	.LBI182:
  12:Lib/PWMSingle/PWMSingle.hpp ****           : _htim(htim), _channel(channel), _maxValue(_htim->Init.Period) {
 502              		.loc 3 12 7 is_stmt 1 view .LVU141
 503              	.LBB183:
  13:Lib/PWMSingle/PWMSingle.hpp ****       }
 504              		.loc 3 13 13 is_stmt 0 view .LVU142
 505 00c2 C4F80831 		str	r3, [r4, #264]
  13:Lib/PWMSingle/PWMSingle.hpp ****       }
ARM GAS  /var/folders/5c/srt4fy4j1pd641bjfx75k5000000gn/T//ccCyP7bK.s 			page 14


 506              		.loc 3 13 26 view .LVU143
 507 00c6 C4F80C51 		str	r5, [r4, #268]
  13:Lib/PWMSingle/PWMSingle.hpp ****       }
 508              		.loc 3 13 45 view .LVU144
 509 00ca C4F81011 		str	r1, [r4, #272]
 510              	.LVL33:
  13:Lib/PWMSingle/PWMSingle.hpp ****       }
 511              		.loc 3 13 45 view .LVU145
 512              	.LBE183:
 513              	.LBE182:
 514              	.LBB184:
 515              	.LBI184:
  12:Lib/PWMSingle/PWMSingle.hpp ****           : _htim(htim), _channel(channel), _maxValue(_htim->Init.Period) {
 516              		.loc 3 12 7 is_stmt 1 view .LVU146
 517              	.LBB185:
  13:Lib/PWMSingle/PWMSingle.hpp ****       }
 518              		.loc 3 13 13 is_stmt 0 view .LVU147
 519 00ce C4F81821 		str	r2, [r4, #280]
  13:Lib/PWMSingle/PWMSingle.hpp ****       }
 520              		.loc 3 13 26 view .LVU148
 521 00d2 C4F81C71 		str	r7, [r4, #284]
  13:Lib/PWMSingle/PWMSingle.hpp ****       }
 522              		.loc 3 13 45 view .LVU149
 523 00d6 C4F82061 		str	r6, [r4, #288]
 524              	.LVL34:
  13:Lib/PWMSingle/PWMSingle.hpp ****       }
 525              		.loc 3 13 45 view .LVU150
 526              	.LBE185:
 527              	.LBE184:
 528              	.LBB186:
 529              	.LBI186:
  12:Lib/DigitalInOut/DigitalInOut.hpp ****         HAL_GPIO_WritePin(port, pin, GPIO_PIN_RESET);
 530              		.loc 5 12 5 is_stmt 1 view .LVU151
 531              	.LBB187:
  12:Lib/DigitalInOut/DigitalInOut.hpp ****         HAL_GPIO_WritePin(port, pin, GPIO_PIN_RESET);
 532              		.loc 5 12 52 is_stmt 0 view .LVU152
 533 00da 6F4E     		ldr	r6, .L26+24
 534 00dc C4F82861 		str	r6, [r4, #296]
  12:Lib/DigitalInOut/DigitalInOut.hpp ****         HAL_GPIO_WritePin(port, pin, GPIO_PIN_RESET);
 535              		.loc 5 12 64 view .LVU153
 536 00e0 0121     		movs	r1, #1
 537 00e2 A4F82C11 		strh	r1, [r4, #300]	@ movhi
 538              		.loc 5 13 9 is_stmt 1 view .LVU154
 539              		.loc 5 13 26 is_stmt 0 view .LVU155
 540 00e6 2A46     		mov	r2, r5
 541 00e8 3046     		mov	r0, r6
 542 00ea FFF7FEFF 		bl	HAL_GPIO_WritePin
 543              	.LVL35:
 544              		.loc 5 13 26 view .LVU156
 545              	.LBE187:
 546              	.LBE186:
 547              	.LBB188:
 548              	.LBI188:
  12:Lib/DigitalInOut/DigitalInOut.hpp ****         HAL_GPIO_WritePin(port, pin, GPIO_PIN_RESET);
 549              		.loc 5 12 5 is_stmt 1 view .LVU157
 550              	.LBB189:
  12:Lib/DigitalInOut/DigitalInOut.hpp ****         HAL_GPIO_WritePin(port, pin, GPIO_PIN_RESET);
ARM GAS  /var/folders/5c/srt4fy4j1pd641bjfx75k5000000gn/T//ccCyP7bK.s 			page 15


 551              		.loc 5 12 52 is_stmt 0 view .LVU158
 552 00ee C4F83061 		str	r6, [r4, #304]
  12:Lib/DigitalInOut/DigitalInOut.hpp ****         HAL_GPIO_WritePin(port, pin, GPIO_PIN_RESET);
 553              		.loc 5 12 64 view .LVU159
 554 00f2 0221     		movs	r1, #2
 555 00f4 A4F83411 		strh	r1, [r4, #308]	@ movhi
 556              		.loc 5 13 9 is_stmt 1 view .LVU160
 557              		.loc 5 13 26 is_stmt 0 view .LVU161
 558 00f8 2A46     		mov	r2, r5
 559 00fa 3046     		mov	r0, r6
 560 00fc FFF7FEFF 		bl	HAL_GPIO_WritePin
 561              	.LVL36:
 562              		.loc 5 13 26 view .LVU162
 563              	.LBE189:
 564              	.LBE188:
 565              		.loc 1 5 14 view .LVU163
 566 0100 231D     		adds	r3, r4, #4
 567 0102 0693     		str	r3, [sp, #24]
 568 0104 04F12A03 		add	r3, r4, #42
 569 0108 0593     		str	r3, [sp, #20]
 570 010a 04F1D803 		add	r3, r4, #216
 571 010e 0493     		str	r3, [sp, #16]
 572 0110 04F1C803 		add	r3, r4, #200
 573 0114 0393     		str	r3, [sp, #12]
 574 0116 04F1B803 		add	r3, r4, #184
 575 011a 0293     		str	r3, [sp, #8]
 576 011c 04F1A803 		add	r3, r4, #168
 577 0120 0193     		str	r3, [sp, #4]
 578 0122 04F19803 		add	r3, r4, #152
 579 0126 0093     		str	r3, [sp]
 580 0128 04F18803 		add	r3, r4, #136
 581 012c 04F17802 		add	r2, r4, #120
 582 0130 04F16801 		add	r1, r4, #104
 583 0134 04F59C70 		add	r0, r4, #312
 584 0138 FFF7FEFF 		bl	_ZN10MotorDriveC1EP12PwmSingleOutS1_S1_S1_S1_S1_S1_S1_PsPh
 585              	.LVL37:
 586 013c 04F1F802 		add	r2, r4, #248
 587 0140 04F1E801 		add	r1, r4, #232
 588 0144 04F58150 		add	r0, r4, #4128
 589 0148 0830     		adds	r0, r0, #8
 590 014a FFF7FEFF 		bl	_ZN13DribblerDriveC1EP12PwmSingleOutS1_
 591              	.LVL38:
 592 014e 04F58C72 		add	r2, r4, #280
 593 0152 04F58471 		add	r1, r4, #264
 594 0156 04F59B50 		add	r0, r4, #4960
 595 015a 0830     		adds	r0, r0, #8
 596 015c FFF7FEFF 		bl	_ZN13DribblerDriveC1EP12PwmSingleOutS1_
 597              	.LVL39:
 598 0160 04F59872 		add	r2, r4, #304
 599 0164 04F59471 		add	r1, r4, #296
 600 0168 04F5B550 		add	r0, r4, #5792
 601 016c 0830     		adds	r0, r0, #8
 602 016e FFF7FEFF 		bl	_ZN6KickerC1EP10DigitalOutS1_
 603              	.LVL40:
 604              	.LBB190:
 605              	.LBI190:
  19:Lib/BufferedSerial/BufferedSerial.hpp ****           : _huart(huart),
ARM GAS  /var/folders/5c/srt4fy4j1pd641bjfx75k5000000gn/T//ccCyP7bK.s 			page 16


 606              		.loc 2 19 7 is_stmt 1 view .LVU164
 607              	.LBB191:
  20:Lib/BufferedSerial/BufferedSerial.hpp ****             _rxBuf(new uint8_t[rxBufSize]),
 608              		.loc 2 20 13 is_stmt 0 view .LVU165
 609 0172 04F58056 		add	r6, r4, #4096
 610 0176 494B     		ldr	r3, .L26+28
 611 0178 C6F8BC36 		str	r3, [r6, #1724]
  21:Lib/BufferedSerial/BufferedSerial.hpp ****             rxTop(0),
 612              		.loc 2 21 41 view .LVU166
 613 017c 8020     		movs	r0, #128
 614 017e FFF7FEFF 		bl	_Znaj
 615              	.LVL41:
 616              	.LEHE0:
  21:Lib/BufferedSerial/BufferedSerial.hpp ****             rxTop(0),
 617              		.loc 2 21 13 view .LVU167
 618 0182 C6F8C006 		str	r0, [r6, #1728]
  22:Lib/BufferedSerial/BufferedSerial.hpp ****             rxBtm(0),
 619              		.loc 2 22 13 view .LVU168
 620 0186 A6F8C456 		strh	r5, [r6, #1732]	@ movhi
  23:Lib/BufferedSerial/BufferedSerial.hpp ****             _rxBufSize(rxBufSize),
 621              		.loc 2 23 13 view .LVU169
 622 018a A6F8C656 		strh	r5, [r6, #1734]	@ movhi
  24:Lib/BufferedSerial/BufferedSerial.hpp ****             _useDMA(false) {}
 623              		.loc 2 24 13 view .LVU170
 624 018e 8023     		movs	r3, #128
 625 0190 A6F8C836 		strh	r3, [r6, #1736]	@ movhi
  25:Lib/BufferedSerial/BufferedSerial.hpp ****       ~BufferedSerial() {
 626              		.loc 2 25 13 view .LVU171
 627 0194 86F8CA56 		strb	r5, [r6, #1738]
 628              	.LVL42:
  25:Lib/BufferedSerial/BufferedSerial.hpp ****       ~BufferedSerial() {
 629              		.loc 2 25 13 view .LVU172
 630              	.LBE191:
 631              	.LBE190:
 632              	.LBB192:
 633              	.LBI192:
  19:Lib/BufferedSerial/BufferedSerial.hpp ****           : _huart(huart),
 634              		.loc 2 19 7 is_stmt 1 view .LVU173
 635              	.LBB193:
  20:Lib/BufferedSerial/BufferedSerial.hpp ****             _rxBuf(new uint8_t[rxBufSize]),
 636              		.loc 2 20 13 is_stmt 0 view .LVU174
 637 0198 414B     		ldr	r3, .L26+32
 638 019a C6F8CC36 		str	r3, [r6, #1740]
  21:Lib/BufferedSerial/BufferedSerial.hpp ****             rxTop(0),
 639              		.loc 2 21 41 view .LVU175
 640 019e 4FF48070 		mov	r0, #256
 641              	.LEHB1:
 642 01a2 FFF7FEFF 		bl	_Znaj
 643              	.LVL43:
 644              	.LEHE1:
  21:Lib/BufferedSerial/BufferedSerial.hpp ****             rxTop(0),
 645              		.loc 2 21 13 view .LVU176
 646 01a6 C6F8D006 		str	r0, [r6, #1744]
  22:Lib/BufferedSerial/BufferedSerial.hpp ****             rxBtm(0),
 647              		.loc 2 22 13 view .LVU177
 648 01aa A6F8D456 		strh	r5, [r6, #1748]	@ movhi
  23:Lib/BufferedSerial/BufferedSerial.hpp ****             _rxBufSize(rxBufSize),
ARM GAS  /var/folders/5c/srt4fy4j1pd641bjfx75k5000000gn/T//ccCyP7bK.s 			page 17


 649              		.loc 2 23 13 view .LVU178
 650 01ae A6F8D656 		strh	r5, [r6, #1750]	@ movhi
  24:Lib/BufferedSerial/BufferedSerial.hpp ****             _useDMA(false) {}
 651              		.loc 2 24 13 view .LVU179
 652 01b2 4FF48070 		mov	r0, #256
 653 01b6 A6F8D806 		strh	r0, [r6, #1752]	@ movhi
  25:Lib/BufferedSerial/BufferedSerial.hpp ****       ~BufferedSerial() {
 654              		.loc 2 25 13 view .LVU180
 655 01ba 86F8DA56 		strb	r5, [r6, #1754]
 656              	.LVL44:
  25:Lib/BufferedSerial/BufferedSerial.hpp ****       ~BufferedSerial() {
 657              		.loc 2 25 13 view .LVU181
 658              	.LBE193:
 659              	.LBE192:
 660              	.LBB194:
 661              	.LBI194:
  19:Lib/BufferedSerial/BufferedSerial.hpp ****           : _huart(huart),
 662              		.loc 2 19 7 is_stmt 1 view .LVU182
 663              	.LBB195:
  20:Lib/BufferedSerial/BufferedSerial.hpp ****             _rxBuf(new uint8_t[rxBufSize]),
 664              		.loc 2 20 13 is_stmt 0 view .LVU183
 665 01be 394A     		ldr	r2, .L26+36
 666 01c0 C6F8DC26 		str	r2, [r6, #1756]
 667              	.LEHB2:
  21:Lib/BufferedSerial/BufferedSerial.hpp ****             rxTop(0),
 668              		.loc 2 21 41 view .LVU184
 669 01c4 FFF7FEFF 		bl	_Znaj
 670              	.LVL45:
 671              	.LEHE2:
  21:Lib/BufferedSerial/BufferedSerial.hpp ****             rxTop(0),
 672              		.loc 2 21 13 view .LVU185
 673 01c8 C6F8E006 		str	r0, [r6, #1760]
  22:Lib/BufferedSerial/BufferedSerial.hpp ****             rxBtm(0),
 674              		.loc 2 22 13 view .LVU186
 675 01cc A6F8E456 		strh	r5, [r6, #1764]	@ movhi
  23:Lib/BufferedSerial/BufferedSerial.hpp ****             _rxBufSize(rxBufSize),
 676              		.loc 2 23 13 view .LVU187
 677 01d0 A6F8E656 		strh	r5, [r6, #1766]	@ movhi
  24:Lib/BufferedSerial/BufferedSerial.hpp ****             _useDMA(false) {}
 678              		.loc 2 24 13 view .LVU188
 679 01d4 4FF48070 		mov	r0, #256
 680 01d8 A6F8E806 		strh	r0, [r6, #1768]	@ movhi
  25:Lib/BufferedSerial/BufferedSerial.hpp ****       ~BufferedSerial() {
 681              		.loc 2 25 13 view .LVU189
 682 01dc 86F8EA56 		strb	r5, [r6, #1770]
 683              	.LVL46:
  25:Lib/BufferedSerial/BufferedSerial.hpp ****       ~BufferedSerial() {
 684              		.loc 2 25 13 view .LVU190
 685              	.LBE195:
 686              	.LBE194:
 687              	.LBB196:
 688              	.LBI196:
  19:Lib/BufferedSerial/BufferedSerial.hpp ****           : _huart(huart),
 689              		.loc 2 19 7 is_stmt 1 view .LVU191
 690              	.LBB197:
  20:Lib/BufferedSerial/BufferedSerial.hpp ****             _rxBuf(new uint8_t[rxBufSize]),
 691              		.loc 2 20 13 is_stmt 0 view .LVU192
ARM GAS  /var/folders/5c/srt4fy4j1pd641bjfx75k5000000gn/T//ccCyP7bK.s 			page 18


 692 01e0 314A     		ldr	r2, .L26+40
 693 01e2 C6F8EC26 		str	r2, [r6, #1772]
 694              	.LEHB3:
  21:Lib/BufferedSerial/BufferedSerial.hpp ****             rxTop(0),
 695              		.loc 2 21 41 view .LVU193
 696 01e6 FFF7FEFF 		bl	_Znaj
 697              	.LVL47:
 698              	.LEHE3:
  21:Lib/BufferedSerial/BufferedSerial.hpp ****             rxTop(0),
 699              		.loc 2 21 13 view .LVU194
 700 01ea C6F8F006 		str	r0, [r6, #1776]
  22:Lib/BufferedSerial/BufferedSerial.hpp ****             rxBtm(0),
 701              		.loc 2 22 13 view .LVU195
 702 01ee A6F8F456 		strh	r5, [r6, #1780]	@ movhi
  23:Lib/BufferedSerial/BufferedSerial.hpp ****             _rxBufSize(rxBufSize),
 703              		.loc 2 23 13 view .LVU196
 704 01f2 A6F8F656 		strh	r5, [r6, #1782]	@ movhi
  24:Lib/BufferedSerial/BufferedSerial.hpp ****             _useDMA(false) {}
 705              		.loc 2 24 13 view .LVU197
 706 01f6 4FF48071 		mov	r1, #256
 707 01fa A6F8F816 		strh	r1, [r6, #1784]	@ movhi
  25:Lib/BufferedSerial/BufferedSerial.hpp ****       ~BufferedSerial() {
 708              		.loc 2 25 13 view .LVU198
 709 01fe 86F8FA56 		strb	r5, [r6, #1786]
 710              	.LVL48:
  25:Lib/BufferedSerial/BufferedSerial.hpp ****       ~BufferedSerial() {
 711              		.loc 2 25 13 view .LVU199
 712              	.LBE197:
 713              	.LBE196:
 714              		.loc 1 5 14 view .LVU200
 715 0202 04F5B750 		add	r0, r4, #5856
 716 0206 1C30     		adds	r0, r0, #28
 717              	.LEHB4:
 718 0208 FFF7FEFF 		bl	_ZN5TimerC1Ev
 719              	.LVL49:
 720              		.loc 1 5 14 discriminator 4 view .LVU201
 721 020c 04F5B850 		add	r0, r4, #5888
 722 0210 FFF7FEFF 		bl	_ZN5TimerC1Ev
 723              	.LVL50:
 724              		.loc 1 5 14 discriminator 5 view .LVU202
 725 0214 04F5B850 		add	r0, r4, #5888
 726 0218 0430     		adds	r0, r0, #4
 727 021a FFF7FEFF 		bl	_ZN5TimerC1Ev
 728              	.LVL51:
   6:src/unit/robot/robot.cpp ****       catch_front.SetLength(10);
 729              		.loc 1 6 7 is_stmt 1 view .LVU203
 730              		.loc 1 6 28 is_stmt 0 view .LVU204
 731 021e 0A21     		movs	r1, #10
 732 0220 04F5B850 		add	r0, r4, #5888
 733 0224 0830     		adds	r0, r0, #8
 734 0226 FFF7FEFF 		bl	_ZN9MovingAve9SetLengthEh
 735              	.LVL52:
   7:src/unit/robot/robot.cpp ****       catch_back.SetLength(10);
 736              		.loc 1 7 7 is_stmt 1 view .LVU205
 737              		.loc 1 7 27 is_stmt 0 view .LVU206
 738 022a 0A21     		movs	r1, #10
 739 022c 04F5D250 		add	r0, r4, #6720
ARM GAS  /var/folders/5c/srt4fy4j1pd641bjfx75k5000000gn/T//ccCyP7bK.s 			page 19


 740 0230 FFF7FEFF 		bl	_ZN9MovingAve9SetLengthEh
 741              	.LVL53:
 742              	.LEHE4:
 743 0234 20E0     		b	.L25
 744              	.L22:
 745              	.LVL54:
 746              	.LBB198:
 747              	.LBI198:
  26:Lib/BufferedSerial/BufferedSerial.hpp ****             delete[] _rxBuf;
 748              		.loc 2 26 7 is_stmt 1 view .LVU207
 749              	.LBB199:
  27:Lib/BufferedSerial/BufferedSerial.hpp ****       }
 750              		.loc 2 27 13 view .LVU208
  27:Lib/BufferedSerial/BufferedSerial.hpp ****       }
 751              		.loc 2 27 22 is_stmt 0 view .LVU209
 752 0236 04F58053 		add	r3, r4, #4096
 753 023a D3F8F006 		ldr	r0, [r3, #1776]
  27:Lib/BufferedSerial/BufferedSerial.hpp ****       }
 754              		.loc 2 27 13 view .LVU210
 755 023e 08B1     		cbz	r0, .L13
  27:Lib/BufferedSerial/BufferedSerial.hpp ****       }
 756              		.loc 2 27 22 view .LVU211
 757 0240 FFF7FEFF 		bl	_ZdaPv
 758              	.LVL55:
 759              	.L13:
  27:Lib/BufferedSerial/BufferedSerial.hpp ****       }
 760              		.loc 2 27 22 view .LVU212
 761              	.LBE199:
 762              	.LBE198:
 763              	.LBB200:
 764              	.LBI200:
  26:Lib/BufferedSerial/BufferedSerial.hpp ****             delete[] _rxBuf;
 765              		.loc 2 26 7 is_stmt 1 view .LVU213
 766              	.LBB201:
  27:Lib/BufferedSerial/BufferedSerial.hpp ****       }
 767              		.loc 2 27 13 view .LVU214
  27:Lib/BufferedSerial/BufferedSerial.hpp ****       }
 768              		.loc 2 27 22 is_stmt 0 view .LVU215
 769 0244 04F58053 		add	r3, r4, #4096
 770 0248 D3F8E006 		ldr	r0, [r3, #1760]
  27:Lib/BufferedSerial/BufferedSerial.hpp ****       }
 771              		.loc 2 27 13 view .LVU216
 772 024c 08B1     		cbz	r0, .L15
  27:Lib/BufferedSerial/BufferedSerial.hpp ****       }
 773              		.loc 2 27 22 view .LVU217
 774 024e FFF7FEFF 		bl	_ZdaPv
 775              	.LVL56:
 776              	.L15:
  27:Lib/BufferedSerial/BufferedSerial.hpp ****       }
 777              		.loc 2 27 22 view .LVU218
 778              	.LBE201:
 779              	.LBE200:
 780              	.LBB202:
 781              	.LBI202:
  26:Lib/BufferedSerial/BufferedSerial.hpp ****             delete[] _rxBuf;
 782              		.loc 2 26 7 is_stmt 1 view .LVU219
 783              	.LBB203:
ARM GAS  /var/folders/5c/srt4fy4j1pd641bjfx75k5000000gn/T//ccCyP7bK.s 			page 20


  27:Lib/BufferedSerial/BufferedSerial.hpp ****       }
 784              		.loc 2 27 13 view .LVU220
  27:Lib/BufferedSerial/BufferedSerial.hpp ****       }
 785              		.loc 2 27 22 is_stmt 0 view .LVU221
 786 0252 04F58053 		add	r3, r4, #4096
 787 0256 D3F8D006 		ldr	r0, [r3, #1744]
  27:Lib/BufferedSerial/BufferedSerial.hpp ****       }
 788              		.loc 2 27 13 view .LVU222
 789 025a 08B1     		cbz	r0, .L17
  27:Lib/BufferedSerial/BufferedSerial.hpp ****       }
 790              		.loc 2 27 22 view .LVU223
 791 025c FFF7FEFF 		bl	_ZdaPv
 792              	.LVL57:
 793              	.L17:
  27:Lib/BufferedSerial/BufferedSerial.hpp ****       }
 794              		.loc 2 27 22 view .LVU224
 795              	.LBE203:
 796              	.LBE202:
 797              	.LBB204:
 798              	.LBI204:
  26:Lib/BufferedSerial/BufferedSerial.hpp ****             delete[] _rxBuf;
 799              		.loc 2 26 7 is_stmt 1 view .LVU225
 800              	.LBB205:
  27:Lib/BufferedSerial/BufferedSerial.hpp ****       }
 801              		.loc 2 27 13 view .LVU226
  27:Lib/BufferedSerial/BufferedSerial.hpp ****       }
 802              		.loc 2 27 22 is_stmt 0 view .LVU227
 803 0260 04F58054 		add	r4, r4, #4096
 804              	.LVL58:
  27:Lib/BufferedSerial/BufferedSerial.hpp ****       }
 805              		.loc 2 27 22 view .LVU228
 806 0264 D4F8C006 		ldr	r0, [r4, #1728]
  27:Lib/BufferedSerial/BufferedSerial.hpp ****       }
 807              		.loc 2 27 13 view .LVU229
 808 0268 08B1     		cbz	r0, .L18
  27:Lib/BufferedSerial/BufferedSerial.hpp ****       }
 809              		.loc 2 27 22 view .LVU230
 810 026a FFF7FEFF 		bl	_ZdaPv
 811              	.LVL59:
 812              	.L18:
 813              	.LEHB5:
  27:Lib/BufferedSerial/BufferedSerial.hpp ****       }
 814              		.loc 2 27 22 view .LVU231
 815 026e FFF7FEFF 		bl	__cxa_end_cleanup
 816              	.LVL60:
 817              	.LEHE5:
 818              	.L21:
  27:Lib/BufferedSerial/BufferedSerial.hpp ****       }
 819              		.loc 2 27 22 view .LVU232
 820 0272 E7E7     		b	.L13
 821              	.LVL61:
 822              	.L20:
  27:Lib/BufferedSerial/BufferedSerial.hpp ****       }
 823              		.loc 2 27 22 view .LVU233
 824 0274 EDE7     		b	.L15
 825              	.LVL62:
 826              	.L19:
ARM GAS  /var/folders/5c/srt4fy4j1pd641bjfx75k5000000gn/T//ccCyP7bK.s 			page 21


  27:Lib/BufferedSerial/BufferedSerial.hpp ****       }
 827              		.loc 2 27 22 view .LVU234
 828 0276 F3E7     		b	.L17
 829              	.LVL63:
 830              	.L25:
  27:Lib/BufferedSerial/BufferedSerial.hpp ****       }
 831              		.loc 2 27 22 view .LVU235
 832              	.LBE205:
 833              	.LBE204:
 834              	.LBE148:
   8:src/unit/robot/robot.cpp **** }
 835              		.loc 1 8 1 view .LVU236
 836 0278 2046     		mov	r0, r4
 837 027a 09B0     		add	sp, sp, #36
 838              	.LCFI4:
 839              		.cfi_def_cfa_offset 20
 840              		@ sp needed
 841 027c F0BD     		pop	{r4, r5, r6, r7, pc}
 842              	.LVL64:
 843              	.L27:
 844              		.loc 1 8 1 view .LVU237
 845 027e 00BF     		.align	2
 846              	.L26:
 847 0280 00000240 		.word	1073872896
 848 0284 00000000 		.word	htim13
 849 0288 00000000 		.word	htim12
 850 028c 00000000 		.word	htim2
 851 0290 00000000 		.word	htim3
 852 0294 00000000 		.word	htim4
 853 0298 00080240 		.word	1073874944
 854 029c 00000000 		.word	huart1
 855 02a0 00000000 		.word	huart2
 856 02a4 00000000 		.word	huart3
 857 02a8 00000000 		.word	huart4
 858              		.cfi_endproc
 859              	.LFE288:
 860              		.global	__gxx_personality_v0
 861              		.personality	__gxx_personality_v0
 862              		.handlerdata
 863              	.LLSDA288:
 864 0008 FF       		.byte	0xff
 865 0009 FF       		.byte	0xff
 866 000a 01       		.byte	0x1
 867 000b 22       		.uleb128 .LLSDACSE288-.LLSDACSB288
 868              	.LLSDACSB288:
 869 000c 2E       		.uleb128 .LEHB0-.LFB288
 870 000d D402     		.uleb128 .LEHE0-.LEHB0
 871 000f 00       		.uleb128 0
 872 0010 00       		.uleb128 0
 873 0011 A203     		.uleb128 .LEHB1-.LFB288
 874 0013 04       		.uleb128 .LEHE1-.LEHB1
 875 0014 F604     		.uleb128 .L19-.LFB288
 876 0016 00       		.uleb128 0
 877 0017 C403     		.uleb128 .LEHB2-.LFB288
 878 0019 04       		.uleb128 .LEHE2-.LEHB2
 879 001a F404     		.uleb128 .L20-.LFB288
 880 001c 00       		.uleb128 0
ARM GAS  /var/folders/5c/srt4fy4j1pd641bjfx75k5000000gn/T//ccCyP7bK.s 			page 22


 881 001d E603     		.uleb128 .LEHB3-.LFB288
 882 001f 04       		.uleb128 .LEHE3-.LEHB3
 883 0020 F204     		.uleb128 .L21-.LFB288
 884 0022 00       		.uleb128 0
 885 0023 8804     		.uleb128 .LEHB4-.LFB288
 886 0025 2C       		.uleb128 .LEHE4-.LEHB4
 887 0026 B604     		.uleb128 .L22-.LFB288
 888 0028 00       		.uleb128 0
 889 0029 EE04     		.uleb128 .LEHB5-.LFB288
 890 002b 04       		.uleb128 .LEHE5-.LEHB5
 891 002c 00       		.uleb128 0
 892 002d 00       		.uleb128 0
 893              	.LLSDACSE288:
 894              		.section	.text._ZN5RobotC2Ev
 895              		.fnend
 897              		.global	_ZN5RobotC1Ev
 898              		.thumb_set _ZN5RobotC1Ev,_ZN5RobotC2Ev
 899              		.section	.text._ZN5Robot12HardwareInitEv,"ax",%progbits
 900              		.align	1
 901              		.global	_ZN5Robot12HardwareInitEv
 902              		.syntax unified
 903              		.thumb
 904              		.thumb_func
 906              	_ZN5Robot12HardwareInitEv:
 907              		.fnstart
 908              	.LVL65:
 909              	.LFB290:
   9:src/unit/robot/robot.cpp **** 
  10:src/unit/robot/robot.cpp **** void Robot::HardwareInit() {
 910              		.loc 1 10 28 is_stmt 1 view -0
 911              		.cfi_startproc
 912              		@ args = 0, pretend = 0, frame = 0
 913              		@ frame_needed = 0, uses_anonymous_args = 0
 914              		.loc 1 10 28 is_stmt 0 view .LVU239
 915 0000 70B5     		push	{r4, r5, r6, lr}
 916              		.save {r4, r5, r6, lr}
 917              	.LCFI5:
 918              		.cfi_def_cfa_offset 16
 919              		.cfi_offset 4, -16
 920              		.cfi_offset 5, -12
 921              		.cfi_offset 6, -8
 922              		.cfi_offset 14, -4
 923 0002 0446     		mov	r4, r0
  11:src/unit/robot/robot.cpp ****       HAL_ADC_Start(&hadc1);
 924              		.loc 1 11 7 is_stmt 1 view .LVU240
 925              		.loc 1 11 20 is_stmt 0 view .LVU241
 926 0004 424D     		ldr	r5, .L32
 927 0006 2846     		mov	r0, r5
 928              	.LVL66:
 929              		.loc 1 11 20 view .LVU242
 930 0008 FFF7FEFF 		bl	HAL_ADC_Start
 931              	.LVL67:
  12:src/unit/robot/robot.cpp ****       HAL_ADC_Start_DMA(&hadc1, (uint32_t *)&adc_get_val, 3);
 932              		.loc 1 12 7 is_stmt 1 view .LVU243
 933              		.loc 1 12 24 is_stmt 0 view .LVU244
 934 000c 0322     		movs	r2, #3
 935 000e 4149     		ldr	r1, .L32+4
ARM GAS  /var/folders/5c/srt4fy4j1pd641bjfx75k5000000gn/T//ccCyP7bK.s 			page 23


 936 0010 2846     		mov	r0, r5
 937 0012 FFF7FEFF 		bl	HAL_ADC_Start_DMA
 938              	.LVL68:
  13:src/unit/robot/robot.cpp ****       for (uint8_t i = 0; i < 3; i++) {
 939              		.loc 1 13 7 is_stmt 1 view .LVU245
 940              	.LBB206:
 941              		.loc 1 13 20 is_stmt 0 view .LVU246
 942 0016 0022     		movs	r2, #0
 943              		.loc 1 13 7 view .LVU247
 944 0018 06E0     		b	.L29
 945              	.LVL69:
 946              	.L30:
  14:src/unit/robot/robot.cpp ****             while (!(adc_get_val[i] > 0));
 947              		.loc 1 14 20 is_stmt 1 discriminator 1 view .LVU248
 948              		.loc 1 14 35 is_stmt 0 discriminator 1 view .LVU249
 949 001a 3E4B     		ldr	r3, .L32+4
 950 001c 33F81230 		ldrh	r3, [r3, r2, lsl #1]
 951              		.loc 1 14 20 discriminator 1 view .LVU250
 952 0020 002B     		cmp	r3, #0
 953 0022 FAD0     		beq	.L30
  13:src/unit/robot/robot.cpp ****       for (uint8_t i = 0; i < 3; i++) {
 954              		.loc 1 13 7 is_stmt 1 discriminator 2 view .LVU251
 955 0024 0132     		adds	r2, r2, #1
 956              	.LVL70:
  13:src/unit/robot/robot.cpp ****       for (uint8_t i = 0; i < 3; i++) {
 957              		.loc 1 13 7 is_stmt 0 discriminator 2 view .LVU252
 958 0026 D2B2     		uxtb	r2, r2
 959              	.LVL71:
 960              	.L29:
  13:src/unit/robot/robot.cpp ****       for (uint8_t i = 0; i < 3; i++) {
 961              		.loc 1 13 29 is_stmt 1 discriminator 1 view .LVU253
 962 0028 022A     		cmp	r2, #2
 963 002a F6D9     		bls	.L30
 964              	.LBE206:
  15:src/unit/robot/robot.cpp ****       }
  16:src/unit/robot/robot.cpp **** 
  17:src/unit/robot/robot.cpp ****       // 諸々の初期化
  18:src/unit/robot/robot.cpp ****       serial1.init();
 965              		.loc 1 18 7 view .LVU254
 966              	.LVL72:
 967              	.LBB207:
 968              	.LBI207:
  30:Lib/BufferedSerial/BufferedSerial.hpp ****             _useDMA = dma;
 969              		.loc 2 30 12 view .LVU255
 970              	.LBB208:
  31:Lib/BufferedSerial/BufferedSerial.hpp ****             HAL_UART_Receive_DMA(_huart, _rxBuf, _rxBufSize);
 971              		.loc 2 31 13 view .LVU256
  31:Lib/BufferedSerial/BufferedSerial.hpp ****             HAL_UART_Receive_DMA(_huart, _rxBuf, _rxBufSize);
 972              		.loc 2 31 21 is_stmt 0 view .LVU257
 973 002c 04F58055 		add	r5, r4, #4096
 974 0030 0026     		movs	r6, #0
 975 0032 85F8CA66 		strb	r6, [r5, #1738]
  32:Lib/BufferedSerial/BufferedSerial.hpp ****       }
 976              		.loc 2 32 13 is_stmt 1 view .LVU258
  32:Lib/BufferedSerial/BufferedSerial.hpp ****       }
 977              		.loc 2 32 33 is_stmt 0 view .LVU259
 978 0036 B5F8C826 		ldrh	r2, [r5, #1736]
ARM GAS  /var/folders/5c/srt4fy4j1pd641bjfx75k5000000gn/T//ccCyP7bK.s 			page 24


 979              	.LVL73:
  32:Lib/BufferedSerial/BufferedSerial.hpp ****       }
 980              		.loc 2 32 33 view .LVU260
 981 003a D5F8C016 		ldr	r1, [r5, #1728]
 982 003e D5F8BC06 		ldr	r0, [r5, #1724]
 983 0042 FFF7FEFF 		bl	HAL_UART_Receive_DMA
 984              	.LVL74:
  32:Lib/BufferedSerial/BufferedSerial.hpp ****       }
 985              		.loc 2 32 33 view .LVU261
 986              	.LBE208:
 987              	.LBE207:
  19:src/unit/robot/robot.cpp ****       serial2.init();
 988              		.loc 1 19 7 is_stmt 1 view .LVU262
 989              	.LBB209:
 990              	.LBI209:
  30:Lib/BufferedSerial/BufferedSerial.hpp ****             _useDMA = dma;
 991              		.loc 2 30 12 view .LVU263
 992              	.LBB210:
  31:Lib/BufferedSerial/BufferedSerial.hpp ****             HAL_UART_Receive_DMA(_huart, _rxBuf, _rxBufSize);
 993              		.loc 2 31 13 view .LVU264
  31:Lib/BufferedSerial/BufferedSerial.hpp ****             HAL_UART_Receive_DMA(_huart, _rxBuf, _rxBufSize);
 994              		.loc 2 31 21 is_stmt 0 view .LVU265
 995 0046 85F8DA66 		strb	r6, [r5, #1754]
  32:Lib/BufferedSerial/BufferedSerial.hpp ****       }
 996              		.loc 2 32 13 is_stmt 1 view .LVU266
  32:Lib/BufferedSerial/BufferedSerial.hpp ****       }
 997              		.loc 2 32 33 is_stmt 0 view .LVU267
 998 004a B5F8D826 		ldrh	r2, [r5, #1752]
 999 004e D5F8D016 		ldr	r1, [r5, #1744]
 1000 0052 D5F8CC06 		ldr	r0, [r5, #1740]
 1001 0056 FFF7FEFF 		bl	HAL_UART_Receive_DMA
 1002              	.LVL75:
  32:Lib/BufferedSerial/BufferedSerial.hpp ****       }
 1003              		.loc 2 32 33 view .LVU268
 1004              	.LBE210:
 1005              	.LBE209:
  20:src/unit/robot/robot.cpp ****       serial3.init();
 1006              		.loc 1 20 7 is_stmt 1 view .LVU269
 1007              	.LBB211:
 1008              	.LBI211:
  30:Lib/BufferedSerial/BufferedSerial.hpp ****             _useDMA = dma;
 1009              		.loc 2 30 12 view .LVU270
 1010              	.LBB212:
  31:Lib/BufferedSerial/BufferedSerial.hpp ****             HAL_UART_Receive_DMA(_huart, _rxBuf, _rxBufSize);
 1011              		.loc 2 31 13 view .LVU271
  31:Lib/BufferedSerial/BufferedSerial.hpp ****             HAL_UART_Receive_DMA(_huart, _rxBuf, _rxBufSize);
 1012              		.loc 2 31 21 is_stmt 0 view .LVU272
 1013 005a 85F8EA66 		strb	r6, [r5, #1770]
  32:Lib/BufferedSerial/BufferedSerial.hpp ****       }
 1014              		.loc 2 32 13 is_stmt 1 view .LVU273
  32:Lib/BufferedSerial/BufferedSerial.hpp ****       }
 1015              		.loc 2 32 33 is_stmt 0 view .LVU274
 1016 005e B5F8E826 		ldrh	r2, [r5, #1768]
 1017 0062 D5F8E016 		ldr	r1, [r5, #1760]
 1018 0066 D5F8DC06 		ldr	r0, [r5, #1756]
 1019 006a FFF7FEFF 		bl	HAL_UART_Receive_DMA
 1020              	.LVL76:
ARM GAS  /var/folders/5c/srt4fy4j1pd641bjfx75k5000000gn/T//ccCyP7bK.s 			page 25


  32:Lib/BufferedSerial/BufferedSerial.hpp ****       }
 1021              		.loc 2 32 33 view .LVU275
 1022              	.LBE212:
 1023              	.LBE211:
  21:src/unit/robot/robot.cpp ****       serial4.init();
 1024              		.loc 1 21 7 is_stmt 1 view .LVU276
 1025              	.LBB213:
 1026              	.LBI213:
  30:Lib/BufferedSerial/BufferedSerial.hpp ****             _useDMA = dma;
 1027              		.loc 2 30 12 view .LVU277
 1028              	.LBB214:
  31:Lib/BufferedSerial/BufferedSerial.hpp ****             HAL_UART_Receive_DMA(_huart, _rxBuf, _rxBufSize);
 1029              		.loc 2 31 13 view .LVU278
  31:Lib/BufferedSerial/BufferedSerial.hpp ****             HAL_UART_Receive_DMA(_huart, _rxBuf, _rxBufSize);
 1030              		.loc 2 31 21 is_stmt 0 view .LVU279
 1031 006e 85F8FA66 		strb	r6, [r5, #1786]
  32:Lib/BufferedSerial/BufferedSerial.hpp ****       }
 1032              		.loc 2 32 13 is_stmt 1 view .LVU280
  32:Lib/BufferedSerial/BufferedSerial.hpp ****       }
 1033              		.loc 2 32 33 is_stmt 0 view .LVU281
 1034 0072 B5F8F826 		ldrh	r2, [r5, #1784]
 1035 0076 D5F8F016 		ldr	r1, [r5, #1776]
 1036 007a D5F8EC06 		ldr	r0, [r5, #1772]
 1037 007e FFF7FEFF 		bl	HAL_UART_Receive_DMA
 1038              	.LVL77:
  32:Lib/BufferedSerial/BufferedSerial.hpp ****       }
 1039              		.loc 2 32 33 view .LVU282
 1040              	.LBE214:
 1041              	.LBE213:
  22:src/unit/robot/robot.cpp ****       ledh.init();
 1042              		.loc 1 22 7 is_stmt 1 view .LVU283
 1043              		.loc 1 22 16 is_stmt 0 view .LVU284
 1044 0082 04F15800 		add	r0, r4, #88
 1045 0086 FFF7FEFF 		bl	_ZN12PwmSingleOut4initEv
 1046              	.LVL78:
  23:src/unit/robot/robot.cpp ****       motor1a.init();
 1047              		.loc 1 23 7 is_stmt 1 view .LVU285
 1048              		.loc 1 23 19 is_stmt 0 view .LVU286
 1049 008a 04F16800 		add	r0, r4, #104
 1050 008e FFF7FEFF 		bl	_ZN12PwmSingleOut4initEv
 1051              	.LVL79:
  24:src/unit/robot/robot.cpp ****       motor1b.init();
 1052              		.loc 1 24 7 is_stmt 1 view .LVU287
 1053              		.loc 1 24 19 is_stmt 0 view .LVU288
 1054 0092 04F17800 		add	r0, r4, #120
 1055 0096 FFF7FEFF 		bl	_ZN12PwmSingleOut4initEv
 1056              	.LVL80:
  25:src/unit/robot/robot.cpp ****       motor2a.init();
 1057              		.loc 1 25 7 is_stmt 1 view .LVU289
 1058              		.loc 1 25 19 is_stmt 0 view .LVU290
 1059 009a 04F18800 		add	r0, r4, #136
 1060 009e FFF7FEFF 		bl	_ZN12PwmSingleOut4initEv
 1061              	.LVL81:
  26:src/unit/robot/robot.cpp ****       motor2b.init();
 1062              		.loc 1 26 7 is_stmt 1 view .LVU291
 1063              		.loc 1 26 19 is_stmt 0 view .LVU292
 1064 00a2 04F19800 		add	r0, r4, #152
ARM GAS  /var/folders/5c/srt4fy4j1pd641bjfx75k5000000gn/T//ccCyP7bK.s 			page 26


 1065 00a6 FFF7FEFF 		bl	_ZN12PwmSingleOut4initEv
 1066              	.LVL82:
  27:src/unit/robot/robot.cpp ****       motor3a.init();
 1067              		.loc 1 27 7 is_stmt 1 view .LVU293
 1068              		.loc 1 27 19 is_stmt 0 view .LVU294
 1069 00aa 04F1A800 		add	r0, r4, #168
 1070 00ae FFF7FEFF 		bl	_ZN12PwmSingleOut4initEv
 1071              	.LVL83:
  28:src/unit/robot/robot.cpp ****       motor3b.init();
 1072              		.loc 1 28 7 is_stmt 1 view .LVU295
 1073              		.loc 1 28 19 is_stmt 0 view .LVU296
 1074 00b2 04F1B800 		add	r0, r4, #184
 1075 00b6 FFF7FEFF 		bl	_ZN12PwmSingleOut4initEv
 1076              	.LVL84:
  29:src/unit/robot/robot.cpp ****       motor4a.init();
 1077              		.loc 1 29 7 is_stmt 1 view .LVU297
 1078              		.loc 1 29 19 is_stmt 0 view .LVU298
 1079 00ba 04F1C800 		add	r0, r4, #200
 1080 00be FFF7FEFF 		bl	_ZN12PwmSingleOut4initEv
 1081              	.LVL85:
  30:src/unit/robot/robot.cpp ****       motor4b.init();
 1082              		.loc 1 30 7 is_stmt 1 view .LVU299
 1083              		.loc 1 30 19 is_stmt 0 view .LVU300
 1084 00c2 04F1D800 		add	r0, r4, #216
 1085 00c6 FFF7FEFF 		bl	_ZN12PwmSingleOut4initEv
 1086              	.LVL86:
  31:src/unit/robot/robot.cpp ****       dribbler_front_a.init();
 1087              		.loc 1 31 7 is_stmt 1 view .LVU301
 1088              		.loc 1 31 28 is_stmt 0 view .LVU302
 1089 00ca 04F1E800 		add	r0, r4, #232
 1090 00ce FFF7FEFF 		bl	_ZN12PwmSingleOut4initEv
 1091              	.LVL87:
  32:src/unit/robot/robot.cpp ****       dribbler_front_b.init();
 1092              		.loc 1 32 7 is_stmt 1 view .LVU303
 1093              		.loc 1 32 28 is_stmt 0 view .LVU304
 1094 00d2 04F1F800 		add	r0, r4, #248
 1095 00d6 FFF7FEFF 		bl	_ZN12PwmSingleOut4initEv
 1096              	.LVL88:
  33:src/unit/robot/robot.cpp ****       dribbler_back_a.init();
 1097              		.loc 1 33 7 is_stmt 1 view .LVU305
 1098              		.loc 1 33 27 is_stmt 0 view .LVU306
 1099 00da 04F58470 		add	r0, r4, #264
 1100 00de FFF7FEFF 		bl	_ZN12PwmSingleOut4initEv
 1101              	.LVL89:
  34:src/unit/robot/robot.cpp ****       dribbler_back_b.init();
 1102              		.loc 1 34 7 is_stmt 1 view .LVU307
 1103              		.loc 1 34 27 is_stmt 0 view .LVU308
 1104 00e2 04F58C70 		add	r0, r4, #280
 1105 00e6 FFF7FEFF 		bl	_ZN12PwmSingleOut4initEv
 1106              	.LVL90:
  35:src/unit/robot/robot.cpp **** 
  36:src/unit/robot/robot.cpp ****       // 接続確認
  37:src/unit/robot/robot.cpp ****       motor.CheckConnection();
 1107              		.loc 1 37 7 is_stmt 1 view .LVU309
 1108              		.loc 1 37 28 is_stmt 0 view .LVU310
 1109 00ea 04F59C70 		add	r0, r4, #312
 1110 00ee FFF7FEFF 		bl	_ZN10MotorDrive15CheckConnectionEv
ARM GAS  /var/folders/5c/srt4fy4j1pd641bjfx75k5000000gn/T//ccCyP7bK.s 			page 27


 1111              	.LVL91:
  38:src/unit/robot/robot.cpp ****       HAL_Delay(200);
 1112              		.loc 1 38 7 is_stmt 1 view .LVU311
 1113              		.loc 1 38 16 is_stmt 0 view .LVU312
 1114 00f2 C820     		movs	r0, #200
 1115 00f4 FFF7FEFF 		bl	HAL_Delay
 1116              	.LVL92:
  39:src/unit/robot/robot.cpp ****       dribbler_front.CheckConnection();
 1117              		.loc 1 39 7 is_stmt 1 view .LVU313
 1118              		.loc 1 39 37 is_stmt 0 view .LVU314
 1119 00f8 04F58150 		add	r0, r4, #4128
 1120 00fc 0830     		adds	r0, r0, #8
 1121 00fe FFF7FEFF 		bl	_ZN13DribblerDrive15CheckConnectionEv
 1122              	.LVL93:
  40:src/unit/robot/robot.cpp ****       dribbler_back.CheckConnection();
 1123              		.loc 1 40 7 is_stmt 1 view .LVU315
 1124              		.loc 1 40 36 is_stmt 0 view .LVU316
 1125 0102 04F59B50 		add	r0, r4, #4960
 1126 0106 0830     		adds	r0, r0, #8
 1127 0108 FFF7FEFF 		bl	_ZN13DribblerDrive15CheckConnectionEv
 1128              	.LVL94:
  41:src/unit/robot/robot.cpp **** }
 1129              		.loc 1 41 1 view .LVU317
 1130 010c 70BD     		pop	{r4, r5, r6, pc}
 1131              	.LVL95:
 1132              	.L33:
 1133              		.loc 1 41 1 view .LVU318
 1134 010e 00BF     		.align	2
 1135              	.L32:
 1136 0110 00000000 		.word	hadc1
 1137 0114 00000000 		.word	adc_get_val
 1138              		.cfi_endproc
 1139              	.LFE290:
 1140              		.fnend
 1142              		.global	__aeabi_i2d
 1143              		.global	__aeabi_dmul
 1144              		.global	__aeabi_d2f
 1145              		.global	__aeabi_f2d
 1146              		.global	__aeabi_dadd
 1147              		.global	__aeabi_ui2d
 1148              		.global	__aeabi_d2uiz
 1149              		.section	.text._ZN5Robot10GetSensorsEv,"ax",%progbits
 1150              		.align	1
 1151              		.global	_ZN5Robot10GetSensorsEv
 1152              		.syntax unified
 1153              		.thumb
 1154              		.thumb_func
 1156              	_ZN5Robot10GetSensorsEv:
 1157              		.fnstart
 1158              	.LVL96:
 1159              	.LFB291:
  42:src/unit/robot/robot.cpp **** 
  43:src/unit/robot/robot.cpp **** void Robot::GetSensors() {
 1160              		.loc 1 43 26 is_stmt 1 view -0
 1161              		.cfi_startproc
 1162              		@ args = 0, pretend = 0, frame = 0
 1163              		@ frame_needed = 0, uses_anonymous_args = 0
ARM GAS  /var/folders/5c/srt4fy4j1pd641bjfx75k5000000gn/T//ccCyP7bK.s 			page 28


 1164              		.loc 1 43 26 is_stmt 0 view .LVU320
 1165 0000 2DE97043 		push	{r4, r5, r6, r8, r9, lr}
 1166              		.save {r4, r5, r6, r8, r9, lr}
 1167              	.LCFI6:
 1168              		.cfi_def_cfa_offset 24
 1169              		.cfi_offset 4, -24
 1170              		.cfi_offset 5, -20
 1171              		.cfi_offset 6, -16
 1172              		.cfi_offset 8, -12
 1173              		.cfi_offset 9, -8
 1174              		.cfi_offset 14, -4
 1175 0004 0446     		mov	r4, r0
  44:src/unit/robot/robot.cpp ****       static float pre_voltage = 9.6;
 1176              		.loc 1 44 7 is_stmt 1 view .LVU321
  45:src/unit/robot/robot.cpp ****       info.voltage = adc_get_val[0] * VOLTAGE_CONVERTION;
 1177              		.loc 1 45 7 view .LVU322
 1178              		.loc 1 45 35 is_stmt 0 view .LVU323
 1179 0006 364E     		ldr	r6, .L36+24
 1180              		.loc 1 45 37 view .LVU324
 1181 0008 3088     		ldrh	r0, [r6]
 1182              	.LVL97:
 1183              		.loc 1 45 37 view .LVU325
 1184 000a FFF7FEFF 		bl	__aeabi_i2d
 1185              	.LVL98:
 1186 000e 2EA3     		adr	r3, .L36
 1187 0010 D3E90023 		ldrd	r2, [r3]
 1188 0014 FFF7FEFF 		bl	__aeabi_dmul
 1189              	.LVL99:
 1190 0018 FFF7FEFF 		bl	__aeabi_d2f
 1191              	.LVL100:
 1192              		.loc 1 45 20 view .LVU326
 1193 001c 2060     		str	r0, [r4]	@ float
  46:src/unit/robot/robot.cpp ****       info.voltage = info.voltage * (1 - VOLTAGE_RC) + pre_voltage * VOLTAGE_RC;
 1194              		.loc 1 46 7 is_stmt 1 view .LVU327
 1195              		.loc 1 46 27 is_stmt 0 view .LVU328
 1196 001e FFF7FEFF 		bl	__aeabi_f2d
 1197              	.LVL101:
 1198              		.loc 1 46 35 view .LVU329
 1199 0022 2BA3     		adr	r3, .L36+8
 1200 0024 D3E90023 		ldrd	r2, [r3]
 1201 0028 FFF7FEFF 		bl	__aeabi_dmul
 1202              	.LVL102:
 1203 002c 8046     		mov	r8, r0
 1204 002e 8946     		mov	r9, r1
 1205              		.loc 1 46 56 view .LVU330
 1206 0030 2C4D     		ldr	r5, .L36+28
 1207 0032 2868     		ldr	r0, [r5]	@ float
 1208 0034 FFF7FEFF 		bl	__aeabi_f2d
 1209              	.LVL103:
 1210              		.loc 1 46 68 view .LVU331
 1211 0038 27A3     		adr	r3, .L36+16
 1212 003a D3E90023 		ldrd	r2, [r3]
 1213 003e FFF7FEFF 		bl	__aeabi_dmul
 1214              	.LVL104:
 1215 0042 0246     		mov	r2, r0
 1216 0044 0B46     		mov	r3, r1
 1217              		.loc 1 46 54 view .LVU332
ARM GAS  /var/folders/5c/srt4fy4j1pd641bjfx75k5000000gn/T//ccCyP7bK.s 			page 29


 1218 0046 4046     		mov	r0, r8
 1219 0048 4946     		mov	r1, r9
 1220 004a FFF7FEFF 		bl	__aeabi_dadd
 1221              	.LVL105:
 1222 004e FFF7FEFF 		bl	__aeabi_d2f
 1223              	.LVL106:
 1224              		.loc 1 46 20 view .LVU333
 1225 0052 2060     		str	r0, [r4]	@ float
  47:src/unit/robot/robot.cpp ****       pre_voltage = info.voltage;
 1226              		.loc 1 47 7 is_stmt 1 view .LVU334
 1227              		.loc 1 47 19 is_stmt 0 view .LVU335
 1228 0054 2860     		str	r0, [r5]	@ float
  48:src/unit/robot/robot.cpp **** 
  49:src/unit/robot/robot.cpp ****       catch_front.Compute(adc_get_val[1]);
 1229              		.loc 1 49 7 is_stmt 1 view .LVU336
 1230              		.loc 1 49 26 is_stmt 0 view .LVU337
 1231 0056 04F5B855 		add	r5, r4, #5888
 1232 005a 0835     		adds	r5, r5, #8
 1233 005c 7088     		ldrh	r0, [r6, #2]
 1234 005e FFF7FEFF 		bl	__aeabi_ui2d
 1235              	.LVL107:
 1236 0062 41EC100B 		vmov	d0, r0, r1
 1237 0066 2846     		mov	r0, r5
 1238 0068 FFF7FEFF 		bl	_ZN9MovingAve7ComputeEd
 1239              	.LVL108:
  50:src/unit/robot/robot.cpp ****       catch_back.Compute(adc_get_val[2]);
 1240              		.loc 1 50 7 is_stmt 1 view .LVU338
 1241              		.loc 1 50 25 is_stmt 0 view .LVU339
 1242 006c 04F5D258 		add	r8, r4, #6720
 1243 0070 B088     		ldrh	r0, [r6, #4]
 1244 0072 FFF7FEFF 		bl	__aeabi_ui2d
 1245              	.LVL109:
 1246 0076 41EC100B 		vmov	d0, r0, r1
 1247 007a 4046     		mov	r0, r8
 1248 007c FFF7FEFF 		bl	_ZN9MovingAve7ComputeEd
 1249              	.LVL110:
  51:src/unit/robot/robot.cpp ****       info.Catch.front_val = catch_front.Get();
 1250              		.loc 1 51 7 is_stmt 1 view .LVU340
 1251              		.loc 1 51 45 is_stmt 0 view .LVU341
 1252 0080 2846     		mov	r0, r5
 1253 0082 FFF7FEFF 		bl	_ZN9MovingAve3GetEv
 1254              	.LVL111:
 1255 0086 51EC100B 		vmov	r0, r1, d0
 1256              		.loc 1 51 28 view .LVU342
 1257 008a FFF7FEFF 		bl	__aeabi_d2uiz
 1258              	.LVL112:
 1259 008e 2084     		strh	r0, [r4, #32]	@ movhi
  52:src/unit/robot/robot.cpp ****       info.Catch.back_val = catch_back.Get();
 1260              		.loc 1 52 7 is_stmt 1 view .LVU343
 1261              		.loc 1 52 43 is_stmt 0 view .LVU344
 1262 0090 4046     		mov	r0, r8
 1263 0092 FFF7FEFF 		bl	_ZN9MovingAve3GetEv
 1264              	.LVL113:
 1265 0096 51EC100B 		vmov	r0, r1, d0
 1266              		.loc 1 52 27 view .LVU345
 1267 009a FFF7FEFF 		bl	__aeabi_d2uiz
 1268              	.LVL114:
ARM GAS  /var/folders/5c/srt4fy4j1pd641bjfx75k5000000gn/T//ccCyP7bK.s 			page 30


 1269 009e 80B2     		uxth	r0, r0
 1270 00a0 A084     		strh	r0, [r4, #36]	@ movhi
  53:src/unit/robot/robot.cpp **** 
  54:src/unit/robot/robot.cpp ****       info.Catch.is_front = info.Catch.front_val < CATCH_FRONT_TH ? 1 : 0;
 1271              		.loc 1 54 7 is_stmt 1 view .LVU346
 1272              		.loc 1 54 40 is_stmt 0 view .LVU347
 1273 00a2 238C     		ldrh	r3, [r4, #32]
 1274              		.loc 1 54 67 view .LVU348
 1275 00a4 40F2F312 		movw	r2, #499
 1276 00a8 9342     		cmp	r3, r2
 1277 00aa 8CBF     		ite	hi
 1278 00ac 0023     		movhi	r3, #0
 1279 00ae 0123     		movls	r3, #1
 1280              		.loc 1 54 27 view .LVU349
 1281 00b0 84F82230 		strb	r3, [r4, #34]
  55:src/unit/robot/robot.cpp ****       info.Catch.is_back = info.Catch.back_val < CATCH_BACK_TH ? 1 : 0;
 1282              		.loc 1 55 7 is_stmt 1 view .LVU350
 1283              		.loc 1 55 64 is_stmt 0 view .LVU351
 1284 00b4 9042     		cmp	r0, r2
 1285 00b6 8CBF     		ite	hi
 1286 00b8 0020     		movhi	r0, #0
 1287 00ba 0120     		movls	r0, #1
 1288              		.loc 1 55 26 view .LVU352
 1289 00bc 84F82600 		strb	r0, [r4, #38]
  56:src/unit/robot/robot.cpp **** }
 1290              		.loc 1 56 1 view .LVU353
 1291 00c0 BDE87083 		pop	{r4, r5, r6, r8, r9, pc}
 1292              	.LVL115:
 1293              	.L37:
 1294              		.loc 1 56 1 view .LVU354
 1295 00c4 AFF30080 		.align	3
 1296              	.L36:
 1297 00c8 9A999999 		.word	-1717986918
 1298 00cc 99998A3F 		.word	1066047897
 1299 00d0 00AAF1D2 		.word	-755914240
 1300 00d4 4D62503F 		.word	1062232653
 1301 00d8 2B8716D9 		.word	-652835029
 1302 00dc CEF7EF3F 		.word	1072691150
 1303 00e0 00000000 		.word	adc_get_val
 1304 00e4 00000000 		.word	_ZZN5Robot10GetSensorsEvE11pre_voltage
 1305              		.cfi_endproc
 1306              	.LFE291:
 1307              		.fnend
 1309              		.global	__aeabi_dsub
 1310              		.global	__aeabi_d2iz
 1311              		.section	.text._ZN5Robot7ImuUartEv,"ax",%progbits
 1312              		.align	1
 1313              		.global	_ZN5Robot7ImuUartEv
 1314              		.syntax unified
 1315              		.thumb
 1316              		.thumb_func
 1318              	_ZN5Robot7ImuUartEv:
 1319              		.fnstart
 1320              	.LVL116:
 1321              	.LFB292:
  57:src/unit/robot/robot.cpp **** 
  58:src/unit/robot/robot.cpp **** void Robot::ImuUart() {
ARM GAS  /var/folders/5c/srt4fy4j1pd641bjfx75k5000000gn/T//ccCyP7bK.s 			page 31


 1322              		.loc 1 58 23 is_stmt 1 view -0
 1323              		.cfi_startproc
 1324              		@ args = 0, pretend = 0, frame = 0
 1325              		@ frame_needed = 0, uses_anonymous_args = 0
 1326              		.loc 1 58 23 is_stmt 0 view .LVU356
 1327 0000 38B5     		push	{r3, r4, r5, lr}
 1328              		.save {r3, r4, r5, lr}
 1329              	.LCFI7:
 1330              		.cfi_def_cfa_offset 16
 1331              		.cfi_offset 3, -16
 1332              		.cfi_offset 4, -12
 1333              		.cfi_offset 5, -8
 1334              		.cfi_offset 14, -4
 1335 0002 0546     		mov	r5, r0
  59:src/unit/robot/robot.cpp ****       while (serial1.available()) {
 1336              		.loc 1 59 7 is_stmt 1 view .LVU357
 1337 0004 0BE0     		b	.L39
 1338              	.LVL117:
 1339              	.L50:
 1340              	.LBB215:
  60:src/unit/robot/robot.cpp ****             static const uint8_t HEADER = 0xFF;  // ヘッダ
  61:src/unit/robot/robot.cpp ****             static const uint8_t FOOTER = 0xAA;  // ヘッダ
  62:src/unit/robot/robot.cpp ****             static const uint8_t dataSize = 6;   // データのサイズ
  63:src/unit/robot/robot.cpp ****             static uint8_t index = 0;            // 受信したデータのインデックスカ
  64:src/unit/robot/robot.cpp ****             static uint8_t recv_data[dataSize];  // 受信したデータ
  65:src/unit/robot/robot.cpp ****             static uint8_t recv_byte;
  66:src/unit/robot/robot.cpp **** 
  67:src/unit/robot/robot.cpp ****             recv_byte = serial1.read();
  68:src/unit/robot/robot.cpp ****             if (index == 0) {
  69:src/unit/robot/robot.cpp ****                   if (recv_byte == HEADER) {
  70:src/unit/robot/robot.cpp ****                         index++;
 1341              		.loc 1 70 25 view .LVU358
 1342              		.loc 1 70 30 is_stmt 0 view .LVU359
 1343 0006 0133     		adds	r3, r3, #1
 1344 0008 354A     		ldr	r2, .L52+8
 1345 000a 1370     		strb	r3, [r2]
 1346 000c 07E0     		b	.L39
 1347              	.L40:
  71:src/unit/robot/robot.cpp ****                   } else {
  72:src/unit/robot/robot.cpp ****                         index = 0;
  73:src/unit/robot/robot.cpp ****                   }
  74:src/unit/robot/robot.cpp ****             } else if (index == (dataSize + 1)) {
 1348              		.loc 1 74 20 is_stmt 1 view .LVU360
 1349 000e 072B     		cmp	r3, #7
 1350 0010 1CD0     		beq	.L48
  75:src/unit/robot/robot.cpp ****                   if (recv_byte == FOOTER) {
  76:src/unit/robot/robot.cpp ****                         if (info.Imu.is_initialized == 0) info.Imu.is_initialized = 1;
  77:src/unit/robot/robot.cpp ****                         info.Imu.yaw = ((((uint16_t)recv_data[0] << 8) & 0xFF00) | ((int16_t)recv_d
  78:src/unit/robot/robot.cpp ****                         info.Imu.pitch = ((((uint16_t)recv_data[2] << 8) & 0xFF00) | ((int16_t)recv
  79:src/unit/robot/robot.cpp ****                         info.Imu.roll = ((((uint16_t)recv_data[4] << 8) & 0xFF00) | ((int16_t)recv_
  80:src/unit/robot/robot.cpp ****                   }
  81:src/unit/robot/robot.cpp ****                   index = 0;
  82:src/unit/robot/robot.cpp ****             } else {
  83:src/unit/robot/robot.cpp ****                   recv_data[index - 1] = recv_byte;
 1351              		.loc 1 83 19 view .LVU361
 1352              		.loc 1 83 35 is_stmt 0 view .LVU362
 1353 0012 5A1E     		subs	r2, r3, #1
ARM GAS  /var/folders/5c/srt4fy4j1pd641bjfx75k5000000gn/T//ccCyP7bK.s 			page 32


 1354              		.loc 1 83 40 view .LVU363
 1355 0014 3349     		ldr	r1, .L52+12
 1356 0016 8854     		strb	r0, [r1, r2]
  84:src/unit/robot/robot.cpp ****                   index++;
 1357              		.loc 1 84 19 is_stmt 1 view .LVU364
 1358              		.loc 1 84 24 is_stmt 0 view .LVU365
 1359 0018 0133     		adds	r3, r3, #1
 1360 001a 314A     		ldr	r2, .L52+8
 1361 001c 1370     		strb	r3, [r2]
 1362              	.L39:
 1363              		.loc 1 84 24 view .LVU366
 1364              	.LBE215:
  59:src/unit/robot/robot.cpp ****             static const uint8_t HEADER = 0xFF;  // ヘッダ
 1365              		.loc 1 59 31 is_stmt 1 view .LVU367
 1366 001e 05F5B554 		add	r4, r5, #5792
 1367 0022 1C34     		adds	r4, r4, #28
 1368 0024 2046     		mov	r0, r4
 1369 0026 FFF7FEFF 		bl	_ZN14BufferedSerial9availableEv
 1370              	.LVL118:
 1371 002a 0028     		cmp	r0, #0
 1372 002c 52D0     		beq	.L49
 1373              	.LBB216:
  60:src/unit/robot/robot.cpp ****             static const uint8_t FOOTER = 0xAA;  // ヘッダ
 1374              		.loc 1 60 13 view .LVU368
  61:src/unit/robot/robot.cpp ****             static const uint8_t dataSize = 6;   // データのサイズ
 1375              		.loc 1 61 13 view .LVU369
  62:src/unit/robot/robot.cpp ****             static uint8_t index = 0;            // 受信したデータのインデックスカ
 1376              		.loc 1 62 13 view .LVU370
  63:src/unit/robot/robot.cpp ****             static uint8_t recv_data[dataSize];  // 受信したデータ
 1377              		.loc 1 63 13 view .LVU371
  64:src/unit/robot/robot.cpp ****             static uint8_t recv_byte;
 1378              		.loc 1 64 13 view .LVU372
  65:src/unit/robot/robot.cpp **** 
 1379              		.loc 1 65 13 view .LVU373
  67:src/unit/robot/robot.cpp ****             if (index == 0) {
 1380              		.loc 1 67 13 view .LVU374
  67:src/unit/robot/robot.cpp ****             if (index == 0) {
 1381              		.loc 1 67 37 is_stmt 0 view .LVU375
 1382 002e 2046     		mov	r0, r4
 1383 0030 FFF7FEFF 		bl	_ZN14BufferedSerial4readEv
 1384              	.LVL119:
  67:src/unit/robot/robot.cpp ****             if (index == 0) {
 1385              		.loc 1 67 23 view .LVU376
 1386 0034 2C4B     		ldr	r3, .L52+16
 1387 0036 1870     		strb	r0, [r3]
  68:src/unit/robot/robot.cpp ****                   if (recv_byte == HEADER) {
 1388              		.loc 1 68 13 is_stmt 1 view .LVU377
  68:src/unit/robot/robot.cpp ****                   if (recv_byte == HEADER) {
 1389              		.loc 1 68 23 is_stmt 0 view .LVU378
 1390 0038 294B     		ldr	r3, .L52+8
 1391 003a 1B78     		ldrb	r3, [r3]	@ zero_extendqisi2
  68:src/unit/robot/robot.cpp ****                   if (recv_byte == HEADER) {
 1392              		.loc 1 68 13 view .LVU379
 1393 003c 002B     		cmp	r3, #0
 1394 003e E6D1     		bne	.L40
  69:src/unit/robot/robot.cpp ****                         index++;
 1395              		.loc 1 69 19 is_stmt 1 view .LVU380
ARM GAS  /var/folders/5c/srt4fy4j1pd641bjfx75k5000000gn/T//ccCyP7bK.s 			page 33


 1396 0040 FF28     		cmp	r0, #255
 1397 0042 E0D0     		beq	.L50
  72:src/unit/robot/robot.cpp ****                   }
 1398              		.loc 1 72 25 view .LVU381
  72:src/unit/robot/robot.cpp ****                   }
 1399              		.loc 1 72 31 is_stmt 0 view .LVU382
 1400 0044 264B     		ldr	r3, .L52+8
 1401 0046 0022     		movs	r2, #0
 1402 0048 1A70     		strb	r2, [r3]
 1403 004a E8E7     		b	.L39
 1404              	.L48:
  75:src/unit/robot/robot.cpp ****                         if (info.Imu.is_initialized == 0) info.Imu.is_initialized = 1;
 1405              		.loc 1 75 19 is_stmt 1 view .LVU383
 1406 004c AA28     		cmp	r0, #170
 1407 004e 03D0     		beq	.L51
 1408              	.L44:
  81:src/unit/robot/robot.cpp ****             } else {
 1409              		.loc 1 81 19 view .LVU384
  81:src/unit/robot/robot.cpp ****             } else {
 1410              		.loc 1 81 25 is_stmt 0 view .LVU385
 1411 0050 234B     		ldr	r3, .L52+8
 1412 0052 0022     		movs	r2, #0
 1413 0054 1A70     		strb	r2, [r3]
 1414 0056 E2E7     		b	.L39
 1415              	.L51:
  76:src/unit/robot/robot.cpp ****                         info.Imu.yaw = ((((uint16_t)recv_data[0] << 8) & 0xFF00) | ((int16_t)recv_d
 1416              		.loc 1 76 25 is_stmt 1 view .LVU386
  76:src/unit/robot/robot.cpp ****                         info.Imu.yaw = ((((uint16_t)recv_data[0] << 8) & 0xFF00) | ((int16_t)recv_d
 1417              		.loc 1 76 38 is_stmt 0 view .LVU387
 1418 0058 95F82830 		ldrb	r3, [r5, #40]	@ zero_extendqisi2
  76:src/unit/robot/robot.cpp ****                         info.Imu.yaw = ((((uint16_t)recv_data[0] << 8) & 0xFF00) | ((int16_t)recv_d
 1419              		.loc 1 76 25 view .LVU388
 1420 005c 13B9     		cbnz	r3, .L45
  76:src/unit/robot/robot.cpp ****                         info.Imu.yaw = ((((uint16_t)recv_data[0] << 8) & 0xFF00) | ((int16_t)recv_d
 1421              		.loc 1 76 59 is_stmt 1 discriminator 1 view .LVU389
  76:src/unit/robot/robot.cpp ****                         info.Imu.yaw = ((((uint16_t)recv_data[0] << 8) & 0xFF00) | ((int16_t)recv_d
 1422              		.loc 1 76 83 is_stmt 0 discriminator 1 view .LVU390
 1423 005e 0123     		movs	r3, #1
 1424 0060 85F82830 		strb	r3, [r5, #40]
 1425              	.L45:
  77:src/unit/robot/robot.cpp ****                         info.Imu.pitch = ((((uint16_t)recv_data[2] << 8) & 0xFF00) | ((int16_t)recv
 1426              		.loc 1 77 25 is_stmt 1 view .LVU391
  77:src/unit/robot/robot.cpp ****                         info.Imu.pitch = ((((uint16_t)recv_data[2] << 8) & 0xFF00) | ((int16_t)recv
 1427              		.loc 1 77 64 is_stmt 0 view .LVU392
 1428 0064 1F4C     		ldr	r4, .L52+12
 1429 0066 2078     		ldrb	r0, [r4]	@ zero_extendqisi2
  77:src/unit/robot/robot.cpp ****                         info.Imu.pitch = ((((uint16_t)recv_data[2] << 8) & 0xFF00) | ((int16_t)recv
 1430              		.loc 1 77 105 view .LVU393
 1431 0068 6378     		ldrb	r3, [r4, #1]	@ zero_extendqisi2
  77:src/unit/robot/robot.cpp ****                         info.Imu.pitch = ((((uint16_t)recv_data[2] << 8) & 0xFF00) | ((int16_t)recv
 1432              		.loc 1 77 118 view .LVU394
 1433 006a 43EA0020 		orr	r0, r3, r0, lsl #8
 1434 006e FFF7FEFF 		bl	__aeabi_i2d
 1435              	.LVL120:
 1436 0072 19A3     		adr	r3, .L52
 1437 0074 D3E90023 		ldrd	r2, [r3]
 1438 0078 FFF7FEFF 		bl	__aeabi_dmul
ARM GAS  /var/folders/5c/srt4fy4j1pd641bjfx75k5000000gn/T//ccCyP7bK.s 			page 34


 1439              	.LVL121:
  77:src/unit/robot/robot.cpp ****                         info.Imu.pitch = ((((uint16_t)recv_data[2] << 8) & 0xFF00) | ((int16_t)recv
 1440              		.loc 1 77 124 view .LVU395
 1441 007c 0022     		movs	r2, #0
 1442 007e 1B4B     		ldr	r3, .L52+20
 1443 0080 FFF7FEFF 		bl	__aeabi_dsub
 1444              	.LVL122:
  77:src/unit/robot/robot.cpp ****                         info.Imu.pitch = ((((uint16_t)recv_data[2] << 8) & 0xFF00) | ((int16_t)recv
 1445              		.loc 1 77 38 view .LVU396
 1446 0084 FFF7FEFF 		bl	__aeabi_d2iz
 1447              	.LVL123:
 1448 0088 6885     		strh	r0, [r5, #42]	@ movhi
  78:src/unit/robot/robot.cpp ****                         info.Imu.roll = ((((uint16_t)recv_data[4] << 8) & 0xFF00) | ((int16_t)recv_
 1449              		.loc 1 78 25 is_stmt 1 view .LVU397
  78:src/unit/robot/robot.cpp ****                         info.Imu.roll = ((((uint16_t)recv_data[4] << 8) & 0xFF00) | ((int16_t)recv_
 1450              		.loc 1 78 66 is_stmt 0 view .LVU398
 1451 008a A078     		ldrb	r0, [r4, #2]	@ zero_extendqisi2
  78:src/unit/robot/robot.cpp ****                         info.Imu.roll = ((((uint16_t)recv_data[4] << 8) & 0xFF00) | ((int16_t)recv_
 1452              		.loc 1 78 107 view .LVU399
 1453 008c E378     		ldrb	r3, [r4, #3]	@ zero_extendqisi2
  78:src/unit/robot/robot.cpp ****                         info.Imu.roll = ((((uint16_t)recv_data[4] << 8) & 0xFF00) | ((int16_t)recv_
 1454              		.loc 1 78 120 view .LVU400
 1455 008e 43EA0020 		orr	r0, r3, r0, lsl #8
 1456 0092 FFF7FEFF 		bl	__aeabi_i2d
 1457              	.LVL124:
 1458 0096 10A3     		adr	r3, .L52
 1459 0098 D3E90023 		ldrd	r2, [r3]
 1460 009c FFF7FEFF 		bl	__aeabi_dmul
 1461              	.LVL125:
  78:src/unit/robot/robot.cpp ****                         info.Imu.roll = ((((uint16_t)recv_data[4] << 8) & 0xFF00) | ((int16_t)recv_
 1462              		.loc 1 78 126 view .LVU401
 1463 00a0 0022     		movs	r2, #0
 1464 00a2 124B     		ldr	r3, .L52+20
 1465 00a4 FFF7FEFF 		bl	__aeabi_dsub
 1466              	.LVL126:
  78:src/unit/robot/robot.cpp ****                         info.Imu.roll = ((((uint16_t)recv_data[4] << 8) & 0xFF00) | ((int16_t)recv_
 1467              		.loc 1 78 40 view .LVU402
 1468 00a8 FFF7FEFF 		bl	__aeabi_d2iz
 1469              	.LVL127:
 1470 00ac A885     		strh	r0, [r5, #44]	@ movhi
  79:src/unit/robot/robot.cpp ****                   }
 1471              		.loc 1 79 25 is_stmt 1 view .LVU403
  79:src/unit/robot/robot.cpp ****                   }
 1472              		.loc 1 79 65 is_stmt 0 view .LVU404
 1473 00ae 2079     		ldrb	r0, [r4, #4]	@ zero_extendqisi2
  79:src/unit/robot/robot.cpp ****                   }
 1474              		.loc 1 79 106 view .LVU405
 1475 00b0 6379     		ldrb	r3, [r4, #5]	@ zero_extendqisi2
  79:src/unit/robot/robot.cpp ****                   }
 1476              		.loc 1 79 119 view .LVU406
 1477 00b2 43EA0020 		orr	r0, r3, r0, lsl #8
 1478 00b6 FFF7FEFF 		bl	__aeabi_i2d
 1479              	.LVL128:
 1480 00ba 07A3     		adr	r3, .L52
 1481 00bc D3E90023 		ldrd	r2, [r3]
 1482 00c0 FFF7FEFF 		bl	__aeabi_dmul
 1483              	.LVL129:
ARM GAS  /var/folders/5c/srt4fy4j1pd641bjfx75k5000000gn/T//ccCyP7bK.s 			page 35


  79:src/unit/robot/robot.cpp ****                   }
 1484              		.loc 1 79 125 view .LVU407
 1485 00c4 0022     		movs	r2, #0
 1486 00c6 094B     		ldr	r3, .L52+20
 1487 00c8 FFF7FEFF 		bl	__aeabi_dsub
 1488              	.LVL130:
  79:src/unit/robot/robot.cpp ****                   }
 1489              		.loc 1 79 39 view .LVU408
 1490 00cc FFF7FEFF 		bl	__aeabi_d2iz
 1491              	.LVL131:
 1492 00d0 E885     		strh	r0, [r5, #46]	@ movhi
 1493 00d2 BDE7     		b	.L44
 1494              	.L49:
  79:src/unit/robot/robot.cpp ****                   }
 1495              		.loc 1 79 39 view .LVU409
 1496              	.LBE216:
  85:src/unit/robot/robot.cpp ****             }
  86:src/unit/robot/robot.cpp ****       }
  87:src/unit/robot/robot.cpp **** }
 1497              		.loc 1 87 1 view .LVU410
 1498 00d4 38BD     		pop	{r3, r4, r5, pc}
 1499              	.LVL132:
 1500              	.L53:
 1501              		.loc 1 87 1 view .LVU411
 1502 00d6 00BF     		.align	3
 1503              	.L52:
 1504 00d8 9A999999 		.word	-1717986918
 1505 00dc 9999B93F 		.word	1069128089
 1506 00e0 00000000 		.word	_ZZN5Robot7ImuUartEvE5index
 1507 00e4 00000000 		.word	_ZZN5Robot7ImuUartEvE9recv_data
 1508 00e8 00000000 		.word	_ZZN5Robot7ImuUartEvE9recv_byte
 1509 00ec 00806640 		.word	1080459264
 1510              		.cfi_endproc
 1511              	.LFE292:
 1512              		.fnend
 1514              		.section	.text._ZN5Robot8LineUartEv,"ax",%progbits
 1515              		.align	1
 1516              		.global	_ZN5Robot8LineUartEv
 1517              		.syntax unified
 1518              		.thumb
 1519              		.thumb_func
 1521              	_ZN5Robot8LineUartEv:
 1522              		.fnstart
 1523              	.LVL133:
 1524              	.LFB293:
  88:src/unit/robot/robot.cpp **** 
  89:src/unit/robot/robot.cpp **** void Robot::LineUart() {
 1525              		.loc 1 89 24 is_stmt 1 view -0
 1526              		.cfi_startproc
 1527              		@ args = 0, pretend = 0, frame = 8
 1528              		@ frame_needed = 0, uses_anonymous_args = 0
 1529              		.loc 1 89 24 is_stmt 0 view .LVU413
 1530 0000 30B5     		push	{r4, r5, lr}
 1531              		.save {r4, r5, lr}
 1532              	.LCFI8:
 1533              		.cfi_def_cfa_offset 12
 1534              		.cfi_offset 4, -12
ARM GAS  /var/folders/5c/srt4fy4j1pd641bjfx75k5000000gn/T//ccCyP7bK.s 			page 36


 1535              		.cfi_offset 5, -8
 1536              		.cfi_offset 14, -4
 1537              		.pad #12
 1538 0002 83B0     		sub	sp, sp, #12
 1539              	.LCFI9:
 1540              		.cfi_def_cfa_offset 24
 1541 0004 0546     		mov	r5, r0
  90:src/unit/robot/robot.cpp ****       while (serial2.available()) {
 1542              		.loc 1 90 7 is_stmt 1 view .LVU414
 1543 0006 0BE0     		b	.L55
 1544              	.LVL134:
 1545              	.L68:
 1546              	.LBB217:
 1547              	.LBB218:
  91:src/unit/robot/robot.cpp ****             static const uint8_t HEADER = 0xFF;   // ヘッダ
  92:src/unit/robot/robot.cpp ****             static const uint8_t FOOTER = 0xAA;   // フッタ
  93:src/unit/robot/robot.cpp ****             static const uint8_t data_size = 6;   // データのサイズ
  94:src/unit/robot/robot.cpp ****             static uint8_t index = 0;             // 受信したデータのインデックスカ
  95:src/unit/robot/robot.cpp ****             static uint8_t recv_data[data_size];  // 受信したデータ
  96:src/unit/robot/robot.cpp ****             static uint8_t recv_byte;
  97:src/unit/robot/robot.cpp **** 
  98:src/unit/robot/robot.cpp ****             recv_byte = serial2.read();
  99:src/unit/robot/robot.cpp ****             if (index == 0) {
 100:src/unit/robot/robot.cpp ****                   if (recv_byte == HEADER) {
 101:src/unit/robot/robot.cpp ****                         index++;
 1548              		.loc 1 101 25 view .LVU415
 1549              		.loc 1 101 30 is_stmt 0 view .LVU416
 1550 0008 0133     		adds	r3, r3, #1
 1551 000a 384A     		ldr	r2, .L71
 1552 000c 1370     		strb	r3, [r2]
 1553 000e 07E0     		b	.L55
 1554              	.L56:
 1555              	.LBE218:
 1556              	.LBE217:
 102:src/unit/robot/robot.cpp ****                   } else {
 103:src/unit/robot/robot.cpp ****                         index = 0;
 104:src/unit/robot/robot.cpp ****                   }
 105:src/unit/robot/robot.cpp ****             } else if (index == (data_size + 1)) {
 1557              		.loc 1 105 20 is_stmt 1 view .LVU417
 1558              	.LBB228:
 1559              	.LBB226:
 1560              	.LBB219:
 1561 0010 072B     		cmp	r3, #7
 1562 0012 1CD0     		beq	.L66
 106:src/unit/robot/robot.cpp ****                   if (recv_byte == FOOTER) {
 107:src/unit/robot/robot.cpp ****                         if (info.Line.is_initialized == 0) info.Line.is_initialized = 1;
 108:src/unit/robot/robot.cpp **** 
 109:src/unit/robot/robot.cpp ****                         bool is_half_out;
 110:src/unit/robot/robot.cpp ****                         info.motor_rps[0] = recv_data[0];
 111:src/unit/robot/robot.cpp ****                         info.motor_rps[1] = recv_data[1];
 112:src/unit/robot/robot.cpp ****                         info.motor_rps[2] = recv_data[2];
 113:src/unit/robot/robot.cpp ****                         info.motor_rps[3] = recv_data[3];
 114:src/unit/robot/robot.cpp ****                         info.Line.interval = recv_data[4] >> 4;
 115:src/unit/robot/robot.cpp ****                         info.Line.is_on_line = (recv_data[4] >> 3) & 1;
 116:src/unit/robot/robot.cpp ****                         is_half_out = (recv_data[4] >> 2) & 1;
 117:src/unit/robot/robot.cpp ****                         info.Line.is_leftside = (recv_data[4] >> 1) & 1;
 118:src/unit/robot/robot.cpp ****                         info.Line.is_rightside = recv_data[4] & 1;
ARM GAS  /var/folders/5c/srt4fy4j1pd641bjfx75k5000000gn/T//ccCyP7bK.s 			page 37


 119:src/unit/robot/robot.cpp ****                         info.Line.dir = recv_data[5] * 2 - 180;
 120:src/unit/robot/robot.cpp **** 
 121:src/unit/robot/robot.cpp ****                         if (is_half_out == 1) {
 122:src/unit/robot/robot.cpp ****                               info.Line.inside_dir = info.Line.dir;
 123:src/unit/robot/robot.cpp ****                               info.Line.depth = 24 - info.Line.interval;
 124:src/unit/robot/robot.cpp ****                         } else {
 125:src/unit/robot/robot.cpp ****                               info.Line.inside_dir = MyMath::NormalizeDeg180(info.Line.dir + 180);
 126:src/unit/robot/robot.cpp ****                               info.Line.depth = info.Line.interval;
 127:src/unit/robot/robot.cpp ****                         }
 128:src/unit/robot/robot.cpp ****                   }
 129:src/unit/robot/robot.cpp ****                   index = 0;
 130:src/unit/robot/robot.cpp ****             } else {
 131:src/unit/robot/robot.cpp ****                   recv_data[index - 1] = recv_byte;
 1563              		.loc 1 131 19 view .LVU418
 1564              		.loc 1 131 35 is_stmt 0 view .LVU419
 1565 0014 5A1E     		subs	r2, r3, #1
 1566              		.loc 1 131 40 view .LVU420
 1567 0016 3649     		ldr	r1, .L71+4
 1568 0018 8854     		strb	r0, [r1, r2]
 132:src/unit/robot/robot.cpp ****                   index++;
 1569              		.loc 1 132 19 is_stmt 1 view .LVU421
 1570              		.loc 1 132 24 is_stmt 0 view .LVU422
 1571 001a 0133     		adds	r3, r3, #1
 1572 001c 334A     		ldr	r2, .L71
 1573 001e 1370     		strb	r3, [r2]
 1574              	.L55:
 1575              		.loc 1 132 24 view .LVU423
 1576              	.LBE219:
 1577              	.LBE226:
 1578              	.LBE228:
  90:src/unit/robot/robot.cpp ****             static const uint8_t HEADER = 0xFF;   // ヘッダ
 1579              		.loc 1 90 31 is_stmt 1 view .LVU424
 1580 0020 05F5B654 		add	r4, r5, #5824
 1581 0024 0C34     		adds	r4, r4, #12
 1582 0026 2046     		mov	r0, r4
 1583 0028 FFF7FEFF 		bl	_ZN14BufferedSerial9availableEv
 1584              	.LVL135:
 1585 002c 0028     		cmp	r0, #0
 1586 002e 40D0     		beq	.L67
 1587              	.LBB229:
  91:src/unit/robot/robot.cpp ****             static const uint8_t FOOTER = 0xAA;   // フッタ
 1588              		.loc 1 91 13 view .LVU425
  92:src/unit/robot/robot.cpp ****             static const uint8_t data_size = 6;   // データのサイズ
 1589              		.loc 1 92 13 view .LVU426
  93:src/unit/robot/robot.cpp ****             static uint8_t index = 0;             // 受信したデータのインデックスカ
 1590              		.loc 1 93 13 view .LVU427
  94:src/unit/robot/robot.cpp ****             static uint8_t recv_data[data_size];  // 受信したデータ
 1591              		.loc 1 94 13 view .LVU428
  95:src/unit/robot/robot.cpp ****             static uint8_t recv_byte;
 1592              		.loc 1 95 13 view .LVU429
  96:src/unit/robot/robot.cpp **** 
 1593              		.loc 1 96 13 view .LVU430
  98:src/unit/robot/robot.cpp ****             if (index == 0) {
 1594              		.loc 1 98 13 view .LVU431
  98:src/unit/robot/robot.cpp ****             if (index == 0) {
 1595              		.loc 1 98 37 is_stmt 0 view .LVU432
 1596 0030 2046     		mov	r0, r4
ARM GAS  /var/folders/5c/srt4fy4j1pd641bjfx75k5000000gn/T//ccCyP7bK.s 			page 38


 1597 0032 FFF7FEFF 		bl	_ZN14BufferedSerial4readEv
 1598              	.LVL136:
  98:src/unit/robot/robot.cpp ****             if (index == 0) {
 1599              		.loc 1 98 23 view .LVU433
 1600 0036 2F4B     		ldr	r3, .L71+8
 1601 0038 1870     		strb	r0, [r3]
  99:src/unit/robot/robot.cpp ****                   if (recv_byte == HEADER) {
 1602              		.loc 1 99 13 is_stmt 1 view .LVU434
 1603              	.LBB227:
  99:src/unit/robot/robot.cpp ****                   if (recv_byte == HEADER) {
 1604              		.loc 1 99 23 is_stmt 0 view .LVU435
 1605 003a 2C4B     		ldr	r3, .L71
 1606 003c 1B78     		ldrb	r3, [r3]	@ zero_extendqisi2
  99:src/unit/robot/robot.cpp ****                   if (recv_byte == HEADER) {
 1607              		.loc 1 99 13 view .LVU436
 1608 003e 002B     		cmp	r3, #0
 1609 0040 E6D1     		bne	.L56
 100:src/unit/robot/robot.cpp ****                         index++;
 1610              		.loc 1 100 19 is_stmt 1 view .LVU437
 1611 0042 FF28     		cmp	r0, #255
 1612 0044 E0D0     		beq	.L68
 103:src/unit/robot/robot.cpp ****                   }
 1613              		.loc 1 103 25 view .LVU438
 103:src/unit/robot/robot.cpp ****                   }
 1614              		.loc 1 103 31 is_stmt 0 view .LVU439
 1615 0046 294B     		ldr	r3, .L71
 1616 0048 0022     		movs	r2, #0
 1617 004a 1A70     		strb	r2, [r3]
 1618 004c E8E7     		b	.L55
 1619              	.L66:
 1620              	.LBB225:
 1621              	.LBB220:
 106:src/unit/robot/robot.cpp ****                         if (info.Line.is_initialized == 0) info.Line.is_initialized = 1;
 1622              		.loc 1 106 19 is_stmt 1 view .LVU440
 1623              	.LBB221:
 1624 004e AA28     		cmp	r0, #170
 1625 0050 03D0     		beq	.L69
 1626              	.L60:
 1627              	.LBE221:
 129:src/unit/robot/robot.cpp ****             } else {
 1628              		.loc 1 129 19 view .LVU441
 129:src/unit/robot/robot.cpp ****             } else {
 1629              		.loc 1 129 25 is_stmt 0 view .LVU442
 1630 0052 264B     		ldr	r3, .L71
 1631 0054 0022     		movs	r2, #0
 1632 0056 1A70     		strb	r2, [r3]
 1633              	.LBE220:
 1634 0058 E2E7     		b	.L55
 1635              	.L69:
 1636              	.LBB224:
 1637              	.LBB223:
 1638              	.LBB222:
 107:src/unit/robot/robot.cpp **** 
 1639              		.loc 1 107 25 is_stmt 1 view .LVU443
 107:src/unit/robot/robot.cpp **** 
 1640              		.loc 1 107 39 is_stmt 0 view .LVU444
 1641 005a 2B7D     		ldrb	r3, [r5, #20]	@ zero_extendqisi2
ARM GAS  /var/folders/5c/srt4fy4j1pd641bjfx75k5000000gn/T//ccCyP7bK.s 			page 39


 107:src/unit/robot/robot.cpp **** 
 1642              		.loc 1 107 25 view .LVU445
 1643 005c 0BB9     		cbnz	r3, .L61
 107:src/unit/robot/robot.cpp **** 
 1644              		.loc 1 107 60 is_stmt 1 discriminator 1 view .LVU446
 107:src/unit/robot/robot.cpp **** 
 1645              		.loc 1 107 85 is_stmt 0 discriminator 1 view .LVU447
 1646 005e 0123     		movs	r3, #1
 1647 0060 2B75     		strb	r3, [r5, #20]
 1648              	.L61:
 109:src/unit/robot/robot.cpp ****                         info.motor_rps[0] = recv_data[0];
 1649              		.loc 1 109 25 is_stmt 1 view .LVU448
 110:src/unit/robot/robot.cpp ****                         info.motor_rps[1] = recv_data[1];
 1650              		.loc 1 110 25 view .LVU449
 110:src/unit/robot/robot.cpp ****                         info.motor_rps[1] = recv_data[1];
 1651              		.loc 1 110 56 is_stmt 0 view .LVU450
 1652 0062 234B     		ldr	r3, .L71+4
 1653 0064 1A78     		ldrb	r2, [r3]	@ zero_extendqisi2
 110:src/unit/robot/robot.cpp ****                         info.motor_rps[1] = recv_data[1];
 1654              		.loc 1 110 43 view .LVU451
 1655 0066 2A71     		strb	r2, [r5, #4]
 111:src/unit/robot/robot.cpp ****                         info.motor_rps[2] = recv_data[2];
 1656              		.loc 1 111 25 is_stmt 1 view .LVU452
 111:src/unit/robot/robot.cpp ****                         info.motor_rps[2] = recv_data[2];
 1657              		.loc 1 111 56 is_stmt 0 view .LVU453
 1658 0068 5A78     		ldrb	r2, [r3, #1]	@ zero_extendqisi2
 111:src/unit/robot/robot.cpp ****                         info.motor_rps[2] = recv_data[2];
 1659              		.loc 1 111 43 view .LVU454
 1660 006a 6A71     		strb	r2, [r5, #5]
 112:src/unit/robot/robot.cpp ****                         info.motor_rps[3] = recv_data[3];
 1661              		.loc 1 112 25 is_stmt 1 view .LVU455
 112:src/unit/robot/robot.cpp ****                         info.motor_rps[3] = recv_data[3];
 1662              		.loc 1 112 56 is_stmt 0 view .LVU456
 1663 006c 9A78     		ldrb	r2, [r3, #2]	@ zero_extendqisi2
 112:src/unit/robot/robot.cpp ****                         info.motor_rps[3] = recv_data[3];
 1664              		.loc 1 112 43 view .LVU457
 1665 006e AA71     		strb	r2, [r5, #6]
 113:src/unit/robot/robot.cpp ****                         info.Line.interval = recv_data[4] >> 4;
 1666              		.loc 1 113 25 is_stmt 1 view .LVU458
 113:src/unit/robot/robot.cpp ****                         info.Line.interval = recv_data[4] >> 4;
 1667              		.loc 1 113 56 is_stmt 0 view .LVU459
 1668 0070 DA78     		ldrb	r2, [r3, #3]	@ zero_extendqisi2
 113:src/unit/robot/robot.cpp ****                         info.Line.interval = recv_data[4] >> 4;
 1669              		.loc 1 113 43 view .LVU460
 1670 0072 EA71     		strb	r2, [r5, #7]
 114:src/unit/robot/robot.cpp ****                         info.Line.is_on_line = (recv_data[4] >> 3) & 1;
 1671              		.loc 1 114 25 is_stmt 1 view .LVU461
 114:src/unit/robot/robot.cpp ****                         info.Line.is_on_line = (recv_data[4] >> 3) & 1;
 1672              		.loc 1 114 57 is_stmt 0 view .LVU462
 1673 0074 1A79     		ldrb	r2, [r3, #4]	@ zero_extendqisi2
 114:src/unit/robot/robot.cpp ****                         info.Line.is_on_line = (recv_data[4] >> 3) & 1;
 1674              		.loc 1 114 59 view .LVU463
 1675 0076 1109     		lsrs	r1, r2, #4
 114:src/unit/robot/robot.cpp ****                         info.Line.is_on_line = (recv_data[4] >> 3) & 1;
 1676              		.loc 1 114 44 view .LVU464
 1677 0078 6975     		strb	r1, [r5, #21]
 115:src/unit/robot/robot.cpp ****                         is_half_out = (recv_data[4] >> 2) & 1;
ARM GAS  /var/folders/5c/srt4fy4j1pd641bjfx75k5000000gn/T//ccCyP7bK.s 			page 40


 1678              		.loc 1 115 25 is_stmt 1 view .LVU465
 115:src/unit/robot/robot.cpp ****                         is_half_out = (recv_data[4] >> 2) & 1;
 1679              		.loc 1 115 68 is_stmt 0 view .LVU466
 1680 007a C2F3C000 		ubfx	r0, r2, #3, #1
 115:src/unit/robot/robot.cpp ****                         is_half_out = (recv_data[4] >> 2) & 1;
 1681              		.loc 1 115 46 view .LVU467
 1682 007e E875     		strb	r0, [r5, #23]
 116:src/unit/robot/robot.cpp ****                         info.Line.is_leftside = (recv_data[4] >> 1) & 1;
 1683              		.loc 1 116 25 is_stmt 1 view .LVU468
 1684              	.LVL137:
 117:src/unit/robot/robot.cpp ****                         info.Line.is_rightside = recv_data[4] & 1;
 1685              		.loc 1 117 25 view .LVU469
 117:src/unit/robot/robot.cpp ****                         info.Line.is_rightside = recv_data[4] & 1;
 1686              		.loc 1 117 69 is_stmt 0 view .LVU470
 1687 0080 C2F34000 		ubfx	r0, r2, #1, #1
 117:src/unit/robot/robot.cpp ****                         info.Line.is_rightside = recv_data[4] & 1;
 1688              		.loc 1 117 47 view .LVU471
 1689 0084 2876     		strb	r0, [r5, #24]
 118:src/unit/robot/robot.cpp ****                         info.Line.dir = recv_data[5] * 2 - 180;
 1690              		.loc 1 118 25 is_stmt 1 view .LVU472
 118:src/unit/robot/robot.cpp ****                         info.Line.dir = recv_data[5] * 2 - 180;
 1691              		.loc 1 118 63 is_stmt 0 view .LVU473
 1692 0086 02F00100 		and	r0, r2, #1
 118:src/unit/robot/robot.cpp ****                         info.Line.dir = recv_data[5] * 2 - 180;
 1693              		.loc 1 118 48 view .LVU474
 1694 008a 6876     		strb	r0, [r5, #25]
 119:src/unit/robot/robot.cpp **** 
 1695              		.loc 1 119 25 is_stmt 1 view .LVU475
 119:src/unit/robot/robot.cpp **** 
 1696              		.loc 1 119 52 is_stmt 0 view .LVU476
 1697 008c 5879     		ldrb	r0, [r3, #5]	@ zero_extendqisi2
 119:src/unit/robot/robot.cpp **** 
 1698              		.loc 1 119 58 view .LVU477
 1699 008e 5A38     		subs	r0, r0, #90
 119:src/unit/robot/robot.cpp **** 
 1700              		.loc 1 119 39 view .LVU478
 1701 0090 4000     		lsls	r0, r0, #1
 1702 0092 6883     		strh	r0, [r5, #26]	@ movhi
 121:src/unit/robot/robot.cpp ****                               info.Line.inside_dir = info.Line.dir;
 1703              		.loc 1 121 25 is_stmt 1 view .LVU479
 1704 0094 12F0040F 		tst	r2, #4
 1705 0098 04D0     		beq	.L62
 122:src/unit/robot/robot.cpp ****                               info.Line.depth = 24 - info.Line.interval;
 1706              		.loc 1 122 31 view .LVU480
 122:src/unit/robot/robot.cpp ****                               info.Line.depth = 24 - info.Line.interval;
 1707              		.loc 1 122 52 is_stmt 0 view .LVU481
 1708 009a A883     		strh	r0, [r5, #28]	@ movhi
 123:src/unit/robot/robot.cpp ****                         } else {
 1709              		.loc 1 123 31 is_stmt 1 view .LVU482
 123:src/unit/robot/robot.cpp ****                         } else {
 1710              		.loc 1 123 52 is_stmt 0 view .LVU483
 1711 009c C1F11801 		rsb	r1, r1, #24
 123:src/unit/robot/robot.cpp ****                         } else {
 1712              		.loc 1 123 47 view .LVU484
 1713 00a0 A975     		strb	r1, [r5, #22]
 1714 00a2 D6E7     		b	.L60
 1715              	.L62:
ARM GAS  /var/folders/5c/srt4fy4j1pd641bjfx75k5000000gn/T//ccCyP7bK.s 			page 41


 125:src/unit/robot/robot.cpp ****                               info.Line.depth = info.Line.interval;
 1716              		.loc 1 125 31 is_stmt 1 view .LVU485
 125:src/unit/robot/robot.cpp ****                               info.Line.depth = info.Line.interval;
 1717              		.loc 1 125 77 is_stmt 0 view .LVU486
 1718 00a4 B430     		adds	r0, r0, #180
 1719 00a6 FFF7FEFF 		bl	NormalizeDeg180
 1720              	.LVL138:
 125:src/unit/robot/robot.cpp ****                               info.Line.depth = info.Line.interval;
 1721              		.loc 1 125 52 view .LVU487
 1722 00aa A883     		strh	r0, [r5, #28]	@ movhi
 126:src/unit/robot/robot.cpp ****                         }
 1723              		.loc 1 126 31 is_stmt 1 view .LVU488
 126:src/unit/robot/robot.cpp ****                         }
 1724              		.loc 1 126 59 is_stmt 0 view .LVU489
 1725 00ac 6B7D     		ldrb	r3, [r5, #21]	@ zero_extendqisi2
 126:src/unit/robot/robot.cpp ****                         }
 1726              		.loc 1 126 47 view .LVU490
 1727 00ae AB75     		strb	r3, [r5, #22]
 1728 00b0 CFE7     		b	.L60
 1729              	.LVL139:
 1730              	.L67:
 126:src/unit/robot/robot.cpp ****                         }
 1731              		.loc 1 126 47 view .LVU491
 1732              	.LBE222:
 1733              	.LBE223:
 1734              	.LBE224:
 1735              	.LBE225:
 1736              	.LBE227:
 1737              	.LBE229:
 133:src/unit/robot/robot.cpp ****             }
 134:src/unit/robot/robot.cpp ****       }
 135:src/unit/robot/robot.cpp **** 
 136:src/unit/robot/robot.cpp ****       if (line_send_interval_timer.read_us() >= LINE_SEND_PERIOD_US) {
 1738              		.loc 1 136 7 is_stmt 1 view .LVU492
 1739              		.loc 1 136 43 is_stmt 0 view .LVU493
 1740 00b2 05F5B754 		add	r4, r5, #5856
 1741 00b6 1C34     		adds	r4, r4, #28
 1742 00b8 2046     		mov	r0, r4
 1743 00ba FFF7FEFF 		bl	_ZN5Timer7read_usEv
 1744              	.LVL140:
 1745              		.loc 1 136 7 view .LVU494
 1746 00be 42F20F73 		movw	r3, #9999
 1747 00c2 9842     		cmp	r0, r3
 1748 00c4 01D8     		bhi	.L70
 1749              	.LVL141:
 1750              	.L54:
 137:src/unit/robot/robot.cpp ****             serial2.write(info.Line.on_led);
 138:src/unit/robot/robot.cpp ****             line_send_interval_timer.reset();
 139:src/unit/robot/robot.cpp ****       }
 140:src/unit/robot/robot.cpp **** }
 1751              		.loc 1 140 1 view .LVU495
 1752 00c6 03B0     		add	sp, sp, #12
 1753              	.LCFI10:
 1754              		.cfi_remember_state
 1755              		.cfi_def_cfa_offset 12
 1756              		@ sp needed
 1757 00c8 30BD     		pop	{r4, r5, pc}
ARM GAS  /var/folders/5c/srt4fy4j1pd641bjfx75k5000000gn/T//ccCyP7bK.s 			page 42


 1758              	.LVL142:
 1759              	.L70:
 1760              	.LCFI11:
 1761              		.cfi_restore_state
 137:src/unit/robot/robot.cpp ****             serial2.write(info.Line.on_led);
 1762              		.loc 1 137 13 is_stmt 1 view .LVU496
 137:src/unit/robot/robot.cpp ****             serial2.write(info.Line.on_led);
 1763              		.loc 1 137 37 is_stmt 0 view .LVU497
 1764 00ca AB7F     		ldrb	r3, [r5, #30]	@ zero_extendqisi2
 1765              	.LVL143:
 137:src/unit/robot/robot.cpp ****             serial2.write(info.Line.on_led);
 1766              		.loc 1 137 37 view .LVU498
 1767 00cc 8DF80730 		strb	r3, [sp, #7]
 1768              	.LVL144:
 1769              	.LBB230:
 1770              	.LBI230:
  53:Lib/BufferedSerial/BufferedSerial.hpp **** 
  54:Lib/BufferedSerial/BufferedSerial.hpp ****       void write(uint8_t data) {
 1771              		.loc 2 54 12 is_stmt 1 view .LVU499
 1772              	.LBB231:
  55:Lib/BufferedSerial/BufferedSerial.hpp ****             HAL_UART_Transmit(_huart, &data, 1, 100);
 1773              		.loc 2 55 13 view .LVU500
 1774              		.loc 2 55 30 is_stmt 0 view .LVU501
 1775 00d0 05F58055 		add	r5, r5, #4096
 1776              	.LVL145:
 1777              		.loc 2 55 30 view .LVU502
 1778 00d4 6423     		movs	r3, #100
 1779              	.LVL146:
 1780              		.loc 2 55 30 view .LVU503
 1781 00d6 0122     		movs	r2, #1
 1782 00d8 0DF10701 		add	r1, sp, #7
 1783              	.LVL147:
 1784              		.loc 2 55 30 view .LVU504
 1785 00dc D5F8CC06 		ldr	r0, [r5, #1740]
 1786 00e0 FFF7FEFF 		bl	HAL_UART_Transmit
 1787              	.LVL148:
 1788              		.loc 2 55 30 view .LVU505
 1789              	.LBE231:
 1790              	.LBE230:
 138:src/unit/robot/robot.cpp ****       }
 1791              		.loc 1 138 13 is_stmt 1 view .LVU506
 138:src/unit/robot/robot.cpp ****       }
 1792              		.loc 1 138 43 is_stmt 0 view .LVU507
 1793 00e4 2046     		mov	r0, r4
 1794 00e6 FFF7FEFF 		bl	_ZN5Timer5resetEv
 1795              	.LVL149:
 1796              		.loc 1 140 1 view .LVU508
 1797 00ea ECE7     		b	.L54
 1798              	.L72:
 1799              		.align	2
 1800              	.L71:
 1801 00ec 00000000 		.word	_ZZN5Robot8LineUartEvE5index
 1802 00f0 00000000 		.word	_ZZN5Robot8LineUartEvE9recv_data
 1803 00f4 00000000 		.word	_ZZN5Robot8LineUartEvE9recv_byte
 1804              		.cfi_endproc
 1805              	.LFE293:
 1806              		.fnend
ARM GAS  /var/folders/5c/srt4fy4j1pd641bjfx75k5000000gn/T//ccCyP7bK.s 			page 43


 1808              		.section	.text._ZN5Robot6UiUartEv,"ax",%progbits
 1809              		.align	1
 1810              		.global	_ZN5Robot6UiUartEv
 1811              		.syntax unified
 1812              		.thumb
 1813              		.thumb_func
 1815              	_ZN5Robot6UiUartEv:
 1816              		.fnstart
 1817              	.LVL150:
 1818              	.LFB294:
 141:src/unit/robot/robot.cpp **** 
 142:src/unit/robot/robot.cpp **** void Robot::UiUart() {
 1819              		.loc 1 142 22 is_stmt 1 view -0
 1820              		.cfi_startproc
 1821              		@ args = 0, pretend = 0, frame = 16
 1822              		@ frame_needed = 0, uses_anonymous_args = 0
 1823              		.loc 1 142 22 is_stmt 0 view .LVU510
 1824 0000 F0B5     		push	{r4, r5, r6, r7, lr}
 1825              		.save {r4, r5, r6, r7, lr}
 1826              	.LCFI12:
 1827              		.cfi_def_cfa_offset 20
 1828              		.cfi_offset 4, -20
 1829              		.cfi_offset 5, -16
 1830              		.cfi_offset 6, -12
 1831              		.cfi_offset 7, -8
 1832              		.cfi_offset 14, -4
 1833              		.pad #20
 1834 0002 85B0     		sub	sp, sp, #20
 1835              	.LCFI13:
 1836              		.cfi_def_cfa_offset 40
 1837 0004 0546     		mov	r5, r0
 143:src/unit/robot/robot.cpp ****       static int8_t item;
 1838              		.loc 1 143 7 is_stmt 1 view .LVU511
 144:src/unit/robot/robot.cpp ****       static uint8_t sub_item;
 1839              		.loc 1 144 7 view .LVU512
 145:src/unit/robot/robot.cpp **** 
 146:src/unit/robot/robot.cpp ****       while (serial3.available()) {
 1840              		.loc 1 146 7 view .LVU513
 1841 0006 0BE0     		b	.L74
 1842              	.LVL151:
 1843              	.L92:
 1844              	.LBB232:
 147:src/unit/robot/robot.cpp ****             static const uint8_t HEADER = 0xFF;   // ヘッダ
 148:src/unit/robot/robot.cpp ****             static const uint8_t FOOTER = 0xAA;   // ヘッダ
 149:src/unit/robot/robot.cpp ****             static const uint8_t data_size = 4;   // データのサイズ
 150:src/unit/robot/robot.cpp ****             static uint8_t index = 0;             // 受信したデータのインデックスカ
 151:src/unit/robot/robot.cpp ****             static uint8_t recv_data[data_size];  // 受信したデータ
 152:src/unit/robot/robot.cpp ****             static uint8_t recv_byte;
 153:src/unit/robot/robot.cpp **** 
 154:src/unit/robot/robot.cpp ****             recv_byte = serial3.read();
 155:src/unit/robot/robot.cpp ****             if (index == 0) {
 156:src/unit/robot/robot.cpp ****                   if (recv_byte == HEADER) {
 157:src/unit/robot/robot.cpp ****                         index++;
 1845              		.loc 1 157 25 view .LVU514
 1846              		.loc 1 157 30 is_stmt 0 view .LVU515
 1847 0008 0133     		adds	r3, r3, #1
 1848 000a B74A     		ldr	r2, .L101+8
ARM GAS  /var/folders/5c/srt4fy4j1pd641bjfx75k5000000gn/T//ccCyP7bK.s 			page 44


 1849 000c 1370     		strb	r3, [r2]
 1850 000e 07E0     		b	.L74
 1851              	.L75:
 158:src/unit/robot/robot.cpp ****                   } else {
 159:src/unit/robot/robot.cpp ****                         index = 0;
 160:src/unit/robot/robot.cpp ****                   }
 161:src/unit/robot/robot.cpp ****             } else if (index == (data_size + 1)) {
 1852              		.loc 1 161 20 is_stmt 1 view .LVU516
 1853 0010 052B     		cmp	r3, #5
 1854 0012 1CD0     		beq	.L90
 162:src/unit/robot/robot.cpp ****                   if (recv_byte == FOOTER) {
 163:src/unit/robot/robot.cpp ****                         item = ((recv_data[0] >> 4) & 0b00001111) - 8;
 164:src/unit/robot/robot.cpp ****                         sub_item = recv_data[0] & 0b00001111;
 165:src/unit/robot/robot.cpp ****                         info.mode = (recv_data[1] >> 4) & 0b00001111;
 166:src/unit/robot/robot.cpp ****                         info.Ui.dribbler_sig = (recv_data[1] >> 1) & 0b0000111;
 167:src/unit/robot/robot.cpp ****                         info.Ui.set_yaw_zero = recv_data[1] & 0b0000001;
 168:src/unit/robot/robot.cpp ****                         info.moving_speed = recv_data[2] * 0.01;
 169:src/unit/robot/robot.cpp ****                         info.line_moving_speed = recv_data[3] * 0.01;
 170:src/unit/robot/robot.cpp ****                   }
 171:src/unit/robot/robot.cpp ****                   index = 0;
 172:src/unit/robot/robot.cpp ****             } else {
 173:src/unit/robot/robot.cpp ****                   recv_data[index - 1] = recv_byte;
 1855              		.loc 1 173 19 view .LVU517
 1856              		.loc 1 173 35 is_stmt 0 view .LVU518
 1857 0014 5A1E     		subs	r2, r3, #1
 1858              		.loc 1 173 40 view .LVU519
 1859 0016 B549     		ldr	r1, .L101+12
 1860 0018 8854     		strb	r0, [r1, r2]
 174:src/unit/robot/robot.cpp ****                   index++;
 1861              		.loc 1 174 19 is_stmt 1 view .LVU520
 1862              		.loc 1 174 24 is_stmt 0 view .LVU521
 1863 001a 0133     		adds	r3, r3, #1
 1864 001c B24A     		ldr	r2, .L101+8
 1865 001e 1370     		strb	r3, [r2]
 1866              	.L74:
 1867              		.loc 1 174 24 view .LVU522
 1868              	.LBE232:
 146:src/unit/robot/robot.cpp ****             static const uint8_t HEADER = 0xFF;   // ヘッダ
 1869              		.loc 1 146 31 is_stmt 1 view .LVU523
 1870 0020 05F5B654 		add	r4, r5, #5824
 1871 0024 1C34     		adds	r4, r4, #28
 1872 0026 2046     		mov	r0, r4
 1873 0028 FFF7FEFF 		bl	_ZN14BufferedSerial9availableEv
 1874              	.LVL152:
 1875 002c 0028     		cmp	r0, #0
 1876 002e 40D0     		beq	.L91
 1877              	.LBB233:
 147:src/unit/robot/robot.cpp ****             static const uint8_t FOOTER = 0xAA;   // ヘッダ
 1878              		.loc 1 147 13 view .LVU524
 148:src/unit/robot/robot.cpp ****             static const uint8_t data_size = 4;   // データのサイズ
 1879              		.loc 1 148 13 view .LVU525
 149:src/unit/robot/robot.cpp ****             static uint8_t index = 0;             // 受信したデータのインデックスカ
 1880              		.loc 1 149 13 view .LVU526
 150:src/unit/robot/robot.cpp ****             static uint8_t recv_data[data_size];  // 受信したデータ
 1881              		.loc 1 150 13 view .LVU527
 151:src/unit/robot/robot.cpp ****             static uint8_t recv_byte;
 1882              		.loc 1 151 13 view .LVU528
ARM GAS  /var/folders/5c/srt4fy4j1pd641bjfx75k5000000gn/T//ccCyP7bK.s 			page 45


 152:src/unit/robot/robot.cpp **** 
 1883              		.loc 1 152 13 view .LVU529
 154:src/unit/robot/robot.cpp ****             if (index == 0) {
 1884              		.loc 1 154 13 view .LVU530
 154:src/unit/robot/robot.cpp ****             if (index == 0) {
 1885              		.loc 1 154 37 is_stmt 0 view .LVU531
 1886 0030 2046     		mov	r0, r4
 1887 0032 FFF7FEFF 		bl	_ZN14BufferedSerial4readEv
 1888              	.LVL153:
 154:src/unit/robot/robot.cpp ****             if (index == 0) {
 1889              		.loc 1 154 23 view .LVU532
 1890 0036 AE4B     		ldr	r3, .L101+16
 1891 0038 1870     		strb	r0, [r3]
 155:src/unit/robot/robot.cpp ****                   if (recv_byte == HEADER) {
 1892              		.loc 1 155 13 is_stmt 1 view .LVU533
 155:src/unit/robot/robot.cpp ****                   if (recv_byte == HEADER) {
 1893              		.loc 1 155 23 is_stmt 0 view .LVU534
 1894 003a AB4B     		ldr	r3, .L101+8
 1895 003c 1B78     		ldrb	r3, [r3]	@ zero_extendqisi2
 155:src/unit/robot/robot.cpp ****                   if (recv_byte == HEADER) {
 1896              		.loc 1 155 13 view .LVU535
 1897 003e 002B     		cmp	r3, #0
 1898 0040 E6D1     		bne	.L75
 156:src/unit/robot/robot.cpp ****                         index++;
 1899              		.loc 1 156 19 is_stmt 1 view .LVU536
 1900 0042 FF28     		cmp	r0, #255
 1901 0044 E0D0     		beq	.L92
 159:src/unit/robot/robot.cpp ****                   }
 1902              		.loc 1 159 25 view .LVU537
 159:src/unit/robot/robot.cpp ****                   }
 1903              		.loc 1 159 31 is_stmt 0 view .LVU538
 1904 0046 A84B     		ldr	r3, .L101+8
 1905 0048 0022     		movs	r2, #0
 1906 004a 1A70     		strb	r2, [r3]
 1907 004c E8E7     		b	.L74
 1908              	.L90:
 162:src/unit/robot/robot.cpp ****                         item = ((recv_data[0] >> 4) & 0b00001111) - 8;
 1909              		.loc 1 162 19 is_stmt 1 view .LVU539
 1910 004e AA28     		cmp	r0, #170
 1911 0050 03D0     		beq	.L93
 1912              	.L79:
 171:src/unit/robot/robot.cpp ****             } else {
 1913              		.loc 1 171 19 view .LVU540
 171:src/unit/robot/robot.cpp ****             } else {
 1914              		.loc 1 171 25 is_stmt 0 view .LVU541
 1915 0052 A54B     		ldr	r3, .L101+8
 1916 0054 0022     		movs	r2, #0
 1917 0056 1A70     		strb	r2, [r3]
 1918 0058 E2E7     		b	.L74
 1919              	.L93:
 163:src/unit/robot/robot.cpp ****                         sub_item = recv_data[0] & 0b00001111;
 1920              		.loc 1 163 25 is_stmt 1 view .LVU542
 163:src/unit/robot/robot.cpp ****                         sub_item = recv_data[0] & 0b00001111;
 1921              		.loc 1 163 45 is_stmt 0 view .LVU543
 1922 005a A44C     		ldr	r4, .L101+12
 1923 005c 2378     		ldrb	r3, [r4]	@ zero_extendqisi2
 163:src/unit/robot/robot.cpp ****                         sub_item = recv_data[0] & 0b00001111;
ARM GAS  /var/folders/5c/srt4fy4j1pd641bjfx75k5000000gn/T//ccCyP7bK.s 			page 46


 1924              		.loc 1 163 47 view .LVU544
 1925 005e 1A09     		lsrs	r2, r3, #4
 163:src/unit/robot/robot.cpp ****                         sub_item = recv_data[0] & 0b00001111;
 1926              		.loc 1 163 67 view .LVU545
 1927 0060 083A     		subs	r2, r2, #8
 163:src/unit/robot/robot.cpp ****                         sub_item = recv_data[0] & 0b00001111;
 1928              		.loc 1 163 30 view .LVU546
 1929 0062 A449     		ldr	r1, .L101+20
 1930 0064 0A70     		strb	r2, [r1]
 164:src/unit/robot/robot.cpp ****                         info.mode = (recv_data[1] >> 4) & 0b00001111;
 1931              		.loc 1 164 25 is_stmt 1 view .LVU547
 164:src/unit/robot/robot.cpp ****                         info.mode = (recv_data[1] >> 4) & 0b00001111;
 1932              		.loc 1 164 49 is_stmt 0 view .LVU548
 1933 0066 03F00F03 		and	r3, r3, #15
 164:src/unit/robot/robot.cpp ****                         info.mode = (recv_data[1] >> 4) & 0b00001111;
 1934              		.loc 1 164 34 view .LVU549
 1935 006a A34A     		ldr	r2, .L101+24
 1936 006c 1370     		strb	r3, [r2]
 165:src/unit/robot/robot.cpp ****                         info.Ui.dribbler_sig = (recv_data[1] >> 1) & 0b0000111;
 1937              		.loc 1 165 25 is_stmt 1 view .LVU550
 165:src/unit/robot/robot.cpp ****                         info.Ui.dribbler_sig = (recv_data[1] >> 1) & 0b0000111;
 1938              		.loc 1 165 49 is_stmt 0 view .LVU551
 1939 006e 6378     		ldrb	r3, [r4, #1]	@ zero_extendqisi2
 165:src/unit/robot/robot.cpp ****                         info.Ui.dribbler_sig = (recv_data[1] >> 1) & 0b0000111;
 1940              		.loc 1 165 51 view .LVU552
 1941 0070 1A09     		lsrs	r2, r3, #4
 165:src/unit/robot/robot.cpp ****                         info.Ui.dribbler_sig = (recv_data[1] >> 1) & 0b0000111;
 1942              		.loc 1 165 35 view .LVU553
 1943 0072 2A72     		strb	r2, [r5, #8]
 166:src/unit/robot/robot.cpp ****                         info.Ui.set_yaw_zero = recv_data[1] & 0b0000001;
 1944              		.loc 1 166 25 is_stmt 1 view .LVU554
 166:src/unit/robot/robot.cpp ****                         info.Ui.set_yaw_zero = recv_data[1] & 0b0000001;
 1945              		.loc 1 166 68 is_stmt 0 view .LVU555
 1946 0074 C3F34202 		ubfx	r2, r3, #1, #3
 166:src/unit/robot/robot.cpp ****                         info.Ui.set_yaw_zero = recv_data[1] & 0b0000001;
 1947              		.loc 1 166 46 view .LVU556
 1948 0078 85F83120 		strb	r2, [r5, #49]
 167:src/unit/robot/robot.cpp ****                         info.moving_speed = recv_data[2] * 0.01;
 1949              		.loc 1 167 25 is_stmt 1 view .LVU557
 167:src/unit/robot/robot.cpp ****                         info.moving_speed = recv_data[2] * 0.01;
 1950              		.loc 1 167 61 is_stmt 0 view .LVU558
 1951 007c 03F00103 		and	r3, r3, #1
 167:src/unit/robot/robot.cpp ****                         info.moving_speed = recv_data[2] * 0.01;
 1952              		.loc 1 167 46 view .LVU559
 1953 0080 85F83030 		strb	r3, [r5, #48]
 168:src/unit/robot/robot.cpp ****                         info.line_moving_speed = recv_data[3] * 0.01;
 1954              		.loc 1 168 25 is_stmt 1 view .LVU560
 168:src/unit/robot/robot.cpp ****                         info.line_moving_speed = recv_data[3] * 0.01;
 1955              		.loc 1 168 58 is_stmt 0 view .LVU561
 1956 0084 A078     		ldrb	r0, [r4, #2]	@ zero_extendqisi2
 1957 0086 FFF7FEFF 		bl	__aeabi_i2d
 1958              	.LVL154:
 1959 008a 95A3     		adr	r3, .L101
 1960 008c D3E90023 		ldrd	r2, [r3]
 1961 0090 FFF7FEFF 		bl	__aeabi_dmul
 1962              	.LVL155:
 1963 0094 FFF7FEFF 		bl	__aeabi_d2f
ARM GAS  /var/folders/5c/srt4fy4j1pd641bjfx75k5000000gn/T//ccCyP7bK.s 			page 47


 1964              	.LVL156:
 168:src/unit/robot/robot.cpp ****                         info.line_moving_speed = recv_data[3] * 0.01;
 1965              		.loc 1 168 43 view .LVU562
 1966 0098 E860     		str	r0, [r5, #12]	@ float
 169:src/unit/robot/robot.cpp ****                   }
 1967              		.loc 1 169 25 is_stmt 1 view .LVU563
 169:src/unit/robot/robot.cpp ****                   }
 1968              		.loc 1 169 63 is_stmt 0 view .LVU564
 1969 009a E078     		ldrb	r0, [r4, #3]	@ zero_extendqisi2
 1970 009c FFF7FEFF 		bl	__aeabi_i2d
 1971              	.LVL157:
 1972 00a0 8FA3     		adr	r3, .L101
 1973 00a2 D3E90023 		ldrd	r2, [r3]
 1974 00a6 FFF7FEFF 		bl	__aeabi_dmul
 1975              	.LVL158:
 1976 00aa FFF7FEFF 		bl	__aeabi_d2f
 1977              	.LVL159:
 169:src/unit/robot/robot.cpp ****                   }
 1978              		.loc 1 169 48 view .LVU565
 1979 00ae 2861     		str	r0, [r5, #16]	@ float
 1980 00b0 CFE7     		b	.L79
 1981              	.L91:
 169:src/unit/robot/robot.cpp ****                   }
 1982              		.loc 1 169 48 view .LVU566
 1983              	.LBE233:
 175:src/unit/robot/robot.cpp ****             }
 176:src/unit/robot/robot.cpp ****       }
 177:src/unit/robot/robot.cpp **** 
 178:src/unit/robot/robot.cpp ****       if (info.mode == 0) {
 1984              		.loc 1 178 7 is_stmt 1 view .LVU567
 1985              	.LBB234:
 1986              		.loc 1 178 16 is_stmt 0 view .LVU568
 1987 00b2 2B7A     		ldrb	r3, [r5, #8]	@ zero_extendqisi2
 1988              		.loc 1 178 7 view .LVU569
 1989 00b4 0BB1     		cbz	r3, .L94
 1990              	.LVL160:
 1991              	.L73:
 1992              		.loc 1 178 7 view .LVU570
 1993              	.LBE234:
 179:src/unit/robot/robot.cpp ****             int16_t debug_val[2];
 180:src/unit/robot/robot.cpp ****             debug_val[0] = info.Cam.ball_dir;
 181:src/unit/robot/robot.cpp ****             debug_val[1] = info.Cam.ball_dis;
 182:src/unit/robot/robot.cpp **** 
 183:src/unit/robot/robot.cpp ****             if (ui_send_interval_timer.read_us() >= UI_SEND_PERIOD_US) {
 184:src/unit/robot/robot.cpp ****                   static const uint8_t HEADER = 0xFF;  // ヘッダ
 185:src/unit/robot/robot.cpp ****                   static const uint8_t FOOTER = 0xAA;  // ヘッダ
 186:src/unit/robot/robot.cpp ****                   if (item == -2) {
 187:src/unit/robot/robot.cpp ****                         static const uint8_t data_size = 1;
 188:src/unit/robot/robot.cpp ****                         uint8_t send_data[data_size];
 189:src/unit/robot/robot.cpp ****                         send_data[0] = info.Catch.is_front << 1 | info.Catch.is_back;
 190:src/unit/robot/robot.cpp ****                         serial3.write(send_data, data_size);
 191:src/unit/robot/robot.cpp ****                   } else if (item == 0) {
 192:src/unit/robot/robot.cpp ****                         static const uint8_t data_size = 10;
 193:src/unit/robot/robot.cpp ****                         uint8_t send_data[data_size];
 194:src/unit/robot/robot.cpp ****                         send_data[0] = HEADER;
 195:src/unit/robot/robot.cpp ****                         send_data[1] = info.voltage * 20;
 196:src/unit/robot/robot.cpp ****                         send_data[2] = (info.Imu.is_initialized & info.Line.is_initialized & info.C
ARM GAS  /var/folders/5c/srt4fy4j1pd641bjfx75k5000000gn/T//ccCyP7bK.s 			page 48


 197:src/unit/robot/robot.cpp ****                         send_data[3] = (uint8_t)(((uint16_t)(info.Imu.yaw + 32768) & 0xFF00) >> 8);
 198:src/unit/robot/robot.cpp ****                         send_data[4] = (uint8_t)((uint16_t)(info.Imu.yaw + 32768) & 0x00FF);
 199:src/unit/robot/robot.cpp ****                         send_data[5] = (uint8_t)(((uint16_t)(debug_val[0] + 32768) & 0xFF00) >> 8);
 200:src/unit/robot/robot.cpp ****                         send_data[6] = (uint8_t)((uint16_t)(debug_val[0] + 32768) & 0x00FF);
 201:src/unit/robot/robot.cpp ****                         send_data[7] = (uint8_t)(((uint16_t)(debug_val[1] + 32768) & 0xFF00) >> 8);
 202:src/unit/robot/robot.cpp ****                         send_data[8] = (uint8_t)((uint16_t)(debug_val[1] + 32768) & 0x00FF);
 203:src/unit/robot/robot.cpp ****                         send_data[9] = FOOTER;
 204:src/unit/robot/robot.cpp ****                         serial3.write(send_data, data_size);
 205:src/unit/robot/robot.cpp ****                   } else if (item == 1) {
 206:src/unit/robot/robot.cpp ****                         static const uint8_t data_size = 6;
 207:src/unit/robot/robot.cpp ****                         uint8_t send_data[data_size];
 208:src/unit/robot/robot.cpp ****                         send_data[0] = HEADER;
 209:src/unit/robot/robot.cpp ****                         send_data[1] = info.Line.dir * 0.5 + 90;
 210:src/unit/robot/robot.cpp ****                         send_data[2] = info.Line.inside_dir * 0.5 + 90;
 211:src/unit/robot/robot.cpp ****                         send_data[3] = info.Line.interval;
 212:src/unit/robot/robot.cpp ****                         send_data[4] = info.Line.is_on_line << 2 | info.Line.is_leftside << 1 | inf
 213:src/unit/robot/robot.cpp ****                         send_data[5] = FOOTER;
 214:src/unit/robot/robot.cpp ****                         serial3.write(send_data, data_size);
 215:src/unit/robot/robot.cpp ****                   } else if (item == 2) {
 216:src/unit/robot/robot.cpp ****                         if (sub_item == 1) {
 217:src/unit/robot/robot.cpp ****                               static const uint8_t data_size = 6;
 218:src/unit/robot/robot.cpp ****                               uint8_t send_data[data_size];
 219:src/unit/robot/robot.cpp ****                               send_data[0] = HEADER;
 220:src/unit/robot/robot.cpp ****                               send_data[1] = info.Cam.ball_dir * 0.5 + 90;
 221:src/unit/robot/robot.cpp ****                               send_data[2] = info.Cam.ball_dis;
 222:src/unit/robot/robot.cpp ****                               send_data[3] = 0;
 223:src/unit/robot/robot.cpp ****                               send_data[4] = 0;
 224:src/unit/robot/robot.cpp ****                               send_data[5] = FOOTER;
 225:src/unit/robot/robot.cpp ****                               serial3.write(send_data, data_size);
 226:src/unit/robot/robot.cpp ****                         } else if (sub_item == 2) {
 227:src/unit/robot/robot.cpp ****                               static const uint8_t data_size = 6;
 228:src/unit/robot/robot.cpp ****                               uint8_t send_data[data_size];
 229:src/unit/robot/robot.cpp ****                               send_data[0] = HEADER;
 230:src/unit/robot/robot.cpp ****                               send_data[1] = info.Cam.yellow_goal_dir * 0.5 + 90;
 231:src/unit/robot/robot.cpp ****                               send_data[2] = info.Cam.yellow_goal_height;
 232:src/unit/robot/robot.cpp ****                               send_data[3] = info.Cam.blue_goal_dir * 0.5 + 90;
 233:src/unit/robot/robot.cpp ****                               send_data[4] = info.Cam.blue_goal_height;
 234:src/unit/robot/robot.cpp ****                               send_data[5] = FOOTER;
 235:src/unit/robot/robot.cpp ****                               serial3.write(send_data, data_size);
 236:src/unit/robot/robot.cpp ****                         } else if (sub_item == 3) {
 237:src/unit/robot/robot.cpp ****                               static const uint8_t data_size = 7;
 238:src/unit/robot/robot.cpp ****                               uint8_t send_data[data_size];
 239:src/unit/robot/robot.cpp ****                               send_data[0] = HEADER;
 240:src/unit/robot/robot.cpp ****                               send_data[1] = info.Cam.center_dir * 0.5 + 90;
 241:src/unit/robot/robot.cpp ****                               send_data[2] = info.Cam.center_dis;
 242:src/unit/robot/robot.cpp ****                               send_data[3] = info.Cam.own_x + 127;
 243:src/unit/robot/robot.cpp ****                               send_data[4] = info.Cam.own_y + 127;
 244:src/unit/robot/robot.cpp ****                               send_data[5] = info.Cam.proximity[0];
 245:src/unit/robot/robot.cpp ****                               send_data[6] = FOOTER;
 246:src/unit/robot/robot.cpp ****                               serial3.write(send_data, data_size);
 247:src/unit/robot/robot.cpp ****                         }
 248:src/unit/robot/robot.cpp ****                   }
 249:src/unit/robot/robot.cpp **** 
 250:src/unit/robot/robot.cpp ****                   ui_send_interval_timer.reset();
 251:src/unit/robot/robot.cpp ****             }
 252:src/unit/robot/robot.cpp ****       }
 253:src/unit/robot/robot.cpp **** }
ARM GAS  /var/folders/5c/srt4fy4j1pd641bjfx75k5000000gn/T//ccCyP7bK.s 			page 49


 1994              		.loc 1 253 1 view .LVU571
 1995 00b6 05B0     		add	sp, sp, #20
 1996              	.LCFI14:
 1997              		.cfi_remember_state
 1998              		.cfi_def_cfa_offset 20
 1999              		@ sp needed
 2000 00b8 F0BD     		pop	{r4, r5, r6, r7, pc}
 2001              	.LVL161:
 2002              	.L94:
 2003              	.LCFI15:
 2004              		.cfi_restore_state
 2005              	.LBB309:
 2006              	.LBB235:
 179:src/unit/robot/robot.cpp ****             int16_t debug_val[2];
 2007              		.loc 1 179 13 is_stmt 1 view .LVU572
 180:src/unit/robot/robot.cpp ****             debug_val[1] = info.Cam.ball_dis;
 2008              		.loc 1 180 13 view .LVU573
 180:src/unit/robot/robot.cpp ****             debug_val[1] = info.Cam.ball_dis;
 2009              		.loc 1 180 37 is_stmt 0 view .LVU574
 2010 00ba B5F93470 		ldrsh	r7, [r5, #52]
 180:src/unit/robot/robot.cpp ****             debug_val[1] = info.Cam.ball_dis;
 2011              		.loc 1 180 26 view .LVU575
 2012 00be ADF80070 		strh	r7, [sp]	@ movhi
 181:src/unit/robot/robot.cpp **** 
 2013              		.loc 1 181 13 is_stmt 1 view .LVU576
 181:src/unit/robot/robot.cpp **** 
 2014              		.loc 1 181 37 is_stmt 0 view .LVU577
 2015 00c2 B5F93660 		ldrsh	r6, [r5, #54]
 181:src/unit/robot/robot.cpp **** 
 2016              		.loc 1 181 26 view .LVU578
 2017 00c6 ADF80260 		strh	r6, [sp, #2]	@ movhi
 183:src/unit/robot/robot.cpp ****                   static const uint8_t HEADER = 0xFF;  // ヘッダ
 2018              		.loc 1 183 13 is_stmt 1 view .LVU579
 2019              	.LBB236:
 183:src/unit/robot/robot.cpp ****                   static const uint8_t HEADER = 0xFF;  // ヘッダ
 2020              		.loc 1 183 47 is_stmt 0 view .LVU580
 2021 00ca 05F5B854 		add	r4, r5, #5888
 2022 00ce 2046     		mov	r0, r4
 2023 00d0 FFF7FEFF 		bl	_ZN5Timer7read_usEv
 2024              	.LVL162:
 183:src/unit/robot/robot.cpp ****                   static const uint8_t HEADER = 0xFF;  // ヘッダ
 2025              		.loc 1 183 13 view .LVU581
 2026 00d4 894B     		ldr	r3, .L101+28
 2027 00d6 9842     		cmp	r0, r3
 2028 00d8 EDD9     		bls	.L73
 2029              	.LBB237:
 184:src/unit/robot/robot.cpp ****                   static const uint8_t FOOTER = 0xAA;  // ヘッダ
 2030              		.loc 1 184 19 is_stmt 1 view .LVU582
 185:src/unit/robot/robot.cpp ****                   if (item == -2) {
 2031              		.loc 1 185 19 view .LVU583
 186:src/unit/robot/robot.cpp ****                         static const uint8_t data_size = 1;
 2032              		.loc 1 186 19 view .LVU584
 2033              	.LBB238:
 186:src/unit/robot/robot.cpp ****                         static const uint8_t data_size = 1;
 2034              		.loc 1 186 28 is_stmt 0 view .LVU585
 2035 00da 864B     		ldr	r3, .L101+20
 2036 00dc 93F90030 		ldrsb	r3, [r3]
ARM GAS  /var/folders/5c/srt4fy4j1pd641bjfx75k5000000gn/T//ccCyP7bK.s 			page 50


 186:src/unit/robot/robot.cpp ****                         static const uint8_t data_size = 1;
 2037              		.loc 1 186 19 view .LVU586
 2038 00e0 13F1020F 		cmn	r3, #2
 2039 00e4 09D0     		beq	.L95
 2040              	.LBE238:
 2041              	.LBE237:
 2042              	.LBE236:
 2043              	.LBE235:
 2044              	.LBE309:
 191:src/unit/robot/robot.cpp ****                         static const uint8_t data_size = 10;
 2045              		.loc 1 191 26 is_stmt 1 view .LVU587
 2046              	.LBB310:
 2047              	.LBB302:
 2048              	.LBB295:
 2049              	.LBB288:
 2050              	.LBB281:
 2051              	.LBB239:
 2052 00e6 D3B1     		cbz	r3, .L96
 2053              	.LBE239:
 2054              	.LBE281:
 2055              	.LBE288:
 2056              	.LBE295:
 2057              	.LBE302:
 2058              	.LBE310:
 205:src/unit/robot/robot.cpp ****                         static const uint8_t data_size = 6;
 2059              		.loc 1 205 26 view .LVU588
 2060              	.LBB311:
 2061              	.LBB303:
 2062              	.LBB296:
 2063              	.LBB289:
 2064              	.LBB282:
 2065              	.LBB272:
 2066              	.LBB240:
 2067 00e8 012B     		cmp	r3, #1
 2068 00ea 57D0     		beq	.L97
 2069              	.LBE240:
 2070              	.LBE272:
 2071              	.LBE282:
 2072              	.LBE289:
 2073              	.LBE296:
 2074              	.LBE303:
 2075              	.LBE311:
 215:src/unit/robot/robot.cpp ****                         if (sub_item == 1) {
 2076              		.loc 1 215 26 view .LVU589
 2077              	.LBB312:
 2078              	.LBB304:
 2079              	.LBB297:
 2080              	.LBB290:
 2081              	.LBB283:
 2082              	.LBB273:
 2083              	.LBB264:
 2084              	.LBB241:
 2085 00ec 022B     		cmp	r3, #2
 2086 00ee 00F09380 		beq	.L98
 2087              	.LVL163:
 2088              	.L84:
 215:src/unit/robot/robot.cpp ****                         if (sub_item == 1) {
ARM GAS  /var/folders/5c/srt4fy4j1pd641bjfx75k5000000gn/T//ccCyP7bK.s 			page 51


 2089              		.loc 1 215 26 is_stmt 0 view .LVU590
 2090              	.LBE241:
 2091              	.LBE264:
 2092              	.LBE273:
 2093              	.LBE283:
 250:src/unit/robot/robot.cpp ****             }
 2094              		.loc 1 250 19 is_stmt 1 view .LVU591
 250:src/unit/robot/robot.cpp ****             }
 2095              		.loc 1 250 47 is_stmt 0 view .LVU592
 2096 00f2 2046     		mov	r0, r4
 2097 00f4 FFF7FEFF 		bl	_ZN5Timer5resetEv
 2098              	.LVL164:
 2099              	.LBE290:
 2100              	.LBE297:
 2101              	.LBE304:
 2102              	.LBE312:
 2103              		.loc 1 253 1 view .LVU593
 2104 00f8 DDE7     		b	.L73
 2105              	.LVL165:
 2106              	.L95:
 2107              	.LBB313:
 2108              	.LBB305:
 2109              	.LBB298:
 2110              	.LBB291:
 2111              	.LBB284:
 2112              	.LBB274:
 187:src/unit/robot/robot.cpp ****                         uint8_t send_data[data_size];
 2113              		.loc 1 187 25 is_stmt 1 view .LVU594
 188:src/unit/robot/robot.cpp ****                         send_data[0] = info.Catch.is_front << 1 | info.Catch.is_back;
 2114              		.loc 1 188 25 view .LVU595
 189:src/unit/robot/robot.cpp ****                         serial3.write(send_data, data_size);
 2115              		.loc 1 189 25 view .LVU596
 189:src/unit/robot/robot.cpp ****                         serial3.write(send_data, data_size);
 2116              		.loc 1 189 51 is_stmt 0 view .LVU597
 2117 00fa 95F82220 		ldrb	r2, [r5, #34]	@ zero_extendqisi2
 189:src/unit/robot/robot.cpp ****                         serial3.write(send_data, data_size);
 2118              		.loc 1 189 78 view .LVU598
 2119 00fe 95F92630 		ldrsb	r3, [r5, #38]
 189:src/unit/robot/robot.cpp ****                         serial3.write(send_data, data_size);
 2120              		.loc 1 189 65 view .LVU599
 2121 0102 43EA4203 		orr	r3, r3, r2, lsl #1
 189:src/unit/robot/robot.cpp ****                         serial3.write(send_data, data_size);
 2122              		.loc 1 189 38 view .LVU600
 2123 0106 8DF80430 		strb	r3, [sp, #4]
 190:src/unit/robot/robot.cpp ****                   } else if (item == 0) {
 2124              		.loc 1 190 25 is_stmt 1 view .LVU601
 2125              	.LVL166:
 2126              	.LBB275:
 2127              	.LBI275:
  56:Lib/BufferedSerial/BufferedSerial.hpp ****       }
  57:Lib/BufferedSerial/BufferedSerial.hpp **** 
  58:Lib/BufferedSerial/BufferedSerial.hpp ****       void write(const uint8_t *data, uint16_t len) {
 2128              		.loc 2 58 12 view .LVU602
 2129              	.LBB276:
  59:Lib/BufferedSerial/BufferedSerial.hpp ****             HAL_UART_Transmit(_huart, (uint8_t *)data, len, 100);
 2130              		.loc 2 59 13 view .LVU603
 2131              		.loc 2 59 30 is_stmt 0 view .LVU604
ARM GAS  /var/folders/5c/srt4fy4j1pd641bjfx75k5000000gn/T//ccCyP7bK.s 			page 52


 2132 010a 05F58055 		add	r5, r5, #4096
 2133              	.LVL167:
 2134              		.loc 2 59 30 view .LVU605
 2135 010e 6423     		movs	r3, #100
 2136 0110 0122     		movs	r2, #1
 2137 0112 01A9     		add	r1, sp, #4
 2138              	.LVL168:
 2139              		.loc 2 59 30 view .LVU606
 2140 0114 D5F8DC06 		ldr	r0, [r5, #1756]
 2141 0118 FFF7FEFF 		bl	HAL_UART_Transmit
 2142              	.LVL169:
 2143              		.loc 2 59 30 view .LVU607
 2144              	.LBE276:
 2145              	.LBE275:
 2146              	.LBE274:
 2147 011c E9E7     		b	.L84
 2148              	.LVL170:
 2149              	.L96:
 2150              	.LBB277:
 2151              	.LBB265:
 192:src/unit/robot/robot.cpp ****                         uint8_t send_data[data_size];
 2152              		.loc 1 192 25 is_stmt 1 view .LVU608
 193:src/unit/robot/robot.cpp ****                         send_data[0] = HEADER;
 2153              		.loc 1 193 25 view .LVU609
 194:src/unit/robot/robot.cpp ****                         send_data[1] = info.voltage * 20;
 2154              		.loc 1 194 25 view .LVU610
 194:src/unit/robot/robot.cpp ****                         send_data[1] = info.voltage * 20;
 2155              		.loc 1 194 38 is_stmt 0 view .LVU611
 2156 011e FF23     		movs	r3, #255
 2157 0120 8DF80430 		strb	r3, [sp, #4]
 195:src/unit/robot/robot.cpp ****                         send_data[2] = (info.Imu.is_initialized & info.Line.is_initialized & info.C
 2158              		.loc 1 195 25 is_stmt 1 view .LVU612
 195:src/unit/robot/robot.cpp ****                         send_data[2] = (info.Imu.is_initialized & info.Line.is_initialized & info.C
 2159              		.loc 1 195 45 is_stmt 0 view .LVU613
 2160 0124 D5ED007A 		vldr.32	s15, [r5]
 195:src/unit/robot/robot.cpp ****                         send_data[2] = (info.Imu.is_initialized & info.Line.is_initialized & info.C
 2161              		.loc 1 195 53 view .LVU614
 2162 0128 B3EE047A 		vmov.f32	s14, #2.0e+1
 2163 012c 67EE877A 		vmul.f32	s15, s15, s14
 195:src/unit/robot/robot.cpp ****                         send_data[2] = (info.Imu.is_initialized & info.Line.is_initialized & info.C
 2164              		.loc 1 195 38 view .LVU615
 2165 0130 FCEEE77A 		vcvt.u32.f32	s15, s15
 2166 0134 17EE903A 		vmov	r3, s15	@ int
 2167 0138 8DF80530 		strb	r3, [sp, #5]
 196:src/unit/robot/robot.cpp ****                         send_data[3] = (uint8_t)(((uint16_t)(info.Imu.yaw + 32768) & 0xFF00) >> 8);
 2168              		.loc 1 196 25 is_stmt 1 view .LVU616
 196:src/unit/robot/robot.cpp ****                         send_data[3] = (uint8_t)(((uint16_t)(info.Imu.yaw + 32768) & 0xFF00) >> 8);
 2169              		.loc 1 196 50 is_stmt 0 view .LVU617
 2170 013c 95F82820 		ldrb	r2, [r5, #40]	@ zero_extendqisi2
 196:src/unit/robot/robot.cpp ****                         send_data[3] = (uint8_t)(((uint16_t)(info.Imu.yaw + 32768) & 0xFF00) >> 8);
 2171              		.loc 1 196 77 view .LVU618
 2172 0140 297D     		ldrb	r1, [r5, #20]	@ zero_extendqisi2
 196:src/unit/robot/robot.cpp ****                         send_data[3] = (uint8_t)(((uint16_t)(info.Imu.yaw + 32768) & 0xFF00) >> 8);
 2173              		.loc 1 196 103 view .LVU619
 2174 0142 95F83230 		ldrb	r3, [r5, #50]	@ zero_extendqisi2
 196:src/unit/robot/robot.cpp ****                         send_data[3] = (uint8_t)(((uint16_t)(info.Imu.yaw + 32768) & 0xFF00) >> 8);
 2175              		.loc 1 196 92 view .LVU620
ARM GAS  /var/folders/5c/srt4fy4j1pd641bjfx75k5000000gn/T//ccCyP7bK.s 			page 53


 2176 0146 0A40     		ands	r2, r2, r1
 2177 0148 1340     		ands	r3, r3, r2
 196:src/unit/robot/robot.cpp ****                         send_data[3] = (uint8_t)(((uint16_t)(info.Imu.yaw + 32768) & 0xFF00) >> 8);
 2178              		.loc 1 196 38 view .LVU621
 2179 014a 8DF80630 		strb	r3, [sp, #6]
 197:src/unit/robot/robot.cpp ****                         send_data[4] = (uint8_t)((uint16_t)(info.Imu.yaw + 32768) & 0x00FF);
 2180              		.loc 1 197 25 is_stmt 1 view .LVU622
 197:src/unit/robot/robot.cpp ****                         send_data[4] = (uint8_t)((uint16_t)(info.Imu.yaw + 32768) & 0x00FF);
 2181              		.loc 1 197 71 is_stmt 0 view .LVU623
 2182 014e B5F92A20 		ldrsh	r2, [r5, #42]
 2183 0152 93B2     		uxth	r3, r2
 197:src/unit/robot/robot.cpp ****                         send_data[4] = (uint8_t)((uint16_t)(info.Imu.yaw + 32768) & 0x00FF);
 2184              		.loc 1 197 75 view .LVU624
 2185 0154 83F40043 		eor	r3, r3, #32768
 197:src/unit/robot/robot.cpp ****                         send_data[4] = (uint8_t)((uint16_t)(info.Imu.yaw + 32768) & 0x00FF);
 2186              		.loc 1 197 94 view .LVU625
 2187 0158 1B0A     		lsrs	r3, r3, #8
 197:src/unit/robot/robot.cpp ****                         send_data[4] = (uint8_t)((uint16_t)(info.Imu.yaw + 32768) & 0x00FF);
 2188              		.loc 1 197 38 view .LVU626
 2189 015a 8DF80730 		strb	r3, [sp, #7]
 198:src/unit/robot/robot.cpp ****                         send_data[5] = (uint8_t)(((uint16_t)(debug_val[0] + 32768) & 0xFF00) >> 8);
 2190              		.loc 1 198 25 is_stmt 1 view .LVU627
 198:src/unit/robot/robot.cpp ****                         send_data[5] = (uint8_t)(((uint16_t)(debug_val[0] + 32768) & 0xFF00) >> 8);
 2191              		.loc 1 198 38 is_stmt 0 view .LVU628
 2192 015e 8DF80820 		strb	r2, [sp, #8]
 199:src/unit/robot/robot.cpp ****                         send_data[6] = (uint8_t)((uint16_t)(debug_val[0] + 32768) & 0x00FF);
 2193              		.loc 1 199 25 is_stmt 1 view .LVU629
 199:src/unit/robot/robot.cpp ****                         send_data[6] = (uint8_t)((uint16_t)(debug_val[0] + 32768) & 0x00FF);
 2194              		.loc 1 199 73 is_stmt 0 view .LVU630
 2195 0162 BBB2     		uxth	r3, r7
 199:src/unit/robot/robot.cpp ****                         send_data[6] = (uint8_t)((uint16_t)(debug_val[0] + 32768) & 0x00FF);
 2196              		.loc 1 199 75 view .LVU631
 2197 0164 83F40043 		eor	r3, r3, #32768
 199:src/unit/robot/robot.cpp ****                         send_data[6] = (uint8_t)((uint16_t)(debug_val[0] + 32768) & 0x00FF);
 2198              		.loc 1 199 94 view .LVU632
 2199 0168 1B0A     		lsrs	r3, r3, #8
 199:src/unit/robot/robot.cpp ****                         send_data[6] = (uint8_t)((uint16_t)(debug_val[0] + 32768) & 0x00FF);
 2200              		.loc 1 199 38 view .LVU633
 2201 016a 8DF80930 		strb	r3, [sp, #9]
 200:src/unit/robot/robot.cpp ****                         send_data[7] = (uint8_t)(((uint16_t)(debug_val[1] + 32768) & 0xFF00) >> 8);
 2202              		.loc 1 200 25 is_stmt 1 view .LVU634
 200:src/unit/robot/robot.cpp ****                         send_data[7] = (uint8_t)(((uint16_t)(debug_val[1] + 32768) & 0xFF00) >> 8);
 2203              		.loc 1 200 38 is_stmt 0 view .LVU635
 2204 016e 8DF80A70 		strb	r7, [sp, #10]
 201:src/unit/robot/robot.cpp ****                         send_data[8] = (uint8_t)((uint16_t)(debug_val[1] + 32768) & 0x00FF);
 2205              		.loc 1 201 25 is_stmt 1 view .LVU636
 201:src/unit/robot/robot.cpp ****                         send_data[8] = (uint8_t)((uint16_t)(debug_val[1] + 32768) & 0x00FF);
 2206              		.loc 1 201 73 is_stmt 0 view .LVU637
 2207 0172 B3B2     		uxth	r3, r6
 201:src/unit/robot/robot.cpp ****                         send_data[8] = (uint8_t)((uint16_t)(debug_val[1] + 32768) & 0x00FF);
 2208              		.loc 1 201 75 view .LVU638
 2209 0174 83F40043 		eor	r3, r3, #32768
 201:src/unit/robot/robot.cpp ****                         send_data[8] = (uint8_t)((uint16_t)(debug_val[1] + 32768) & 0x00FF);
 2210              		.loc 1 201 94 view .LVU639
 2211 0178 1B0A     		lsrs	r3, r3, #8
 201:src/unit/robot/robot.cpp ****                         send_data[8] = (uint8_t)((uint16_t)(debug_val[1] + 32768) & 0x00FF);
 2212              		.loc 1 201 38 view .LVU640
ARM GAS  /var/folders/5c/srt4fy4j1pd641bjfx75k5000000gn/T//ccCyP7bK.s 			page 54


 2213 017a 8DF80B30 		strb	r3, [sp, #11]
 202:src/unit/robot/robot.cpp ****                         send_data[9] = FOOTER;
 2214              		.loc 1 202 25 is_stmt 1 view .LVU641
 202:src/unit/robot/robot.cpp ****                         send_data[9] = FOOTER;
 2215              		.loc 1 202 38 is_stmt 0 view .LVU642
 2216 017e 8DF80C60 		strb	r6, [sp, #12]
 203:src/unit/robot/robot.cpp ****                         serial3.write(send_data, data_size);
 2217              		.loc 1 203 25 is_stmt 1 view .LVU643
 203:src/unit/robot/robot.cpp ****                         serial3.write(send_data, data_size);
 2218              		.loc 1 203 38 is_stmt 0 view .LVU644
 2219 0182 AA23     		movs	r3, #170
 2220 0184 8DF80D30 		strb	r3, [sp, #13]
 204:src/unit/robot/robot.cpp ****                   } else if (item == 1) {
 2221              		.loc 1 204 25 is_stmt 1 view .LVU645
 2222              	.LVL171:
 2223              	.LBB266:
 2224              	.LBI266:
  58:Lib/BufferedSerial/BufferedSerial.hpp ****             HAL_UART_Transmit(_huart, (uint8_t *)data, len, 100);
 2225              		.loc 2 58 12 view .LVU646
 2226              	.LBB267:
 2227              		.loc 2 59 13 view .LVU647
 2228              		.loc 2 59 30 is_stmt 0 view .LVU648
 2229 0188 05F58055 		add	r5, r5, #4096
 2230              	.LVL172:
 2231              		.loc 2 59 30 view .LVU649
 2232 018c 6423     		movs	r3, #100
 2233 018e 0A22     		movs	r2, #10
 2234 0190 01A9     		add	r1, sp, #4
 2235              	.LVL173:
 2236              		.loc 2 59 30 view .LVU650
 2237 0192 D5F8DC06 		ldr	r0, [r5, #1756]
 2238 0196 FFF7FEFF 		bl	HAL_UART_Transmit
 2239              	.LVL174:
 2240              		.loc 2 59 30 view .LVU651
 2241              	.LBE267:
 2242              	.LBE266:
 2243              	.LBE265:
 2244 019a AAE7     		b	.L84
 2245              	.LVL175:
 2246              	.L97:
 2247              	.LBB268:
 2248              	.LBB258:
 206:src/unit/robot/robot.cpp ****                         uint8_t send_data[data_size];
 2249              		.loc 1 206 25 is_stmt 1 view .LVU652
 207:src/unit/robot/robot.cpp ****                         send_data[0] = HEADER;
 2250              		.loc 1 207 25 view .LVU653
 208:src/unit/robot/robot.cpp ****                         send_data[1] = info.Line.dir * 0.5 + 90;
 2251              		.loc 1 208 25 view .LVU654
 208:src/unit/robot/robot.cpp ****                         send_data[1] = info.Line.dir * 0.5 + 90;
 2252              		.loc 1 208 38 is_stmt 0 view .LVU655
 2253 019c FF23     		movs	r3, #255
 2254 019e 8DF80430 		strb	r3, [sp, #4]
 209:src/unit/robot/robot.cpp ****                         send_data[2] = info.Line.inside_dir * 0.5 + 90;
 2255              		.loc 1 209 25 is_stmt 1 view .LVU656
 209:src/unit/robot/robot.cpp ****                         send_data[2] = info.Line.inside_dir * 0.5 + 90;
 2256              		.loc 1 209 54 is_stmt 0 view .LVU657
 2257 01a2 B5F91A00 		ldrsh	r0, [r5, #26]
ARM GAS  /var/folders/5c/srt4fy4j1pd641bjfx75k5000000gn/T//ccCyP7bK.s 			page 55


 2258 01a6 FFF7FEFF 		bl	__aeabi_i2d
 2259              	.LVL176:
 2260 01aa 0022     		movs	r2, #0
 2261 01ac 544B     		ldr	r3, .L101+32
 2262 01ae FFF7FEFF 		bl	__aeabi_dmul
 2263              	.LVL177:
 209:src/unit/robot/robot.cpp ****                         send_data[2] = info.Line.inside_dir * 0.5 + 90;
 2264              		.loc 1 209 60 view .LVU658
 2265 01b2 0022     		movs	r2, #0
 2266 01b4 534B     		ldr	r3, .L101+36
 2267 01b6 FFF7FEFF 		bl	__aeabi_dadd
 2268              	.LVL178:
 209:src/unit/robot/robot.cpp ****                         send_data[2] = info.Line.inside_dir * 0.5 + 90;
 2269              		.loc 1 209 38 view .LVU659
 2270 01ba FFF7FEFF 		bl	__aeabi_d2uiz
 2271              	.LVL179:
 2272 01be 8DF80500 		strb	r0, [sp, #5]
 210:src/unit/robot/robot.cpp ****                         send_data[3] = info.Line.interval;
 2273              		.loc 1 210 25 is_stmt 1 view .LVU660
 210:src/unit/robot/robot.cpp ****                         send_data[3] = info.Line.interval;
 2274              		.loc 1 210 61 is_stmt 0 view .LVU661
 2275 01c2 B5F91C00 		ldrsh	r0, [r5, #28]
 2276 01c6 FFF7FEFF 		bl	__aeabi_i2d
 2277              	.LVL180:
 2278 01ca 0022     		movs	r2, #0
 2279 01cc 4C4B     		ldr	r3, .L101+32
 2280 01ce FFF7FEFF 		bl	__aeabi_dmul
 2281              	.LVL181:
 210:src/unit/robot/robot.cpp ****                         send_data[3] = info.Line.interval;
 2282              		.loc 1 210 67 view .LVU662
 2283 01d2 0022     		movs	r2, #0
 2284 01d4 4B4B     		ldr	r3, .L101+36
 2285 01d6 FFF7FEFF 		bl	__aeabi_dadd
 2286              	.LVL182:
 210:src/unit/robot/robot.cpp ****                         send_data[3] = info.Line.interval;
 2287              		.loc 1 210 38 view .LVU663
 2288 01da FFF7FEFF 		bl	__aeabi_d2uiz
 2289              	.LVL183:
 2290 01de 8DF80600 		strb	r0, [sp, #6]
 211:src/unit/robot/robot.cpp ****                         send_data[4] = info.Line.is_on_line << 2 | info.Line.is_leftside << 1 | inf
 2291              		.loc 1 211 25 is_stmt 1 view .LVU664
 211:src/unit/robot/robot.cpp ****                         send_data[4] = info.Line.is_on_line << 2 | info.Line.is_leftside << 1 | inf
 2292              		.loc 1 211 50 is_stmt 0 view .LVU665
 2293 01e2 6B7D     		ldrb	r3, [r5, #21]	@ zero_extendqisi2
 211:src/unit/robot/robot.cpp ****                         send_data[4] = info.Line.is_on_line << 2 | info.Line.is_leftside << 1 | inf
 2294              		.loc 1 211 38 view .LVU666
 2295 01e4 8DF80730 		strb	r3, [sp, #7]
 212:src/unit/robot/robot.cpp ****                         send_data[5] = FOOTER;
 2296              		.loc 1 212 25 is_stmt 1 view .LVU667
 212:src/unit/robot/robot.cpp ****                         send_data[5] = FOOTER;
 2297              		.loc 1 212 50 is_stmt 0 view .LVU668
 2298 01e8 EA7D     		ldrb	r2, [r5, #23]	@ zero_extendqisi2
 212:src/unit/robot/robot.cpp ****                         send_data[5] = FOOTER;
 2299              		.loc 1 212 78 view .LVU669
 2300 01ea 2B7E     		ldrb	r3, [r5, #24]	@ zero_extendqisi2
 212:src/unit/robot/robot.cpp ****                         send_data[5] = FOOTER;
 2301              		.loc 1 212 90 view .LVU670
ARM GAS  /var/folders/5c/srt4fy4j1pd641bjfx75k5000000gn/T//ccCyP7bK.s 			page 56


 2302 01ec 5B00     		lsls	r3, r3, #1
 212:src/unit/robot/robot.cpp ****                         send_data[5] = FOOTER;
 2303              		.loc 1 212 66 view .LVU671
 2304 01ee 43EA8203 		orr	r3, r3, r2, lsl #2
 2305 01f2 5BB2     		sxtb	r3, r3
 212:src/unit/robot/robot.cpp ****                         send_data[5] = FOOTER;
 2306              		.loc 1 212 107 view .LVU672
 2307 01f4 95F91920 		ldrsb	r2, [r5, #25]
 212:src/unit/robot/robot.cpp ****                         send_data[5] = FOOTER;
 2308              		.loc 1 212 95 view .LVU673
 2309 01f8 1343     		orrs	r3, r3, r2
 212:src/unit/robot/robot.cpp ****                         send_data[5] = FOOTER;
 2310              		.loc 1 212 38 view .LVU674
 2311 01fa 8DF80830 		strb	r3, [sp, #8]
 213:src/unit/robot/robot.cpp ****                         serial3.write(send_data, data_size);
 2312              		.loc 1 213 25 is_stmt 1 view .LVU675
 213:src/unit/robot/robot.cpp ****                         serial3.write(send_data, data_size);
 2313              		.loc 1 213 38 is_stmt 0 view .LVU676
 2314 01fe AA23     		movs	r3, #170
 2315 0200 8DF80930 		strb	r3, [sp, #9]
 214:src/unit/robot/robot.cpp ****                   } else if (item == 2) {
 2316              		.loc 1 214 25 is_stmt 1 view .LVU677
 2317              	.LVL184:
 2318              	.LBB259:
 2319              	.LBI259:
  58:Lib/BufferedSerial/BufferedSerial.hpp ****             HAL_UART_Transmit(_huart, (uint8_t *)data, len, 100);
 2320              		.loc 2 58 12 view .LVU678
 2321              	.LBB260:
 2322              		.loc 2 59 13 view .LVU679
 2323              		.loc 2 59 30 is_stmt 0 view .LVU680
 2324 0204 05F58055 		add	r5, r5, #4096
 2325              	.LVL185:
 2326              		.loc 2 59 30 view .LVU681
 2327 0208 6423     		movs	r3, #100
 2328 020a 0622     		movs	r2, #6
 2329 020c 01A9     		add	r1, sp, #4
 2330              	.LVL186:
 2331              		.loc 2 59 30 view .LVU682
 2332 020e D5F8DC06 		ldr	r0, [r5, #1756]
 2333 0212 FFF7FEFF 		bl	HAL_UART_Transmit
 2334              	.LVL187:
 2335              		.loc 2 59 30 view .LVU683
 2336              	.LBE260:
 2337              	.LBE259:
 2338              	.LBE258:
 2339 0216 6CE7     		b	.L84
 2340              	.LVL188:
 2341              	.L98:
 2342              		.loc 2 59 30 view .LVU684
 2343              	.LBE268:
 2344              	.LBE277:
 2345              	.LBE284:
 2346              	.LBE291:
 2347              	.LBE298:
 2348              	.LBE305:
 2349              	.LBE313:
 216:src/unit/robot/robot.cpp ****                               static const uint8_t data_size = 6;
ARM GAS  /var/folders/5c/srt4fy4j1pd641bjfx75k5000000gn/T//ccCyP7bK.s 			page 57


 2350              		.loc 1 216 25 is_stmt 1 view .LVU685
 2351              	.LBB314:
 2352              	.LBB306:
 2353              	.LBB299:
 2354              	.LBB292:
 2355              	.LBB285:
 2356              	.LBB278:
 2357              	.LBB269:
 2358              	.LBB261:
 2359              	.LBB242:
 216:src/unit/robot/robot.cpp ****                               static const uint8_t data_size = 6;
 2360              		.loc 1 216 38 is_stmt 0 view .LVU686
 2361 0218 374B     		ldr	r3, .L101+24
 2362 021a 1B78     		ldrb	r3, [r3]	@ zero_extendqisi2
 216:src/unit/robot/robot.cpp ****                               static const uint8_t data_size = 6;
 2363              		.loc 1 216 25 view .LVU687
 2364 021c 012B     		cmp	r3, #1
 2365 021e 36D0     		beq	.L99
 2366              	.LBE242:
 2367              	.LBE261:
 2368              	.LBE269:
 2369              	.LBE278:
 2370              	.LBE285:
 2371              	.LBE292:
 2372              	.LBE299:
 2373              	.LBE306:
 2374              	.LBE314:
 226:src/unit/robot/robot.cpp ****                               static const uint8_t data_size = 6;
 2375              		.loc 1 226 32 is_stmt 1 view .LVU688
 2376              	.LBB315:
 2377              	.LBB307:
 2378              	.LBB300:
 2379              	.LBB293:
 2380              	.LBB286:
 2381              	.LBB279:
 2382              	.LBB270:
 2383              	.LBB262:
 2384              	.LBB256:
 2385              	.LBB243:
 2386 0220 022B     		cmp	r3, #2
 2387 0222 71D0     		beq	.L100
 2388              	.LBE243:
 2389              	.LBE256:
 2390              	.LBE262:
 2391              	.LBE270:
 2392              	.LBE279:
 2393              	.LBE286:
 2394              	.LBE293:
 2395              	.LBE300:
 2396              	.LBE307:
 2397              	.LBE315:
 236:src/unit/robot/robot.cpp ****                               static const uint8_t data_size = 7;
 2398              		.loc 1 236 32 view .LVU689
 2399              	.LBB316:
 2400              	.LBB308:
 2401              	.LBB301:
 2402              	.LBB294:
ARM GAS  /var/folders/5c/srt4fy4j1pd641bjfx75k5000000gn/T//ccCyP7bK.s 			page 58


 2403              	.LBB287:
 2404              	.LBB280:
 2405              	.LBB271:
 2406              	.LBB263:
 2407              	.LBB257:
 2408              	.LBB251:
 2409              	.LBB244:
 2410 0224 032B     		cmp	r3, #3
 2411 0226 7FF464AF 		bne	.L84
 2412              	.LBB245:
 237:src/unit/robot/robot.cpp ****                               uint8_t send_data[data_size];
 2413              		.loc 1 237 31 view .LVU690
 238:src/unit/robot/robot.cpp ****                               send_data[0] = HEADER;
 2414              		.loc 1 238 31 view .LVU691
 239:src/unit/robot/robot.cpp ****                               send_data[1] = info.Cam.center_dir * 0.5 + 90;
 2415              		.loc 1 239 31 view .LVU692
 239:src/unit/robot/robot.cpp ****                               send_data[1] = info.Cam.center_dir * 0.5 + 90;
 2416              		.loc 1 239 44 is_stmt 0 view .LVU693
 2417 022a FF23     		movs	r3, #255
 2418 022c 8DF80430 		strb	r3, [sp, #4]
 240:src/unit/robot/robot.cpp ****                               send_data[2] = info.Cam.center_dis;
 2419              		.loc 1 240 31 is_stmt 1 view .LVU694
 240:src/unit/robot/robot.cpp ****                               send_data[2] = info.Cam.center_dis;
 2420              		.loc 1 240 66 is_stmt 0 view .LVU695
 2421 0230 B5F94200 		ldrsh	r0, [r5, #66]
 2422 0234 FFF7FEFF 		bl	__aeabi_i2d
 2423              	.LVL189:
 2424 0238 0022     		movs	r2, #0
 2425 023a 314B     		ldr	r3, .L101+32
 2426 023c FFF7FEFF 		bl	__aeabi_dmul
 2427              	.LVL190:
 240:src/unit/robot/robot.cpp ****                               send_data[2] = info.Cam.center_dis;
 2428              		.loc 1 240 72 view .LVU696
 2429 0240 0022     		movs	r2, #0
 2430 0242 304B     		ldr	r3, .L101+36
 2431 0244 FFF7FEFF 		bl	__aeabi_dadd
 2432              	.LVL191:
 240:src/unit/robot/robot.cpp ****                               send_data[2] = info.Cam.center_dis;
 2433              		.loc 1 240 44 view .LVU697
 2434 0248 FFF7FEFF 		bl	__aeabi_d2uiz
 2435              	.LVL192:
 2436 024c 8DF80500 		strb	r0, [sp, #5]
 241:src/unit/robot/robot.cpp ****                               send_data[3] = info.Cam.own_x + 127;
 2437              		.loc 1 241 31 is_stmt 1 view .LVU698
 241:src/unit/robot/robot.cpp ****                               send_data[3] = info.Cam.own_x + 127;
 2438              		.loc 1 241 55 is_stmt 0 view .LVU699
 2439 0250 B5F94430 		ldrsh	r3, [r5, #68]
 241:src/unit/robot/robot.cpp ****                               send_data[3] = info.Cam.own_x + 127;
 2440              		.loc 1 241 44 view .LVU700
 2441 0254 8DF80630 		strb	r3, [sp, #6]
 242:src/unit/robot/robot.cpp ****                               send_data[4] = info.Cam.own_y + 127;
 2442              		.loc 1 242 31 is_stmt 1 view .LVU701
 242:src/unit/robot/robot.cpp ****                               send_data[4] = info.Cam.own_y + 127;
 2443              		.loc 1 242 55 is_stmt 0 view .LVU702
 2444 0258 95F84030 		ldrb	r3, [r5, #64]	@ zero_extendqisi2
 242:src/unit/robot/robot.cpp ****                               send_data[4] = info.Cam.own_y + 127;
 2445              		.loc 1 242 61 view .LVU703
ARM GAS  /var/folders/5c/srt4fy4j1pd641bjfx75k5000000gn/T//ccCyP7bK.s 			page 59


 2446 025c 7F33     		adds	r3, r3, #127
 242:src/unit/robot/robot.cpp ****                               send_data[4] = info.Cam.own_y + 127;
 2447              		.loc 1 242 44 view .LVU704
 2448 025e 8DF80730 		strb	r3, [sp, #7]
 243:src/unit/robot/robot.cpp ****                               send_data[5] = info.Cam.proximity[0];
 2449              		.loc 1 243 31 is_stmt 1 view .LVU705
 243:src/unit/robot/robot.cpp ****                               send_data[5] = info.Cam.proximity[0];
 2450              		.loc 1 243 55 is_stmt 0 view .LVU706
 2451 0262 95F84130 		ldrb	r3, [r5, #65]	@ zero_extendqisi2
 243:src/unit/robot/robot.cpp ****                               send_data[5] = info.Cam.proximity[0];
 2452              		.loc 1 243 61 view .LVU707
 2453 0266 7F33     		adds	r3, r3, #127
 243:src/unit/robot/robot.cpp ****                               send_data[5] = info.Cam.proximity[0];
 2454              		.loc 1 243 44 view .LVU708
 2455 0268 8DF80830 		strb	r3, [sp, #8]
 244:src/unit/robot/robot.cpp ****                               send_data[6] = FOOTER;
 2456              		.loc 1 244 31 is_stmt 1 view .LVU709
 244:src/unit/robot/robot.cpp ****                               send_data[6] = FOOTER;
 2457              		.loc 1 244 66 is_stmt 0 view .LVU710
 2458 026c 95F84730 		ldrb	r3, [r5, #71]	@ zero_extendqisi2
 244:src/unit/robot/robot.cpp ****                               send_data[6] = FOOTER;
 2459              		.loc 1 244 44 view .LVU711
 2460 0270 8DF80930 		strb	r3, [sp, #9]
 245:src/unit/robot/robot.cpp ****                               serial3.write(send_data, data_size);
 2461              		.loc 1 245 31 is_stmt 1 view .LVU712
 245:src/unit/robot/robot.cpp ****                               serial3.write(send_data, data_size);
 2462              		.loc 1 245 44 is_stmt 0 view .LVU713
 2463 0274 AA23     		movs	r3, #170
 2464 0276 8DF80A30 		strb	r3, [sp, #10]
 246:src/unit/robot/robot.cpp ****                         }
 2465              		.loc 1 246 31 is_stmt 1 view .LVU714
 2466              	.LVL193:
 2467              	.LBB246:
 2468              	.LBI246:
  58:Lib/BufferedSerial/BufferedSerial.hpp ****             HAL_UART_Transmit(_huart, (uint8_t *)data, len, 100);
 2469              		.loc 2 58 12 view .LVU715
 2470              	.LBB247:
 2471              		.loc 2 59 13 view .LVU716
 2472              		.loc 2 59 30 is_stmt 0 view .LVU717
 2473 027a 05F58055 		add	r5, r5, #4096
 2474              	.LVL194:
 2475              		.loc 2 59 30 view .LVU718
 2476 027e 6423     		movs	r3, #100
 2477 0280 0722     		movs	r2, #7
 2478 0282 01A9     		add	r1, sp, #4
 2479              	.LVL195:
 2480              		.loc 2 59 30 view .LVU719
 2481 0284 D5F8DC06 		ldr	r0, [r5, #1756]
 2482 0288 FFF7FEFF 		bl	HAL_UART_Transmit
 2483              	.LVL196:
 2484              		.loc 2 59 30 view .LVU720
 2485              	.LBE247:
 2486              	.LBE246:
 2487              	.LBE245:
 2488 028c 31E7     		b	.L84
 2489              	.LVL197:
 2490              	.L99:
ARM GAS  /var/folders/5c/srt4fy4j1pd641bjfx75k5000000gn/T//ccCyP7bK.s 			page 60


 2491              		.loc 2 59 30 view .LVU721
 2492              	.LBE244:
 2493              	.LBE251:
 2494              	.LBB252:
 217:src/unit/robot/robot.cpp ****                               uint8_t send_data[data_size];
 2495              		.loc 1 217 31 is_stmt 1 view .LVU722
 218:src/unit/robot/robot.cpp ****                               send_data[0] = HEADER;
 2496              		.loc 1 218 31 view .LVU723
 219:src/unit/robot/robot.cpp ****                               send_data[1] = info.Cam.ball_dir * 0.5 + 90;
 2497              		.loc 1 219 31 view .LVU724
 219:src/unit/robot/robot.cpp ****                               send_data[1] = info.Cam.ball_dir * 0.5 + 90;
 2498              		.loc 1 219 44 is_stmt 0 view .LVU725
 2499 028e FF23     		movs	r3, #255
 2500 0290 8DF80430 		strb	r3, [sp, #4]
 220:src/unit/robot/robot.cpp ****                               send_data[2] = info.Cam.ball_dis;
 2501              		.loc 1 220 31 is_stmt 1 view .LVU726
 220:src/unit/robot/robot.cpp ****                               send_data[2] = info.Cam.ball_dis;
 2502              		.loc 1 220 64 is_stmt 0 view .LVU727
 2503 0294 B5F93400 		ldrsh	r0, [r5, #52]
 2504 0298 FFF7FEFF 		bl	__aeabi_i2d
 2505              	.LVL198:
 2506 029c 0022     		movs	r2, #0
 2507 029e 184B     		ldr	r3, .L101+32
 2508 02a0 FFF7FEFF 		bl	__aeabi_dmul
 2509              	.LVL199:
 220:src/unit/robot/robot.cpp ****                               send_data[2] = info.Cam.ball_dis;
 2510              		.loc 1 220 70 view .LVU728
 2511 02a4 0022     		movs	r2, #0
 2512 02a6 174B     		ldr	r3, .L101+36
 2513 02a8 FFF7FEFF 		bl	__aeabi_dadd
 2514              	.LVL200:
 220:src/unit/robot/robot.cpp ****                               send_data[2] = info.Cam.ball_dis;
 2515              		.loc 1 220 44 view .LVU729
 2516 02ac FFF7FEFF 		bl	__aeabi_d2uiz
 2517              	.LVL201:
 2518 02b0 8DF80500 		strb	r0, [sp, #5]
 221:src/unit/robot/robot.cpp ****                               send_data[3] = 0;
 2519              		.loc 1 221 31 is_stmt 1 view .LVU730
 221:src/unit/robot/robot.cpp ****                               send_data[3] = 0;
 2520              		.loc 1 221 55 is_stmt 0 view .LVU731
 2521 02b4 B5F93630 		ldrsh	r3, [r5, #54]
 221:src/unit/robot/robot.cpp ****                               send_data[3] = 0;
 2522              		.loc 1 221 44 view .LVU732
 2523 02b8 8DF80630 		strb	r3, [sp, #6]
 222:src/unit/robot/robot.cpp ****                               send_data[4] = 0;
 2524              		.loc 1 222 31 is_stmt 1 view .LVU733
 222:src/unit/robot/robot.cpp ****                               send_data[4] = 0;
 2525              		.loc 1 222 44 is_stmt 0 view .LVU734
 2526 02bc 0023     		movs	r3, #0
 2527 02be 8DF80730 		strb	r3, [sp, #7]
 223:src/unit/robot/robot.cpp ****                               send_data[5] = FOOTER;
 2528              		.loc 1 223 31 is_stmt 1 view .LVU735
 223:src/unit/robot/robot.cpp ****                               send_data[5] = FOOTER;
 2529              		.loc 1 223 44 is_stmt 0 view .LVU736
 2530 02c2 8DF80830 		strb	r3, [sp, #8]
 224:src/unit/robot/robot.cpp ****                               serial3.write(send_data, data_size);
 2531              		.loc 1 224 31 is_stmt 1 view .LVU737
ARM GAS  /var/folders/5c/srt4fy4j1pd641bjfx75k5000000gn/T//ccCyP7bK.s 			page 61


 224:src/unit/robot/robot.cpp ****                               serial3.write(send_data, data_size);
 2532              		.loc 1 224 44 is_stmt 0 view .LVU738
 2533 02c6 AA23     		movs	r3, #170
 2534 02c8 8DF80930 		strb	r3, [sp, #9]
 225:src/unit/robot/robot.cpp ****                         } else if (sub_item == 2) {
 2535              		.loc 1 225 31 is_stmt 1 view .LVU739
 2536              	.LVL202:
 2537              	.LBB253:
 2538              	.LBI253:
  58:Lib/BufferedSerial/BufferedSerial.hpp ****             HAL_UART_Transmit(_huart, (uint8_t *)data, len, 100);
 2539              		.loc 2 58 12 view .LVU740
 2540              	.LBB254:
 2541              		.loc 2 59 13 view .LVU741
 2542              		.loc 2 59 30 is_stmt 0 view .LVU742
 2543 02cc 05F58055 		add	r5, r5, #4096
 2544              	.LVL203:
 2545              		.loc 2 59 30 view .LVU743
 2546 02d0 6423     		movs	r3, #100
 2547 02d2 0622     		movs	r2, #6
 2548 02d4 01A9     		add	r1, sp, #4
 2549              	.LVL204:
 2550              		.loc 2 59 30 view .LVU744
 2551 02d6 D5F8DC06 		ldr	r0, [r5, #1756]
 2552 02da FFF7FEFF 		bl	HAL_UART_Transmit
 2553              	.LVL205:
 2554              		.loc 2 59 30 view .LVU745
 2555              	.LBE254:
 2556              	.LBE253:
 2557              	.LBE252:
 2558 02de 08E7     		b	.L84
 2559              	.L102:
 2560              		.align	3
 2561              	.L101:
 2562 02e0 7B14AE47 		.word	1202590843
 2563 02e4 E17A843F 		.word	1065646817
 2564 02e8 00000000 		.word	_ZZN5Robot6UiUartEvE5index
 2565 02ec 00000000 		.word	_ZZN5Robot6UiUartEvE9recv_data
 2566 02f0 00000000 		.word	_ZZN5Robot6UiUartEvE9recv_byte
 2567 02f4 00000000 		.word	_ZZN5Robot6UiUartEvE4item
 2568 02f8 00000000 		.word	_ZZN5Robot6UiUartEvE8sub_item
 2569 02fc 9F860100 		.word	99999
 2570 0300 0000E03F 		.word	1071644672
 2571 0304 00805640 		.word	1079410688
 2572              	.LVL206:
 2573              	.L100:
 2574              	.LBB255:
 2575              	.LBB248:
 227:src/unit/robot/robot.cpp ****                               uint8_t send_data[data_size];
 2576              		.loc 1 227 31 is_stmt 1 view .LVU746
 228:src/unit/robot/robot.cpp ****                               send_data[0] = HEADER;
 2577              		.loc 1 228 31 view .LVU747
 229:src/unit/robot/robot.cpp ****                               send_data[1] = info.Cam.yellow_goal_dir * 0.5 + 90;
 2578              		.loc 1 229 31 view .LVU748
 229:src/unit/robot/robot.cpp ****                               send_data[1] = info.Cam.yellow_goal_dir * 0.5 + 90;
 2579              		.loc 1 229 44 is_stmt 0 view .LVU749
 2580 0308 FF23     		movs	r3, #255
 2581 030a 8DF80430 		strb	r3, [sp, #4]
ARM GAS  /var/folders/5c/srt4fy4j1pd641bjfx75k5000000gn/T//ccCyP7bK.s 			page 62


 230:src/unit/robot/robot.cpp ****                               send_data[2] = info.Cam.yellow_goal_height;
 2582              		.loc 1 230 31 is_stmt 1 view .LVU750
 230:src/unit/robot/robot.cpp ****                               send_data[2] = info.Cam.yellow_goal_height;
 2583              		.loc 1 230 71 is_stmt 0 view .LVU751
 2584 030e B5F93800 		ldrsh	r0, [r5, #56]
 2585 0312 FFF7FEFF 		bl	__aeabi_i2d
 2586              	.LVL207:
 2587 0316 0022     		movs	r2, #0
 2588 0318 174B     		ldr	r3, .L103
 2589 031a FFF7FEFF 		bl	__aeabi_dmul
 2590              	.LVL208:
 230:src/unit/robot/robot.cpp ****                               send_data[2] = info.Cam.yellow_goal_height;
 2591              		.loc 1 230 77 view .LVU752
 2592 031e 0022     		movs	r2, #0
 2593 0320 164B     		ldr	r3, .L103+4
 2594 0322 FFF7FEFF 		bl	__aeabi_dadd
 2595              	.LVL209:
 230:src/unit/robot/robot.cpp ****                               send_data[2] = info.Cam.yellow_goal_height;
 2596              		.loc 1 230 44 view .LVU753
 2597 0326 FFF7FEFF 		bl	__aeabi_d2uiz
 2598              	.LVL210:
 2599 032a 8DF80500 		strb	r0, [sp, #5]
 231:src/unit/robot/robot.cpp ****                               send_data[3] = info.Cam.blue_goal_dir * 0.5 + 90;
 2600              		.loc 1 231 31 is_stmt 1 view .LVU754
 231:src/unit/robot/robot.cpp ****                               send_data[3] = info.Cam.blue_goal_dir * 0.5 + 90;
 2601              		.loc 1 231 55 is_stmt 0 view .LVU755
 2602 032e B5F93A30 		ldrsh	r3, [r5, #58]
 231:src/unit/robot/robot.cpp ****                               send_data[3] = info.Cam.blue_goal_dir * 0.5 + 90;
 2603              		.loc 1 231 44 view .LVU756
 2604 0332 8DF80630 		strb	r3, [sp, #6]
 232:src/unit/robot/robot.cpp ****                               send_data[4] = info.Cam.blue_goal_height;
 2605              		.loc 1 232 31 is_stmt 1 view .LVU757
 232:src/unit/robot/robot.cpp ****                               send_data[4] = info.Cam.blue_goal_height;
 2606              		.loc 1 232 69 is_stmt 0 view .LVU758
 2607 0336 B5F93C00 		ldrsh	r0, [r5, #60]
 2608 033a FFF7FEFF 		bl	__aeabi_i2d
 2609              	.LVL211:
 2610 033e 0022     		movs	r2, #0
 2611 0340 0D4B     		ldr	r3, .L103
 2612 0342 FFF7FEFF 		bl	__aeabi_dmul
 2613              	.LVL212:
 232:src/unit/robot/robot.cpp ****                               send_data[4] = info.Cam.blue_goal_height;
 2614              		.loc 1 232 75 view .LVU759
 2615 0346 0022     		movs	r2, #0
 2616 0348 0C4B     		ldr	r3, .L103+4
 2617 034a FFF7FEFF 		bl	__aeabi_dadd
 2618              	.LVL213:
 232:src/unit/robot/robot.cpp ****                               send_data[4] = info.Cam.blue_goal_height;
 2619              		.loc 1 232 44 view .LVU760
 2620 034e FFF7FEFF 		bl	__aeabi_d2uiz
 2621              	.LVL214:
 2622 0352 8DF80700 		strb	r0, [sp, #7]
 233:src/unit/robot/robot.cpp ****                               send_data[5] = FOOTER;
 2623              		.loc 1 233 31 is_stmt 1 view .LVU761
 233:src/unit/robot/robot.cpp ****                               send_data[5] = FOOTER;
 2624              		.loc 1 233 55 is_stmt 0 view .LVU762
 2625 0356 B5F93E30 		ldrsh	r3, [r5, #62]
ARM GAS  /var/folders/5c/srt4fy4j1pd641bjfx75k5000000gn/T//ccCyP7bK.s 			page 63


 233:src/unit/robot/robot.cpp ****                               send_data[5] = FOOTER;
 2626              		.loc 1 233 44 view .LVU763
 2627 035a 8DF80830 		strb	r3, [sp, #8]
 234:src/unit/robot/robot.cpp ****                               serial3.write(send_data, data_size);
 2628              		.loc 1 234 31 is_stmt 1 view .LVU764
 234:src/unit/robot/robot.cpp ****                               serial3.write(send_data, data_size);
 2629              		.loc 1 234 44 is_stmt 0 view .LVU765
 2630 035e AA23     		movs	r3, #170
 2631 0360 8DF80930 		strb	r3, [sp, #9]
 235:src/unit/robot/robot.cpp ****                         } else if (sub_item == 3) {
 2632              		.loc 1 235 31 is_stmt 1 view .LVU766
 2633              	.LVL215:
 2634              	.LBB249:
 2635              	.LBI249:
  58:Lib/BufferedSerial/BufferedSerial.hpp ****             HAL_UART_Transmit(_huart, (uint8_t *)data, len, 100);
 2636              		.loc 2 58 12 view .LVU767
 2637              	.LBB250:
 2638              		.loc 2 59 13 view .LVU768
 2639              		.loc 2 59 30 is_stmt 0 view .LVU769
 2640 0364 05F58055 		add	r5, r5, #4096
 2641              	.LVL216:
 2642              		.loc 2 59 30 view .LVU770
 2643 0368 6423     		movs	r3, #100
 2644 036a 0622     		movs	r2, #6
 2645 036c 01A9     		add	r1, sp, #4
 2646              	.LVL217:
 2647              		.loc 2 59 30 view .LVU771
 2648 036e D5F8DC06 		ldr	r0, [r5, #1756]
 2649 0372 FFF7FEFF 		bl	HAL_UART_Transmit
 2650              	.LVL218:
 2651              		.loc 2 59 30 view .LVU772
 2652              	.LBE250:
 2653              	.LBE249:
 2654              	.LBE248:
 2655 0376 BCE6     		b	.L84
 2656              	.L104:
 2657              		.align	2
 2658              	.L103:
 2659 0378 0000E03F 		.word	1071644672
 2660 037c 00805640 		.word	1079410688
 2661              	.LBE255:
 2662              	.LBE257:
 2663              	.LBE263:
 2664              	.LBE271:
 2665              	.LBE280:
 2666              	.LBE287:
 2667              	.LBE294:
 2668              	.LBE301:
 2669              	.LBE308:
 2670              	.LBE316:
 2671              		.cfi_endproc
 2672              	.LFE294:
 2673              		.fnend
 2675              		.section	.text._ZN5Robot7CamUartEv,"ax",%progbits
 2676              		.align	1
 2677              		.global	_ZN5Robot7CamUartEv
 2678              		.syntax unified
ARM GAS  /var/folders/5c/srt4fy4j1pd641bjfx75k5000000gn/T//ccCyP7bK.s 			page 64


 2679              		.thumb
 2680              		.thumb_func
 2682              	_ZN5Robot7CamUartEv:
 2683              		.fnstart
 2684              	.LVL219:
 2685              	.LFB295:
 254:src/unit/robot/robot.cpp **** 
 255:src/unit/robot/robot.cpp **** void Robot::CamUart() {
 2686              		.loc 1 255 23 is_stmt 1 view -0
 2687              		.cfi_startproc
 2688              		@ args = 0, pretend = 0, frame = 8
 2689              		@ frame_needed = 0, uses_anonymous_args = 0
 2690              		.loc 1 255 23 is_stmt 0 view .LVU774
 2691 0000 30B5     		push	{r4, r5, lr}
 2692              		.save {r4, r5, lr}
 2693              	.LCFI16:
 2694              		.cfi_def_cfa_offset 12
 2695              		.cfi_offset 4, -12
 2696              		.cfi_offset 5, -8
 2697              		.cfi_offset 14, -4
 2698              		.pad #12
 2699 0002 83B0     		sub	sp, sp, #12
 2700              	.LCFI17:
 2701              		.cfi_def_cfa_offset 24
 2702 0004 0546     		mov	r5, r0
 256:src/unit/robot/robot.cpp ****       while (serial4.available()) {
 2703              		.loc 1 256 7 is_stmt 1 view .LVU775
 2704 0006 0BE0     		b	.L106
 2705              	.LVL220:
 2706              	.L118:
 2707              	.LBB317:
 257:src/unit/robot/robot.cpp ****             static const uint8_t HEADER = 0xFF;   // ヘッダ
 258:src/unit/robot/robot.cpp ****             static const uint8_t FOOTER = 0xAA;   // フッタ
 259:src/unit/robot/robot.cpp ****             static const uint8_t data_size = 11;  // データのサイズ
 260:src/unit/robot/robot.cpp ****             static uint8_t index = 0;             // 受信したデータのインデックスカ
 261:src/unit/robot/robot.cpp ****             static uint8_t recv_data[data_size];  // 受信したデータ
 262:src/unit/robot/robot.cpp ****             static uint8_t recv_byte;
 263:src/unit/robot/robot.cpp **** 
 264:src/unit/robot/robot.cpp ****             recv_byte = serial4.read();
 265:src/unit/robot/robot.cpp ****             if (index == 0) {
 266:src/unit/robot/robot.cpp ****                   if (recv_byte == HEADER) {
 267:src/unit/robot/robot.cpp ****                         index++;
 2708              		.loc 1 267 25 view .LVU776
 2709              		.loc 1 267 30 is_stmt 0 view .LVU777
 2710 0008 0133     		adds	r3, r3, #1
 2711 000a 504A     		ldr	r2, .L121
 2712 000c 1370     		strb	r3, [r2]
 2713 000e 07E0     		b	.L106
 2714              	.L107:
 268:src/unit/robot/robot.cpp ****                   } else {
 269:src/unit/robot/robot.cpp ****                         index = 0;
 270:src/unit/robot/robot.cpp ****                   }
 271:src/unit/robot/robot.cpp ****             } else if (index == (data_size + 1)) {
 2715              		.loc 1 271 20 is_stmt 1 view .LVU778
 2716 0010 0C2B     		cmp	r3, #12
 2717 0012 1CD0     		beq	.L116
 272:src/unit/robot/robot.cpp ****                   if (recv_byte == FOOTER) {
ARM GAS  /var/folders/5c/srt4fy4j1pd641bjfx75k5000000gn/T//ccCyP7bK.s 			page 65


 273:src/unit/robot/robot.cpp ****                         if (info.Cam.is_initialized == 0) info.Cam.is_initialized = 1;
 274:src/unit/robot/robot.cpp **** 
 275:src/unit/robot/robot.cpp ****                         info.Cam.ball_dir = ((((uint16_t)recv_data[0] << 8) & 0xFF00) | ((int16_t)r
 276:src/unit/robot/robot.cpp ****                         info.Cam.ball_dis = recv_data[2];
 277:src/unit/robot/robot.cpp ****                         info.Cam.yellow_goal_dir = recv_data[3] * 2 - 180;
 278:src/unit/robot/robot.cpp ****                         info.Cam.yellow_goal_height = recv_data[4];
 279:src/unit/robot/robot.cpp ****                         info.Cam.blue_goal_dir = recv_data[5] * 2 - 180;
 280:src/unit/robot/robot.cpp ****                         info.Cam.blue_goal_height = recv_data[6];
 281:src/unit/robot/robot.cpp ****                         info.Cam.is_goal_front = recv_data[7];
 282:src/unit/robot/robot.cpp ****                         info.Cam.own_x = recv_data[8] - 127;
 283:src/unit/robot/robot.cpp ****                         info.Cam.own_y = recv_data[9] - 127;
 284:src/unit/robot/robot.cpp ****                         info.Cam.proximity[0] = recv_data[10];
 285:src/unit/robot/robot.cpp **** 
 286:src/unit/robot/robot.cpp ****                         info.Cam.center_dir = MyMath::atan2(info.Cam.own_y, info.Cam.own_x);
 287:src/unit/robot/robot.cpp ****                         info.Cam.center_dir = MyMath::atan2(info.Cam.own_y, info.Cam.own_x);
 288:src/unit/robot/robot.cpp ****                         info.Cam.center_dis = MyMath::sqrt(info.Cam.own_x * info.Cam.own_x + info.C
 289:src/unit/robot/robot.cpp ****                   }
 290:src/unit/robot/robot.cpp ****                   index = 0;
 291:src/unit/robot/robot.cpp ****             } else {
 292:src/unit/robot/robot.cpp ****                   recv_data[index - 1] = recv_byte;
 2718              		.loc 1 292 19 view .LVU779
 2719              		.loc 1 292 35 is_stmt 0 view .LVU780
 2720 0014 5A1E     		subs	r2, r3, #1
 2721              		.loc 1 292 40 view .LVU781
 2722 0016 4E49     		ldr	r1, .L121+4
 2723 0018 8854     		strb	r0, [r1, r2]
 293:src/unit/robot/robot.cpp ****                   index++;
 2724              		.loc 1 293 19 is_stmt 1 view .LVU782
 2725              		.loc 1 293 24 is_stmt 0 view .LVU783
 2726 001a 0133     		adds	r3, r3, #1
 2727 001c 4B4A     		ldr	r2, .L121
 2728 001e 1370     		strb	r3, [r2]
 2729              	.L106:
 2730              		.loc 1 293 24 view .LVU784
 2731              	.LBE317:
 256:src/unit/robot/robot.cpp ****             static const uint8_t HEADER = 0xFF;   // ヘッダ
 2732              		.loc 1 256 31 is_stmt 1 view .LVU785
 2733 0020 05F5B754 		add	r4, r5, #5856
 2734 0024 0C34     		adds	r4, r4, #12
 2735 0026 2046     		mov	r0, r4
 2736 0028 FFF7FEFF 		bl	_ZN14BufferedSerial9availableEv
 2737              	.LVL221:
 2738 002c 0028     		cmp	r0, #0
 2739 002e 64D0     		beq	.L117
 2740              	.LBB318:
 257:src/unit/robot/robot.cpp ****             static const uint8_t FOOTER = 0xAA;   // フッタ
 2741              		.loc 1 257 13 view .LVU786
 258:src/unit/robot/robot.cpp ****             static const uint8_t data_size = 11;  // データのサイズ
 2742              		.loc 1 258 13 view .LVU787
 259:src/unit/robot/robot.cpp ****             static uint8_t index = 0;             // 受信したデータのインデックスカ
 2743              		.loc 1 259 13 view .LVU788
 260:src/unit/robot/robot.cpp ****             static uint8_t recv_data[data_size];  // 受信したデータ
 2744              		.loc 1 260 13 view .LVU789
 261:src/unit/robot/robot.cpp ****             static uint8_t recv_byte;
 2745              		.loc 1 261 13 view .LVU790
 262:src/unit/robot/robot.cpp **** 
 2746              		.loc 1 262 13 view .LVU791
ARM GAS  /var/folders/5c/srt4fy4j1pd641bjfx75k5000000gn/T//ccCyP7bK.s 			page 66


 264:src/unit/robot/robot.cpp ****             if (index == 0) {
 2747              		.loc 1 264 13 view .LVU792
 264:src/unit/robot/robot.cpp ****             if (index == 0) {
 2748              		.loc 1 264 37 is_stmt 0 view .LVU793
 2749 0030 2046     		mov	r0, r4
 2750 0032 FFF7FEFF 		bl	_ZN14BufferedSerial4readEv
 2751              	.LVL222:
 264:src/unit/robot/robot.cpp ****             if (index == 0) {
 2752              		.loc 1 264 23 view .LVU794
 2753 0036 474B     		ldr	r3, .L121+8
 2754 0038 1870     		strb	r0, [r3]
 265:src/unit/robot/robot.cpp ****                   if (recv_byte == HEADER) {
 2755              		.loc 1 265 13 is_stmt 1 view .LVU795
 265:src/unit/robot/robot.cpp ****                   if (recv_byte == HEADER) {
 2756              		.loc 1 265 23 is_stmt 0 view .LVU796
 2757 003a 444B     		ldr	r3, .L121
 2758 003c 1B78     		ldrb	r3, [r3]	@ zero_extendqisi2
 265:src/unit/robot/robot.cpp ****                   if (recv_byte == HEADER) {
 2759              		.loc 1 265 13 view .LVU797
 2760 003e 002B     		cmp	r3, #0
 2761 0040 E6D1     		bne	.L107
 266:src/unit/robot/robot.cpp ****                         index++;
 2762              		.loc 1 266 19 is_stmt 1 view .LVU798
 2763 0042 FF28     		cmp	r0, #255
 2764 0044 E0D0     		beq	.L118
 269:src/unit/robot/robot.cpp ****                   }
 2765              		.loc 1 269 25 view .LVU799
 269:src/unit/robot/robot.cpp ****                   }
 2766              		.loc 1 269 31 is_stmt 0 view .LVU800
 2767 0046 414B     		ldr	r3, .L121
 2768 0048 0022     		movs	r2, #0
 2769 004a 1A70     		strb	r2, [r3]
 2770 004c E8E7     		b	.L106
 2771              	.L116:
 272:src/unit/robot/robot.cpp ****                         if (info.Cam.is_initialized == 0) info.Cam.is_initialized = 1;
 2772              		.loc 1 272 19 is_stmt 1 view .LVU801
 2773 004e AA28     		cmp	r0, #170
 2774 0050 03D0     		beq	.L119
 2775              	.L111:
 290:src/unit/robot/robot.cpp ****             } else {
 2776              		.loc 1 290 19 view .LVU802
 290:src/unit/robot/robot.cpp ****             } else {
 2777              		.loc 1 290 25 is_stmt 0 view .LVU803
 2778 0052 3E4B     		ldr	r3, .L121
 2779 0054 0022     		movs	r2, #0
 2780 0056 1A70     		strb	r2, [r3]
 2781 0058 E2E7     		b	.L106
 2782              	.L119:
 273:src/unit/robot/robot.cpp **** 
 2783              		.loc 1 273 25 is_stmt 1 view .LVU804
 273:src/unit/robot/robot.cpp **** 
 2784              		.loc 1 273 38 is_stmt 0 view .LVU805
 2785 005a 95F83230 		ldrb	r3, [r5, #50]	@ zero_extendqisi2
 273:src/unit/robot/robot.cpp **** 
 2786              		.loc 1 273 25 view .LVU806
 2787 005e 13B9     		cbnz	r3, .L112
 273:src/unit/robot/robot.cpp **** 
ARM GAS  /var/folders/5c/srt4fy4j1pd641bjfx75k5000000gn/T//ccCyP7bK.s 			page 67


 2788              		.loc 1 273 59 is_stmt 1 discriminator 1 view .LVU807
 273:src/unit/robot/robot.cpp **** 
 2789              		.loc 1 273 83 is_stmt 0 discriminator 1 view .LVU808
 2790 0060 0123     		movs	r3, #1
 2791 0062 85F83230 		strb	r3, [r5, #50]
 2792              	.L112:
 275:src/unit/robot/robot.cpp ****                         info.Cam.ball_dis = recv_data[2];
 2793              		.loc 1 275 25 is_stmt 1 view .LVU809
 275:src/unit/robot/robot.cpp ****                         info.Cam.ball_dis = recv_data[2];
 2794              		.loc 1 275 69 is_stmt 0 view .LVU810
 2795 0066 3A4B     		ldr	r3, .L121+4
 2796 0068 1978     		ldrb	r1, [r3]	@ zero_extendqisi2
 275:src/unit/robot/robot.cpp ****                         info.Cam.ball_dis = recv_data[2];
 2797              		.loc 1 275 110 view .LVU811
 2798 006a 5A78     		ldrb	r2, [r3, #1]	@ zero_extendqisi2
 275:src/unit/robot/robot.cpp ****                         info.Cam.ball_dis = recv_data[2];
 2799              		.loc 1 275 87 view .LVU812
 2800 006c 42EA0122 		orr	r2, r2, r1, lsl #8
 275:src/unit/robot/robot.cpp ****                         info.Cam.ball_dis = recv_data[2];
 2801              		.loc 1 275 123 view .LVU813
 2802 0070 A2F50042 		sub	r2, r2, #32768
 275:src/unit/robot/robot.cpp ****                         info.Cam.ball_dis = recv_data[2];
 2803              		.loc 1 275 43 view .LVU814
 2804 0074 AA86     		strh	r2, [r5, #52]	@ movhi
 276:src/unit/robot/robot.cpp ****                         info.Cam.yellow_goal_dir = recv_data[3] * 2 - 180;
 2805              		.loc 1 276 25 is_stmt 1 view .LVU815
 276:src/unit/robot/robot.cpp ****                         info.Cam.yellow_goal_dir = recv_data[3] * 2 - 180;
 2806              		.loc 1 276 56 is_stmt 0 view .LVU816
 2807 0076 9A78     		ldrb	r2, [r3, #2]	@ zero_extendqisi2
 276:src/unit/robot/robot.cpp ****                         info.Cam.yellow_goal_dir = recv_data[3] * 2 - 180;
 2808              		.loc 1 276 43 view .LVU817
 2809 0078 EA86     		strh	r2, [r5, #54]	@ movhi
 277:src/unit/robot/robot.cpp ****                         info.Cam.yellow_goal_height = recv_data[4];
 2810              		.loc 1 277 25 is_stmt 1 view .LVU818
 277:src/unit/robot/robot.cpp ****                         info.Cam.yellow_goal_height = recv_data[4];
 2811              		.loc 1 277 63 is_stmt 0 view .LVU819
 2812 007a DA78     		ldrb	r2, [r3, #3]	@ zero_extendqisi2
 277:src/unit/robot/robot.cpp ****                         info.Cam.yellow_goal_height = recv_data[4];
 2813              		.loc 1 277 69 view .LVU820
 2814 007c 5A3A     		subs	r2, r2, #90
 277:src/unit/robot/robot.cpp ****                         info.Cam.yellow_goal_height = recv_data[4];
 2815              		.loc 1 277 50 view .LVU821
 2816 007e 5200     		lsls	r2, r2, #1
 2817 0080 2A87     		strh	r2, [r5, #56]	@ movhi
 278:src/unit/robot/robot.cpp ****                         info.Cam.blue_goal_dir = recv_data[5] * 2 - 180;
 2818              		.loc 1 278 25 is_stmt 1 view .LVU822
 278:src/unit/robot/robot.cpp ****                         info.Cam.blue_goal_dir = recv_data[5] * 2 - 180;
 2819              		.loc 1 278 66 is_stmt 0 view .LVU823
 2820 0082 1A79     		ldrb	r2, [r3, #4]	@ zero_extendqisi2
 278:src/unit/robot/robot.cpp ****                         info.Cam.blue_goal_dir = recv_data[5] * 2 - 180;
 2821              		.loc 1 278 53 view .LVU824
 2822 0084 6A87     		strh	r2, [r5, #58]	@ movhi
 279:src/unit/robot/robot.cpp ****                         info.Cam.blue_goal_height = recv_data[6];
 2823              		.loc 1 279 25 is_stmt 1 view .LVU825
 279:src/unit/robot/robot.cpp ****                         info.Cam.blue_goal_height = recv_data[6];
 2824              		.loc 1 279 61 is_stmt 0 view .LVU826
 2825 0086 5A79     		ldrb	r2, [r3, #5]	@ zero_extendqisi2
ARM GAS  /var/folders/5c/srt4fy4j1pd641bjfx75k5000000gn/T//ccCyP7bK.s 			page 68


 279:src/unit/robot/robot.cpp ****                         info.Cam.blue_goal_height = recv_data[6];
 2826              		.loc 1 279 67 view .LVU827
 2827 0088 5A3A     		subs	r2, r2, #90
 279:src/unit/robot/robot.cpp ****                         info.Cam.blue_goal_height = recv_data[6];
 2828              		.loc 1 279 48 view .LVU828
 2829 008a 5200     		lsls	r2, r2, #1
 2830 008c AA87     		strh	r2, [r5, #60]	@ movhi
 280:src/unit/robot/robot.cpp ****                         info.Cam.is_goal_front = recv_data[7];
 2831              		.loc 1 280 25 is_stmt 1 view .LVU829
 280:src/unit/robot/robot.cpp ****                         info.Cam.is_goal_front = recv_data[7];
 2832              		.loc 1 280 64 is_stmt 0 view .LVU830
 2833 008e 9A79     		ldrb	r2, [r3, #6]	@ zero_extendqisi2
 280:src/unit/robot/robot.cpp ****                         info.Cam.is_goal_front = recv_data[7];
 2834              		.loc 1 280 51 view .LVU831
 2835 0090 EA87     		strh	r2, [r5, #62]	@ movhi
 281:src/unit/robot/robot.cpp ****                         info.Cam.own_x = recv_data[8] - 127;
 2836              		.loc 1 281 25 is_stmt 1 view .LVU832
 281:src/unit/robot/robot.cpp ****                         info.Cam.own_x = recv_data[8] - 127;
 2837              		.loc 1 281 61 is_stmt 0 view .LVU833
 2838 0092 DA79     		ldrb	r2, [r3, #7]	@ zero_extendqisi2
 2839 0094 003A     		subs	r2, r2, #0
 2840 0096 18BF     		it	ne
 2841 0098 0122     		movne	r2, #1
 281:src/unit/robot/robot.cpp ****                         info.Cam.own_x = recv_data[8] - 127;
 2842              		.loc 1 281 48 view .LVU834
 2843 009a 85F84620 		strb	r2, [r5, #70]
 282:src/unit/robot/robot.cpp ****                         info.Cam.own_y = recv_data[9] - 127;
 2844              		.loc 1 282 25 is_stmt 1 view .LVU835
 282:src/unit/robot/robot.cpp ****                         info.Cam.own_y = recv_data[9] - 127;
 2845              		.loc 1 282 53 is_stmt 0 view .LVU836
 2846 009e 197A     		ldrb	r1, [r3, #8]	@ zero_extendqisi2
 282:src/unit/robot/robot.cpp ****                         info.Cam.own_y = recv_data[9] - 127;
 2847              		.loc 1 282 55 view .LVU837
 2848 00a0 7F39     		subs	r1, r1, #127
 2849 00a2 49B2     		sxtb	r1, r1
 282:src/unit/robot/robot.cpp ****                         info.Cam.own_y = recv_data[9] - 127;
 2850              		.loc 1 282 40 view .LVU838
 2851 00a4 85F84010 		strb	r1, [r5, #64]
 283:src/unit/robot/robot.cpp ****                         info.Cam.proximity[0] = recv_data[10];
 2852              		.loc 1 283 25 is_stmt 1 view .LVU839
 283:src/unit/robot/robot.cpp ****                         info.Cam.proximity[0] = recv_data[10];
 2853              		.loc 1 283 53 is_stmt 0 view .LVU840
 2854 00a8 587A     		ldrb	r0, [r3, #9]	@ zero_extendqisi2
 283:src/unit/robot/robot.cpp ****                         info.Cam.proximity[0] = recv_data[10];
 2855              		.loc 1 283 55 view .LVU841
 2856 00aa 7F38     		subs	r0, r0, #127
 2857 00ac 40B2     		sxtb	r0, r0
 283:src/unit/robot/robot.cpp ****                         info.Cam.proximity[0] = recv_data[10];
 2858              		.loc 1 283 40 view .LVU842
 2859 00ae 85F84100 		strb	r0, [r5, #65]
 284:src/unit/robot/robot.cpp **** 
 2860              		.loc 1 284 25 is_stmt 1 view .LVU843
 284:src/unit/robot/robot.cpp **** 
 2861              		.loc 1 284 61 is_stmt 0 view .LVU844
 2862 00b2 9B7A     		ldrb	r3, [r3, #10]	@ zero_extendqisi2
 284:src/unit/robot/robot.cpp **** 
 2863              		.loc 1 284 47 view .LVU845
ARM GAS  /var/folders/5c/srt4fy4j1pd641bjfx75k5000000gn/T//ccCyP7bK.s 			page 69


 2864 00b4 85F84730 		strb	r3, [r5, #71]
 286:src/unit/robot/robot.cpp ****                         info.Cam.center_dir = MyMath::atan2(info.Cam.own_y, info.Cam.own_x);
 2865              		.loc 1 286 25 is_stmt 1 view .LVU846
 286:src/unit/robot/robot.cpp ****                         info.Cam.center_dir = MyMath::atan2(info.Cam.own_y, info.Cam.own_x);
 2866              		.loc 1 286 60 is_stmt 0 view .LVU847
 2867 00b8 FFF7FEFF 		bl	atan2
 2868              	.LVL223:
 286:src/unit/robot/robot.cpp ****                         info.Cam.center_dir = MyMath::atan2(info.Cam.own_y, info.Cam.own_x);
 2869              		.loc 1 286 45 view .LVU848
 2870 00bc A5F84200 		strh	r0, [r5, #66]	@ movhi
 287:src/unit/robot/robot.cpp ****                         info.Cam.center_dis = MyMath::sqrt(info.Cam.own_x * info.Cam.own_x + info.C
 2871              		.loc 1 287 25 is_stmt 1 view .LVU849
 287:src/unit/robot/robot.cpp ****                         info.Cam.center_dis = MyMath::sqrt(info.Cam.own_x * info.Cam.own_x + info.C
 2872              		.loc 1 287 60 is_stmt 0 view .LVU850
 2873 00c0 95F94010 		ldrsb	r1, [r5, #64]
 2874 00c4 95F94100 		ldrsb	r0, [r5, #65]
 2875 00c8 FFF7FEFF 		bl	atan2
 2876              	.LVL224:
 287:src/unit/robot/robot.cpp ****                         info.Cam.center_dis = MyMath::sqrt(info.Cam.own_x * info.Cam.own_x + info.C
 2877              		.loc 1 287 45 view .LVU851
 2878 00cc A5F84200 		strh	r0, [r5, #66]	@ movhi
 288:src/unit/robot/robot.cpp ****                   }
 2879              		.loc 1 288 25 is_stmt 1 view .LVU852
 288:src/unit/robot/robot.cpp ****                   }
 2880              		.loc 1 288 69 is_stmt 0 view .LVU853
 2881 00d0 95F94030 		ldrsb	r3, [r5, #64]
 288:src/unit/robot/robot.cpp ****                   }
 2882              		.loc 1 288 103 view .LVU854
 2883 00d4 95F94120 		ldrsb	r2, [r5, #65]
 288:src/unit/robot/robot.cpp ****                   }
 2884              		.loc 1 288 109 view .LVU855
 2885 00d8 02FB02F2 		mul	r2, r2, r2
 288:src/unit/robot/robot.cpp ****                   }
 2886              		.loc 1 288 92 view .LVU856
 2887 00dc 03FB0323 		mla	r3, r3, r3, r2
 2888 00e0 00EE103A 		vmov	s0, r3	@ int
 288:src/unit/robot/robot.cpp ****                   }
 2889              		.loc 1 288 59 view .LVU857
 2890 00e4 B8EEC00A 		vcvt.f32.s32	s0, s0
 2891 00e8 FFF7FEFF 		bl	sqrt
 2892              	.LVL225:
 288:src/unit/robot/robot.cpp ****                   }
 2893              		.loc 1 288 45 view .LVU858
 2894 00ec BDEEC00A 		vcvt.s32.f32	s0, s0
 2895 00f0 10EE103A 		vmov	r3, s0	@ int
 2896 00f4 A5F84430 		strh	r3, [r5, #68]	@ movhi
 2897 00f8 ABE7     		b	.L111
 2898              	.L117:
 288:src/unit/robot/robot.cpp ****                   }
 2899              		.loc 1 288 45 view .LVU859
 2900              	.LBE318:
 294:src/unit/robot/robot.cpp ****             }
 295:src/unit/robot/robot.cpp ****       }
 296:src/unit/robot/robot.cpp **** 
 297:src/unit/robot/robot.cpp ****       if (cam_send_interval_timer.read_us() >= CAM_SEND_PERIOD_US) {
 2901              		.loc 1 297 7 is_stmt 1 view .LVU860
 2902              		.loc 1 297 42 is_stmt 0 view .LVU861
ARM GAS  /var/folders/5c/srt4fy4j1pd641bjfx75k5000000gn/T//ccCyP7bK.s 			page 70


 2903 00fa 05F5B854 		add	r4, r5, #5888
 2904 00fe 0434     		adds	r4, r4, #4
 2905 0100 2046     		mov	r0, r4
 2906 0102 FFF7FEFF 		bl	_ZN5Timer7read_usEv
 2907              	.LVL226:
 2908              		.loc 1 297 7 view .LVU862
 2909 0106 B0F57A7F 		cmp	r0, #1000
 2910 010a 01D2     		bcs	.L120
 2911              	.LVL227:
 2912              	.L105:
 298:src/unit/robot/robot.cpp ****             serial4.write(info.Imu.yaw * 0.5 + 90);
 299:src/unit/robot/robot.cpp ****             cam_send_interval_timer.reset();
 300:src/unit/robot/robot.cpp ****       }
 301:src/unit/robot/robot.cpp **** }...
 2913              		.loc 1 301 1 view .LVU863
 2914 010c 03B0     		add	sp, sp, #12
 2915              	.LCFI18:
 2916              		.cfi_remember_state
 2917              		.cfi_def_cfa_offset 12
 2918              		@ sp needed
 2919 010e 30BD     		pop	{r4, r5, pc}
 2920              	.LVL228:
 2921              	.L120:
 2922              	.LCFI19:
 2923              		.cfi_restore_state
 298:src/unit/robot/robot.cpp ****             serial4.write(info.Imu.yaw * 0.5 + 90);
 2924              		.loc 1 298 13 is_stmt 1 view .LVU864
 298:src/unit/robot/robot.cpp ****             serial4.write(info.Imu.yaw * 0.5 + 90);
 2925              		.loc 1 298 40 is_stmt 0 view .LVU865
 2926 0110 B5F92A00 		ldrsh	r0, [r5, #42]
 2927 0114 FFF7FEFF 		bl	__aeabi_i2d
 2928              	.LVL229:
 2929 0118 0022     		movs	r2, #0
 2930 011a 0F4B     		ldr	r3, .L121+12
 2931 011c FFF7FEFF 		bl	__aeabi_dmul
 2932              	.LVL230:
 298:src/unit/robot/robot.cpp ****             serial4.write(info.Imu.yaw * 0.5 + 90);
 2933              		.loc 1 298 46 view .LVU866
 2934 0120 0022     		movs	r2, #0
 2935 0122 0E4B     		ldr	r3, .L121+16
 2936 0124 FFF7FEFF 		bl	__aeabi_dadd
 2937              	.LVL231:
 298:src/unit/robot/robot.cpp ****             serial4.write(info.Imu.yaw * 0.5 + 90);
 2938              		.loc 1 298 26 view .LVU867
 2939 0128 FFF7FEFF 		bl	__aeabi_d2uiz
 2940              	.LVL232:
 298:src/unit/robot/robot.cpp ****             serial4.write(info.Imu.yaw * 0.5 + 90);
 2941              		.loc 1 298 26 view .LVU868
 2942 012c 8DF80700 		strb	r0, [sp, #7]
 2943              	.LVL233:
 2944              	.LBB319:
 2945              	.LBI319:
  54:Lib/BufferedSerial/BufferedSerial.hpp ****             HAL_UART_Transmit(_huart, &data, 1, 100);
 2946              		.loc 2 54 12 is_stmt 1 view .LVU869
 2947              	.LBB320:
  55:Lib/BufferedSerial/BufferedSerial.hpp ****       }
 2948              		.loc 2 55 13 view .LVU870
ARM GAS  /var/folders/5c/srt4fy4j1pd641bjfx75k5000000gn/T//ccCyP7bK.s 			page 71


  55:Lib/BufferedSerial/BufferedSerial.hpp ****       }
 2949              		.loc 2 55 30 is_stmt 0 view .LVU871
 2950 0130 05F58055 		add	r5, r5, #4096
 2951              	.LVL234:
  55:Lib/BufferedSerial/BufferedSerial.hpp ****       }
 2952              		.loc 2 55 30 view .LVU872
 2953 0134 6423     		movs	r3, #100
 2954 0136 0122     		movs	r2, #1
 2955 0138 0DF10701 		add	r1, sp, #7
 2956 013c D5F8EC06 		ldr	r0, [r5, #1772]
 2957              	.LVL235:
  55:Lib/BufferedSerial/BufferedSerial.hpp ****       }
 2958              		.loc 2 55 30 view .LVU873
 2959 0140 FFF7FEFF 		bl	HAL_UART_Transmit
 2960              	.LVL236:
  55:Lib/BufferedSerial/BufferedSerial.hpp ****       }
 2961              		.loc 2 55 30 view .LVU874
 2962              	.LBE320:
 2963              	.LBE319:
 299:src/unit/robot/robot.cpp ****             cam_send_interval_timer.reset();
 2964              		.loc 1 299 13 is_stmt 1 view .LVU875
 299:src/unit/robot/robot.cpp ****             cam_send_interval_timer.reset();
 2965              		.loc 1 299 42 is_stmt 0 view .LVU876
 2966 0144 2046     		mov	r0, r4
 2967 0146 FFF7FEFF 		bl	_ZN5Timer5resetEv
 2968              	.LVL237:
 2969              		.loc 1 301 1 view .LVU877
 2970 014a DFE7     		b	.L105
 2971              	.L122:
 2972              		.align	2
 2973              	.L121:
 2974 014c 00000000 		.word	_ZZN5Robot7CamUartEvE5index
 2975 0150 00000000 		.word	_ZZN5Robot7CamUartEvE9recv_data
 2976 0154 00000000 		.word	_ZZN5Robot7CamUartEvE9recv_byte
 2977 0158 0000E03F 		.word	1071644672
 2978 015c 00805640 		.word	1079410688
 2979              		.cfi_endproc
 2980              	.LFE295:
 2981              		.fnend
 2983              		.section	.bss._ZZN5Robot7CamUartEvE9recv_byte,"aw",%nobits
 2986              	_ZZN5Robot7CamUartEvE9recv_byte:
 2987 0000 00       		.space	1
 2988              		.section	.bss._ZZN5Robot7CamUartEvE9recv_data,"aw",%nobits
 2989              		.align	2
 2992              	_ZZN5Robot7CamUartEvE9recv_data:
 2993 0000 00000000 		.space	11
 2993      00000000 
 2993      000000
 2994              		.section	.bss._ZZN5Robot7CamUartEvE5index,"aw",%nobits
 2997              	_ZZN5Robot7CamUartEvE5index:
 2998 0000 00       		.space	1
 2999              		.section	.bss._ZZN5Robot6UiUartEvE9recv_byte,"aw",%nobits
 3002              	_ZZN5Robot6UiUartEvE9recv_byte:
 3003 0000 00       		.space	1
 3004              		.section	.bss._ZZN5Robot6UiUartEvE9recv_data,"aw",%nobits
 3005              		.align	2
 3008              	_ZZN5Robot6UiUartEvE9recv_data:
ARM GAS  /var/folders/5c/srt4fy4j1pd641bjfx75k5000000gn/T//ccCyP7bK.s 			page 72


 3009 0000 00000000 		.space	4
 3010              		.section	.bss._ZZN5Robot6UiUartEvE5index,"aw",%nobits
 3013              	_ZZN5Robot6UiUartEvE5index:
 3014 0000 00       		.space	1
 3015              		.section	.bss._ZZN5Robot6UiUartEvE8sub_item,"aw",%nobits
 3018              	_ZZN5Robot6UiUartEvE8sub_item:
 3019 0000 00       		.space	1
 3020              		.section	.bss._ZZN5Robot6UiUartEvE4item,"aw",%nobits
 3023              	_ZZN5Robot6UiUartEvE4item:
 3024 0000 00       		.space	1
 3025              		.section	.bss._ZZN5Robot8LineUartEvE9recv_byte,"aw",%nobits
 3028              	_ZZN5Robot8LineUartEvE9recv_byte:
 3029 0000 00       		.space	1
 3030              		.section	.bss._ZZN5Robot8LineUartEvE9recv_data,"aw",%nobits
 3031              		.align	2
 3034              	_ZZN5Robot8LineUartEvE9recv_data:
 3035 0000 00000000 		.space	6
 3035      0000
 3036              		.section	.bss._ZZN5Robot8LineUartEvE5index,"aw",%nobits
 3039              	_ZZN5Robot8LineUartEvE5index:
 3040 0000 00       		.space	1
 3041              		.section	.bss._ZZN5Robot7ImuUartEvE9recv_byte,"aw",%nobits
 3044              	_ZZN5Robot7ImuUartEvE9recv_byte:
 3045 0000 00       		.space	1
 3046              		.section	.bss._ZZN5Robot7ImuUartEvE9recv_data,"aw",%nobits
 3047              		.align	2
 3050              	_ZZN5Robot7ImuUartEvE9recv_data:
 3051 0000 00000000 		.space	6
 3051      0000
 3052              		.section	.bss._ZZN5Robot7ImuUartEvE5index,"aw",%nobits
 3055              	_ZZN5Robot7ImuUartEvE5index:
 3056 0000 00       		.space	1
 3057              		.section	.data._ZZN5Robot10GetSensorsEvE11pre_voltage,"aw"
 3058              		.align	2
 3061              	_ZZN5Robot10GetSensorsEvE11pre_voltage:
 3062 0000 9A991941 		.word	1092196762
 3063              		.global	adc_get_val
 3064              		.section	.bss.adc_get_val,"aw",%nobits
 3065              		.align	2
 3068              	adc_get_val:
 3069 0000 00000000 		.space	6
 3069      0000
 3070              		.text
 3071              	.Letext0:
 3072              		.file 6 "/opt/ST/STM32CubeCLT_1.16.0/GNU-tools-for-STM32/arm-none-eabi/include/machine/_default_ty
 3073              		.file 7 "/opt/ST/STM32CubeCLT_1.16.0/GNU-tools-for-STM32/lib/gcc/arm-none-eabi/12.3.1/include/stdd
 3074              		.file 8 "/opt/ST/STM32CubeCLT_1.16.0/GNU-tools-for-STM32/arm-none-eabi/include/sys/_types.h"
 3075              		.file 9 "/opt/ST/STM32CubeCLT_1.16.0/GNU-tools-for-STM32/arm-none-eabi/include/sys/reent.h"
 3076              		.file 10 "/opt/ST/STM32CubeCLT_1.16.0/GNU-tools-for-STM32/arm-none-eabi/include/sys/lock.h"
 3077              		.file 11 "/opt/ST/STM32CubeCLT_1.16.0/GNU-tools-for-STM32/arm-none-eabi/include/stdio.h"
 3078              		.file 12 "/opt/ST/STM32CubeCLT_1.16.0/GNU-tools-for-STM32/arm-none-eabi/include/sys/_stdint.h"
 3079              		.file 13 "Drivers/CMSIS/Device/ST/STM32F4xx/Include/stm32f446xx.h"
 3080              		.file 14 "Drivers/CMSIS/Device/ST/STM32F4xx/Include/stm32f4xx.h"
 3081              		.file 15 "Drivers/STM32F4xx_HAL_Driver/Inc/stm32f4xx_hal_def.h"
 3082              		.file 16 "Drivers/STM32F4xx_HAL_Driver/Inc/stm32f4xx_hal_gpio.h"
 3083              		.file 17 "Drivers/STM32F4xx_HAL_Driver/Inc/stm32f4xx_hal_dma.h"
 3084              		.file 18 "Drivers/STM32F4xx_HAL_Driver/Inc/stm32f4xx_hal_adc.h"
ARM GAS  /var/folders/5c/srt4fy4j1pd641bjfx75k5000000gn/T//ccCyP7bK.s 			page 73


 3085              		.file 19 "Drivers/STM32F4xx_HAL_Driver/Inc/stm32f4xx_hal_tim.h"
 3086              		.file 20 "Drivers/STM32F4xx_HAL_Driver/Inc/stm32f4xx_hal_uart.h"
 3087              		.file 21 "Drivers/STM32F4xx_HAL_Driver/Inc/stm32f4xx_hal.h"
 3088              		.file 22 "Core/Inc/usart.h"
 3089              		.file 23 "Lib/MovingAve/MovingAve.hpp"
 3090              		.file 24 "/opt/ST/STM32CubeCLT_1.16.0/GNU-tools-for-STM32/arm-none-eabi/include/c++/12.3.1/cstdio"
 3091              		.file 25 "/opt/ST/STM32CubeCLT_1.16.0/GNU-tools-for-STM32/arm-none-eabi/include/c++/12.3.1/arm-non
 3092              		.file 26 "Core/Inc/tim.h"
 3093              		.file 27 "Lib/Timer/Timer.hpp"
 3094              		.file 28 "Core/Inc/adc.h"
 3095              		.file 29 "src/unit/dribbler_drive/dribbler_drive.hpp"
 3096              		.file 30 "src/unit/kicker/kicker.hpp"
 3097              		.file 31 "Lib/pid/pid.hpp"
 3098              		.file 32 "src/unit/motor_drive/motor_drive.hpp"
 3099              		.file 33 "Lib/MyMath/MyMath.hpp"
ARM GAS  /var/folders/5c/srt4fy4j1pd641bjfx75k5000000gn/T//ccCyP7bK.s 			page 74

