ARM GAS  /var/folders/5c/srt4fy4j1pd641bjfx75k5000000gn/T//ccSIFQlc.s 			page 1


   1              		.cpu cortex-m4
   2              		.arch armv7e-m
   3              		.fpu fpv4-sp-d16
   4              		.eabi_attribute 27, 1
   5              		.eabi_attribute 28, 1
   6              		.eabi_attribute 20, 1
   7              		.eabi_attribute 21, 1
   8              		.eabi_attribute 23, 3
   9              		.eabi_attribute 24, 1
  10              		.eabi_attribute 25, 1
  11              		.eabi_attribute 26, 1
  12              		.eabi_attribute 30, 1
  13              		.eabi_attribute 34, 1
  14              		.eabi_attribute 18, 4
  15              		.file	"robot.cpp"
  16              		.text
  17              	.Ltext0:
  18              		.cfi_sections	.debug_frame
  19              		.file 1 "src/unit/robot/robot.cpp"
  20              		.section	.text._ZN14BufferedSerial4readEv,"axG",%progbits,_ZN14BufferedSerial4readEv,comdat
  21              		.align	1
  22              		.weak	_ZN14BufferedSerial4readEv
  23              		.syntax unified
  24              		.thumb
  25              		.thumb_func
  27              	_ZN14BufferedSerial4readEv:
  28              		.fnstart
  29              	.LVL0:
  30              	.LFB245:
  31              		.file 2 "Lib/BufferedSerial/BufferedSerial.hpp"
   1:Lib/BufferedSerial/BufferedSerial.hpp **** #ifndef __BUFFERED_SERIAL__
   2:Lib/BufferedSerial/BufferedSerial.hpp **** #define __BUFFERED_SERIAL__
   3:Lib/BufferedSerial/BufferedSerial.hpp **** 
   4:Lib/BufferedSerial/BufferedSerial.hpp **** #include <stdio.h>
   5:Lib/BufferedSerial/BufferedSerial.hpp **** 
   6:Lib/BufferedSerial/BufferedSerial.hpp **** #include "usart.h"
   7:Lib/BufferedSerial/BufferedSerial.hpp **** 
   8:Lib/BufferedSerial/BufferedSerial.hpp **** #ifdef __cplusplus
   9:Lib/BufferedSerial/BufferedSerial.hpp **** 
  10:Lib/BufferedSerial/BufferedSerial.hpp **** /*
  11:Lib/BufferedSerial/BufferedSerial.hpp ****  Initの順番をDMAが先になるようにする
  12:Lib/BufferedSerial/BufferedSerial.hpp ****  - MX_DMA_Init();
  13:Lib/BufferedSerial/BufferedSerial.hpp ****  - MX_USART2_UART_Init();
  14:Lib/BufferedSerial/BufferedSerial.hpp ****  - DMAはCircularモードにする
  15:Lib/BufferedSerial/BufferedSerial.hpp **** */
  16:Lib/BufferedSerial/BufferedSerial.hpp **** 
  17:Lib/BufferedSerial/BufferedSerial.hpp **** class BufferedSerial {
  18:Lib/BufferedSerial/BufferedSerial.hpp ****      public:
  19:Lib/BufferedSerial/BufferedSerial.hpp ****       BufferedSerial(UART_HandleTypeDef *huart, uint16_t rxBufSize)
  20:Lib/BufferedSerial/BufferedSerial.hpp ****           : _huart(huart),
  21:Lib/BufferedSerial/BufferedSerial.hpp ****             _rxBuf(new uint8_t[rxBufSize]),
  22:Lib/BufferedSerial/BufferedSerial.hpp ****             rxTop(0),
  23:Lib/BufferedSerial/BufferedSerial.hpp ****             rxBtm(0),
  24:Lib/BufferedSerial/BufferedSerial.hpp ****             _rxBufSize(rxBufSize),
  25:Lib/BufferedSerial/BufferedSerial.hpp ****             _useDMA(false) {
  26:Lib/BufferedSerial/BufferedSerial.hpp ****       }
  27:Lib/BufferedSerial/BufferedSerial.hpp ****       void init(bool dma = false) {
ARM GAS  /var/folders/5c/srt4fy4j1pd641bjfx75k5000000gn/T//ccSIFQlc.s 			page 2


  28:Lib/BufferedSerial/BufferedSerial.hpp ****             _useDMA = dma;
  29:Lib/BufferedSerial/BufferedSerial.hpp ****             HAL_UART_Receive_DMA(_huart, _rxBuf, _rxBufSize);
  30:Lib/BufferedSerial/BufferedSerial.hpp ****             // printf("- Serial init\n");
  31:Lib/BufferedSerial/BufferedSerial.hpp ****       }
  32:Lib/BufferedSerial/BufferedSerial.hpp **** 
  33:Lib/BufferedSerial/BufferedSerial.hpp ****       bool available() {
  34:Lib/BufferedSerial/BufferedSerial.hpp ****             uint16_t rxTop = _rxBufSize - _huart->hdmarx->Instance->NDTR;
  35:Lib/BufferedSerial/BufferedSerial.hpp ****             return rxTop != rxBtm;
  36:Lib/BufferedSerial/BufferedSerial.hpp ****       }
  37:Lib/BufferedSerial/BufferedSerial.hpp **** 
  38:Lib/BufferedSerial/BufferedSerial.hpp ****       uint8_t read() {
  32              		.loc 2 38 15 view -0
  33              		.cfi_startproc
  34              		@ args = 0, pretend = 0, frame = 0
  35              		@ frame_needed = 0, uses_anonymous_args = 0
  36              		@ link register save eliminated.
  37              		.loc 2 38 15 is_stmt 0 view .LVU1
  38 0000 0246     		mov	r2, r0
  39:Lib/BufferedSerial/BufferedSerial.hpp ****             uint16_t rxTop = _rxBufSize - _huart->hdmarx->Instance->NDTR;
  39              		.loc 2 39 13 is_stmt 1 view .LVU2
  40              		.loc 2 39 30 is_stmt 0 view .LVU3
  41 0002 B0F80CC0 		ldrh	ip, [r0, #12]
  42              		.loc 2 39 43 view .LVU4
  43 0006 0368     		ldr	r3, [r0]
  44              		.loc 2 39 51 view .LVU5
  45 0008 DB6B     		ldr	r3, [r3, #60]
  46              		.loc 2 39 59 view .LVU6
  47 000a 1B68     		ldr	r3, [r3]
  48              		.loc 2 39 69 view .LVU7
  49 000c 5B68     		ldr	r3, [r3, #4]
  50              		.loc 2 39 41 view .LVU8
  51 000e 9BB2     		uxth	r3, r3
  52              		.loc 2 39 69 view .LVU9
  53 0010 ACEB0303 		sub	r3, ip, r3
  54 0014 9BB2     		uxth	r3, r3
  55              	.LVL1:
  40:Lib/BufferedSerial/BufferedSerial.hpp ****             if (rxTop == rxBtm) {
  56              		.loc 2 40 13 is_stmt 1 view .LVU10
  57              		.loc 2 40 26 is_stmt 0 view .LVU11
  58 0016 4189     		ldrh	r1, [r0, #10]
  59              		.loc 2 40 13 view .LVU12
  60 0018 9942     		cmp	r1, r3
  61 001a 08D0     		beq	.L3
  41:Lib/BufferedSerial/BufferedSerial.hpp ****                   return 0;
  42:Lib/BufferedSerial/BufferedSerial.hpp ****             }
  43:Lib/BufferedSerial/BufferedSerial.hpp ****             uint8_t data = _rxBuf[rxBtm];
  62              		.loc 2 43 13 is_stmt 1 view .LVU13
  63              		.loc 2 43 28 is_stmt 0 view .LVU14
  64 001c 4368     		ldr	r3, [r0, #4]
  65              	.LVL2:
  66              		.loc 2 43 21 view .LVU15
  67 001e 585C     		ldrb	r0, [r3, r1]	@ zero_extendqisi2
  68              	.LVL3:
  44:Lib/BufferedSerial/BufferedSerial.hpp ****             rxBtm = (rxBtm + 1) % _rxBufSize;
  69              		.loc 2 44 13 is_stmt 1 view .LVU16
  70              		.loc 2 44 28 is_stmt 0 view .LVU17
  71 0020 0131     		adds	r1, r1, #1
ARM GAS  /var/folders/5c/srt4fy4j1pd641bjfx75k5000000gn/T//ccSIFQlc.s 			page 3


  72              		.loc 2 44 33 view .LVU18
  73 0022 91FBFCF3 		sdiv	r3, r1, ip
  74 0026 0CFB1311 		mls	r1, ip, r3, r1
  75              		.loc 2 44 19 view .LVU19
  76 002a 5181     		strh	r1, [r2, #10]	@ movhi
  45:Lib/BufferedSerial/BufferedSerial.hpp ****             // printf("top:%d btm:%d NDTR:%d data:%d\n", rxTop, rxBtm, _huart->hdmarx->Instance->ND
  46:Lib/BufferedSerial/BufferedSerial.hpp ****             return data;
  77              		.loc 2 46 13 is_stmt 1 view .LVU20
  78              		.loc 2 46 20 is_stmt 0 view .LVU21
  79 002c 7047     		bx	lr
  80              	.LVL4:
  81              	.L3:
  41:Lib/BufferedSerial/BufferedSerial.hpp ****             }
  82              		.loc 2 41 26 view .LVU22
  83 002e 0020     		movs	r0, #0
  84              	.LVL5:
  47:Lib/BufferedSerial/BufferedSerial.hpp ****       }
  85              		.loc 2 47 7 view .LVU23
  86 0030 7047     		bx	lr
  87              		.cfi_endproc
  88              	.LFE245:
  89              		.cantunwind
  90              		.fnend
  92              		.section	.text._ZN12PwmSingleOut4initEv,"axG",%progbits,_ZN12PwmSingleOut4initEv,comdat
  93              		.align	1
  94              		.weak	_ZN12PwmSingleOut4initEv
  95              		.syntax unified
  96              		.thumb
  97              		.thumb_func
  99              	_ZN12PwmSingleOut4initEv:
 100              		.fnstart
 101              	.LVL6:
 102              	.LFB265:
 103              		.file 3 "Lib/PWMSingle/PWMSingle.hpp"
   1:Lib/PWMSingle/PWMSingle.hpp **** #ifndef __PWMSINGLE__
   2:Lib/PWMSingle/PWMSingle.hpp **** #define __PWMSINGLE__
   3:Lib/PWMSingle/PWMSingle.hpp **** 
   4:Lib/PWMSingle/PWMSingle.hpp **** #include "MyMath.hpp"
   5:Lib/PWMSingle/PWMSingle.hpp **** #include "tim.h"
   6:Lib/PWMSingle/PWMSingle.hpp **** 
   7:Lib/PWMSingle/PWMSingle.hpp **** #ifdef __cplusplus
   8:Lib/PWMSingle/PWMSingle.hpp **** extern "C" {
   9:Lib/PWMSingle/PWMSingle.hpp **** 
  10:Lib/PWMSingle/PWMSingle.hpp **** class PwmSingleOut {
  11:Lib/PWMSingle/PWMSingle.hpp ****      public:
  12:Lib/PWMSingle/PWMSingle.hpp ****       PwmSingleOut(TIM_HandleTypeDef *htim, uint32_t channel)
  13:Lib/PWMSingle/PWMSingle.hpp ****           : _htim(htim), _channel(channel), _maxValue(_htim->Init.Period) {
  14:Lib/PWMSingle/PWMSingle.hpp ****       }
  15:Lib/PWMSingle/PWMSingle.hpp **** 
  16:Lib/PWMSingle/PWMSingle.hpp ****       void init() {
 104              		.loc 3 16 12 is_stmt 1 view -0
 105              		.cfi_startproc
 106              		@ args = 0, pretend = 0, frame = 0
 107              		@ frame_needed = 0, uses_anonymous_args = 0
 108              		.loc 3 16 12 is_stmt 0 view .LVU25
 109 0000 10B5     		push	{r4, lr}
 110              		.save {r4, lr}
ARM GAS  /var/folders/5c/srt4fy4j1pd641bjfx75k5000000gn/T//ccSIFQlc.s 			page 4


 111              	.LCFI0:
 112              		.cfi_def_cfa_offset 8
 113              		.cfi_offset 4, -8
 114              		.cfi_offset 14, -4
 115 0002 0446     		mov	r4, r0
  17:Lib/PWMSingle/PWMSingle.hpp ****             HAL_TIM_PWM_Start(_htim, _channel);
 116              		.loc 3 17 13 is_stmt 1 view .LVU26
 117              		.loc 3 17 30 is_stmt 0 view .LVU27
 118 0004 4168     		ldr	r1, [r0, #4]
 119 0006 0068     		ldr	r0, [r0]
 120              	.LVL7:
 121              		.loc 3 17 30 view .LVU28
 122 0008 FFF7FEFF 		bl	HAL_TIM_PWM_Start
 123              	.LVL8:
  18:Lib/PWMSingle/PWMSingle.hpp ****             _maxValue = _htim->Init.Period;
 124              		.loc 3 18 13 is_stmt 1 view .LVU29
 125              		.loc 3 18 25 is_stmt 0 view .LVU30
 126 000c 2368     		ldr	r3, [r4]
 127              		.loc 3 18 37 view .LVU31
 128 000e DB68     		ldr	r3, [r3, #12]
 129              		.loc 3 18 23 view .LVU32
 130 0010 A360     		str	r3, [r4, #8]
  19:Lib/PWMSingle/PWMSingle.hpp ****       }
 131              		.loc 3 19 7 view .LVU33
 132 0012 10BD     		pop	{r4, pc}
 133              		.loc 3 19 7 view .LVU34
 134              		.cfi_endproc
 135              	.LFE265:
 136              		.fnend
 138              		.section	.text._ZN5RobotC2Ev,"ax",%progbits
 139              		.align	1
 140              		.global	_ZN5RobotC2Ev
 141              		.syntax unified
 142              		.thumb
 143              		.thumb_func
 145              	_ZN5RobotC2Ev:
 146              		.fnstart
 147              	.LVL9:
 148              	.LFB271:
   1:src/unit/robot/robot.cpp **** #include "robot.hpp"
   2:src/unit/robot/robot.cpp **** 
   3:src/unit/robot/robot.cpp **** uint16_t adc_get_val[3];
   4:src/unit/robot/robot.cpp **** 
   5:src/unit/robot/robot.cpp **** Robot::Robot() {
 149              		.loc 1 5 1 is_stmt 1 view -0
 150              		.cfi_startproc
 151              		@ args = 0, pretend = 0, frame = 0
 152              		@ frame_needed = 0, uses_anonymous_args = 0
 153              		.loc 1 5 1 is_stmt 0 view .LVU36
 154 0000 F0B5     		push	{r4, r5, r6, r7, lr}
 155              		.save {r4, r5, r6, r7, lr}
 156              	.LCFI1:
 157              		.cfi_def_cfa_offset 20
 158              		.cfi_offset 4, -20
 159              		.cfi_offset 5, -16
 160              		.cfi_offset 6, -12
 161              		.cfi_offset 7, -8
ARM GAS  /var/folders/5c/srt4fy4j1pd641bjfx75k5000000gn/T//ccSIFQlc.s 			page 5


 162              		.cfi_offset 14, -4
 163              		.pad #36
 164 0002 89B0     		sub	sp, sp, #36
 165              	.LCFI2:
 166              		.cfi_def_cfa_offset 56
 167 0004 0446     		mov	r4, r0
 168              	.LVL10:
 169              	.LBB68:
 170              	.LBB69:
 171              	.LBI69:
 172              		.file 4 "Lib/DigitalInOut/DigitalInOut.hpp"
   1:Lib/DigitalInOut/DigitalInOut.hpp **** #ifndef __DigitalInOut__
   2:Lib/DigitalInOut/DigitalInOut.hpp **** #define __DigitalInOut__
   3:Lib/DigitalInOut/DigitalInOut.hpp **** 
   4:Lib/DigitalInOut/DigitalInOut.hpp **** #include "main.h"
   5:Lib/DigitalInOut/DigitalInOut.hpp **** 
   6:Lib/DigitalInOut/DigitalInOut.hpp **** #ifdef __cplusplus
   7:Lib/DigitalInOut/DigitalInOut.hpp **** 
   8:Lib/DigitalInOut/DigitalInOut.hpp **** extern "C" {
   9:Lib/DigitalInOut/DigitalInOut.hpp **** 
  10:Lib/DigitalInOut/DigitalInOut.hpp **** class DigitalOut {
  11:Lib/DigitalInOut/DigitalInOut.hpp ****   public:
  12:Lib/DigitalInOut/DigitalInOut.hpp ****     DigitalOut(GPIO_TypeDef *port, uint16_t pin) : port(port), pin(pin) {
 173              		.loc 4 12 5 is_stmt 1 view .LVU37
 174              	.LBB70:
 175              		.loc 4 12 52 is_stmt 0 view .LVU38
 176 0006 6948     		ldr	r0, .L8
 177              	.LVL11:
 178              		.loc 4 12 52 view .LVU39
 179 0008 6062     		str	r0, [r4, #36]
 180              		.loc 4 12 64 view .LVU40
 181 000a 2021     		movs	r1, #32
 182 000c 2185     		strh	r1, [r4, #40]	@ movhi
  13:Lib/DigitalInOut/DigitalInOut.hpp ****         HAL_GPIO_WritePin(port, pin, GPIO_PIN_RESET);
 183              		.loc 4 13 9 is_stmt 1 view .LVU41
 184              		.loc 4 13 26 is_stmt 0 view .LVU42
 185 000e 0022     		movs	r2, #0
 186 0010 FFF7FEFF 		bl	HAL_GPIO_WritePin
 187              	.LVL12:
 188              		.loc 4 13 26 view .LVU43
 189              	.LBE70:
 190              	.LBE69:
 191              	.LBB71:
 192              	.LBI71:
  12:Lib/PWMSingle/PWMSingle.hpp ****           : _htim(htim), _channel(channel), _maxValue(_htim->Init.Period) {
 193              		.loc 3 12 7 is_stmt 1 view .LVU44
 194              	.LBB72:
  13:Lib/PWMSingle/PWMSingle.hpp ****       }
 195              		.loc 3 13 13 is_stmt 0 view .LVU45
 196 0014 664B     		ldr	r3, .L8+4
 197 0016 E362     		str	r3, [r4, #44]
  13:Lib/PWMSingle/PWMSingle.hpp ****       }
 198              		.loc 3 13 26 view .LVU46
 199 0018 0025     		movs	r5, #0
 200 001a 2563     		str	r5, [r4, #48]
  13:Lib/PWMSingle/PWMSingle.hpp ****       }
 201              		.loc 3 13 67 view .LVU47
ARM GAS  /var/folders/5c/srt4fy4j1pd641bjfx75k5000000gn/T//ccSIFQlc.s 			page 6


 202 001c DB68     		ldr	r3, [r3, #12]
  13:Lib/PWMSingle/PWMSingle.hpp ****       }
 203              		.loc 3 13 45 view .LVU48
 204 001e 6363     		str	r3, [r4, #52]
 205              	.LVL13:
  13:Lib/PWMSingle/PWMSingle.hpp ****       }
 206              		.loc 3 13 45 view .LVU49
 207              	.LBE72:
 208              	.LBE71:
 209              	.LBB73:
 210              	.LBI73:
  12:Lib/PWMSingle/PWMSingle.hpp ****           : _htim(htim), _channel(channel), _maxValue(_htim->Init.Period) {
 211              		.loc 3 12 7 is_stmt 1 view .LVU50
 212              	.LBB74:
  13:Lib/PWMSingle/PWMSingle.hpp ****       }
 213              		.loc 3 13 13 is_stmt 0 view .LVU51
 214 0020 644B     		ldr	r3, .L8+8
 215 0022 E363     		str	r3, [r4, #60]
  13:Lib/PWMSingle/PWMSingle.hpp ****       }
 216              		.loc 3 13 26 view .LVU52
 217 0024 0420     		movs	r0, #4
 218 0026 2064     		str	r0, [r4, #64]
  13:Lib/PWMSingle/PWMSingle.hpp ****       }
 219              		.loc 3 13 67 view .LVU53
 220 0028 DA68     		ldr	r2, [r3, #12]
  13:Lib/PWMSingle/PWMSingle.hpp ****       }
 221              		.loc 3 13 45 view .LVU54
 222 002a 6264     		str	r2, [r4, #68]
 223              	.LVL14:
  13:Lib/PWMSingle/PWMSingle.hpp ****       }
 224              		.loc 3 13 45 view .LVU55
 225              	.LBE74:
 226              	.LBE73:
 227              	.LBB75:
 228              	.LBI75:
  12:Lib/PWMSingle/PWMSingle.hpp ****           : _htim(htim), _channel(channel), _maxValue(_htim->Init.Period) {
 229              		.loc 3 12 7 is_stmt 1 view .LVU56
 230              	.LBB76:
  13:Lib/PWMSingle/PWMSingle.hpp ****       }
 231              		.loc 3 13 13 is_stmt 0 view .LVU57
 232 002c E364     		str	r3, [r4, #76]
  13:Lib/PWMSingle/PWMSingle.hpp ****       }
 233              		.loc 3 13 26 view .LVU58
 234 002e 2565     		str	r5, [r4, #80]
  13:Lib/PWMSingle/PWMSingle.hpp ****       }
 235              		.loc 3 13 45 view .LVU59
 236 0030 6265     		str	r2, [r4, #84]
 237              	.LVL15:
  13:Lib/PWMSingle/PWMSingle.hpp ****       }
 238              		.loc 3 13 45 view .LVU60
 239              	.LBE76:
 240              	.LBE75:
 241              	.LBB77:
 242              	.LBI77:
  12:Lib/PWMSingle/PWMSingle.hpp ****           : _htim(htim), _channel(channel), _maxValue(_htim->Init.Period) {
 243              		.loc 3 12 7 is_stmt 1 view .LVU61
 244              	.LBB78:
ARM GAS  /var/folders/5c/srt4fy4j1pd641bjfx75k5000000gn/T//ccSIFQlc.s 			page 7


  13:Lib/PWMSingle/PWMSingle.hpp ****       }
 245              		.loc 3 13 13 is_stmt 0 view .LVU62
 246 0032 614B     		ldr	r3, .L8+12
 247 0034 E365     		str	r3, [r4, #92]
  13:Lib/PWMSingle/PWMSingle.hpp ****       }
 248              		.loc 3 13 26 view .LVU63
 249 0036 4FF0080C 		mov	ip, #8
 250 003a C4F860C0 		str	ip, [r4, #96]
  13:Lib/PWMSingle/PWMSingle.hpp ****       }
 251              		.loc 3 13 67 view .LVU64
 252 003e D968     		ldr	r1, [r3, #12]
  13:Lib/PWMSingle/PWMSingle.hpp ****       }
 253              		.loc 3 13 45 view .LVU65
 254 0040 6166     		str	r1, [r4, #100]
 255              	.LVL16:
  13:Lib/PWMSingle/PWMSingle.hpp ****       }
 256              		.loc 3 13 45 view .LVU66
 257              	.LBE78:
 258              	.LBE77:
 259              	.LBB79:
 260              	.LBI79:
  12:Lib/PWMSingle/PWMSingle.hpp ****           : _htim(htim), _channel(channel), _maxValue(_htim->Init.Period) {
 261              		.loc 3 12 7 is_stmt 1 view .LVU67
 262              	.LBB80:
  13:Lib/PWMSingle/PWMSingle.hpp ****       }
 263              		.loc 3 13 13 is_stmt 0 view .LVU68
 264 0042 E366     		str	r3, [r4, #108]
  13:Lib/PWMSingle/PWMSingle.hpp ****       }
 265              		.loc 3 13 26 view .LVU69
 266 0044 0C27     		movs	r7, #12
 267 0046 2767     		str	r7, [r4, #112]
  13:Lib/PWMSingle/PWMSingle.hpp ****       }
 268              		.loc 3 13 45 view .LVU70
 269 0048 6167     		str	r1, [r4, #116]
 270              	.LVL17:
  13:Lib/PWMSingle/PWMSingle.hpp ****       }
 271              		.loc 3 13 45 view .LVU71
 272              	.LBE80:
 273              	.LBE79:
 274              	.LBB81:
 275              	.LBI81:
  12:Lib/PWMSingle/PWMSingle.hpp ****           : _htim(htim), _channel(channel), _maxValue(_htim->Init.Period) {
 276              		.loc 3 12 7 is_stmt 1 view .LVU72
 277              	.LBB82:
  13:Lib/PWMSingle/PWMSingle.hpp ****       }
 278              		.loc 3 13 13 is_stmt 0 view .LVU73
 279 004a 5C4A     		ldr	r2, .L8+16
 280 004c E267     		str	r2, [r4, #124]
  13:Lib/PWMSingle/PWMSingle.hpp ****       }
 281              		.loc 3 13 26 view .LVU74
 282 004e C4F88000 		str	r0, [r4, #128]
  13:Lib/PWMSingle/PWMSingle.hpp ****       }
 283              		.loc 3 13 67 view .LVU75
 284 0052 D668     		ldr	r6, [r2, #12]
  13:Lib/PWMSingle/PWMSingle.hpp ****       }
 285              		.loc 3 13 45 view .LVU76
 286 0054 C4F88460 		str	r6, [r4, #132]
ARM GAS  /var/folders/5c/srt4fy4j1pd641bjfx75k5000000gn/T//ccSIFQlc.s 			page 8


 287              	.LVL18:
  13:Lib/PWMSingle/PWMSingle.hpp ****       }
 288              		.loc 3 13 45 view .LVU77
 289              	.LBE82:
 290              	.LBE81:
 291              	.LBB83:
 292              	.LBI83:
  12:Lib/PWMSingle/PWMSingle.hpp ****           : _htim(htim), _channel(channel), _maxValue(_htim->Init.Period) {
 293              		.loc 3 12 7 is_stmt 1 view .LVU78
 294              	.LBB84:
  13:Lib/PWMSingle/PWMSingle.hpp ****       }
 295              		.loc 3 13 13 is_stmt 0 view .LVU79
 296 0058 C4F88C30 		str	r3, [r4, #140]
  13:Lib/PWMSingle/PWMSingle.hpp ****       }
 297              		.loc 3 13 26 view .LVU80
 298 005c C4F89000 		str	r0, [r4, #144]
  13:Lib/PWMSingle/PWMSingle.hpp ****       }
 299              		.loc 3 13 45 view .LVU81
 300 0060 C4F89410 		str	r1, [r4, #148]
 301              	.LVL19:
  13:Lib/PWMSingle/PWMSingle.hpp ****       }
 302              		.loc 3 13 45 view .LVU82
 303              	.LBE84:
 304              	.LBE83:
 305              	.LBB85:
 306              	.LBI85:
  12:Lib/PWMSingle/PWMSingle.hpp ****           : _htim(htim), _channel(channel), _maxValue(_htim->Init.Period) {
 307              		.loc 3 12 7 is_stmt 1 view .LVU83
 308              	.LBB86:
  13:Lib/PWMSingle/PWMSingle.hpp ****       }
 309              		.loc 3 13 13 is_stmt 0 view .LVU84
 310 0064 C4F89C20 		str	r2, [r4, #156]
  13:Lib/PWMSingle/PWMSingle.hpp ****       }
 311              		.loc 3 13 26 view .LVU85
 312 0068 C4F8A050 		str	r5, [r4, #160]
  13:Lib/PWMSingle/PWMSingle.hpp ****       }
 313              		.loc 3 13 45 view .LVU86
 314 006c C4F8A460 		str	r6, [r4, #164]
 315              	.LVL20:
  13:Lib/PWMSingle/PWMSingle.hpp ****       }
 316              		.loc 3 13 45 view .LVU87
 317              	.LBE86:
 318              	.LBE85:
 319              	.LBB87:
 320              	.LBI87:
  12:Lib/PWMSingle/PWMSingle.hpp ****           : _htim(htim), _channel(channel), _maxValue(_htim->Init.Period) {
 321              		.loc 3 12 7 is_stmt 1 view .LVU88
 322              	.LBB88:
  13:Lib/PWMSingle/PWMSingle.hpp ****       }
 323              		.loc 3 13 13 is_stmt 0 view .LVU89
 324 0070 C4F8AC20 		str	r2, [r4, #172]
  13:Lib/PWMSingle/PWMSingle.hpp ****       }
 325              		.loc 3 13 26 view .LVU90
 326 0074 C4F8B0C0 		str	ip, [r4, #176]
  13:Lib/PWMSingle/PWMSingle.hpp ****       }
 327              		.loc 3 13 45 view .LVU91
 328 0078 C4F8B460 		str	r6, [r4, #180]
ARM GAS  /var/folders/5c/srt4fy4j1pd641bjfx75k5000000gn/T//ccSIFQlc.s 			page 9


 329              	.LVL21:
  13:Lib/PWMSingle/PWMSingle.hpp ****       }
 330              		.loc 3 13 45 view .LVU92
 331              	.LBE88:
 332              	.LBE87:
 333              	.LBB89:
 334              	.LBI89:
  12:Lib/PWMSingle/PWMSingle.hpp ****           : _htim(htim), _channel(channel), _maxValue(_htim->Init.Period) {
 335              		.loc 3 12 7 is_stmt 1 view .LVU93
 336              	.LBB90:
  13:Lib/PWMSingle/PWMSingle.hpp ****       }
 337              		.loc 3 13 13 is_stmt 0 view .LVU94
 338 007c 504A     		ldr	r2, .L8+20
 339 007e C4F8BC20 		str	r2, [r4, #188]
  13:Lib/PWMSingle/PWMSingle.hpp ****       }
 340              		.loc 3 13 26 view .LVU95
 341 0082 C4F8C050 		str	r5, [r4, #192]
  13:Lib/PWMSingle/PWMSingle.hpp ****       }
 342              		.loc 3 13 67 view .LVU96
 343 0086 D668     		ldr	r6, [r2, #12]
  13:Lib/PWMSingle/PWMSingle.hpp ****       }
 344              		.loc 3 13 45 view .LVU97
 345 0088 C4F8C460 		str	r6, [r4, #196]
 346              	.LVL22:
  13:Lib/PWMSingle/PWMSingle.hpp ****       }
 347              		.loc 3 13 45 view .LVU98
 348              	.LBE90:
 349              	.LBE89:
 350              	.LBB91:
 351              	.LBI91:
  12:Lib/PWMSingle/PWMSingle.hpp ****           : _htim(htim), _channel(channel), _maxValue(_htim->Init.Period) {
 352              		.loc 3 12 7 is_stmt 1 view .LVU99
 353              	.LBB92:
  13:Lib/PWMSingle/PWMSingle.hpp ****       }
 354              		.loc 3 13 13 is_stmt 0 view .LVU100
 355 008c C4F8CC20 		str	r2, [r4, #204]
  13:Lib/PWMSingle/PWMSingle.hpp ****       }
 356              		.loc 3 13 26 view .LVU101
 357 0090 C4F8D000 		str	r0, [r4, #208]
  13:Lib/PWMSingle/PWMSingle.hpp ****       }
 358              		.loc 3 13 45 view .LVU102
 359 0094 C4F8D460 		str	r6, [r4, #212]
 360              	.LVL23:
  13:Lib/PWMSingle/PWMSingle.hpp ****       }
 361              		.loc 3 13 45 view .LVU103
 362              	.LBE92:
 363              	.LBE91:
 364              	.LBB93:
 365              	.LBI93:
  12:Lib/PWMSingle/PWMSingle.hpp ****           : _htim(htim), _channel(channel), _maxValue(_htim->Init.Period) {
 366              		.loc 3 12 7 is_stmt 1 view .LVU104
 367              	.LBB94:
  13:Lib/PWMSingle/PWMSingle.hpp ****       }
 368              		.loc 3 13 13 is_stmt 0 view .LVU105
 369 0098 C4F8DC30 		str	r3, [r4, #220]
  13:Lib/PWMSingle/PWMSingle.hpp ****       }
 370              		.loc 3 13 26 view .LVU106
ARM GAS  /var/folders/5c/srt4fy4j1pd641bjfx75k5000000gn/T//ccSIFQlc.s 			page 10


 371 009c C4F8E050 		str	r5, [r4, #224]
  13:Lib/PWMSingle/PWMSingle.hpp ****       }
 372              		.loc 3 13 45 view .LVU107
 373 00a0 C4F8E410 		str	r1, [r4, #228]
 374              	.LVL24:
  13:Lib/PWMSingle/PWMSingle.hpp ****       }
 375              		.loc 3 13 45 view .LVU108
 376              	.LBE94:
 377              	.LBE93:
 378              	.LBB95:
 379              	.LBI95:
  12:Lib/PWMSingle/PWMSingle.hpp ****           : _htim(htim), _channel(channel), _maxValue(_htim->Init.Period) {
 380              		.loc 3 12 7 is_stmt 1 view .LVU109
 381              	.LBB96:
  13:Lib/PWMSingle/PWMSingle.hpp ****       }
 382              		.loc 3 13 13 is_stmt 0 view .LVU110
 383 00a4 C4F8EC20 		str	r2, [r4, #236]
  13:Lib/PWMSingle/PWMSingle.hpp ****       }
 384              		.loc 3 13 26 view .LVU111
 385 00a8 C4F8F070 		str	r7, [r4, #240]
  13:Lib/PWMSingle/PWMSingle.hpp ****       }
 386              		.loc 3 13 45 view .LVU112
 387 00ac C4F8F460 		str	r6, [r4, #244]
 388              	.LVL25:
  13:Lib/PWMSingle/PWMSingle.hpp ****       }
 389              		.loc 3 13 45 view .LVU113
 390              	.LBE96:
 391              	.LBE95:
 392              	.LBB97:
 393              	.LBI97:
  12:Lib/DigitalInOut/DigitalInOut.hpp ****         HAL_GPIO_WritePin(port, pin, GPIO_PIN_RESET);
 394              		.loc 4 12 5 is_stmt 1 view .LVU114
 395              	.LBB98:
  12:Lib/DigitalInOut/DigitalInOut.hpp ****         HAL_GPIO_WritePin(port, pin, GPIO_PIN_RESET);
 396              		.loc 4 12 52 is_stmt 0 view .LVU115
 397 00b0 444E     		ldr	r6, .L8+24
 398 00b2 C4F8FC60 		str	r6, [r4, #252]
  12:Lib/DigitalInOut/DigitalInOut.hpp ****         HAL_GPIO_WritePin(port, pin, GPIO_PIN_RESET);
 399              		.loc 4 12 64 view .LVU116
 400 00b6 0121     		movs	r1, #1
 401 00b8 A4F80011 		strh	r1, [r4, #256]	@ movhi
 402              		.loc 4 13 9 is_stmt 1 view .LVU117
 403              		.loc 4 13 26 is_stmt 0 view .LVU118
 404 00bc 2A46     		mov	r2, r5
 405 00be 3046     		mov	r0, r6
 406 00c0 FFF7FEFF 		bl	HAL_GPIO_WritePin
 407              	.LVL26:
 408              		.loc 4 13 26 view .LVU119
 409              	.LBE98:
 410              	.LBE97:
 411              	.LBB99:
 412              	.LBI99:
  12:Lib/DigitalInOut/DigitalInOut.hpp ****         HAL_GPIO_WritePin(port, pin, GPIO_PIN_RESET);
 413              		.loc 4 12 5 is_stmt 1 view .LVU120
 414              	.LBB100:
  12:Lib/DigitalInOut/DigitalInOut.hpp ****         HAL_GPIO_WritePin(port, pin, GPIO_PIN_RESET);
 415              		.loc 4 12 52 is_stmt 0 view .LVU121
ARM GAS  /var/folders/5c/srt4fy4j1pd641bjfx75k5000000gn/T//ccSIFQlc.s 			page 11


 416 00c4 C4F80461 		str	r6, [r4, #260]
  12:Lib/DigitalInOut/DigitalInOut.hpp ****         HAL_GPIO_WritePin(port, pin, GPIO_PIN_RESET);
 417              		.loc 4 12 64 view .LVU122
 418 00c8 0221     		movs	r1, #2
 419 00ca A4F80811 		strh	r1, [r4, #264]	@ movhi
 420              		.loc 4 13 9 is_stmt 1 view .LVU123
 421              		.loc 4 13 26 is_stmt 0 view .LVU124
 422 00ce 2A46     		mov	r2, r5
 423 00d0 3046     		mov	r0, r6
 424 00d2 FFF7FEFF 		bl	HAL_GPIO_WritePin
 425              	.LVL27:
 426              		.loc 4 13 26 view .LVU125
 427              	.LBE100:
 428              	.LBE99:
 429              		.loc 1 5 14 view .LVU126
 430 00d6 231D     		adds	r3, r4, #4
 431 00d8 0693     		str	r3, [sp, #24]
 432 00da 04F11C03 		add	r3, r4, #28
 433 00de 0593     		str	r3, [sp, #20]
 434 00e0 04F1AC03 		add	r3, r4, #172
 435 00e4 0493     		str	r3, [sp, #16]
 436 00e6 04F19C03 		add	r3, r4, #156
 437 00ea 0393     		str	r3, [sp, #12]
 438 00ec 04F18C03 		add	r3, r4, #140
 439 00f0 0293     		str	r3, [sp, #8]
 440 00f2 04F17C03 		add	r3, r4, #124
 441 00f6 0193     		str	r3, [sp, #4]
 442 00f8 04F16C03 		add	r3, r4, #108
 443 00fc 0093     		str	r3, [sp]
 444 00fe 04F15C03 		add	r3, r4, #92
 445 0102 04F14C02 		add	r2, r4, #76
 446 0106 04F13C01 		add	r1, r4, #60
 447 010a 04F58870 		add	r0, r4, #272
 448 010e FFF7FEFF 		bl	_ZN10MotorDriveC1EP12PwmSingleOutS1_S1_S1_S1_S1_S1_S1_PsPh
 449              	.LVL28:
 450 0112 04F1CC02 		add	r2, r4, #204
 451 0116 04F1BC01 		add	r1, r4, #188
 452 011a 04F51A60 		add	r0, r4, #2464
 453 011e FFF7FEFF 		bl	_ZN13DribblerDriveC1EP12PwmSingleOutS1_
 454              	.LVL29:
 455 0122 04F1EC02 		add	r2, r4, #236
 456 0126 04F1DC01 		add	r1, r4, #220
 457 012a 04F64830 		addw	r0, r4, #2888
 458 012e FFF7FEFF 		bl	_ZN13DribblerDriveC1EP12PwmSingleOutS1_
 459              	.LVL30:
 460 0132 04F58272 		add	r2, r4, #260
 461 0136 04F1FC01 		add	r1, r4, #252
 462 013a 04F54F60 		add	r0, r4, #3312
 463 013e FFF7FEFF 		bl	_ZN6KickerC1EP10DigitalOutS1_
 464              	.LVL31:
 465              	.LBB101:
 466              	.LBI101:
  19:Lib/BufferedSerial/BufferedSerial.hpp ****           : _huart(huart),
 467              		.loc 2 19 7 is_stmt 1 view .LVU127
 468              	.LBB102:
  20:Lib/BufferedSerial/BufferedSerial.hpp ****             _rxBuf(new uint8_t[rxBufSize]),
 469              		.loc 2 20 13 is_stmt 0 view .LVU128
ARM GAS  /var/folders/5c/srt4fy4j1pd641bjfx75k5000000gn/T//ccSIFQlc.s 			page 12


 470 0142 214B     		ldr	r3, .L8+28
 471 0144 C4F8043D 		str	r3, [r4, #3332]
  21:Lib/BufferedSerial/BufferedSerial.hpp ****             rxTop(0),
 472              		.loc 2 21 41 view .LVU129
 473 0148 8020     		movs	r0, #128
 474 014a FFF7FEFF 		bl	_Znaj
 475              	.LVL32:
  21:Lib/BufferedSerial/BufferedSerial.hpp ****             rxTop(0),
 476              		.loc 2 21 13 view .LVU130
 477 014e C4F8080D 		str	r0, [r4, #3336]
  22:Lib/BufferedSerial/BufferedSerial.hpp ****             rxBtm(0),
 478              		.loc 2 22 13 view .LVU131
 479 0152 A4F80C5D 		strh	r5, [r4, #3340]	@ movhi
  23:Lib/BufferedSerial/BufferedSerial.hpp ****             _rxBufSize(rxBufSize),
 480              		.loc 2 23 13 view .LVU132
 481 0156 A4F80E5D 		strh	r5, [r4, #3342]	@ movhi
  24:Lib/BufferedSerial/BufferedSerial.hpp ****             _useDMA(false) {
 482              		.loc 2 24 13 view .LVU133
 483 015a 8023     		movs	r3, #128
 484 015c A4F8103D 		strh	r3, [r4, #3344]	@ movhi
  25:Lib/BufferedSerial/BufferedSerial.hpp ****       }
 485              		.loc 2 25 13 view .LVU134
 486 0160 84F8125D 		strb	r5, [r4, #3346]
 487              	.LVL33:
  25:Lib/BufferedSerial/BufferedSerial.hpp ****       }
 488              		.loc 2 25 13 view .LVU135
 489              	.LBE102:
 490              	.LBE101:
 491              	.LBB103:
 492              	.LBI103:
  19:Lib/BufferedSerial/BufferedSerial.hpp ****           : _huart(huart),
 493              		.loc 2 19 7 is_stmt 1 view .LVU136
 494              	.LBB104:
  20:Lib/BufferedSerial/BufferedSerial.hpp ****             _rxBuf(new uint8_t[rxBufSize]),
 495              		.loc 2 20 13 is_stmt 0 view .LVU137
 496 0164 194B     		ldr	r3, .L8+32
 497 0166 C4F8143D 		str	r3, [r4, #3348]
  21:Lib/BufferedSerial/BufferedSerial.hpp ****             rxTop(0),
 498              		.loc 2 21 41 view .LVU138
 499 016a 4FF48070 		mov	r0, #256
 500 016e FFF7FEFF 		bl	_Znaj
 501              	.LVL34:
  21:Lib/BufferedSerial/BufferedSerial.hpp ****             rxTop(0),
 502              		.loc 2 21 13 view .LVU139
 503 0172 C4F8180D 		str	r0, [r4, #3352]
  22:Lib/BufferedSerial/BufferedSerial.hpp ****             rxBtm(0),
 504              		.loc 2 22 13 view .LVU140
 505 0176 A4F81C5D 		strh	r5, [r4, #3356]	@ movhi
  23:Lib/BufferedSerial/BufferedSerial.hpp ****             _rxBufSize(rxBufSize),
 506              		.loc 2 23 13 view .LVU141
 507 017a A4F81E5D 		strh	r5, [r4, #3358]	@ movhi
  24:Lib/BufferedSerial/BufferedSerial.hpp ****             _useDMA(false) {
 508              		.loc 2 24 13 view .LVU142
 509 017e 4FF48073 		mov	r3, #256
 510 0182 A4F8203D 		strh	r3, [r4, #3360]	@ movhi
  25:Lib/BufferedSerial/BufferedSerial.hpp ****       }
 511              		.loc 2 25 13 view .LVU143
ARM GAS  /var/folders/5c/srt4fy4j1pd641bjfx75k5000000gn/T//ccSIFQlc.s 			page 13


 512 0186 84F8225D 		strb	r5, [r4, #3362]
 513              	.LVL35:
  25:Lib/BufferedSerial/BufferedSerial.hpp ****       }
 514              		.loc 2 25 13 view .LVU144
 515              	.LBE104:
 516              	.LBE103:
 517              		.loc 1 5 14 view .LVU145
 518 018a 04F62450 		addw	r0, r4, #3364
 519 018e FFF7FEFF 		bl	_ZN5TimerC1Ev
 520              	.LVL36:
   6:src/unit/robot/robot.cpp ****       catch_front.SetLength(10);
 521              		.loc 1 6 7 is_stmt 1 view .LVU146
 522              		.loc 1 6 28 is_stmt 0 view .LVU147
 523 0192 0A21     		movs	r1, #10
 524 0194 04F62850 		addw	r0, r4, #3368
 525 0198 FFF7FEFF 		bl	_ZN9MovingAve9SetLengthEh
 526              	.LVL37:
   7:src/unit/robot/robot.cpp ****       catch_back.SetLength(10);
 527              		.loc 1 7 7 is_stmt 1 view .LVU148
 528              		.loc 1 7 27 is_stmt 0 view .LVU149
 529 019c 0A21     		movs	r1, #10
 530 019e 04F6C860 		addw	r0, r4, #3784
 531 01a2 FFF7FEFF 		bl	_ZN9MovingAve9SetLengthEh
 532              	.LVL38:
 533              	.LBE68:
   8:src/unit/robot/robot.cpp **** }
 534              		.loc 1 8 1 view .LVU150
 535 01a6 2046     		mov	r0, r4
 536 01a8 09B0     		add	sp, sp, #36
 537              	.LCFI3:
 538              		.cfi_def_cfa_offset 20
 539              		@ sp needed
 540 01aa F0BD     		pop	{r4, r5, r6, r7, pc}
 541              	.LVL39:
 542              	.L9:
 543              		.loc 1 8 1 view .LVU151
 544              		.align	2
 545              	.L8:
 546 01ac 00000240 		.word	1073872896
 547 01b0 00000000 		.word	htim13
 548 01b4 00000000 		.word	htim12
 549 01b8 00000000 		.word	htim2
 550 01bc 00000000 		.word	htim3
 551 01c0 00000000 		.word	htim4
 552 01c4 00080240 		.word	1073874944
 553 01c8 00000000 		.word	huart1
 554 01cc 00000000 		.word	huart2
 555              		.cfi_endproc
 556              	.LFE271:
 557              		.fnend
 559              		.global	_ZN5RobotC1Ev
 560              		.thumb_set _ZN5RobotC1Ev,_ZN5RobotC2Ev
 561              		.section	.text._ZN5Robot12HardwareInitEv,"ax",%progbits
 562              		.align	1
 563              		.global	_ZN5Robot12HardwareInitEv
 564              		.syntax unified
 565              		.thumb
ARM GAS  /var/folders/5c/srt4fy4j1pd641bjfx75k5000000gn/T//ccSIFQlc.s 			page 14


 566              		.thumb_func
 568              	_ZN5Robot12HardwareInitEv:
 569              		.fnstart
 570              	.LVL40:
 571              	.LFB273:
   9:src/unit/robot/robot.cpp **** 
  10:src/unit/robot/robot.cpp **** void Robot::HardwareInit() {
 572              		.loc 1 10 28 is_stmt 1 view -0
 573              		.cfi_startproc
 574              		@ args = 0, pretend = 0, frame = 0
 575              		@ frame_needed = 0, uses_anonymous_args = 0
 576              		.loc 1 10 28 is_stmt 0 view .LVU153
 577 0000 38B5     		push	{r3, r4, r5, lr}
 578              		.save {r3, r4, r5, lr}
 579              	.LCFI4:
 580              		.cfi_def_cfa_offset 16
 581              		.cfi_offset 3, -16
 582              		.cfi_offset 4, -12
 583              		.cfi_offset 5, -8
 584              		.cfi_offset 14, -4
 585 0002 0446     		mov	r4, r0
  11:src/unit/robot/robot.cpp ****       HAL_ADC_Start(&hadc1);
 586              		.loc 1 11 7 is_stmt 1 view .LVU154
 587              		.loc 1 11 20 is_stmt 0 view .LVU155
 588 0004 364D     		ldr	r5, .L14
 589 0006 2846     		mov	r0, r5
 590              	.LVL41:
 591              		.loc 1 11 20 view .LVU156
 592 0008 FFF7FEFF 		bl	HAL_ADC_Start
 593              	.LVL42:
  12:src/unit/robot/robot.cpp ****       HAL_ADC_Start_DMA(&hadc1, (uint32_t *)&adc_get_val, 3);
 594              		.loc 1 12 7 is_stmt 1 view .LVU157
 595              		.loc 1 12 24 is_stmt 0 view .LVU158
 596 000c 0322     		movs	r2, #3
 597 000e 3549     		ldr	r1, .L14+4
 598 0010 2846     		mov	r0, r5
 599 0012 FFF7FEFF 		bl	HAL_ADC_Start_DMA
 600              	.LVL43:
  13:src/unit/robot/robot.cpp ****       for (uint8_t i = 0; i < 3; i++) {
 601              		.loc 1 13 7 is_stmt 1 view .LVU159
 602              	.LBB105:
 603              		.loc 1 13 20 is_stmt 0 view .LVU160
 604 0016 0022     		movs	r2, #0
 605              		.loc 1 13 7 view .LVU161
 606 0018 06E0     		b	.L11
 607              	.LVL44:
 608              	.L12:
  14:src/unit/robot/robot.cpp ****             while (!(adc_get_val[i] > 0));
 609              		.loc 1 14 20 is_stmt 1 discriminator 1 view .LVU162
 610              		.loc 1 14 35 is_stmt 0 discriminator 1 view .LVU163
 611 001a 324B     		ldr	r3, .L14+4
 612 001c 33F81230 		ldrh	r3, [r3, r2, lsl #1]
 613              		.loc 1 14 20 discriminator 1 view .LVU164
 614 0020 002B     		cmp	r3, #0
 615 0022 FAD0     		beq	.L12
  13:src/unit/robot/robot.cpp ****       for (uint8_t i = 0; i < 3; i++) {
 616              		.loc 1 13 7 is_stmt 1 discriminator 2 view .LVU165
ARM GAS  /var/folders/5c/srt4fy4j1pd641bjfx75k5000000gn/T//ccSIFQlc.s 			page 15


 617 0024 0132     		adds	r2, r2, #1
 618              	.LVL45:
  13:src/unit/robot/robot.cpp ****       for (uint8_t i = 0; i < 3; i++) {
 619              		.loc 1 13 7 is_stmt 0 discriminator 2 view .LVU166
 620 0026 D2B2     		uxtb	r2, r2
 621              	.LVL46:
 622              	.L11:
  13:src/unit/robot/robot.cpp ****       for (uint8_t i = 0; i < 3; i++) {
 623              		.loc 1 13 29 is_stmt 1 discriminator 1 view .LVU167
 624 0028 022A     		cmp	r2, #2
 625 002a F6D9     		bls	.L12
 626              	.LBE105:
  15:src/unit/robot/robot.cpp ****       }
  16:src/unit/robot/robot.cpp **** 
  17:src/unit/robot/robot.cpp ****       // 諸々の初期化
  18:src/unit/robot/robot.cpp ****       serial1.init();
 627              		.loc 1 18 7 view .LVU168
 628              	.LVL47:
 629              	.LBB106:
 630              	.LBI106:
  27:Lib/BufferedSerial/BufferedSerial.hpp ****             _useDMA = dma;
 631              		.loc 2 27 12 view .LVU169
 632              	.LBB107:
  28:Lib/BufferedSerial/BufferedSerial.hpp ****             HAL_UART_Receive_DMA(_huart, _rxBuf, _rxBufSize);
 633              		.loc 2 28 13 view .LVU170
  28:Lib/BufferedSerial/BufferedSerial.hpp ****             HAL_UART_Receive_DMA(_huart, _rxBuf, _rxBufSize);
 634              		.loc 2 28 21 is_stmt 0 view .LVU171
 635 002c 0025     		movs	r5, #0
 636 002e 84F8125D 		strb	r5, [r4, #3346]
  29:Lib/BufferedSerial/BufferedSerial.hpp ****             // printf("- Serial init\n");
 637              		.loc 2 29 13 is_stmt 1 view .LVU172
  29:Lib/BufferedSerial/BufferedSerial.hpp ****             // printf("- Serial init\n");
 638              		.loc 2 29 33 is_stmt 0 view .LVU173
 639 0032 B4F8102D 		ldrh	r2, [r4, #3344]
 640              	.LVL48:
  29:Lib/BufferedSerial/BufferedSerial.hpp ****             // printf("- Serial init\n");
 641              		.loc 2 29 33 view .LVU174
 642 0036 D4F8081D 		ldr	r1, [r4, #3336]
 643 003a D4F8040D 		ldr	r0, [r4, #3332]
 644 003e FFF7FEFF 		bl	HAL_UART_Receive_DMA
 645              	.LVL49:
  29:Lib/BufferedSerial/BufferedSerial.hpp ****             // printf("- Serial init\n");
 646              		.loc 2 29 33 view .LVU175
 647              	.LBE107:
 648              	.LBE106:
  19:src/unit/robot/robot.cpp ****       serial2.init();
 649              		.loc 1 19 7 is_stmt 1 view .LVU176
 650              	.LBB108:
 651              	.LBI108:
  27:Lib/BufferedSerial/BufferedSerial.hpp ****             _useDMA = dma;
 652              		.loc 2 27 12 view .LVU177
 653              	.LBB109:
  28:Lib/BufferedSerial/BufferedSerial.hpp ****             HAL_UART_Receive_DMA(_huart, _rxBuf, _rxBufSize);
 654              		.loc 2 28 13 view .LVU178
  28:Lib/BufferedSerial/BufferedSerial.hpp ****             HAL_UART_Receive_DMA(_huart, _rxBuf, _rxBufSize);
 655              		.loc 2 28 21 is_stmt 0 view .LVU179
 656 0042 84F8225D 		strb	r5, [r4, #3362]
ARM GAS  /var/folders/5c/srt4fy4j1pd641bjfx75k5000000gn/T//ccSIFQlc.s 			page 16


  29:Lib/BufferedSerial/BufferedSerial.hpp ****             // printf("- Serial init\n");
 657              		.loc 2 29 13 is_stmt 1 view .LVU180
  29:Lib/BufferedSerial/BufferedSerial.hpp ****             // printf("- Serial init\n");
 658              		.loc 2 29 33 is_stmt 0 view .LVU181
 659 0046 B4F8202D 		ldrh	r2, [r4, #3360]
 660 004a D4F8181D 		ldr	r1, [r4, #3352]
 661 004e D4F8140D 		ldr	r0, [r4, #3348]
 662 0052 FFF7FEFF 		bl	HAL_UART_Receive_DMA
 663              	.LVL50:
  29:Lib/BufferedSerial/BufferedSerial.hpp ****             // printf("- Serial init\n");
 664              		.loc 2 29 33 view .LVU182
 665              	.LBE109:
 666              	.LBE108:
  20:src/unit/robot/robot.cpp ****       ledh.init();
 667              		.loc 1 20 7 is_stmt 1 view .LVU183
 668              		.loc 1 20 16 is_stmt 0 view .LVU184
 669 0056 04F12C00 		add	r0, r4, #44
 670 005a FFF7FEFF 		bl	_ZN12PwmSingleOut4initEv
 671              	.LVL51:
  21:src/unit/robot/robot.cpp ****       motor1a.init();
 672              		.loc 1 21 7 is_stmt 1 view .LVU185
 673              		.loc 1 21 19 is_stmt 0 view .LVU186
 674 005e 04F13C00 		add	r0, r4, #60
 675 0062 FFF7FEFF 		bl	_ZN12PwmSingleOut4initEv
 676              	.LVL52:
  22:src/unit/robot/robot.cpp ****       motor1b.init();
 677              		.loc 1 22 7 is_stmt 1 view .LVU187
 678              		.loc 1 22 19 is_stmt 0 view .LVU188
 679 0066 04F14C00 		add	r0, r4, #76
 680 006a FFF7FEFF 		bl	_ZN12PwmSingleOut4initEv
 681              	.LVL53:
  23:src/unit/robot/robot.cpp ****       motor2a.init();
 682              		.loc 1 23 7 is_stmt 1 view .LVU189
 683              		.loc 1 23 19 is_stmt 0 view .LVU190
 684 006e 04F15C00 		add	r0, r4, #92
 685 0072 FFF7FEFF 		bl	_ZN12PwmSingleOut4initEv
 686              	.LVL54:
  24:src/unit/robot/robot.cpp ****       motor2b.init();
 687              		.loc 1 24 7 is_stmt 1 view .LVU191
 688              		.loc 1 24 19 is_stmt 0 view .LVU192
 689 0076 04F16C00 		add	r0, r4, #108
 690 007a FFF7FEFF 		bl	_ZN12PwmSingleOut4initEv
 691              	.LVL55:
  25:src/unit/robot/robot.cpp ****       motor3a.init();
 692              		.loc 1 25 7 is_stmt 1 view .LVU193
 693              		.loc 1 25 19 is_stmt 0 view .LVU194
 694 007e 04F17C00 		add	r0, r4, #124
 695 0082 FFF7FEFF 		bl	_ZN12PwmSingleOut4initEv
 696              	.LVL56:
  26:src/unit/robot/robot.cpp ****       motor3b.init();
 697              		.loc 1 26 7 is_stmt 1 view .LVU195
 698              		.loc 1 26 19 is_stmt 0 view .LVU196
 699 0086 04F18C00 		add	r0, r4, #140
 700 008a FFF7FEFF 		bl	_ZN12PwmSingleOut4initEv
 701              	.LVL57:
  27:src/unit/robot/robot.cpp ****       motor4a.init();
 702              		.loc 1 27 7 is_stmt 1 view .LVU197
ARM GAS  /var/folders/5c/srt4fy4j1pd641bjfx75k5000000gn/T//ccSIFQlc.s 			page 17


 703              		.loc 1 27 19 is_stmt 0 view .LVU198
 704 008e 04F19C00 		add	r0, r4, #156
 705 0092 FFF7FEFF 		bl	_ZN12PwmSingleOut4initEv
 706              	.LVL58:
  28:src/unit/robot/robot.cpp ****       motor4b.init();
 707              		.loc 1 28 7 is_stmt 1 view .LVU199
 708              		.loc 1 28 19 is_stmt 0 view .LVU200
 709 0096 04F1AC00 		add	r0, r4, #172
 710 009a FFF7FEFF 		bl	_ZN12PwmSingleOut4initEv
 711              	.LVL59:
  29:src/unit/robot/robot.cpp ****       dribbler_front_a.init();
 712              		.loc 1 29 7 is_stmt 1 view .LVU201
 713              		.loc 1 29 28 is_stmt 0 view .LVU202
 714 009e 04F1BC00 		add	r0, r4, #188
 715 00a2 FFF7FEFF 		bl	_ZN12PwmSingleOut4initEv
 716              	.LVL60:
  30:src/unit/robot/robot.cpp ****       dribbler_front_b.init();
 717              		.loc 1 30 7 is_stmt 1 view .LVU203
 718              		.loc 1 30 28 is_stmt 0 view .LVU204
 719 00a6 04F1CC00 		add	r0, r4, #204
 720 00aa FFF7FEFF 		bl	_ZN12PwmSingleOut4initEv
 721              	.LVL61:
  31:src/unit/robot/robot.cpp ****       dribbler_back_a.init();
 722              		.loc 1 31 7 is_stmt 1 view .LVU205
 723              		.loc 1 31 27 is_stmt 0 view .LVU206
 724 00ae 04F1DC00 		add	r0, r4, #220
 725 00b2 FFF7FEFF 		bl	_ZN12PwmSingleOut4initEv
 726              	.LVL62:
  32:src/unit/robot/robot.cpp ****       dribbler_back_b.init();
 727              		.loc 1 32 7 is_stmt 1 view .LVU207
 728              		.loc 1 32 27 is_stmt 0 view .LVU208
 729 00b6 04F1EC00 		add	r0, r4, #236
 730 00ba FFF7FEFF 		bl	_ZN12PwmSingleOut4initEv
 731              	.LVL63:
  33:src/unit/robot/robot.cpp **** 
  34:src/unit/robot/robot.cpp ****       // 接続確認
  35:src/unit/robot/robot.cpp ****       motor.CheckConnection();
 732              		.loc 1 35 7 is_stmt 1 view .LVU209
 733              		.loc 1 35 28 is_stmt 0 view .LVU210
 734 00be 04F58870 		add	r0, r4, #272
 735 00c2 FFF7FEFF 		bl	_ZN10MotorDrive15CheckConnectionEv
 736              	.LVL64:
  36:src/unit/robot/robot.cpp ****       HAL_Delay(200);
 737              		.loc 1 36 7 is_stmt 1 view .LVU211
 738              		.loc 1 36 16 is_stmt 0 view .LVU212
 739 00c6 C820     		movs	r0, #200
 740 00c8 FFF7FEFF 		bl	HAL_Delay
 741              	.LVL65:
  37:src/unit/robot/robot.cpp ****       dribbler_front.CheckConnection();
 742              		.loc 1 37 7 is_stmt 1 view .LVU213
 743              		.loc 1 37 37 is_stmt 0 view .LVU214
 744 00cc 04F51A60 		add	r0, r4, #2464
 745 00d0 FFF7FEFF 		bl	_ZN13DribblerDrive15CheckConnectionEv
 746              	.LVL66:
  38:src/unit/robot/robot.cpp ****       dribbler_back.CheckConnection();
 747              		.loc 1 38 7 is_stmt 1 view .LVU215
 748              		.loc 1 38 36 is_stmt 0 view .LVU216
ARM GAS  /var/folders/5c/srt4fy4j1pd641bjfx75k5000000gn/T//ccSIFQlc.s 			page 18


 749 00d4 04F64830 		addw	r0, r4, #2888
 750 00d8 FFF7FEFF 		bl	_ZN13DribblerDrive15CheckConnectionEv
 751              	.LVL67:
  39:src/unit/robot/robot.cpp **** }
 752              		.loc 1 39 1 view .LVU217
 753 00dc 38BD     		pop	{r3, r4, r5, pc}
 754              	.LVL68:
 755              	.L15:
 756              		.loc 1 39 1 view .LVU218
 757 00de 00BF     		.align	2
 758              	.L14:
 759 00e0 00000000 		.word	hadc1
 760 00e4 00000000 		.word	adc_get_val
 761              		.cfi_endproc
 762              	.LFE273:
 763              		.fnend
 765              		.global	__aeabi_d2uiz
 766              		.section	.text._ZN5Robot10GetSensorsEv,"ax",%progbits
 767              		.align	1
 768              		.global	_ZN5Robot10GetSensorsEv
 769              		.syntax unified
 770              		.thumb
 771              		.thumb_func
 773              	_ZN5Robot10GetSensorsEv:
 774              		.fnstart
 775              	.LVL69:
 776              	.LFB274:
  40:src/unit/robot/robot.cpp **** 
  41:src/unit/robot/robot.cpp **** void Robot::GetSensors() {
 777              		.loc 1 41 26 is_stmt 1 view -0
 778              		.cfi_startproc
 779              		@ args = 0, pretend = 0, frame = 0
 780              		@ frame_needed = 0, uses_anonymous_args = 0
 781              		.loc 1 41 26 is_stmt 0 view .LVU220
 782 0000 F8B5     		push	{r3, r4, r5, r6, r7, lr}
 783              		.save {r3, r4, r5, r6, r7, lr}
 784              	.LCFI5:
 785              		.cfi_def_cfa_offset 24
 786              		.cfi_offset 3, -24
 787              		.cfi_offset 4, -20
 788              		.cfi_offset 5, -16
 789              		.cfi_offset 6, -12
 790              		.cfi_offset 7, -8
 791              		.cfi_offset 14, -4
 792 0002 0446     		mov	r4, r0
  42:src/unit/robot/robot.cpp ****       const float voltage_conversion = 0.01298828125;
 793              		.loc 1 42 7 is_stmt 1 view .LVU221
 794              	.LVL70:
  43:src/unit/robot/robot.cpp ****       info.voltage = adc_get_val[0] * voltage_conversion;
 795              		.loc 1 43 7 view .LVU222
 796              		.loc 1 43 35 is_stmt 0 view .LVU223
 797 0004 1F4D     		ldr	r5, .L18
 798 0006 2B88     		ldrh	r3, [r5]
 799 0008 07EE903A 		vmov	s15, r3	@ int
 800              		.loc 1 43 37 view .LVU224
 801 000c F8EEE77A 		vcvt.f32.s32	s15, s15
 802 0010 9FED1D7A 		vldr.32	s14, .L18+4
ARM GAS  /var/folders/5c/srt4fy4j1pd641bjfx75k5000000gn/T//ccSIFQlc.s 			page 19


 803 0014 67EE877A 		vmul.f32	s15, s15, s14
 804              		.loc 1 43 20 view .LVU225
 805 0018 C0ED007A 		vstr.32	s15, [r0]
  44:src/unit/robot/robot.cpp **** 
  45:src/unit/robot/robot.cpp ****       catch_front.Compute(adc_get_val[1]);
 806              		.loc 1 45 7 is_stmt 1 view .LVU226
 807              		.loc 1 45 26 is_stmt 0 view .LVU227
 808 001c 00F62857 		addw	r7, r0, #3368
 809              		.loc 1 45 40 view .LVU228
 810 0020 6B88     		ldrh	r3, [r5, #2]
 811 0022 00EE103A 		vmov	s0, r3	@ int
 812              		.loc 1 45 26 view .LVU229
 813 0026 B8EE400A 		vcvt.f32.u32	s0, s0
 814 002a 3846     		mov	r0, r7
 815              	.LVL71:
 816              		.loc 1 45 26 view .LVU230
 817 002c FFF7FEFF 		bl	_ZN9MovingAve7ComputeEf
 818              	.LVL72:
  46:src/unit/robot/robot.cpp ****       catch_back.Compute(adc_get_val[2]);
 819              		.loc 1 46 7 is_stmt 1 view .LVU231
 820              		.loc 1 46 25 is_stmt 0 view .LVU232
 821 0030 04F6C866 		addw	r6, r4, #3784
 822              		.loc 1 46 39 view .LVU233
 823 0034 AB88     		ldrh	r3, [r5, #4]
 824 0036 00EE103A 		vmov	s0, r3	@ int
 825              		.loc 1 46 25 view .LVU234
 826 003a B8EE400A 		vcvt.f32.u32	s0, s0
 827 003e 3046     		mov	r0, r6
 828 0040 FFF7FEFF 		bl	_ZN9MovingAve7ComputeEf
 829              	.LVL73:
  47:src/unit/robot/robot.cpp ****       info.Catch.front_val = catch_front.Get();
 830              		.loc 1 47 7 is_stmt 1 view .LVU235
 831              		.loc 1 47 45 is_stmt 0 view .LVU236
 832 0044 3846     		mov	r0, r7
 833 0046 FFF7FEFF 		bl	_ZN9MovingAve3GetEv
 834              	.LVL74:
 835 004a 51EC100B 		vmov	r0, r1, d0
 836              		.loc 1 47 28 view .LVU237
 837 004e FFF7FEFF 		bl	__aeabi_d2uiz
 838              	.LVL75:
 839 0052 A082     		strh	r0, [r4, #20]	@ movhi
  48:src/unit/robot/robot.cpp ****       info.Catch.back_val = catch_back.Get();
 840              		.loc 1 48 7 is_stmt 1 view .LVU238
 841              		.loc 1 48 43 is_stmt 0 view .LVU239
 842 0054 3046     		mov	r0, r6
 843 0056 FFF7FEFF 		bl	_ZN9MovingAve3GetEv
 844              	.LVL76:
 845 005a 51EC100B 		vmov	r0, r1, d0
 846              		.loc 1 48 27 view .LVU240
 847 005e FFF7FEFF 		bl	__aeabi_d2uiz
 848              	.LVL77:
 849 0062 80B2     		uxth	r0, r0
 850 0064 2083     		strh	r0, [r4, #24]	@ movhi
  49:src/unit/robot/robot.cpp **** 
  50:src/unit/robot/robot.cpp ****       info.Catch.is_front = info.Catch.front_val < CATCH_FRONT_TH ? 1 : 0;
 851              		.loc 1 50 7 is_stmt 1 view .LVU241
 852              		.loc 1 50 40 is_stmt 0 view .LVU242
ARM GAS  /var/folders/5c/srt4fy4j1pd641bjfx75k5000000gn/T//ccSIFQlc.s 			page 20


 853 0066 A38A     		ldrh	r3, [r4, #20]
 854              		.loc 1 50 67 view .LVU243
 855 0068 40F2F312 		movw	r2, #499
 856 006c 9342     		cmp	r3, r2
 857 006e 8CBF     		ite	hi
 858 0070 0023     		movhi	r3, #0
 859 0072 0123     		movls	r3, #1
 860              		.loc 1 50 27 view .LVU244
 861 0074 A375     		strb	r3, [r4, #22]
  51:src/unit/robot/robot.cpp ****       info.Catch.is_back = info.Catch.back_val < CATCH_BACK_TH ? 1 : 0;
 862              		.loc 1 51 7 is_stmt 1 view .LVU245
 863              		.loc 1 51 64 is_stmt 0 view .LVU246
 864 0076 9042     		cmp	r0, r2
 865 0078 8CBF     		ite	hi
 866 007a 0020     		movhi	r0, #0
 867 007c 0120     		movls	r0, #1
 868              		.loc 1 51 26 view .LVU247
 869 007e A076     		strb	r0, [r4, #26]
  52:src/unit/robot/robot.cpp **** }
 870              		.loc 1 52 1 view .LVU248
 871 0080 F8BD     		pop	{r3, r4, r5, r6, r7, pc}
 872              	.LVL78:
 873              	.L19:
 874              		.loc 1 52 1 view .LVU249
 875 0082 00BF     		.align	2
 876              	.L18:
 877 0084 00000000 		.word	adc_get_val
 878 0088 CDCC543C 		.word	1012190413
 879              		.cfi_endproc
 880              	.LFE274:
 881              		.fnend
 883              		.global	__aeabi_i2d
 884              		.global	__aeabi_dmul
 885              		.global	__aeabi_dsub
 886              		.global	__aeabi_d2iz
 887              		.section	.text._ZN5Robot7ImuUartEv,"ax",%progbits
 888              		.align	1
 889              		.global	_ZN5Robot7ImuUartEv
 890              		.syntax unified
 891              		.thumb
 892              		.thumb_func
 894              	_ZN5Robot7ImuUartEv:
 895              		.fnstart
 896              	.LVL79:
 897              	.LFB275:
  53:src/unit/robot/robot.cpp **** 
  54:src/unit/robot/robot.cpp **** void Robot::ImuUart() {
 898              		.loc 1 54 23 is_stmt 1 view -0
 899              		.cfi_startproc
 900              		@ args = 0, pretend = 0, frame = 0
 901              		@ frame_needed = 0, uses_anonymous_args = 0
 902              		.loc 1 54 23 is_stmt 0 view .LVU251
 903 0000 38B5     		push	{r3, r4, r5, lr}
 904              	.LCFI6:
 905              		.cfi_def_cfa_offset 16
 906              		.cfi_offset 3, -16
 907              		.cfi_offset 4, -12
ARM GAS  /var/folders/5c/srt4fy4j1pd641bjfx75k5000000gn/T//ccSIFQlc.s 			page 21


 908              		.cfi_offset 5, -8
 909              		.cfi_offset 14, -4
 910 0002 0446     		mov	r4, r0
  55:src/unit/robot/robot.cpp ****       static const uint8_t HEADER = 0xFF;  // ヘッダ
 911              		.loc 1 55 7 is_stmt 1 view .LVU252
  56:src/unit/robot/robot.cpp ****       static const uint8_t FOOTER = 0xAA;  // ヘッダ
 912              		.loc 1 56 7 view .LVU253
  57:src/unit/robot/robot.cpp ****       static const uint8_t dataSize = 6;   // データのサイズ
 913              		.loc 1 57 7 view .LVU254
  58:src/unit/robot/robot.cpp ****       static uint8_t index = 0;            // 受信したデータのインデックスカウン
 914              		.loc 1 58 7 view .LVU255
  59:src/unit/robot/robot.cpp ****       static uint8_t recv_data[dataSize];  // 受信したデータ
 915              		.loc 1 59 7 view .LVU256
  60:src/unit/robot/robot.cpp ****       static uint8_t recv_byte;
 916              		.loc 1 60 7 view .LVU257
  61:src/unit/robot/robot.cpp **** 
  62:src/unit/robot/robot.cpp ****       while (serial1.available()) {
 917              		.loc 1 62 7 view .LVU258
 918 0004 0BE0     		b	.L21
 919              	.LVL80:
 920              	.L31:
  63:src/unit/robot/robot.cpp ****             recv_byte = serial1.read();
  64:src/unit/robot/robot.cpp ****             if (index == 0) {
  65:src/unit/robot/robot.cpp ****                   if (recv_byte == HEADER) {
  66:src/unit/robot/robot.cpp ****                         index++;
 921              		.loc 1 66 25 view .LVU259
 922              		.loc 1 66 30 is_stmt 0 view .LVU260
 923 0006 0133     		adds	r3, r3, #1
 924 0008 354A     		ldr	r2, .L33+8
 925 000a 1370     		strb	r3, [r2]
 926 000c 07E0     		b	.L21
 927              	.L22:
  67:src/unit/robot/robot.cpp ****                   } else {
  68:src/unit/robot/robot.cpp ****                         index = 0;
  69:src/unit/robot/robot.cpp ****                   }
  70:src/unit/robot/robot.cpp ****             } else if (index == (dataSize + 1)) {
 928              		.loc 1 70 20 is_stmt 1 view .LVU261
 929 000e 072B     		cmp	r3, #7
 930 0010 23D0     		beq	.L29
  71:src/unit/robot/robot.cpp ****                   if (recv_byte == FOOTER) {
  72:src/unit/robot/robot.cpp ****                         info.Imu.yaw = ((((uint16_t)recv_data[0] << 8) & 0xFF00) | ((int16_t)recv_d
  73:src/unit/robot/robot.cpp ****                         info.Imu.pitch = ((((uint16_t)recv_data[2] << 8) & 0xFF00) | ((int16_t)recv
  74:src/unit/robot/robot.cpp ****                         info.Imu.roll = ((((uint16_t)recv_data[4] << 8) & 0xFF00) | ((int16_t)recv_
  75:src/unit/robot/robot.cpp ****                   }
  76:src/unit/robot/robot.cpp ****                   index = 0;
  77:src/unit/robot/robot.cpp ****             } else {
  78:src/unit/robot/robot.cpp ****                   recv_data[index - 1] = recv_byte;
 931              		.loc 1 78 19 view .LVU262
 932              		.loc 1 78 35 is_stmt 0 view .LVU263
 933 0012 5A1E     		subs	r2, r3, #1
 934              		.loc 1 78 40 view .LVU264
 935 0014 3349     		ldr	r1, .L33+12
 936 0016 8854     		strb	r0, [r1, r2]
  79:src/unit/robot/robot.cpp ****                   index++;
 937              		.loc 1 79 19 is_stmt 1 view .LVU265
 938              		.loc 1 79 24 is_stmt 0 view .LVU266
 939 0018 0133     		adds	r3, r3, #1
ARM GAS  /var/folders/5c/srt4fy4j1pd641bjfx75k5000000gn/T//ccSIFQlc.s 			page 22


 940 001a 314A     		ldr	r2, .L33+8
 941 001c 1370     		strb	r3, [r2]
 942              	.L21:
  62:src/unit/robot/robot.cpp ****             recv_byte = serial1.read();
 943              		.loc 1 62 31 is_stmt 1 view .LVU267
 944              	.LVL81:
 945              	.LBB110:
 946              	.LBI110:
  33:Lib/BufferedSerial/BufferedSerial.hpp ****             uint16_t rxTop = _rxBufSize - _huart->hdmarx->Instance->NDTR;
 947              		.loc 2 33 12 view .LVU268
 948              	.LBB111:
  34:Lib/BufferedSerial/BufferedSerial.hpp ****             return rxTop != rxBtm;
 949              		.loc 2 34 13 view .LVU269
  34:Lib/BufferedSerial/BufferedSerial.hpp ****             return rxTop != rxBtm;
 950              		.loc 2 34 30 is_stmt 0 view .LVU270
 951 001e B4F8103D 		ldrh	r3, [r4, #3344]
  34:Lib/BufferedSerial/BufferedSerial.hpp ****             return rxTop != rxBtm;
 952              		.loc 2 34 43 view .LVU271
 953 0022 D4F8042D 		ldr	r2, [r4, #3332]
  34:Lib/BufferedSerial/BufferedSerial.hpp ****             return rxTop != rxBtm;
 954              		.loc 2 34 51 view .LVU272
 955 0026 D26B     		ldr	r2, [r2, #60]
  34:Lib/BufferedSerial/BufferedSerial.hpp ****             return rxTop != rxBtm;
 956              		.loc 2 34 59 view .LVU273
 957 0028 1268     		ldr	r2, [r2]
  34:Lib/BufferedSerial/BufferedSerial.hpp ****             return rxTop != rxBtm;
 958              		.loc 2 34 69 view .LVU274
 959 002a 5268     		ldr	r2, [r2, #4]
  34:Lib/BufferedSerial/BufferedSerial.hpp ****             return rxTop != rxBtm;
 960              		.loc 2 34 41 view .LVU275
 961 002c 92B2     		uxth	r2, r2
  34:Lib/BufferedSerial/BufferedSerial.hpp ****             return rxTop != rxBtm;
 962              		.loc 2 34 69 view .LVU276
 963 002e 9B1A     		subs	r3, r3, r2
 964 0030 9BB2     		uxth	r3, r3
 965              	.LVL82:
  35:Lib/BufferedSerial/BufferedSerial.hpp ****       }
 966              		.loc 2 35 13 is_stmt 1 view .LVU277
  35:Lib/BufferedSerial/BufferedSerial.hpp ****       }
 967              		.loc 2 35 29 is_stmt 0 view .LVU278
 968 0032 B4F80E2D 		ldrh	r2, [r4, #3342]
 969              	.LVL83:
  35:Lib/BufferedSerial/BufferedSerial.hpp ****       }
 970              		.loc 2 35 29 view .LVU279
 971              	.LBE111:
 972              	.LBE110:
  62:src/unit/robot/robot.cpp ****             recv_byte = serial1.read();
 973              		.loc 1 62 31 view .LVU280
 974 0036 9342     		cmp	r3, r2
 975 0038 4DD0     		beq	.L30
  63:src/unit/robot/robot.cpp ****             if (index == 0) {
 976              		.loc 1 63 13 is_stmt 1 view .LVU281
  63:src/unit/robot/robot.cpp ****             if (index == 0) {
 977              		.loc 1 63 37 is_stmt 0 view .LVU282
 978 003a 04F60450 		addw	r0, r4, #3332
 979 003e FFF7FEFF 		bl	_ZN14BufferedSerial4readEv
 980              	.LVL84:
ARM GAS  /var/folders/5c/srt4fy4j1pd641bjfx75k5000000gn/T//ccSIFQlc.s 			page 23


  63:src/unit/robot/robot.cpp ****             if (index == 0) {
 981              		.loc 1 63 23 view .LVU283
 982 0042 294B     		ldr	r3, .L33+16
 983 0044 1870     		strb	r0, [r3]
  64:src/unit/robot/robot.cpp ****                   if (recv_byte == HEADER) {
 984              		.loc 1 64 13 is_stmt 1 view .LVU284
  64:src/unit/robot/robot.cpp ****                   if (recv_byte == HEADER) {
 985              		.loc 1 64 23 is_stmt 0 view .LVU285
 986 0046 264B     		ldr	r3, .L33+8
 987 0048 1B78     		ldrb	r3, [r3]	@ zero_extendqisi2
  64:src/unit/robot/robot.cpp ****                   if (recv_byte == HEADER) {
 988              		.loc 1 64 13 view .LVU286
 989 004a 002B     		cmp	r3, #0
 990 004c DFD1     		bne	.L22
  65:src/unit/robot/robot.cpp ****                         index++;
 991              		.loc 1 65 19 is_stmt 1 view .LVU287
 992 004e FF28     		cmp	r0, #255
 993 0050 D9D0     		beq	.L31
  68:src/unit/robot/robot.cpp ****                   }
 994              		.loc 1 68 25 view .LVU288
  68:src/unit/robot/robot.cpp ****                   }
 995              		.loc 1 68 31 is_stmt 0 view .LVU289
 996 0052 234B     		ldr	r3, .L33+8
 997 0054 0022     		movs	r2, #0
 998 0056 1A70     		strb	r2, [r3]
 999 0058 E1E7     		b	.L21
 1000              	.L29:
  71:src/unit/robot/robot.cpp ****                         info.Imu.yaw = ((((uint16_t)recv_data[0] << 8) & 0xFF00) | ((int16_t)recv_d
 1001              		.loc 1 71 19 is_stmt 1 view .LVU290
 1002 005a AA28     		cmp	r0, #170
 1003 005c 03D0     		beq	.L32
 1004              	.L26:
  76:src/unit/robot/robot.cpp ****             } else {
 1005              		.loc 1 76 19 view .LVU291
  76:src/unit/robot/robot.cpp ****             } else {
 1006              		.loc 1 76 25 is_stmt 0 view .LVU292
 1007 005e 204B     		ldr	r3, .L33+8
 1008 0060 0022     		movs	r2, #0
 1009 0062 1A70     		strb	r2, [r3]
 1010 0064 DBE7     		b	.L21
 1011              	.L32:
  72:src/unit/robot/robot.cpp ****                         info.Imu.pitch = ((((uint16_t)recv_data[2] << 8) & 0xFF00) | ((int16_t)recv
 1012              		.loc 1 72 25 is_stmt 1 view .LVU293
  72:src/unit/robot/robot.cpp ****                         info.Imu.pitch = ((((uint16_t)recv_data[2] << 8) & 0xFF00) | ((int16_t)recv
 1013              		.loc 1 72 64 is_stmt 0 view .LVU294
 1014 0066 1F4D     		ldr	r5, .L33+12
 1015 0068 2878     		ldrb	r0, [r5]	@ zero_extendqisi2
  72:src/unit/robot/robot.cpp ****                         info.Imu.pitch = ((((uint16_t)recv_data[2] << 8) & 0xFF00) | ((int16_t)recv
 1016              		.loc 1 72 105 view .LVU295
 1017 006a 6B78     		ldrb	r3, [r5, #1]	@ zero_extendqisi2
  72:src/unit/robot/robot.cpp ****                         info.Imu.pitch = ((((uint16_t)recv_data[2] << 8) & 0xFF00) | ((int16_t)recv
 1018              		.loc 1 72 118 view .LVU296
 1019 006c 43EA0020 		orr	r0, r3, r0, lsl #8
 1020 0070 FFF7FEFF 		bl	__aeabi_i2d
 1021              	.LVL85:
 1022 0074 18A3     		adr	r3, .L33
 1023 0076 D3E90023 		ldrd	r2, [r3]
ARM GAS  /var/folders/5c/srt4fy4j1pd641bjfx75k5000000gn/T//ccSIFQlc.s 			page 24


 1024 007a FFF7FEFF 		bl	__aeabi_dmul
 1025              	.LVL86:
  72:src/unit/robot/robot.cpp ****                         info.Imu.pitch = ((((uint16_t)recv_data[2] << 8) & 0xFF00) | ((int16_t)recv
 1026              		.loc 1 72 124 view .LVU297
 1027 007e 0022     		movs	r2, #0
 1028 0080 1A4B     		ldr	r3, .L33+20
 1029 0082 FFF7FEFF 		bl	__aeabi_dsub
 1030              	.LVL87:
  72:src/unit/robot/robot.cpp ****                         info.Imu.pitch = ((((uint16_t)recv_data[2] << 8) & 0xFF00) | ((int16_t)recv
 1031              		.loc 1 72 38 view .LVU298
 1032 0086 FFF7FEFF 		bl	__aeabi_d2iz
 1033              	.LVL88:
 1034 008a A083     		strh	r0, [r4, #28]	@ movhi
  73:src/unit/robot/robot.cpp ****                         info.Imu.roll = ((((uint16_t)recv_data[4] << 8) & 0xFF00) | ((int16_t)recv_
 1035              		.loc 1 73 25 is_stmt 1 view .LVU299
  73:src/unit/robot/robot.cpp ****                         info.Imu.roll = ((((uint16_t)recv_data[4] << 8) & 0xFF00) | ((int16_t)recv_
 1036              		.loc 1 73 66 is_stmt 0 view .LVU300
 1037 008c A878     		ldrb	r0, [r5, #2]	@ zero_extendqisi2
  73:src/unit/robot/robot.cpp ****                         info.Imu.roll = ((((uint16_t)recv_data[4] << 8) & 0xFF00) | ((int16_t)recv_
 1038              		.loc 1 73 107 view .LVU301
 1039 008e EB78     		ldrb	r3, [r5, #3]	@ zero_extendqisi2
  73:src/unit/robot/robot.cpp ****                         info.Imu.roll = ((((uint16_t)recv_data[4] << 8) & 0xFF00) | ((int16_t)recv_
 1040              		.loc 1 73 120 view .LVU302
 1041 0090 43EA0020 		orr	r0, r3, r0, lsl #8
 1042 0094 FFF7FEFF 		bl	__aeabi_i2d
 1043              	.LVL89:
 1044 0098 0FA3     		adr	r3, .L33
 1045 009a D3E90023 		ldrd	r2, [r3]
 1046 009e FFF7FEFF 		bl	__aeabi_dmul
 1047              	.LVL90:
  73:src/unit/robot/robot.cpp ****                         info.Imu.roll = ((((uint16_t)recv_data[4] << 8) & 0xFF00) | ((int16_t)recv_
 1048              		.loc 1 73 126 view .LVU303
 1049 00a2 0022     		movs	r2, #0
 1050 00a4 114B     		ldr	r3, .L33+20
 1051 00a6 FFF7FEFF 		bl	__aeabi_dsub
 1052              	.LVL91:
  73:src/unit/robot/robot.cpp ****                         info.Imu.roll = ((((uint16_t)recv_data[4] << 8) & 0xFF00) | ((int16_t)recv_
 1053              		.loc 1 73 40 view .LVU304
 1054 00aa FFF7FEFF 		bl	__aeabi_d2iz
 1055              	.LVL92:
 1056 00ae E083     		strh	r0, [r4, #30]	@ movhi
  74:src/unit/robot/robot.cpp ****                   }
 1057              		.loc 1 74 25 is_stmt 1 view .LVU305
  74:src/unit/robot/robot.cpp ****                   }
 1058              		.loc 1 74 65 is_stmt 0 view .LVU306
 1059 00b0 2879     		ldrb	r0, [r5, #4]	@ zero_extendqisi2
  74:src/unit/robot/robot.cpp ****                   }
 1060              		.loc 1 74 106 view .LVU307
 1061 00b2 6B79     		ldrb	r3, [r5, #5]	@ zero_extendqisi2
  74:src/unit/robot/robot.cpp ****                   }
 1062              		.loc 1 74 119 view .LVU308
 1063 00b4 43EA0020 		orr	r0, r3, r0, lsl #8
 1064 00b8 FFF7FEFF 		bl	__aeabi_i2d
 1065              	.LVL93:
 1066 00bc 06A3     		adr	r3, .L33
 1067 00be D3E90023 		ldrd	r2, [r3]
 1068 00c2 FFF7FEFF 		bl	__aeabi_dmul
ARM GAS  /var/folders/5c/srt4fy4j1pd641bjfx75k5000000gn/T//ccSIFQlc.s 			page 25


 1069              	.LVL94:
  74:src/unit/robot/robot.cpp ****                   }
 1070              		.loc 1 74 125 view .LVU309
 1071 00c6 0022     		movs	r2, #0
 1072 00c8 084B     		ldr	r3, .L33+20
 1073 00ca FFF7FEFF 		bl	__aeabi_dsub
 1074              	.LVL95:
  74:src/unit/robot/robot.cpp ****                   }
 1075              		.loc 1 74 39 view .LVU310
 1076 00ce FFF7FEFF 		bl	__aeabi_d2iz
 1077              	.LVL96:
 1078 00d2 2084     		strh	r0, [r4, #32]	@ movhi
 1079 00d4 C3E7     		b	.L26
 1080              	.L30:
  80:src/unit/robot/robot.cpp ****             }
  81:src/unit/robot/robot.cpp ****       }
  82:src/unit/robot/robot.cpp **** }
 1081              		.loc 1 82 1 view .LVU311
 1082 00d6 38BD     		pop	{r3, r4, r5, pc}
 1083              	.LVL97:
 1084              	.L34:
 1085              		.loc 1 82 1 view .LVU312
 1086              		.align	3
 1087              	.L33:
 1088 00d8 9A999999 		.word	-1717986918
 1089 00dc 9999B93F 		.word	1069128089
 1090 00e0 00000000 		.word	_ZZN5Robot7ImuUartEvE5index
 1091 00e4 00000000 		.word	_ZZN5Robot7ImuUartEvE9recv_data
 1092 00e8 00000000 		.word	_ZZN5Robot7ImuUartEvE9recv_byte
 1093 00ec 00806640 		.word	1080459264
 1094              		.cfi_endproc
 1095              	.LFE275:
 1096              		.cantunwind
 1097              		.fnend
 1099              		.section	.text._ZN5Robot8LineUartEv,"ax",%progbits
 1100              		.align	1
 1101              		.global	_ZN5Robot8LineUartEv
 1102              		.syntax unified
 1103              		.thumb
 1104              		.thumb_func
 1106              	_ZN5Robot8LineUartEv:
 1107              		.fnstart
 1108              	.LVL98:
 1109              	.LFB276:
  83:src/unit/robot/robot.cpp **** 
  84:src/unit/robot/robot.cpp **** void Robot::LineUart() {
 1110              		.loc 1 84 24 is_stmt 1 view -0
 1111              		.cfi_startproc
 1112              		@ args = 0, pretend = 0, frame = 8
 1113              		@ frame_needed = 0, uses_anonymous_args = 0
 1114              		.loc 1 84 24 is_stmt 0 view .LVU314
 1115 0000 30B5     		push	{r4, r5, lr}
 1116              		.save {r4, r5, lr}
 1117              	.LCFI7:
 1118              		.cfi_def_cfa_offset 12
 1119              		.cfi_offset 4, -12
 1120              		.cfi_offset 5, -8
ARM GAS  /var/folders/5c/srt4fy4j1pd641bjfx75k5000000gn/T//ccSIFQlc.s 			page 26


 1121              		.cfi_offset 14, -4
 1122              		.pad #12
 1123 0002 83B0     		sub	sp, sp, #12
 1124              	.LCFI8:
 1125              		.cfi_def_cfa_offset 24
 1126 0004 0446     		mov	r4, r0
  85:src/unit/robot/robot.cpp ****       static const uint8_t HEADER = 0xFF;   // ヘッダ
 1127              		.loc 1 85 7 is_stmt 1 view .LVU315
  86:src/unit/robot/robot.cpp ****       static const uint8_t FOOTER = 0xAA;   // ヘッダ
 1128              		.loc 1 86 7 view .LVU316
  87:src/unit/robot/robot.cpp ****       static const uint8_t data_size = 6;   // データのサイズ
 1129              		.loc 1 87 7 view .LVU317
  88:src/unit/robot/robot.cpp ****       static uint8_t index = 0;             // 受信したデータのインデックスカウン
 1130              		.loc 1 88 7 view .LVU318
  89:src/unit/robot/robot.cpp ****       static uint8_t recv_data[data_size];  // 受信したデータ
 1131              		.loc 1 89 7 view .LVU319
  90:src/unit/robot/robot.cpp ****       static uint8_t recv_byte;
 1132              		.loc 1 90 7 view .LVU320
  91:src/unit/robot/robot.cpp **** 
  92:src/unit/robot/robot.cpp ****       while (serial2.available()) {
 1133              		.loc 1 92 7 view .LVU321
 1134 0006 0BE0     		b	.L36
 1135              	.LVL99:
 1136              	.L47:
  93:src/unit/robot/robot.cpp ****             recv_byte = serial2.read();
  94:src/unit/robot/robot.cpp ****             if (index == 0) {
  95:src/unit/robot/robot.cpp ****                   if (recv_byte == HEADER) {
  96:src/unit/robot/robot.cpp ****                         index++;
 1137              		.loc 1 96 25 view .LVU322
 1138              		.loc 1 96 30 is_stmt 0 view .LVU323
 1139 0008 0133     		adds	r3, r3, #1
 1140 000a 334A     		ldr	r2, .L50
 1141 000c 1370     		strb	r3, [r2]
 1142 000e 07E0     		b	.L36
 1143              	.L37:
  97:src/unit/robot/robot.cpp ****                   } else {
  98:src/unit/robot/robot.cpp ****                         index = 0;
  99:src/unit/robot/robot.cpp ****                   }
 100:src/unit/robot/robot.cpp ****             } else if (index == (data_size + 1)) {
 1144              		.loc 1 100 20 is_stmt 1 view .LVU324
 1145 0010 072B     		cmp	r3, #7
 1146 0012 23D0     		beq	.L45
 101:src/unit/robot/robot.cpp ****                   if (recv_byte == FOOTER) {
 102:src/unit/robot/robot.cpp ****                         info.motor_rps[0] = recv_data[0];
 103:src/unit/robot/robot.cpp ****                         info.motor_rps[1] = recv_data[1];
 104:src/unit/robot/robot.cpp ****                         info.motor_rps[2] = recv_data[2];
 105:src/unit/robot/robot.cpp ****                         info.motor_rps[3] = recv_data[3];
 106:src/unit/robot/robot.cpp ****                         info.Line.interval = recv_data[4] >> 4;
 107:src/unit/robot/robot.cpp ****                         info.Line.is_on_line = (recv_data[4] >> 3) & 1;
 108:src/unit/robot/robot.cpp ****                         info.Line.is_half_out = (recv_data[4] >> 2) & 1;
 109:src/unit/robot/robot.cpp ****                         info.Line.is_leftside = (recv_data[4] >> 1) & 1;
 110:src/unit/robot/robot.cpp ****                         info.Line.is_rightside = recv_data[4] & 1;
 111:src/unit/robot/robot.cpp ****                         info.Line.dir = recv_data[5] * 2 - 180;
 112:src/unit/robot/robot.cpp ****                   }
 113:src/unit/robot/robot.cpp ****                   index = 0;
 114:src/unit/robot/robot.cpp ****             } else {
 115:src/unit/robot/robot.cpp ****                   recv_data[index - 1] = recv_byte;
ARM GAS  /var/folders/5c/srt4fy4j1pd641bjfx75k5000000gn/T//ccSIFQlc.s 			page 27


 1147              		.loc 1 115 19 view .LVU325
 1148              		.loc 1 115 35 is_stmt 0 view .LVU326
 1149 0014 5A1E     		subs	r2, r3, #1
 1150              		.loc 1 115 40 view .LVU327
 1151 0016 3149     		ldr	r1, .L50+4
 1152 0018 8854     		strb	r0, [r1, r2]
 116:src/unit/robot/robot.cpp ****                   index++;
 1153              		.loc 1 116 19 is_stmt 1 view .LVU328
 1154              		.loc 1 116 24 is_stmt 0 view .LVU329
 1155 001a 0133     		adds	r3, r3, #1
 1156 001c 2E4A     		ldr	r2, .L50
 1157 001e 1370     		strb	r3, [r2]
 1158              	.L36:
  92:src/unit/robot/robot.cpp ****             recv_byte = serial2.read();
 1159              		.loc 1 92 31 is_stmt 1 view .LVU330
 1160              	.LVL100:
 1161              	.LBB112:
 1162              	.LBI112:
  33:Lib/BufferedSerial/BufferedSerial.hpp ****             uint16_t rxTop = _rxBufSize - _huart->hdmarx->Instance->NDTR;
 1163              		.loc 2 33 12 view .LVU331
 1164              	.LBB113:
  34:Lib/BufferedSerial/BufferedSerial.hpp ****             return rxTop != rxBtm;
 1165              		.loc 2 34 13 view .LVU332
  34:Lib/BufferedSerial/BufferedSerial.hpp ****             return rxTop != rxBtm;
 1166              		.loc 2 34 30 is_stmt 0 view .LVU333
 1167 0020 B4F8203D 		ldrh	r3, [r4, #3360]
  34:Lib/BufferedSerial/BufferedSerial.hpp ****             return rxTop != rxBtm;
 1168              		.loc 2 34 43 view .LVU334
 1169 0024 D4F8142D 		ldr	r2, [r4, #3348]
  34:Lib/BufferedSerial/BufferedSerial.hpp ****             return rxTop != rxBtm;
 1170              		.loc 2 34 51 view .LVU335
 1171 0028 D26B     		ldr	r2, [r2, #60]
  34:Lib/BufferedSerial/BufferedSerial.hpp ****             return rxTop != rxBtm;
 1172              		.loc 2 34 59 view .LVU336
 1173 002a 1268     		ldr	r2, [r2]
  34:Lib/BufferedSerial/BufferedSerial.hpp ****             return rxTop != rxBtm;
 1174              		.loc 2 34 69 view .LVU337
 1175 002c 5268     		ldr	r2, [r2, #4]
  34:Lib/BufferedSerial/BufferedSerial.hpp ****             return rxTop != rxBtm;
 1176              		.loc 2 34 41 view .LVU338
 1177 002e 92B2     		uxth	r2, r2
  34:Lib/BufferedSerial/BufferedSerial.hpp ****             return rxTop != rxBtm;
 1178              		.loc 2 34 69 view .LVU339
 1179 0030 9B1A     		subs	r3, r3, r2
 1180 0032 9BB2     		uxth	r3, r3
 1181              	.LVL101:
  35:Lib/BufferedSerial/BufferedSerial.hpp ****       }
 1182              		.loc 2 35 13 is_stmt 1 view .LVU340
  35:Lib/BufferedSerial/BufferedSerial.hpp ****       }
 1183              		.loc 2 35 29 is_stmt 0 view .LVU341
 1184 0034 B4F81E2D 		ldrh	r2, [r4, #3358]
 1185              	.LVL102:
  35:Lib/BufferedSerial/BufferedSerial.hpp ****       }
 1186              		.loc 2 35 29 view .LVU342
 1187              	.LBE113:
 1188              	.LBE112:
  92:src/unit/robot/robot.cpp ****             recv_byte = serial2.read();
ARM GAS  /var/folders/5c/srt4fy4j1pd641bjfx75k5000000gn/T//ccSIFQlc.s 			page 28


 1189              		.loc 1 92 31 view .LVU343
 1190 0038 9342     		cmp	r3, r2
 1191 003a 32D0     		beq	.L46
  93:src/unit/robot/robot.cpp ****             if (index == 0) {
 1192              		.loc 1 93 13 is_stmt 1 view .LVU344
  93:src/unit/robot/robot.cpp ****             if (index == 0) {
 1193              		.loc 1 93 37 is_stmt 0 view .LVU345
 1194 003c 04F61450 		addw	r0, r4, #3348
 1195 0040 FFF7FEFF 		bl	_ZN14BufferedSerial4readEv
 1196              	.LVL103:
  93:src/unit/robot/robot.cpp ****             if (index == 0) {
 1197              		.loc 1 93 23 view .LVU346
 1198 0044 264B     		ldr	r3, .L50+8
 1199 0046 1870     		strb	r0, [r3]
  94:src/unit/robot/robot.cpp ****                   if (recv_byte == HEADER) {
 1200              		.loc 1 94 13 is_stmt 1 view .LVU347
  94:src/unit/robot/robot.cpp ****                   if (recv_byte == HEADER) {
 1201              		.loc 1 94 23 is_stmt 0 view .LVU348
 1202 0048 234B     		ldr	r3, .L50
 1203 004a 1B78     		ldrb	r3, [r3]	@ zero_extendqisi2
  94:src/unit/robot/robot.cpp ****                   if (recv_byte == HEADER) {
 1204              		.loc 1 94 13 view .LVU349
 1205 004c 002B     		cmp	r3, #0
 1206 004e DFD1     		bne	.L37
  95:src/unit/robot/robot.cpp ****                         index++;
 1207              		.loc 1 95 19 is_stmt 1 view .LVU350
 1208 0050 FF28     		cmp	r0, #255
 1209 0052 D9D0     		beq	.L47
  98:src/unit/robot/robot.cpp ****                   }
 1210              		.loc 1 98 25 view .LVU351
  98:src/unit/robot/robot.cpp ****                   }
 1211              		.loc 1 98 31 is_stmt 0 view .LVU352
 1212 0054 204B     		ldr	r3, .L50
 1213 0056 0022     		movs	r2, #0
 1214 0058 1A70     		strb	r2, [r3]
 1215 005a E1E7     		b	.L36
 1216              	.L45:
 101:src/unit/robot/robot.cpp ****                         info.motor_rps[0] = recv_data[0];
 1217              		.loc 1 101 19 is_stmt 1 view .LVU353
 1218 005c AA28     		cmp	r0, #170
 1219 005e 03D0     		beq	.L48
 1220              	.L41:
 113:src/unit/robot/robot.cpp ****             } else {
 1221              		.loc 1 113 19 view .LVU354
 113:src/unit/robot/robot.cpp ****             } else {
 1222              		.loc 1 113 25 is_stmt 0 view .LVU355
 1223 0060 1D4B     		ldr	r3, .L50
 1224 0062 0022     		movs	r2, #0
 1225 0064 1A70     		strb	r2, [r3]
 1226 0066 DBE7     		b	.L36
 1227              	.L48:
 102:src/unit/robot/robot.cpp ****                         info.motor_rps[1] = recv_data[1];
 1228              		.loc 1 102 25 is_stmt 1 view .LVU356
 102:src/unit/robot/robot.cpp ****                         info.motor_rps[1] = recv_data[1];
 1229              		.loc 1 102 56 is_stmt 0 view .LVU357
 1230 0068 1C4A     		ldr	r2, .L50+4
 1231 006a 1378     		ldrb	r3, [r2]	@ zero_extendqisi2
ARM GAS  /var/folders/5c/srt4fy4j1pd641bjfx75k5000000gn/T//ccSIFQlc.s 			page 29


 102:src/unit/robot/robot.cpp ****                         info.motor_rps[1] = recv_data[1];
 1232              		.loc 1 102 43 view .LVU358
 1233 006c 2371     		strb	r3, [r4, #4]
 103:src/unit/robot/robot.cpp ****                         info.motor_rps[2] = recv_data[2];
 1234              		.loc 1 103 25 is_stmt 1 view .LVU359
 103:src/unit/robot/robot.cpp ****                         info.motor_rps[2] = recv_data[2];
 1235              		.loc 1 103 56 is_stmt 0 view .LVU360
 1236 006e 5378     		ldrb	r3, [r2, #1]	@ zero_extendqisi2
 103:src/unit/robot/robot.cpp ****                         info.motor_rps[2] = recv_data[2];
 1237              		.loc 1 103 43 view .LVU361
 1238 0070 6371     		strb	r3, [r4, #5]
 104:src/unit/robot/robot.cpp ****                         info.motor_rps[3] = recv_data[3];
 1239              		.loc 1 104 25 is_stmt 1 view .LVU362
 104:src/unit/robot/robot.cpp ****                         info.motor_rps[3] = recv_data[3];
 1240              		.loc 1 104 56 is_stmt 0 view .LVU363
 1241 0072 9378     		ldrb	r3, [r2, #2]	@ zero_extendqisi2
 104:src/unit/robot/robot.cpp ****                         info.motor_rps[3] = recv_data[3];
 1242              		.loc 1 104 43 view .LVU364
 1243 0074 A371     		strb	r3, [r4, #6]
 105:src/unit/robot/robot.cpp ****                         info.Line.interval = recv_data[4] >> 4;
 1244              		.loc 1 105 25 is_stmt 1 view .LVU365
 105:src/unit/robot/robot.cpp ****                         info.Line.interval = recv_data[4] >> 4;
 1245              		.loc 1 105 56 is_stmt 0 view .LVU366
 1246 0076 D378     		ldrb	r3, [r2, #3]	@ zero_extendqisi2
 105:src/unit/robot/robot.cpp ****                         info.Line.interval = recv_data[4] >> 4;
 1247              		.loc 1 105 43 view .LVU367
 1248 0078 E371     		strb	r3, [r4, #7]
 106:src/unit/robot/robot.cpp ****                         info.Line.is_on_line = (recv_data[4] >> 3) & 1;
 1249              		.loc 1 106 25 is_stmt 1 view .LVU368
 106:src/unit/robot/robot.cpp ****                         info.Line.is_on_line = (recv_data[4] >> 3) & 1;
 1250              		.loc 1 106 57 is_stmt 0 view .LVU369
 1251 007a 1379     		ldrb	r3, [r2, #4]	@ zero_extendqisi2
 106:src/unit/robot/robot.cpp ****                         info.Line.is_on_line = (recv_data[4] >> 3) & 1;
 1252              		.loc 1 106 59 view .LVU370
 1253 007c 1909     		lsrs	r1, r3, #4
 106:src/unit/robot/robot.cpp ****                         info.Line.is_on_line = (recv_data[4] >> 3) & 1;
 1254              		.loc 1 106 44 view .LVU371
 1255 007e 2172     		strb	r1, [r4, #8]
 107:src/unit/robot/robot.cpp ****                         info.Line.is_half_out = (recv_data[4] >> 2) & 1;
 1256              		.loc 1 107 25 is_stmt 1 view .LVU372
 107:src/unit/robot/robot.cpp ****                         info.Line.is_half_out = (recv_data[4] >> 2) & 1;
 1257              		.loc 1 107 68 is_stmt 0 view .LVU373
 1258 0080 C3F3C001 		ubfx	r1, r3, #3, #1
 107:src/unit/robot/robot.cpp ****                         info.Line.is_half_out = (recv_data[4] >> 2) & 1;
 1259              		.loc 1 107 46 view .LVU374
 1260 0084 6172     		strb	r1, [r4, #9]
 108:src/unit/robot/robot.cpp ****                         info.Line.is_leftside = (recv_data[4] >> 1) & 1;
 1261              		.loc 1 108 25 is_stmt 1 view .LVU375
 108:src/unit/robot/robot.cpp ****                         info.Line.is_leftside = (recv_data[4] >> 1) & 1;
 1262              		.loc 1 108 69 is_stmt 0 view .LVU376
 1263 0086 C3F38001 		ubfx	r1, r3, #2, #1
 108:src/unit/robot/robot.cpp ****                         info.Line.is_leftside = (recv_data[4] >> 1) & 1;
 1264              		.loc 1 108 47 view .LVU377
 1265 008a A172     		strb	r1, [r4, #10]
 109:src/unit/robot/robot.cpp ****                         info.Line.is_rightside = recv_data[4] & 1;
 1266              		.loc 1 109 25 is_stmt 1 view .LVU378
 109:src/unit/robot/robot.cpp ****                         info.Line.is_rightside = recv_data[4] & 1;
ARM GAS  /var/folders/5c/srt4fy4j1pd641bjfx75k5000000gn/T//ccSIFQlc.s 			page 30


 1267              		.loc 1 109 69 is_stmt 0 view .LVU379
 1268 008c C3F34001 		ubfx	r1, r3, #1, #1
 109:src/unit/robot/robot.cpp ****                         info.Line.is_rightside = recv_data[4] & 1;
 1269              		.loc 1 109 47 view .LVU380
 1270 0090 E172     		strb	r1, [r4, #11]
 110:src/unit/robot/robot.cpp ****                         info.Line.dir = recv_data[5] * 2 - 180;
 1271              		.loc 1 110 25 is_stmt 1 view .LVU381
 110:src/unit/robot/robot.cpp ****                         info.Line.dir = recv_data[5] * 2 - 180;
 1272              		.loc 1 110 63 is_stmt 0 view .LVU382
 1273 0092 03F00103 		and	r3, r3, #1
 110:src/unit/robot/robot.cpp ****                         info.Line.dir = recv_data[5] * 2 - 180;
 1274              		.loc 1 110 48 view .LVU383
 1275 0096 2373     		strb	r3, [r4, #12]
 111:src/unit/robot/robot.cpp ****                   }
 1276              		.loc 1 111 25 is_stmt 1 view .LVU384
 111:src/unit/robot/robot.cpp ****                   }
 1277              		.loc 1 111 52 is_stmt 0 view .LVU385
 1278 0098 5379     		ldrb	r3, [r2, #5]	@ zero_extendqisi2
 111:src/unit/robot/robot.cpp ****                   }
 1279              		.loc 1 111 58 view .LVU386
 1280 009a 5A3B     		subs	r3, r3, #90
 111:src/unit/robot/robot.cpp ****                   }
 1281              		.loc 1 111 39 view .LVU387
 1282 009c 5B00     		lsls	r3, r3, #1
 1283 009e E381     		strh	r3, [r4, #14]	@ movhi
 1284 00a0 DEE7     		b	.L41
 1285              	.L46:
 117:src/unit/robot/robot.cpp ****             }
 118:src/unit/robot/robot.cpp ****       }
 119:src/unit/robot/robot.cpp **** 
 120:src/unit/robot/robot.cpp ****       if (line_send_interval_timer.read_us() >= LINE_SEND_PERIOD_US) {
 1286              		.loc 1 120 7 is_stmt 1 view .LVU388
 1287              		.loc 1 120 43 is_stmt 0 view .LVU389
 1288 00a2 04F62455 		addw	r5, r4, #3364
 1289 00a6 2846     		mov	r0, r5
 1290 00a8 FFF7FEFF 		bl	_ZN5Timer7read_usEv
 1291              	.LVL104:
 1292              		.loc 1 120 7 view .LVU390
 1293 00ac 42F20F73 		movw	r3, #9999
 1294 00b0 9842     		cmp	r0, r3
 1295 00b2 01D8     		bhi	.L49
 1296              	.L35:
 121:src/unit/robot/robot.cpp ****             serial2.write(info.Line.on_led);
 122:src/unit/robot/robot.cpp ****             line_send_interval_timer.reset();
 123:src/unit/robot/robot.cpp ****       }
 124:src/unit/robot/robot.cpp **** }...
 1297              		.loc 1 124 1 view .LVU391
 1298 00b4 03B0     		add	sp, sp, #12
 1299              	.LCFI9:
 1300              		.cfi_remember_state
 1301              		.cfi_def_cfa_offset 12
 1302              		@ sp needed
 1303 00b6 30BD     		pop	{r4, r5, pc}
 1304              	.LVL105:
 1305              	.L49:
 1306              	.LCFI10:
 1307              		.cfi_restore_state
ARM GAS  /var/folders/5c/srt4fy4j1pd641bjfx75k5000000gn/T//ccSIFQlc.s 			page 31


 121:src/unit/robot/robot.cpp ****             serial2.write(info.Line.on_led);
 1308              		.loc 1 121 13 is_stmt 1 view .LVU392
 121:src/unit/robot/robot.cpp ****             serial2.write(info.Line.on_led);
 1309              		.loc 1 121 37 is_stmt 0 view .LVU393
 1310 00b8 A37C     		ldrb	r3, [r4, #18]	@ zero_extendqisi2
 1311              	.LVL106:
 121:src/unit/robot/robot.cpp ****             serial2.write(info.Line.on_led);
 1312              		.loc 1 121 37 view .LVU394
 1313 00ba 8DF80730 		strb	r3, [sp, #7]
 1314              	.LVL107:
 1315              	.LBB114:
 1316              	.LBI114:
  48:Lib/BufferedSerial/BufferedSerial.hpp **** 
  49:Lib/BufferedSerial/BufferedSerial.hpp ****       void write(uint8_t data) {
 1317              		.loc 2 49 12 is_stmt 1 view .LVU395
 1318              	.LBB115:
  50:Lib/BufferedSerial/BufferedSerial.hpp ****             HAL_UART_Transmit(_huart, &data, 1, 100);
 1319              		.loc 2 50 13 view .LVU396
 1320              		.loc 2 50 30 is_stmt 0 view .LVU397
 1321 00be 6423     		movs	r3, #100
 1322              	.LVL108:
 1323              		.loc 2 50 30 view .LVU398
 1324 00c0 0122     		movs	r2, #1
 1325 00c2 0DF10701 		add	r1, sp, #7
 1326              	.LVL109:
 1327              		.loc 2 50 30 view .LVU399
 1328 00c6 D4F8140D 		ldr	r0, [r4, #3348]
 1329 00ca FFF7FEFF 		bl	HAL_UART_Transmit
 1330              	.LVL110:
 1331              		.loc 2 50 30 view .LVU400
 1332              	.LBE115:
 1333              	.LBE114:
 122:src/unit/robot/robot.cpp ****             line_send_interval_timer.reset();
 1334              		.loc 1 122 13 is_stmt 1 view .LVU401
 122:src/unit/robot/robot.cpp ****             line_send_interval_timer.reset();
 1335              		.loc 1 122 43 is_stmt 0 view .LVU402
 1336 00ce 2846     		mov	r0, r5
 1337 00d0 FFF7FEFF 		bl	_ZN5Timer5resetEv
 1338              	.LVL111:
 1339              		.loc 1 124 1 view .LVU403
 1340 00d4 EEE7     		b	.L35
 1341              	.L51:
 1342 00d6 00BF     		.align	2
 1343              	.L50:
 1344 00d8 00000000 		.word	_ZZN5Robot8LineUartEvE5index
 1345 00dc 00000000 		.word	_ZZN5Robot8LineUartEvE9recv_data
 1346 00e0 00000000 		.word	_ZZN5Robot8LineUartEvE9recv_byte
 1347              		.cfi_endproc
 1348              	.LFE276:
 1349              		.fnend
 1351              		.section	.bss._ZZN5Robot8LineUartEvE9recv_byte,"aw",%nobits
 1354              	_ZZN5Robot8LineUartEvE9recv_byte:
 1355 0000 00       		.space	1
 1356              		.section	.bss._ZZN5Robot8LineUartEvE9recv_data,"aw",%nobits
 1357              		.align	2
 1360              	_ZZN5Robot8LineUartEvE9recv_data:
 1361 0000 00000000 		.space	6
ARM GAS  /var/folders/5c/srt4fy4j1pd641bjfx75k5000000gn/T//ccSIFQlc.s 			page 32


 1361      0000
 1362              		.section	.bss._ZZN5Robot8LineUartEvE5index,"aw",%nobits
 1365              	_ZZN5Robot8LineUartEvE5index:
 1366 0000 00       		.space	1
 1367              		.section	.bss._ZZN5Robot7ImuUartEvE9recv_byte,"aw",%nobits
 1370              	_ZZN5Robot7ImuUartEvE9recv_byte:
 1371 0000 00       		.space	1
 1372              		.section	.bss._ZZN5Robot7ImuUartEvE9recv_data,"aw",%nobits
 1373              		.align	2
 1376              	_ZZN5Robot7ImuUartEvE9recv_data:
 1377 0000 00000000 		.space	6
 1377      0000
 1378              		.section	.bss._ZZN5Robot7ImuUartEvE5index,"aw",%nobits
 1381              	_ZZN5Robot7ImuUartEvE5index:
 1382 0000 00       		.space	1
 1383              		.global	adc_get_val
 1384              		.section	.bss.adc_get_val,"aw",%nobits
 1385              		.align	2
 1388              	adc_get_val:
 1389 0000 00000000 		.space	6
 1389      0000
 1390              		.text
 1391              	.Letext0:
 1392              		.file 5 "/opt/ST/STM32CubeCLT_1.16.0/GNU-tools-for-STM32/arm-none-eabi/include/machine/_default_ty
 1393              		.file 6 "/opt/ST/STM32CubeCLT_1.16.0/GNU-tools-for-STM32/lib/gcc/arm-none-eabi/12.3.1/include/stdd
 1394              		.file 7 "/opt/ST/STM32CubeCLT_1.16.0/GNU-tools-for-STM32/arm-none-eabi/include/sys/_types.h"
 1395              		.file 8 "/opt/ST/STM32CubeCLT_1.16.0/GNU-tools-for-STM32/arm-none-eabi/include/sys/reent.h"
 1396              		.file 9 "/opt/ST/STM32CubeCLT_1.16.0/GNU-tools-for-STM32/arm-none-eabi/include/sys/lock.h"
 1397              		.file 10 "/opt/ST/STM32CubeCLT_1.16.0/GNU-tools-for-STM32/arm-none-eabi/include/stdio.h"
 1398              		.file 11 "/opt/ST/STM32CubeCLT_1.16.0/GNU-tools-for-STM32/arm-none-eabi/include/sys/_stdint.h"
 1399              		.file 12 "Drivers/CMSIS/Device/ST/STM32F4xx/Include/stm32f446xx.h"
 1400              		.file 13 "Drivers/CMSIS/Device/ST/STM32F4xx/Include/stm32f4xx.h"
 1401              		.file 14 "Drivers/STM32F4xx_HAL_Driver/Inc/stm32f4xx_hal_def.h"
 1402              		.file 15 "Drivers/STM32F4xx_HAL_Driver/Inc/stm32f4xx_hal_gpio.h"
 1403              		.file 16 "Drivers/STM32F4xx_HAL_Driver/Inc/stm32f4xx_hal_dma.h"
 1404              		.file 17 "Drivers/STM32F4xx_HAL_Driver/Inc/stm32f4xx_hal_adc.h"
 1405              		.file 18 "Drivers/STM32F4xx_HAL_Driver/Inc/stm32f4xx_hal_tim.h"
 1406              		.file 19 "Drivers/STM32F4xx_HAL_Driver/Inc/stm32f4xx_hal_uart.h"
 1407              		.file 20 "Drivers/STM32F4xx_HAL_Driver/Inc/stm32f4xx_hal.h"
 1408              		.file 21 "Core/Inc/usart.h"
 1409              		.file 22 "Lib/MovingAve/MovingAve.hpp"
 1410              		.file 23 "/opt/ST/STM32CubeCLT_1.16.0/GNU-tools-for-STM32/arm-none-eabi/include/c++/12.3.1/cstdio"
 1411              		.file 24 "/opt/ST/STM32CubeCLT_1.16.0/GNU-tools-for-STM32/arm-none-eabi/include/c++/12.3.1/arm-non
 1412              		.file 25 "Core/Inc/tim.h"
 1413              		.file 26 "Lib/Timer/Timer.hpp"
 1414              		.file 27 "Core/Inc/adc.h"
 1415              		.file 28 "src/unit/dribbler_drive/dribbler_drive.hpp"
 1416              		.file 29 "src/unit/kicker/kicker.hpp"
 1417              		.file 30 "Lib/pid/pid.hpp"
 1418              		.file 31 "src/unit/motor_drive/motor_drive.hpp"
 1419              		.file 32 "src/unit/robot/robot.hpp"
ARM GAS  /var/folders/5c/srt4fy4j1pd641bjfx75k5000000gn/T//ccSIFQlc.s 			page 33


DEFINED SYMBOLS
                            *ABS*:00000000 robot.cpp
/var/folders/5c/srt4fy4j1pd641bjfx75k5000000gn/T//ccSIFQlc.s:21     .text._ZN14BufferedSerial4readEv:00000000 $t
/var/folders/5c/srt4fy4j1pd641bjfx75k5000000gn/T//ccSIFQlc.s:27     .text._ZN14BufferedSerial4readEv:00000000 _ZN14BufferedSerial4readEv
.ARM.exidx.text._ZN14BufferedSerial4readEv:00000000 $d
/var/folders/5c/srt4fy4j1pd641bjfx75k5000000gn/T//ccSIFQlc.s:93     .text._ZN12PwmSingleOut4initEv:00000000 $t
/var/folders/5c/srt4fy4j1pd641bjfx75k5000000gn/T//ccSIFQlc.s:99     .text._ZN12PwmSingleOut4initEv:00000000 _ZN12PwmSingleOut4initEv
.ARM.exidx.text._ZN12PwmSingleOut4initEv:00000000 $d
/var/folders/5c/srt4fy4j1pd641bjfx75k5000000gn/T//ccSIFQlc.s:139    .text._ZN5RobotC2Ev:00000000 $t
/var/folders/5c/srt4fy4j1pd641bjfx75k5000000gn/T//ccSIFQlc.s:145    .text._ZN5RobotC2Ev:00000000 _ZN5RobotC2Ev
/var/folders/5c/srt4fy4j1pd641bjfx75k5000000gn/T//ccSIFQlc.s:546    .text._ZN5RobotC2Ev:000001ac $d
    .ARM.exidx.text._ZN5RobotC2Ev:00000000 $d
/var/folders/5c/srt4fy4j1pd641bjfx75k5000000gn/T//ccSIFQlc.s:145    .text._ZN5RobotC2Ev:00000000 _ZN5RobotC1Ev
/var/folders/5c/srt4fy4j1pd641bjfx75k5000000gn/T//ccSIFQlc.s:562    .text._ZN5Robot12HardwareInitEv:00000000 $t
/var/folders/5c/srt4fy4j1pd641bjfx75k5000000gn/T//ccSIFQlc.s:568    .text._ZN5Robot12HardwareInitEv:00000000 _ZN5Robot12HardwareInitEv
/var/folders/5c/srt4fy4j1pd641bjfx75k5000000gn/T//ccSIFQlc.s:759    .text._ZN5Robot12HardwareInitEv:000000e0 $d
/var/folders/5c/srt4fy4j1pd641bjfx75k5000000gn/T//ccSIFQlc.s:1388   .bss.adc_get_val:00000000 adc_get_val
.ARM.exidx.text._ZN5Robot12HardwareInitEv:00000000 $d
/var/folders/5c/srt4fy4j1pd641bjfx75k5000000gn/T//ccSIFQlc.s:767    .text._ZN5Robot10GetSensorsEv:00000000 $t
/var/folders/5c/srt4fy4j1pd641bjfx75k5000000gn/T//ccSIFQlc.s:773    .text._ZN5Robot10GetSensorsEv:00000000 _ZN5Robot10GetSensorsEv
/var/folders/5c/srt4fy4j1pd641bjfx75k5000000gn/T//ccSIFQlc.s:877    .text._ZN5Robot10GetSensorsEv:00000084 $d
.ARM.exidx.text._ZN5Robot10GetSensorsEv:00000000 $d
/var/folders/5c/srt4fy4j1pd641bjfx75k5000000gn/T//ccSIFQlc.s:888    .text._ZN5Robot7ImuUartEv:00000000 $t
/var/folders/5c/srt4fy4j1pd641bjfx75k5000000gn/T//ccSIFQlc.s:894    .text._ZN5Robot7ImuUartEv:00000000 _ZN5Robot7ImuUartEv
/var/folders/5c/srt4fy4j1pd641bjfx75k5000000gn/T//ccSIFQlc.s:1088   .text._ZN5Robot7ImuUartEv:000000d8 $d
/var/folders/5c/srt4fy4j1pd641bjfx75k5000000gn/T//ccSIFQlc.s:1381   .bss._ZZN5Robot7ImuUartEvE5index:00000000 _ZZN5Robot7ImuUartEvE5index
/var/folders/5c/srt4fy4j1pd641bjfx75k5000000gn/T//ccSIFQlc.s:1376   .bss._ZZN5Robot7ImuUartEvE9recv_data:00000000 _ZZN5Robot7ImuUartEvE9recv_data
/var/folders/5c/srt4fy4j1pd641bjfx75k5000000gn/T//ccSIFQlc.s:1370   .bss._ZZN5Robot7ImuUartEvE9recv_byte:00000000 _ZZN5Robot7ImuUartEvE9recv_byte
.ARM.exidx.text._ZN5Robot7ImuUartEv:00000000 $d
/var/folders/5c/srt4fy4j1pd641bjfx75k5000000gn/T//ccSIFQlc.s:1100   .text._ZN5Robot8LineUartEv:00000000 $t
/var/folders/5c/srt4fy4j1pd641bjfx75k5000000gn/T//ccSIFQlc.s:1106   .text._ZN5Robot8LineUartEv:00000000 _ZN5Robot8LineUartEv
/var/folders/5c/srt4fy4j1pd641bjfx75k5000000gn/T//ccSIFQlc.s:1344   .text._ZN5Robot8LineUartEv:000000d8 $d
/var/folders/5c/srt4fy4j1pd641bjfx75k5000000gn/T//ccSIFQlc.s:1365   .bss._ZZN5Robot8LineUartEvE5index:00000000 _ZZN5Robot8LineUartEvE5index
/var/folders/5c/srt4fy4j1pd641bjfx75k5000000gn/T//ccSIFQlc.s:1360   .bss._ZZN5Robot8LineUartEvE9recv_data:00000000 _ZZN5Robot8LineUartEvE9recv_data
/var/folders/5c/srt4fy4j1pd641bjfx75k5000000gn/T//ccSIFQlc.s:1354   .bss._ZZN5Robot8LineUartEvE9recv_byte:00000000 _ZZN5Robot8LineUartEvE9recv_byte
.ARM.exidx.text._ZN5Robot8LineUartEv:00000000 $d
/var/folders/5c/srt4fy4j1pd641bjfx75k5000000gn/T//ccSIFQlc.s:1355   .bss._ZZN5Robot8LineUartEvE9recv_byte:00000000 $d
/var/folders/5c/srt4fy4j1pd641bjfx75k5000000gn/T//ccSIFQlc.s:1357   .bss._ZZN5Robot8LineUartEvE9recv_data:00000000 $d
/var/folders/5c/srt4fy4j1pd641bjfx75k5000000gn/T//ccSIFQlc.s:1366   .bss._ZZN5Robot8LineUartEvE5index:00000000 $d
/var/folders/5c/srt4fy4j1pd641bjfx75k5000000gn/T//ccSIFQlc.s:1371   .bss._ZZN5Robot7ImuUartEvE9recv_byte:00000000 $d
/var/folders/5c/srt4fy4j1pd641bjfx75k5000000gn/T//ccSIFQlc.s:1373   .bss._ZZN5Robot7ImuUartEvE9recv_data:00000000 $d
/var/folders/5c/srt4fy4j1pd641bjfx75k5000000gn/T//ccSIFQlc.s:1382   .bss._ZZN5Robot7ImuUartEvE5index:00000000 $d
/var/folders/5c/srt4fy4j1pd641bjfx75k5000000gn/T//ccSIFQlc.s:1385   .bss.adc_get_val:00000000 $d

UNDEFINED SYMBOLS
HAL_TIM_PWM_Start
__aeabi_unwind_cpp_pr0
HAL_GPIO_WritePin
_ZN10MotorDriveC1EP12PwmSingleOutS1_S1_S1_S1_S1_S1_S1_PsPh
_ZN13DribblerDriveC1EP12PwmSingleOutS1_
_ZN6KickerC1EP10DigitalOutS1_
_Znaj
_ZN5TimerC1Ev
_ZN9MovingAve9SetLengthEh
htim13
htim12
htim2
ARM GAS  /var/folders/5c/srt4fy4j1pd641bjfx75k5000000gn/T//ccSIFQlc.s 			page 34


htim3
htim4
huart1
huart2
HAL_ADC_Start
HAL_ADC_Start_DMA
HAL_UART_Receive_DMA
_ZN10MotorDrive15CheckConnectionEv
HAL_Delay
_ZN13DribblerDrive15CheckConnectionEv
hadc1
__aeabi_d2uiz
_ZN9MovingAve7ComputeEf
_ZN9MovingAve3GetEv
__aeabi_i2d
__aeabi_dmul
__aeabi_dsub
__aeabi_d2iz
_ZN5Timer7read_usEv
HAL_UART_Transmit
_ZN5Timer5resetEv
