ARM GAS  /var/folders/5c/srt4fy4j1pd641bjfx75k5000000gn/T//ccFHb7ij.s 			page 1


   1              		.cpu cortex-m4
   2              		.arch armv7e-m
   3              		.fpu fpv4-sp-d16
   4              		.eabi_attribute 27, 1
   5              		.eabi_attribute 28, 1
   6              		.eabi_attribute 20, 1
   7              		.eabi_attribute 21, 1
   8              		.eabi_attribute 23, 3
   9              		.eabi_attribute 24, 1
  10              		.eabi_attribute 25, 1
  11              		.eabi_attribute 26, 1
  12              		.eabi_attribute 30, 1
  13              		.eabi_attribute 34, 1
  14              		.eabi_attribute 18, 4
  15              		.file	"robot.cpp"
  16              		.text
  17              	.Ltext0:
  18              		.cfi_sections	.debug_frame
  19              		.file 1 "src/unit/robot/robot.cpp"
  20              		.section	.text._ZN14BufferedSerial4readEv,"axG",%progbits,_ZN14BufferedSerial4readEv,comdat
  21              		.align	1
  22              		.weak	_ZN14BufferedSerial4readEv
  23              		.syntax unified
  24              		.thumb
  25              		.thumb_func
  27              	_ZN14BufferedSerial4readEv:
  28              		.fnstart
  29              	.LVL0:
  30              	.LFB245:
  31              		.file 2 "Lib/BufferedSerial/BufferedSerial.hpp"
   1:Lib/BufferedSerial/BufferedSerial.hpp **** #ifndef __BUFFERED_SERIAL__
   2:Lib/BufferedSerial/BufferedSerial.hpp **** #define __BUFFERED_SERIAL__
   3:Lib/BufferedSerial/BufferedSerial.hpp **** 
   4:Lib/BufferedSerial/BufferedSerial.hpp **** #include <stdio.h>
   5:Lib/BufferedSerial/BufferedSerial.hpp **** 
   6:Lib/BufferedSerial/BufferedSerial.hpp **** #include "usart.h"
   7:Lib/BufferedSerial/BufferedSerial.hpp **** 
   8:Lib/BufferedSerial/BufferedSerial.hpp **** #ifdef __cplusplus
   9:Lib/BufferedSerial/BufferedSerial.hpp **** 
  10:Lib/BufferedSerial/BufferedSerial.hpp **** /*
  11:Lib/BufferedSerial/BufferedSerial.hpp ****  Initの順番をDMAが先になるようにする
  12:Lib/BufferedSerial/BufferedSerial.hpp ****  - MX_DMA_Init();
  13:Lib/BufferedSerial/BufferedSerial.hpp ****  - MX_USART2_UART_Init();
  14:Lib/BufferedSerial/BufferedSerial.hpp ****  - DMAはCircularモードにする
  15:Lib/BufferedSerial/BufferedSerial.hpp **** */
  16:Lib/BufferedSerial/BufferedSerial.hpp **** 
  17:Lib/BufferedSerial/BufferedSerial.hpp **** class BufferedSerial {
  18:Lib/BufferedSerial/BufferedSerial.hpp ****      public:
  19:Lib/BufferedSerial/BufferedSerial.hpp ****       BufferedSerial(UART_HandleTypeDef *huart, uint16_t rxBufSize)
  20:Lib/BufferedSerial/BufferedSerial.hpp ****           : _huart(huart),
  21:Lib/BufferedSerial/BufferedSerial.hpp ****             _rxBuf(new uint8_t[rxBufSize]),
  22:Lib/BufferedSerial/BufferedSerial.hpp ****             rxTop(0),
  23:Lib/BufferedSerial/BufferedSerial.hpp ****             rxBtm(0),
  24:Lib/BufferedSerial/BufferedSerial.hpp ****             _rxBufSize(rxBufSize),
  25:Lib/BufferedSerial/BufferedSerial.hpp ****             _useDMA(false) {
  26:Lib/BufferedSerial/BufferedSerial.hpp ****       }
  27:Lib/BufferedSerial/BufferedSerial.hpp ****       void init(bool dma = false) {
ARM GAS  /var/folders/5c/srt4fy4j1pd641bjfx75k5000000gn/T//ccFHb7ij.s 			page 2


  28:Lib/BufferedSerial/BufferedSerial.hpp ****             _useDMA = dma;
  29:Lib/BufferedSerial/BufferedSerial.hpp ****             HAL_UART_Receive_DMA(_huart, _rxBuf, _rxBufSize);
  30:Lib/BufferedSerial/BufferedSerial.hpp ****             // printf("- Serial init\n");
  31:Lib/BufferedSerial/BufferedSerial.hpp ****       }
  32:Lib/BufferedSerial/BufferedSerial.hpp **** 
  33:Lib/BufferedSerial/BufferedSerial.hpp ****       bool available() {
  34:Lib/BufferedSerial/BufferedSerial.hpp ****             uint16_t rxTop = _rxBufSize - _huart->hdmarx->Instance->NDTR;
  35:Lib/BufferedSerial/BufferedSerial.hpp ****             return rxTop != rxBtm;
  36:Lib/BufferedSerial/BufferedSerial.hpp ****       }
  37:Lib/BufferedSerial/BufferedSerial.hpp **** 
  38:Lib/BufferedSerial/BufferedSerial.hpp ****       uint8_t read() {
  32              		.loc 2 38 15 view -0
  33              		.cfi_startproc
  34              		@ args = 0, pretend = 0, frame = 0
  35              		@ frame_needed = 0, uses_anonymous_args = 0
  36              		@ link register save eliminated.
  37              		.loc 2 38 15 is_stmt 0 view .LVU1
  38 0000 0246     		mov	r2, r0
  39:Lib/BufferedSerial/BufferedSerial.hpp ****             uint16_t rxTop = _rxBufSize - _huart->hdmarx->Instance->NDTR;
  39              		.loc 2 39 13 is_stmt 1 view .LVU2
  40              		.loc 2 39 30 is_stmt 0 view .LVU3
  41 0002 B0F80CC0 		ldrh	ip, [r0, #12]
  42              		.loc 2 39 43 view .LVU4
  43 0006 0368     		ldr	r3, [r0]
  44              		.loc 2 39 51 view .LVU5
  45 0008 DB6B     		ldr	r3, [r3, #60]
  46              		.loc 2 39 59 view .LVU6
  47 000a 1B68     		ldr	r3, [r3]
  48              		.loc 2 39 69 view .LVU7
  49 000c 5B68     		ldr	r3, [r3, #4]
  50              		.loc 2 39 41 view .LVU8
  51 000e 9BB2     		uxth	r3, r3
  52              		.loc 2 39 69 view .LVU9
  53 0010 ACEB0303 		sub	r3, ip, r3
  54 0014 9BB2     		uxth	r3, r3
  55              	.LVL1:
  40:Lib/BufferedSerial/BufferedSerial.hpp ****             if (rxTop == rxBtm) {
  56              		.loc 2 40 13 is_stmt 1 view .LVU10
  57              		.loc 2 40 26 is_stmt 0 view .LVU11
  58 0016 4189     		ldrh	r1, [r0, #10]
  59              		.loc 2 40 13 view .LVU12
  60 0018 9942     		cmp	r1, r3
  61 001a 08D0     		beq	.L3
  41:Lib/BufferedSerial/BufferedSerial.hpp ****                   return 0;
  42:Lib/BufferedSerial/BufferedSerial.hpp ****             }
  43:Lib/BufferedSerial/BufferedSerial.hpp ****             uint8_t data = _rxBuf[rxBtm];
  62              		.loc 2 43 13 is_stmt 1 view .LVU13
  63              		.loc 2 43 28 is_stmt 0 view .LVU14
  64 001c 4368     		ldr	r3, [r0, #4]
  65              	.LVL2:
  66              		.loc 2 43 21 view .LVU15
  67 001e 585C     		ldrb	r0, [r3, r1]	@ zero_extendqisi2
  68              	.LVL3:
  44:Lib/BufferedSerial/BufferedSerial.hpp ****             rxBtm = (rxBtm + 1) % _rxBufSize;
  69              		.loc 2 44 13 is_stmt 1 view .LVU16
  70              		.loc 2 44 28 is_stmt 0 view .LVU17
  71 0020 0131     		adds	r1, r1, #1
ARM GAS  /var/folders/5c/srt4fy4j1pd641bjfx75k5000000gn/T//ccFHb7ij.s 			page 3


  72              		.loc 2 44 33 view .LVU18
  73 0022 91FBFCF3 		sdiv	r3, r1, ip
  74 0026 0CFB1311 		mls	r1, ip, r3, r1
  75              		.loc 2 44 19 view .LVU19
  76 002a 5181     		strh	r1, [r2, #10]	@ movhi
  45:Lib/BufferedSerial/BufferedSerial.hpp ****             // printf("top:%d btm:%d NDTR:%d data:%d\n", rxTop, rxBtm, _huart->hdmarx->Instance->ND
  46:Lib/BufferedSerial/BufferedSerial.hpp ****             return data;
  77              		.loc 2 46 13 is_stmt 1 view .LVU20
  78              		.loc 2 46 20 is_stmt 0 view .LVU21
  79 002c 7047     		bx	lr
  80              	.LVL4:
  81              	.L3:
  41:Lib/BufferedSerial/BufferedSerial.hpp ****             }
  82              		.loc 2 41 26 view .LVU22
  83 002e 0020     		movs	r0, #0
  84              	.LVL5:
  47:Lib/BufferedSerial/BufferedSerial.hpp ****       }
  85              		.loc 2 47 7 view .LVU23
  86 0030 7047     		bx	lr
  87              		.cfi_endproc
  88              	.LFE245:
  89              		.cantunwind
  90              		.fnend
  92              		.section	.text._ZN12PwmSingleOut4initEv,"axG",%progbits,_ZN12PwmSingleOut4initEv,comdat
  93              		.align	1
  94              		.weak	_ZN12PwmSingleOut4initEv
  95              		.syntax unified
  96              		.thumb
  97              		.thumb_func
  99              	_ZN12PwmSingleOut4initEv:
 100              		.fnstart
 101              	.LVL6:
 102              	.LFB264:
 103              		.file 3 "Lib/PWMSingle/PWMSingle.hpp"
   1:Lib/PWMSingle/PWMSingle.hpp **** #ifndef __PWMSINGLE__
   2:Lib/PWMSingle/PWMSingle.hpp **** #define __PWMSINGLE__
   3:Lib/PWMSingle/PWMSingle.hpp **** 
   4:Lib/PWMSingle/PWMSingle.hpp **** #include "MyMath.hpp"
   5:Lib/PWMSingle/PWMSingle.hpp **** #include "tim.h"
   6:Lib/PWMSingle/PWMSingle.hpp **** 
   7:Lib/PWMSingle/PWMSingle.hpp **** #ifdef __cplusplus
   8:Lib/PWMSingle/PWMSingle.hpp **** extern "C" {
   9:Lib/PWMSingle/PWMSingle.hpp **** 
  10:Lib/PWMSingle/PWMSingle.hpp **** class PwmSingleOut {
  11:Lib/PWMSingle/PWMSingle.hpp ****      public:
  12:Lib/PWMSingle/PWMSingle.hpp ****       PwmSingleOut(TIM_HandleTypeDef *htim, uint32_t channel)
  13:Lib/PWMSingle/PWMSingle.hpp ****           : _htim(htim), _channel(channel), _maxValue(_htim->Init.Period) {
  14:Lib/PWMSingle/PWMSingle.hpp ****       }
  15:Lib/PWMSingle/PWMSingle.hpp **** 
  16:Lib/PWMSingle/PWMSingle.hpp ****       void init() {
 104              		.loc 3 16 12 is_stmt 1 view -0
 105              		.cfi_startproc
 106              		@ args = 0, pretend = 0, frame = 0
 107              		@ frame_needed = 0, uses_anonymous_args = 0
 108              		.loc 3 16 12 is_stmt 0 view .LVU25
 109 0000 10B5     		push	{r4, lr}
 110              		.save {r4, lr}
ARM GAS  /var/folders/5c/srt4fy4j1pd641bjfx75k5000000gn/T//ccFHb7ij.s 			page 4


 111              	.LCFI0:
 112              		.cfi_def_cfa_offset 8
 113              		.cfi_offset 4, -8
 114              		.cfi_offset 14, -4
 115 0002 0446     		mov	r4, r0
  17:Lib/PWMSingle/PWMSingle.hpp ****             HAL_TIM_PWM_Start(_htim, _channel);
 116              		.loc 3 17 13 is_stmt 1 view .LVU26
 117              		.loc 3 17 30 is_stmt 0 view .LVU27
 118 0004 4168     		ldr	r1, [r0, #4]
 119 0006 0068     		ldr	r0, [r0]
 120              	.LVL7:
 121              		.loc 3 17 30 view .LVU28
 122 0008 FFF7FEFF 		bl	HAL_TIM_PWM_Start
 123              	.LVL8:
  18:Lib/PWMSingle/PWMSingle.hpp ****             _maxValue = _htim->Init.Period;
 124              		.loc 3 18 13 is_stmt 1 view .LVU29
 125              		.loc 3 18 25 is_stmt 0 view .LVU30
 126 000c 2368     		ldr	r3, [r4]
 127              		.loc 3 18 37 view .LVU31
 128 000e DB68     		ldr	r3, [r3, #12]
 129              		.loc 3 18 23 view .LVU32
 130 0010 A360     		str	r3, [r4, #8]
  19:Lib/PWMSingle/PWMSingle.hpp ****       }
 131              		.loc 3 19 7 view .LVU33
 132 0012 10BD     		pop	{r4, pc}
 133              		.loc 3 19 7 view .LVU34
 134              		.cfi_endproc
 135              	.LFE264:
 136              		.fnend
 138              		.section	.text._ZN5RobotC2Ev,"ax",%progbits
 139              		.align	1
 140              		.global	_ZN5RobotC2Ev
 141              		.syntax unified
 142              		.thumb
 143              		.thumb_func
 145              	_ZN5RobotC2Ev:
 146              		.fnstart
 147              	.LVL9:
 148              	.LFB270:
   1:src/unit/robot/robot.cpp **** #include "robot.hpp"
   2:src/unit/robot/robot.cpp **** 
   3:src/unit/robot/robot.cpp **** uint16_t adc_get_val[3];
   4:src/unit/robot/robot.cpp **** 
   5:src/unit/robot/robot.cpp **** Robot::Robot() {
 149              		.loc 1 5 1 is_stmt 1 view -0
 150              		.cfi_startproc
 151              		@ args = 0, pretend = 0, frame = 0
 152              		@ frame_needed = 0, uses_anonymous_args = 0
 153              		.loc 1 5 1 is_stmt 0 view .LVU36
 154 0000 F0B5     		push	{r4, r5, r6, r7, lr}
 155              		.save {r4, r5, r6, r7, lr}
 156              	.LCFI1:
 157              		.cfi_def_cfa_offset 20
 158              		.cfi_offset 4, -20
 159              		.cfi_offset 5, -16
 160              		.cfi_offset 6, -12
 161              		.cfi_offset 7, -8
ARM GAS  /var/folders/5c/srt4fy4j1pd641bjfx75k5000000gn/T//ccFHb7ij.s 			page 5


 162              		.cfi_offset 14, -4
 163              		.pad #36
 164 0002 89B0     		sub	sp, sp, #36
 165              	.LCFI2:
 166              		.cfi_def_cfa_offset 56
 167 0004 0446     		mov	r4, r0
 168              	.LVL10:
 169              	.LBB104:
 170              	.LBB105:
 171              	.LBI105:
 172              		.file 4 "Lib/DigitalInOut/DigitalInOut.hpp"
   1:Lib/DigitalInOut/DigitalInOut.hpp **** #ifndef __DigitalInOut__
   2:Lib/DigitalInOut/DigitalInOut.hpp **** #define __DigitalInOut__
   3:Lib/DigitalInOut/DigitalInOut.hpp **** 
   4:Lib/DigitalInOut/DigitalInOut.hpp **** #include "main.h"
   5:Lib/DigitalInOut/DigitalInOut.hpp **** 
   6:Lib/DigitalInOut/DigitalInOut.hpp **** #ifdef __cplusplus
   7:Lib/DigitalInOut/DigitalInOut.hpp **** 
   8:Lib/DigitalInOut/DigitalInOut.hpp **** extern "C" {
   9:Lib/DigitalInOut/DigitalInOut.hpp **** 
  10:Lib/DigitalInOut/DigitalInOut.hpp **** class DigitalOut {
  11:Lib/DigitalInOut/DigitalInOut.hpp ****   public:
  12:Lib/DigitalInOut/DigitalInOut.hpp ****     DigitalOut(GPIO_TypeDef *port, uint16_t pin) : port(port), pin(pin) {
 173              		.loc 4 12 5 is_stmt 1 view .LVU37
 174              	.LBB106:
 175              		.loc 4 12 52 is_stmt 0 view .LVU38
 176 0006 8348     		ldr	r0, .L8
 177              	.LVL11:
 178              		.loc 4 12 52 view .LVU39
 179 0008 6064     		str	r0, [r4, #68]
 180              		.loc 4 12 64 view .LVU40
 181 000a 2021     		movs	r1, #32
 182 000c A4F84810 		strh	r1, [r4, #72]	@ movhi
  13:Lib/DigitalInOut/DigitalInOut.hpp ****         HAL_GPIO_WritePin(port, pin, GPIO_PIN_RESET);
 183              		.loc 4 13 9 is_stmt 1 view .LVU41
 184              		.loc 4 13 26 is_stmt 0 view .LVU42
 185 0010 0022     		movs	r2, #0
 186 0012 FFF7FEFF 		bl	HAL_GPIO_WritePin
 187              	.LVL12:
 188              		.loc 4 13 26 view .LVU43
 189              	.LBE106:
 190              	.LBE105:
 191              	.LBB107:
 192              	.LBI107:
  12:Lib/PWMSingle/PWMSingle.hpp ****           : _htim(htim), _channel(channel), _maxValue(_htim->Init.Period) {
 193              		.loc 3 12 7 is_stmt 1 view .LVU44
 194              	.LBB108:
  13:Lib/PWMSingle/PWMSingle.hpp ****       }
 195              		.loc 3 13 13 is_stmt 0 view .LVU45
 196 0016 804B     		ldr	r3, .L8+4
 197 0018 E364     		str	r3, [r4, #76]
  13:Lib/PWMSingle/PWMSingle.hpp ****       }
 198              		.loc 3 13 26 view .LVU46
 199 001a 0026     		movs	r6, #0
 200 001c 2665     		str	r6, [r4, #80]
  13:Lib/PWMSingle/PWMSingle.hpp ****       }
 201              		.loc 3 13 67 view .LVU47
ARM GAS  /var/folders/5c/srt4fy4j1pd641bjfx75k5000000gn/T//ccFHb7ij.s 			page 6


 202 001e DB68     		ldr	r3, [r3, #12]
  13:Lib/PWMSingle/PWMSingle.hpp ****       }
 203              		.loc 3 13 45 view .LVU48
 204 0020 6365     		str	r3, [r4, #84]
 205              	.LVL13:
  13:Lib/PWMSingle/PWMSingle.hpp ****       }
 206              		.loc 3 13 45 view .LVU49
 207              	.LBE108:
 208              	.LBE107:
 209              	.LBB109:
 210              	.LBI109:
  12:Lib/PWMSingle/PWMSingle.hpp ****           : _htim(htim), _channel(channel), _maxValue(_htim->Init.Period) {
 211              		.loc 3 12 7 is_stmt 1 view .LVU50
 212              	.LBB110:
  13:Lib/PWMSingle/PWMSingle.hpp ****       }
 213              		.loc 3 13 13 is_stmt 0 view .LVU51
 214 0022 7E4B     		ldr	r3, .L8+8
 215 0024 E365     		str	r3, [r4, #92]
  13:Lib/PWMSingle/PWMSingle.hpp ****       }
 216              		.loc 3 13 26 view .LVU52
 217 0026 0420     		movs	r0, #4
 218 0028 2066     		str	r0, [r4, #96]
  13:Lib/PWMSingle/PWMSingle.hpp ****       }
 219              		.loc 3 13 67 view .LVU53
 220 002a DA68     		ldr	r2, [r3, #12]
  13:Lib/PWMSingle/PWMSingle.hpp ****       }
 221              		.loc 3 13 45 view .LVU54
 222 002c 6266     		str	r2, [r4, #100]
 223              	.LVL14:
  13:Lib/PWMSingle/PWMSingle.hpp ****       }
 224              		.loc 3 13 45 view .LVU55
 225              	.LBE110:
 226              	.LBE109:
 227              	.LBB111:
 228              	.LBI111:
  12:Lib/PWMSingle/PWMSingle.hpp ****           : _htim(htim), _channel(channel), _maxValue(_htim->Init.Period) {
 229              		.loc 3 12 7 is_stmt 1 view .LVU56
 230              	.LBB112:
  13:Lib/PWMSingle/PWMSingle.hpp ****       }
 231              		.loc 3 13 13 is_stmt 0 view .LVU57
 232 002e E366     		str	r3, [r4, #108]
  13:Lib/PWMSingle/PWMSingle.hpp ****       }
 233              		.loc 3 13 26 view .LVU58
 234 0030 2667     		str	r6, [r4, #112]
  13:Lib/PWMSingle/PWMSingle.hpp ****       }
 235              		.loc 3 13 45 view .LVU59
 236 0032 6267     		str	r2, [r4, #116]
 237              	.LVL15:
  13:Lib/PWMSingle/PWMSingle.hpp ****       }
 238              		.loc 3 13 45 view .LVU60
 239              	.LBE112:
 240              	.LBE111:
 241              	.LBB113:
 242              	.LBI113:
  12:Lib/PWMSingle/PWMSingle.hpp ****           : _htim(htim), _channel(channel), _maxValue(_htim->Init.Period) {
 243              		.loc 3 12 7 is_stmt 1 view .LVU61
 244              	.LBB114:
ARM GAS  /var/folders/5c/srt4fy4j1pd641bjfx75k5000000gn/T//ccFHb7ij.s 			page 7


  13:Lib/PWMSingle/PWMSingle.hpp ****       }
 245              		.loc 3 13 13 is_stmt 0 view .LVU62
 246 0034 7A4B     		ldr	r3, .L8+12
 247 0036 E367     		str	r3, [r4, #124]
  13:Lib/PWMSingle/PWMSingle.hpp ****       }
 248              		.loc 3 13 26 view .LVU63
 249 0038 4FF0080C 		mov	ip, #8
 250 003c C4F880C0 		str	ip, [r4, #128]
  13:Lib/PWMSingle/PWMSingle.hpp ****       }
 251              		.loc 3 13 67 view .LVU64
 252 0040 D968     		ldr	r1, [r3, #12]
  13:Lib/PWMSingle/PWMSingle.hpp ****       }
 253              		.loc 3 13 45 view .LVU65
 254 0042 C4F88410 		str	r1, [r4, #132]
 255              	.LVL16:
  13:Lib/PWMSingle/PWMSingle.hpp ****       }
 256              		.loc 3 13 45 view .LVU66
 257              	.LBE114:
 258              	.LBE113:
 259              	.LBB115:
 260              	.LBI115:
  12:Lib/PWMSingle/PWMSingle.hpp ****           : _htim(htim), _channel(channel), _maxValue(_htim->Init.Period) {
 261              		.loc 3 12 7 is_stmt 1 view .LVU67
 262              	.LBB116:
  13:Lib/PWMSingle/PWMSingle.hpp ****       }
 263              		.loc 3 13 13 is_stmt 0 view .LVU68
 264 0046 C4F88C30 		str	r3, [r4, #140]
  13:Lib/PWMSingle/PWMSingle.hpp ****       }
 265              		.loc 3 13 26 view .LVU69
 266 004a 0C27     		movs	r7, #12
 267 004c C4F89070 		str	r7, [r4, #144]
  13:Lib/PWMSingle/PWMSingle.hpp ****       }
 268              		.loc 3 13 45 view .LVU70
 269 0050 C4F89410 		str	r1, [r4, #148]
 270              	.LVL17:
  13:Lib/PWMSingle/PWMSingle.hpp ****       }
 271              		.loc 3 13 45 view .LVU71
 272              	.LBE116:
 273              	.LBE115:
 274              	.LBB117:
 275              	.LBI117:
  12:Lib/PWMSingle/PWMSingle.hpp ****           : _htim(htim), _channel(channel), _maxValue(_htim->Init.Period) {
 276              		.loc 3 12 7 is_stmt 1 view .LVU72
 277              	.LBB118:
  13:Lib/PWMSingle/PWMSingle.hpp ****       }
 278              		.loc 3 13 13 is_stmt 0 view .LVU73
 279 0054 734A     		ldr	r2, .L8+16
 280 0056 C4F89C20 		str	r2, [r4, #156]
  13:Lib/PWMSingle/PWMSingle.hpp ****       }
 281              		.loc 3 13 26 view .LVU74
 282 005a C4F8A000 		str	r0, [r4, #160]
  13:Lib/PWMSingle/PWMSingle.hpp ****       }
 283              		.loc 3 13 67 view .LVU75
 284 005e D568     		ldr	r5, [r2, #12]
  13:Lib/PWMSingle/PWMSingle.hpp ****       }
 285              		.loc 3 13 45 view .LVU76
 286 0060 C4F8A450 		str	r5, [r4, #164]
ARM GAS  /var/folders/5c/srt4fy4j1pd641bjfx75k5000000gn/T//ccFHb7ij.s 			page 8


 287              	.LVL18:
  13:Lib/PWMSingle/PWMSingle.hpp ****       }
 288              		.loc 3 13 45 view .LVU77
 289              	.LBE118:
 290              	.LBE117:
 291              	.LBB119:
 292              	.LBI119:
  12:Lib/PWMSingle/PWMSingle.hpp ****           : _htim(htim), _channel(channel), _maxValue(_htim->Init.Period) {
 293              		.loc 3 12 7 is_stmt 1 view .LVU78
 294              	.LBB120:
  13:Lib/PWMSingle/PWMSingle.hpp ****       }
 295              		.loc 3 13 13 is_stmt 0 view .LVU79
 296 0064 C4F8AC30 		str	r3, [r4, #172]
  13:Lib/PWMSingle/PWMSingle.hpp ****       }
 297              		.loc 3 13 26 view .LVU80
 298 0068 C4F8B000 		str	r0, [r4, #176]
  13:Lib/PWMSingle/PWMSingle.hpp ****       }
 299              		.loc 3 13 45 view .LVU81
 300 006c C4F8B410 		str	r1, [r4, #180]
 301              	.LVL19:
  13:Lib/PWMSingle/PWMSingle.hpp ****       }
 302              		.loc 3 13 45 view .LVU82
 303              	.LBE120:
 304              	.LBE119:
 305              	.LBB121:
 306              	.LBI121:
  12:Lib/PWMSingle/PWMSingle.hpp ****           : _htim(htim), _channel(channel), _maxValue(_htim->Init.Period) {
 307              		.loc 3 12 7 is_stmt 1 view .LVU83
 308              	.LBB122:
  13:Lib/PWMSingle/PWMSingle.hpp ****       }
 309              		.loc 3 13 13 is_stmt 0 view .LVU84
 310 0070 C4F8BC20 		str	r2, [r4, #188]
  13:Lib/PWMSingle/PWMSingle.hpp ****       }
 311              		.loc 3 13 26 view .LVU85
 312 0074 C4F8C060 		str	r6, [r4, #192]
  13:Lib/PWMSingle/PWMSingle.hpp ****       }
 313              		.loc 3 13 45 view .LVU86
 314 0078 C4F8C450 		str	r5, [r4, #196]
 315              	.LVL20:
  13:Lib/PWMSingle/PWMSingle.hpp ****       }
 316              		.loc 3 13 45 view .LVU87
 317              	.LBE122:
 318              	.LBE121:
 319              	.LBB123:
 320              	.LBI123:
  12:Lib/PWMSingle/PWMSingle.hpp ****           : _htim(htim), _channel(channel), _maxValue(_htim->Init.Period) {
 321              		.loc 3 12 7 is_stmt 1 view .LVU88
 322              	.LBB124:
  13:Lib/PWMSingle/PWMSingle.hpp ****       }
 323              		.loc 3 13 13 is_stmt 0 view .LVU89
 324 007c C4F8CC20 		str	r2, [r4, #204]
  13:Lib/PWMSingle/PWMSingle.hpp ****       }
 325              		.loc 3 13 26 view .LVU90
 326 0080 C4F8D0C0 		str	ip, [r4, #208]
  13:Lib/PWMSingle/PWMSingle.hpp ****       }
 327              		.loc 3 13 45 view .LVU91
 328 0084 C4F8D450 		str	r5, [r4, #212]
ARM GAS  /var/folders/5c/srt4fy4j1pd641bjfx75k5000000gn/T//ccFHb7ij.s 			page 9


 329              	.LVL21:
  13:Lib/PWMSingle/PWMSingle.hpp ****       }
 330              		.loc 3 13 45 view .LVU92
 331              	.LBE124:
 332              	.LBE123:
 333              	.LBB125:
 334              	.LBI125:
  12:Lib/PWMSingle/PWMSingle.hpp ****           : _htim(htim), _channel(channel), _maxValue(_htim->Init.Period) {
 335              		.loc 3 12 7 is_stmt 1 view .LVU93
 336              	.LBB126:
  13:Lib/PWMSingle/PWMSingle.hpp ****       }
 337              		.loc 3 13 13 is_stmt 0 view .LVU94
 338 0088 674A     		ldr	r2, .L8+20
 339 008a C4F8DC20 		str	r2, [r4, #220]
  13:Lib/PWMSingle/PWMSingle.hpp ****       }
 340              		.loc 3 13 26 view .LVU95
 341 008e C4F8E060 		str	r6, [r4, #224]
  13:Lib/PWMSingle/PWMSingle.hpp ****       }
 342              		.loc 3 13 67 view .LVU96
 343 0092 D568     		ldr	r5, [r2, #12]
  13:Lib/PWMSingle/PWMSingle.hpp ****       }
 344              		.loc 3 13 45 view .LVU97
 345 0094 C4F8E450 		str	r5, [r4, #228]
 346              	.LVL22:
  13:Lib/PWMSingle/PWMSingle.hpp ****       }
 347              		.loc 3 13 45 view .LVU98
 348              	.LBE126:
 349              	.LBE125:
 350              	.LBB127:
 351              	.LBI127:
  12:Lib/PWMSingle/PWMSingle.hpp ****           : _htim(htim), _channel(channel), _maxValue(_htim->Init.Period) {
 352              		.loc 3 12 7 is_stmt 1 view .LVU99
 353              	.LBB128:
  13:Lib/PWMSingle/PWMSingle.hpp ****       }
 354              		.loc 3 13 13 is_stmt 0 view .LVU100
 355 0098 C4F8EC20 		str	r2, [r4, #236]
  13:Lib/PWMSingle/PWMSingle.hpp ****       }
 356              		.loc 3 13 26 view .LVU101
 357 009c C4F8F000 		str	r0, [r4, #240]
  13:Lib/PWMSingle/PWMSingle.hpp ****       }
 358              		.loc 3 13 45 view .LVU102
 359 00a0 C4F8F450 		str	r5, [r4, #244]
 360              	.LVL23:
  13:Lib/PWMSingle/PWMSingle.hpp ****       }
 361              		.loc 3 13 45 view .LVU103
 362              	.LBE128:
 363              	.LBE127:
 364              	.LBB129:
 365              	.LBI129:
  12:Lib/PWMSingle/PWMSingle.hpp ****           : _htim(htim), _channel(channel), _maxValue(_htim->Init.Period) {
 366              		.loc 3 12 7 is_stmt 1 view .LVU104
 367              	.LBB130:
  13:Lib/PWMSingle/PWMSingle.hpp ****       }
 368              		.loc 3 13 13 is_stmt 0 view .LVU105
 369 00a4 C4F8FC30 		str	r3, [r4, #252]
  13:Lib/PWMSingle/PWMSingle.hpp ****       }
 370              		.loc 3 13 26 view .LVU106
ARM GAS  /var/folders/5c/srt4fy4j1pd641bjfx75k5000000gn/T//ccFHb7ij.s 			page 10


 371 00a8 C4F80061 		str	r6, [r4, #256]
  13:Lib/PWMSingle/PWMSingle.hpp ****       }
 372              		.loc 3 13 45 view .LVU107
 373 00ac C4F80411 		str	r1, [r4, #260]
 374              	.LVL24:
  13:Lib/PWMSingle/PWMSingle.hpp ****       }
 375              		.loc 3 13 45 view .LVU108
 376              	.LBE130:
 377              	.LBE129:
 378              	.LBB131:
 379              	.LBI131:
  12:Lib/PWMSingle/PWMSingle.hpp ****           : _htim(htim), _channel(channel), _maxValue(_htim->Init.Period) {
 380              		.loc 3 12 7 is_stmt 1 view .LVU109
 381              	.LBB132:
  13:Lib/PWMSingle/PWMSingle.hpp ****       }
 382              		.loc 3 13 13 is_stmt 0 view .LVU110
 383 00b0 C4F80C21 		str	r2, [r4, #268]
  13:Lib/PWMSingle/PWMSingle.hpp ****       }
 384              		.loc 3 13 26 view .LVU111
 385 00b4 C4F81071 		str	r7, [r4, #272]
  13:Lib/PWMSingle/PWMSingle.hpp ****       }
 386              		.loc 3 13 45 view .LVU112
 387 00b8 C4F81451 		str	r5, [r4, #276]
 388              	.LVL25:
  13:Lib/PWMSingle/PWMSingle.hpp ****       }
 389              		.loc 3 13 45 view .LVU113
 390              	.LBE132:
 391              	.LBE131:
 392              	.LBB133:
 393              	.LBI133:
  12:Lib/DigitalInOut/DigitalInOut.hpp ****         HAL_GPIO_WritePin(port, pin, GPIO_PIN_RESET);
 394              		.loc 4 12 5 is_stmt 1 view .LVU114
 395              	.LBB134:
  12:Lib/DigitalInOut/DigitalInOut.hpp ****         HAL_GPIO_WritePin(port, pin, GPIO_PIN_RESET);
 396              		.loc 4 12 52 is_stmt 0 view .LVU115
 397 00bc 5B4D     		ldr	r5, .L8+24
 398 00be C4F81C51 		str	r5, [r4, #284]
  12:Lib/DigitalInOut/DigitalInOut.hpp ****         HAL_GPIO_WritePin(port, pin, GPIO_PIN_RESET);
 399              		.loc 4 12 64 view .LVU116
 400 00c2 0121     		movs	r1, #1
 401 00c4 A4F82011 		strh	r1, [r4, #288]	@ movhi
 402              		.loc 4 13 9 is_stmt 1 view .LVU117
 403              		.loc 4 13 26 is_stmt 0 view .LVU118
 404 00c8 3246     		mov	r2, r6
 405 00ca 2846     		mov	r0, r5
 406 00cc FFF7FEFF 		bl	HAL_GPIO_WritePin
 407              	.LVL26:
 408              		.loc 4 13 26 view .LVU119
 409              	.LBE134:
 410              	.LBE133:
 411              	.LBB135:
 412              	.LBI135:
  12:Lib/DigitalInOut/DigitalInOut.hpp ****         HAL_GPIO_WritePin(port, pin, GPIO_PIN_RESET);
 413              		.loc 4 12 5 is_stmt 1 view .LVU120
 414              	.LBB136:
  12:Lib/DigitalInOut/DigitalInOut.hpp ****         HAL_GPIO_WritePin(port, pin, GPIO_PIN_RESET);
 415              		.loc 4 12 52 is_stmt 0 view .LVU121
ARM GAS  /var/folders/5c/srt4fy4j1pd641bjfx75k5000000gn/T//ccFHb7ij.s 			page 11


 416 00d0 C4F82451 		str	r5, [r4, #292]
  12:Lib/DigitalInOut/DigitalInOut.hpp ****         HAL_GPIO_WritePin(port, pin, GPIO_PIN_RESET);
 417              		.loc 4 12 64 view .LVU122
 418 00d4 0221     		movs	r1, #2
 419 00d6 A4F82811 		strh	r1, [r4, #296]	@ movhi
 420              		.loc 4 13 9 is_stmt 1 view .LVU123
 421              		.loc 4 13 26 is_stmt 0 view .LVU124
 422 00da 3246     		mov	r2, r6
 423 00dc 2846     		mov	r0, r5
 424 00de FFF7FEFF 		bl	HAL_GPIO_WritePin
 425              	.LVL27:
 426              		.loc 4 13 26 view .LVU125
 427              	.LBE136:
 428              	.LBE135:
 429              		.loc 1 5 14 view .LVU126
 430 00e2 231D     		adds	r3, r4, #4
 431 00e4 0693     		str	r3, [sp, #24]
 432 00e6 04F12803 		add	r3, r4, #40
 433 00ea 0593     		str	r3, [sp, #20]
 434 00ec 04F1CC03 		add	r3, r4, #204
 435 00f0 0493     		str	r3, [sp, #16]
 436 00f2 04F1BC03 		add	r3, r4, #188
 437 00f6 0393     		str	r3, [sp, #12]
 438 00f8 04F1AC03 		add	r3, r4, #172
 439 00fc 0293     		str	r3, [sp, #8]
 440 00fe 04F19C03 		add	r3, r4, #156
 441 0102 0193     		str	r3, [sp, #4]
 442 0104 04F18C03 		add	r3, r4, #140
 443 0108 0093     		str	r3, [sp]
 444 010a 04F17C03 		add	r3, r4, #124
 445 010e 04F16C02 		add	r2, r4, #108
 446 0112 04F15C01 		add	r1, r4, #92
 447 0116 04F59870 		add	r0, r4, #304
 448 011a FFF7FEFF 		bl	_ZN10MotorDriveC1EP12PwmSingleOutS1_S1_S1_S1_S1_S1_S1_PsPh
 449              	.LVL28:
 450 011e 04F1EC02 		add	r2, r4, #236
 451 0122 04F1DC01 		add	r1, r4, #220
 452 0126 04F58150 		add	r0, r4, #4128
 453 012a FFF7FEFF 		bl	_ZN13DribblerDriveC1EP12PwmSingleOutS1_
 454              	.LVL29:
 455 012e 04F58672 		add	r2, r4, #268
 456 0132 04F1FC01 		add	r1, r4, #252
 457 0136 04F59B50 		add	r0, r4, #4960
 458 013a FFF7FEFF 		bl	_ZN13DribblerDriveC1EP12PwmSingleOutS1_
 459              	.LVL30:
 460 013e 04F59272 		add	r2, r4, #292
 461 0142 04F58E71 		add	r1, r4, #284
 462 0146 04F5B550 		add	r0, r4, #5792
 463 014a FFF7FEFF 		bl	_ZN6KickerC1EP10DigitalOutS1_
 464              	.LVL31:
 465              	.LBB137:
 466              	.LBI137:
  19:Lib/BufferedSerial/BufferedSerial.hpp ****           : _huart(huart),
 467              		.loc 2 19 7 is_stmt 1 view .LVU127
 468              	.LBB138:
  20:Lib/BufferedSerial/BufferedSerial.hpp ****             _rxBuf(new uint8_t[rxBufSize]),
 469              		.loc 2 20 13 is_stmt 0 view .LVU128
ARM GAS  /var/folders/5c/srt4fy4j1pd641bjfx75k5000000gn/T//ccFHb7ij.s 			page 12


 470 014e 04F58055 		add	r5, r4, #4096
 471 0152 374B     		ldr	r3, .L8+28
 472 0154 C5F8B436 		str	r3, [r5, #1716]
  21:Lib/BufferedSerial/BufferedSerial.hpp ****             rxTop(0),
 473              		.loc 2 21 41 view .LVU129
 474 0158 8020     		movs	r0, #128
 475 015a FFF7FEFF 		bl	_Znaj
 476              	.LVL32:
  21:Lib/BufferedSerial/BufferedSerial.hpp ****             rxTop(0),
 477              		.loc 2 21 13 view .LVU130
 478 015e C5F8B806 		str	r0, [r5, #1720]
  22:Lib/BufferedSerial/BufferedSerial.hpp ****             rxBtm(0),
 479              		.loc 2 22 13 view .LVU131
 480 0162 A5F8BC66 		strh	r6, [r5, #1724]	@ movhi
  23:Lib/BufferedSerial/BufferedSerial.hpp ****             _rxBufSize(rxBufSize),
 481              		.loc 2 23 13 view .LVU132
 482 0166 A5F8BE66 		strh	r6, [r5, #1726]	@ movhi
  24:Lib/BufferedSerial/BufferedSerial.hpp ****             _useDMA(false) {
 483              		.loc 2 24 13 view .LVU133
 484 016a 8023     		movs	r3, #128
 485 016c A5F8C036 		strh	r3, [r5, #1728]	@ movhi
  25:Lib/BufferedSerial/BufferedSerial.hpp ****       }
 486              		.loc 2 25 13 view .LVU134
 487 0170 85F8C266 		strb	r6, [r5, #1730]
 488              	.LVL33:
  25:Lib/BufferedSerial/BufferedSerial.hpp ****       }
 489              		.loc 2 25 13 view .LVU135
 490              	.LBE138:
 491              	.LBE137:
 492              	.LBB139:
 493              	.LBI139:
  19:Lib/BufferedSerial/BufferedSerial.hpp ****           : _huart(huart),
 494              		.loc 2 19 7 is_stmt 1 view .LVU136
 495              	.LBB140:
  20:Lib/BufferedSerial/BufferedSerial.hpp ****             _rxBuf(new uint8_t[rxBufSize]),
 496              		.loc 2 20 13 is_stmt 0 view .LVU137
 497 0174 2F4B     		ldr	r3, .L8+32
 498 0176 C5F8C436 		str	r3, [r5, #1732]
  21:Lib/BufferedSerial/BufferedSerial.hpp ****             rxTop(0),
 499              		.loc 2 21 41 view .LVU138
 500 017a 4FF48070 		mov	r0, #256
 501 017e FFF7FEFF 		bl	_Znaj
 502              	.LVL34:
  21:Lib/BufferedSerial/BufferedSerial.hpp ****             rxTop(0),
 503              		.loc 2 21 13 view .LVU139
 504 0182 C5F8C806 		str	r0, [r5, #1736]
  22:Lib/BufferedSerial/BufferedSerial.hpp ****             rxBtm(0),
 505              		.loc 2 22 13 view .LVU140
 506 0186 A5F8CC66 		strh	r6, [r5, #1740]	@ movhi
  23:Lib/BufferedSerial/BufferedSerial.hpp ****             _rxBufSize(rxBufSize),
 507              		.loc 2 23 13 view .LVU141
 508 018a A5F8CE66 		strh	r6, [r5, #1742]	@ movhi
  24:Lib/BufferedSerial/BufferedSerial.hpp ****             _useDMA(false) {
 509              		.loc 2 24 13 view .LVU142
 510 018e 4FF48077 		mov	r7, #256
 511 0192 A5F8D076 		strh	r7, [r5, #1744]	@ movhi
  25:Lib/BufferedSerial/BufferedSerial.hpp ****       }
ARM GAS  /var/folders/5c/srt4fy4j1pd641bjfx75k5000000gn/T//ccFHb7ij.s 			page 13


 512              		.loc 2 25 13 view .LVU143
 513 0196 85F8D266 		strb	r6, [r5, #1746]
 514              	.LVL35:
  25:Lib/BufferedSerial/BufferedSerial.hpp ****       }
 515              		.loc 2 25 13 view .LVU144
 516              	.LBE140:
 517              	.LBE139:
 518              	.LBB141:
 519              	.LBI141:
  19:Lib/BufferedSerial/BufferedSerial.hpp ****           : _huart(huart),
 520              		.loc 2 19 7 is_stmt 1 view .LVU145
 521              	.LBB142:
  20:Lib/BufferedSerial/BufferedSerial.hpp ****             _rxBuf(new uint8_t[rxBufSize]),
 522              		.loc 2 20 13 is_stmt 0 view .LVU146
 523 019a 274B     		ldr	r3, .L8+36
 524 019c C5F8D436 		str	r3, [r5, #1748]
  21:Lib/BufferedSerial/BufferedSerial.hpp ****             rxTop(0),
 525              		.loc 2 21 41 view .LVU147
 526 01a0 3846     		mov	r0, r7
 527 01a2 FFF7FEFF 		bl	_Znaj
 528              	.LVL36:
  21:Lib/BufferedSerial/BufferedSerial.hpp ****             rxTop(0),
 529              		.loc 2 21 13 view .LVU148
 530 01a6 C5F8D806 		str	r0, [r5, #1752]
  22:Lib/BufferedSerial/BufferedSerial.hpp ****             rxBtm(0),
 531              		.loc 2 22 13 view .LVU149
 532 01aa A5F8DC66 		strh	r6, [r5, #1756]	@ movhi
  23:Lib/BufferedSerial/BufferedSerial.hpp ****             _rxBufSize(rxBufSize),
 533              		.loc 2 23 13 view .LVU150
 534 01ae A5F8DE66 		strh	r6, [r5, #1758]	@ movhi
  24:Lib/BufferedSerial/BufferedSerial.hpp ****             _useDMA(false) {
 535              		.loc 2 24 13 view .LVU151
 536 01b2 A5F8E076 		strh	r7, [r5, #1760]	@ movhi
  25:Lib/BufferedSerial/BufferedSerial.hpp ****       }
 537              		.loc 2 25 13 view .LVU152
 538 01b6 85F8E266 		strb	r6, [r5, #1762]
 539              	.LVL37:
  25:Lib/BufferedSerial/BufferedSerial.hpp ****       }
 540              		.loc 2 25 13 view .LVU153
 541              	.LBE142:
 542              	.LBE141:
 543              	.LBB143:
 544              	.LBI143:
  19:Lib/BufferedSerial/BufferedSerial.hpp ****           : _huart(huart),
 545              		.loc 2 19 7 is_stmt 1 view .LVU154
 546              	.LBB144:
  20:Lib/BufferedSerial/BufferedSerial.hpp ****             _rxBuf(new uint8_t[rxBufSize]),
 547              		.loc 2 20 13 is_stmt 0 view .LVU155
 548 01ba 204B     		ldr	r3, .L8+40
 549 01bc C5F8E436 		str	r3, [r5, #1764]
  21:Lib/BufferedSerial/BufferedSerial.hpp ****             rxTop(0),
 550              		.loc 2 21 41 view .LVU156
 551 01c0 3846     		mov	r0, r7
 552 01c2 FFF7FEFF 		bl	_Znaj
 553              	.LVL38:
  21:Lib/BufferedSerial/BufferedSerial.hpp ****             rxTop(0),
 554              		.loc 2 21 13 view .LVU157
ARM GAS  /var/folders/5c/srt4fy4j1pd641bjfx75k5000000gn/T//ccFHb7ij.s 			page 14


 555 01c6 C5F8E806 		str	r0, [r5, #1768]
  22:Lib/BufferedSerial/BufferedSerial.hpp ****             rxBtm(0),
 556              		.loc 2 22 13 view .LVU158
 557 01ca A5F8EC66 		strh	r6, [r5, #1772]	@ movhi
  23:Lib/BufferedSerial/BufferedSerial.hpp ****             _rxBufSize(rxBufSize),
 558              		.loc 2 23 13 view .LVU159
 559 01ce A5F8EE66 		strh	r6, [r5, #1774]	@ movhi
  24:Lib/BufferedSerial/BufferedSerial.hpp ****             _useDMA(false) {
 560              		.loc 2 24 13 view .LVU160
 561 01d2 A5F8F076 		strh	r7, [r5, #1776]	@ movhi
  25:Lib/BufferedSerial/BufferedSerial.hpp ****       }
 562              		.loc 2 25 13 view .LVU161
 563 01d6 85F8F266 		strb	r6, [r5, #1778]
 564              	.LVL39:
  25:Lib/BufferedSerial/BufferedSerial.hpp ****       }
 565              		.loc 2 25 13 view .LVU162
 566              	.LBE144:
 567              	.LBE143:
 568              		.loc 1 5 14 view .LVU163
 569 01da 04F5B750 		add	r0, r4, #5856
 570 01de 1430     		adds	r0, r0, #20
 571 01e0 FFF7FEFF 		bl	_ZN5TimerC1Ev
 572              	.LVL40:
 573 01e4 04F5B750 		add	r0, r4, #5856
 574 01e8 1830     		adds	r0, r0, #24
 575 01ea FFF7FEFF 		bl	_ZN5TimerC1Ev
 576              	.LVL41:
 577 01ee 04F5B750 		add	r0, r4, #5856
 578 01f2 1C30     		adds	r0, r0, #28
 579 01f4 FFF7FEFF 		bl	_ZN5TimerC1Ev
 580              	.LVL42:
   6:src/unit/robot/robot.cpp ****       catch_front.SetLength(10);
 581              		.loc 1 6 7 is_stmt 1 view .LVU164
 582              		.loc 1 6 28 is_stmt 0 view .LVU165
 583 01f8 0A21     		movs	r1, #10
 584 01fa 04F5B850 		add	r0, r4, #5888
 585 01fe FFF7FEFF 		bl	_ZN9MovingAve9SetLengthEh
 586              	.LVL43:
   7:src/unit/robot/robot.cpp ****       catch_back.SetLength(10);
 587              		.loc 1 7 7 is_stmt 1 view .LVU166
 588              		.loc 1 7 27 is_stmt 0 view .LVU167
 589 0202 0A21     		movs	r1, #10
 590 0204 04F5D150 		add	r0, r4, #6688
 591 0208 1830     		adds	r0, r0, #24
 592 020a FFF7FEFF 		bl	_ZN9MovingAve9SetLengthEh
 593              	.LVL44:
 594              	.LBE104:
   8:src/unit/robot/robot.cpp **** }
 595              		.loc 1 8 1 view .LVU168
 596 020e 2046     		mov	r0, r4
 597 0210 09B0     		add	sp, sp, #36
 598              	.LCFI3:
 599              		.cfi_def_cfa_offset 20
 600              		@ sp needed
 601 0212 F0BD     		pop	{r4, r5, r6, r7, pc}
 602              	.LVL45:
 603              	.L9:
ARM GAS  /var/folders/5c/srt4fy4j1pd641bjfx75k5000000gn/T//ccFHb7ij.s 			page 15


 604              		.loc 1 8 1 view .LVU169
 605              		.align	2
 606              	.L8:
 607 0214 00000240 		.word	1073872896
 608 0218 00000000 		.word	htim13
 609 021c 00000000 		.word	htim12
 610 0220 00000000 		.word	htim2
 611 0224 00000000 		.word	htim3
 612 0228 00000000 		.word	htim4
 613 022c 00080240 		.word	1073874944
 614 0230 00000000 		.word	huart1
 615 0234 00000000 		.word	huart2
 616 0238 00000000 		.word	huart3
 617 023c 00000000 		.word	huart4
 618              		.cfi_endproc
 619              	.LFE270:
 620              		.fnend
 622              		.global	_ZN5RobotC1Ev
 623              		.thumb_set _ZN5RobotC1Ev,_ZN5RobotC2Ev
 624              		.section	.text._ZN5Robot12HardwareInitEv,"ax",%progbits
 625              		.align	1
 626              		.global	_ZN5Robot12HardwareInitEv
 627              		.syntax unified
 628              		.thumb
 629              		.thumb_func
 631              	_ZN5Robot12HardwareInitEv:
 632              		.fnstart
 633              	.LVL46:
 634              	.LFB272:
   9:src/unit/robot/robot.cpp **** 
  10:src/unit/robot/robot.cpp **** void Robot::HardwareInit() {
 635              		.loc 1 10 28 is_stmt 1 view -0
 636              		.cfi_startproc
 637              		@ args = 0, pretend = 0, frame = 0
 638              		@ frame_needed = 0, uses_anonymous_args = 0
 639              		.loc 1 10 28 is_stmt 0 view .LVU171
 640 0000 70B5     		push	{r4, r5, r6, lr}
 641              		.save {r4, r5, r6, lr}
 642              	.LCFI4:
 643              		.cfi_def_cfa_offset 16
 644              		.cfi_offset 4, -16
 645              		.cfi_offset 5, -12
 646              		.cfi_offset 6, -8
 647              		.cfi_offset 14, -4
 648 0002 0446     		mov	r4, r0
  11:src/unit/robot/robot.cpp ****       HAL_ADC_Start(&hadc1);
 649              		.loc 1 11 7 is_stmt 1 view .LVU172
 650              		.loc 1 11 20 is_stmt 0 view .LVU173
 651 0004 414D     		ldr	r5, .L14
 652 0006 2846     		mov	r0, r5
 653              	.LVL47:
 654              		.loc 1 11 20 view .LVU174
 655 0008 FFF7FEFF 		bl	HAL_ADC_Start
 656              	.LVL48:
  12:src/unit/robot/robot.cpp ****       HAL_ADC_Start_DMA(&hadc1, (uint32_t *)&adc_get_val, 3);
 657              		.loc 1 12 7 is_stmt 1 view .LVU175
 658              		.loc 1 12 24 is_stmt 0 view .LVU176
ARM GAS  /var/folders/5c/srt4fy4j1pd641bjfx75k5000000gn/T//ccFHb7ij.s 			page 16


 659 000c 0322     		movs	r2, #3
 660 000e 4049     		ldr	r1, .L14+4
 661 0010 2846     		mov	r0, r5
 662 0012 FFF7FEFF 		bl	HAL_ADC_Start_DMA
 663              	.LVL49:
  13:src/unit/robot/robot.cpp ****       for (uint8_t i = 0; i < 3; i++) {
 664              		.loc 1 13 7 is_stmt 1 view .LVU177
 665              	.LBB145:
 666              		.loc 1 13 20 is_stmt 0 view .LVU178
 667 0016 0022     		movs	r2, #0
 668              		.loc 1 13 7 view .LVU179
 669 0018 06E0     		b	.L11
 670              	.LVL50:
 671              	.L12:
  14:src/unit/robot/robot.cpp ****             while (!(adc_get_val[i] > 0));
 672              		.loc 1 14 20 is_stmt 1 discriminator 1 view .LVU180
 673              		.loc 1 14 35 is_stmt 0 discriminator 1 view .LVU181
 674 001a 3D4B     		ldr	r3, .L14+4
 675 001c 33F81230 		ldrh	r3, [r3, r2, lsl #1]
 676              		.loc 1 14 20 discriminator 1 view .LVU182
 677 0020 002B     		cmp	r3, #0
 678 0022 FAD0     		beq	.L12
  13:src/unit/robot/robot.cpp ****       for (uint8_t i = 0; i < 3; i++) {
 679              		.loc 1 13 7 is_stmt 1 discriminator 2 view .LVU183
 680 0024 0132     		adds	r2, r2, #1
 681              	.LVL51:
  13:src/unit/robot/robot.cpp ****       for (uint8_t i = 0; i < 3; i++) {
 682              		.loc 1 13 7 is_stmt 0 discriminator 2 view .LVU184
 683 0026 D2B2     		uxtb	r2, r2
 684              	.LVL52:
 685              	.L11:
  13:src/unit/robot/robot.cpp ****       for (uint8_t i = 0; i < 3; i++) {
 686              		.loc 1 13 29 is_stmt 1 discriminator 1 view .LVU185
 687 0028 022A     		cmp	r2, #2
 688 002a F6D9     		bls	.L12
 689              	.LBE145:
  15:src/unit/robot/robot.cpp ****       }
  16:src/unit/robot/robot.cpp **** 
  17:src/unit/robot/robot.cpp ****       // 諸々の初期化
  18:src/unit/robot/robot.cpp ****       serial1.init();
 690              		.loc 1 18 7 view .LVU186
 691              	.LVL53:
 692              	.LBB146:
 693              	.LBI146:
  27:Lib/BufferedSerial/BufferedSerial.hpp ****             _useDMA = dma;
 694              		.loc 2 27 12 view .LVU187
 695              	.LBB147:
  28:Lib/BufferedSerial/BufferedSerial.hpp ****             HAL_UART_Receive_DMA(_huart, _rxBuf, _rxBufSize);
 696              		.loc 2 28 13 view .LVU188
  28:Lib/BufferedSerial/BufferedSerial.hpp ****             HAL_UART_Receive_DMA(_huart, _rxBuf, _rxBufSize);
 697              		.loc 2 28 21 is_stmt 0 view .LVU189
 698 002c 04F58055 		add	r5, r4, #4096
 699 0030 0026     		movs	r6, #0
 700 0032 85F8C266 		strb	r6, [r5, #1730]
  29:Lib/BufferedSerial/BufferedSerial.hpp ****             // printf("- Serial init\n");
 701              		.loc 2 29 13 is_stmt 1 view .LVU190
  29:Lib/BufferedSerial/BufferedSerial.hpp ****             // printf("- Serial init\n");
ARM GAS  /var/folders/5c/srt4fy4j1pd641bjfx75k5000000gn/T//ccFHb7ij.s 			page 17


 702              		.loc 2 29 33 is_stmt 0 view .LVU191
 703 0036 B5F8C026 		ldrh	r2, [r5, #1728]
 704              	.LVL54:
  29:Lib/BufferedSerial/BufferedSerial.hpp ****             // printf("- Serial init\n");
 705              		.loc 2 29 33 view .LVU192
 706 003a D5F8B816 		ldr	r1, [r5, #1720]
 707 003e D5F8B406 		ldr	r0, [r5, #1716]
 708 0042 FFF7FEFF 		bl	HAL_UART_Receive_DMA
 709              	.LVL55:
  29:Lib/BufferedSerial/BufferedSerial.hpp ****             // printf("- Serial init\n");
 710              		.loc 2 29 33 view .LVU193
 711              	.LBE147:
 712              	.LBE146:
  19:src/unit/robot/robot.cpp ****       serial2.init();
 713              		.loc 1 19 7 is_stmt 1 view .LVU194
 714              	.LBB148:
 715              	.LBI148:
  27:Lib/BufferedSerial/BufferedSerial.hpp ****             _useDMA = dma;
 716              		.loc 2 27 12 view .LVU195
 717              	.LBB149:
  28:Lib/BufferedSerial/BufferedSerial.hpp ****             HAL_UART_Receive_DMA(_huart, _rxBuf, _rxBufSize);
 718              		.loc 2 28 13 view .LVU196
  28:Lib/BufferedSerial/BufferedSerial.hpp ****             HAL_UART_Receive_DMA(_huart, _rxBuf, _rxBufSize);
 719              		.loc 2 28 21 is_stmt 0 view .LVU197
 720 0046 85F8D266 		strb	r6, [r5, #1746]
  29:Lib/BufferedSerial/BufferedSerial.hpp ****             // printf("- Serial init\n");
 721              		.loc 2 29 13 is_stmt 1 view .LVU198
  29:Lib/BufferedSerial/BufferedSerial.hpp ****             // printf("- Serial init\n");
 722              		.loc 2 29 33 is_stmt 0 view .LVU199
 723 004a B5F8D026 		ldrh	r2, [r5, #1744]
 724 004e D5F8C816 		ldr	r1, [r5, #1736]
 725 0052 D5F8C406 		ldr	r0, [r5, #1732]
 726 0056 FFF7FEFF 		bl	HAL_UART_Receive_DMA
 727              	.LVL56:
  29:Lib/BufferedSerial/BufferedSerial.hpp ****             // printf("- Serial init\n");
 728              		.loc 2 29 33 view .LVU200
 729              	.LBE149:
 730              	.LBE148:
  20:src/unit/robot/robot.cpp ****       serial3.init();
 731              		.loc 1 20 7 is_stmt 1 view .LVU201
 732              	.LBB150:
 733              	.LBI150:
  27:Lib/BufferedSerial/BufferedSerial.hpp ****             _useDMA = dma;
 734              		.loc 2 27 12 view .LVU202
 735              	.LBB151:
  28:Lib/BufferedSerial/BufferedSerial.hpp ****             HAL_UART_Receive_DMA(_huart, _rxBuf, _rxBufSize);
 736              		.loc 2 28 13 view .LVU203
  28:Lib/BufferedSerial/BufferedSerial.hpp ****             HAL_UART_Receive_DMA(_huart, _rxBuf, _rxBufSize);
 737              		.loc 2 28 21 is_stmt 0 view .LVU204
 738 005a 85F8E266 		strb	r6, [r5, #1762]
  29:Lib/BufferedSerial/BufferedSerial.hpp ****             // printf("- Serial init\n");
 739              		.loc 2 29 13 is_stmt 1 view .LVU205
  29:Lib/BufferedSerial/BufferedSerial.hpp ****             // printf("- Serial init\n");
 740              		.loc 2 29 33 is_stmt 0 view .LVU206
 741 005e B5F8E026 		ldrh	r2, [r5, #1760]
 742 0062 D5F8D816 		ldr	r1, [r5, #1752]
 743 0066 D5F8D406 		ldr	r0, [r5, #1748]
ARM GAS  /var/folders/5c/srt4fy4j1pd641bjfx75k5000000gn/T//ccFHb7ij.s 			page 18


 744 006a FFF7FEFF 		bl	HAL_UART_Receive_DMA
 745              	.LVL57:
  29:Lib/BufferedSerial/BufferedSerial.hpp ****             // printf("- Serial init\n");
 746              		.loc 2 29 33 view .LVU207
 747              	.LBE151:
 748              	.LBE150:
  21:src/unit/robot/robot.cpp ****       serial4.init();
 749              		.loc 1 21 7 is_stmt 1 view .LVU208
 750              	.LBB152:
 751              	.LBI152:
  27:Lib/BufferedSerial/BufferedSerial.hpp ****             _useDMA = dma;
 752              		.loc 2 27 12 view .LVU209
 753              	.LBB153:
  28:Lib/BufferedSerial/BufferedSerial.hpp ****             HAL_UART_Receive_DMA(_huart, _rxBuf, _rxBufSize);
 754              		.loc 2 28 13 view .LVU210
  28:Lib/BufferedSerial/BufferedSerial.hpp ****             HAL_UART_Receive_DMA(_huart, _rxBuf, _rxBufSize);
 755              		.loc 2 28 21 is_stmt 0 view .LVU211
 756 006e 85F8F266 		strb	r6, [r5, #1778]
  29:Lib/BufferedSerial/BufferedSerial.hpp ****             // printf("- Serial init\n");
 757              		.loc 2 29 13 is_stmt 1 view .LVU212
  29:Lib/BufferedSerial/BufferedSerial.hpp ****             // printf("- Serial init\n");
 758              		.loc 2 29 33 is_stmt 0 view .LVU213
 759 0072 B5F8F026 		ldrh	r2, [r5, #1776]
 760 0076 D5F8E816 		ldr	r1, [r5, #1768]
 761 007a D5F8E406 		ldr	r0, [r5, #1764]
 762 007e FFF7FEFF 		bl	HAL_UART_Receive_DMA
 763              	.LVL58:
  29:Lib/BufferedSerial/BufferedSerial.hpp ****             // printf("- Serial init\n");
 764              		.loc 2 29 33 view .LVU214
 765              	.LBE153:
 766              	.LBE152:
  22:src/unit/robot/robot.cpp ****       ledh.init();
 767              		.loc 1 22 7 is_stmt 1 view .LVU215
 768              		.loc 1 22 16 is_stmt 0 view .LVU216
 769 0082 04F14C00 		add	r0, r4, #76
 770 0086 FFF7FEFF 		bl	_ZN12PwmSingleOut4initEv
 771              	.LVL59:
  23:src/unit/robot/robot.cpp ****       motor1a.init();
 772              		.loc 1 23 7 is_stmt 1 view .LVU217
 773              		.loc 1 23 19 is_stmt 0 view .LVU218
 774 008a 04F15C00 		add	r0, r4, #92
 775 008e FFF7FEFF 		bl	_ZN12PwmSingleOut4initEv
 776              	.LVL60:
  24:src/unit/robot/robot.cpp ****       motor1b.init();
 777              		.loc 1 24 7 is_stmt 1 view .LVU219
 778              		.loc 1 24 19 is_stmt 0 view .LVU220
 779 0092 04F16C00 		add	r0, r4, #108
 780 0096 FFF7FEFF 		bl	_ZN12PwmSingleOut4initEv
 781              	.LVL61:
  25:src/unit/robot/robot.cpp ****       motor2a.init();
 782              		.loc 1 25 7 is_stmt 1 view .LVU221
 783              		.loc 1 25 19 is_stmt 0 view .LVU222
 784 009a 04F17C00 		add	r0, r4, #124
 785 009e FFF7FEFF 		bl	_ZN12PwmSingleOut4initEv
 786              	.LVL62:
  26:src/unit/robot/robot.cpp ****       motor2b.init();
 787              		.loc 1 26 7 is_stmt 1 view .LVU223
ARM GAS  /var/folders/5c/srt4fy4j1pd641bjfx75k5000000gn/T//ccFHb7ij.s 			page 19


 788              		.loc 1 26 19 is_stmt 0 view .LVU224
 789 00a2 04F18C00 		add	r0, r4, #140
 790 00a6 FFF7FEFF 		bl	_ZN12PwmSingleOut4initEv
 791              	.LVL63:
  27:src/unit/robot/robot.cpp ****       motor3a.init();
 792              		.loc 1 27 7 is_stmt 1 view .LVU225
 793              		.loc 1 27 19 is_stmt 0 view .LVU226
 794 00aa 04F19C00 		add	r0, r4, #156
 795 00ae FFF7FEFF 		bl	_ZN12PwmSingleOut4initEv
 796              	.LVL64:
  28:src/unit/robot/robot.cpp ****       motor3b.init();
 797              		.loc 1 28 7 is_stmt 1 view .LVU227
 798              		.loc 1 28 19 is_stmt 0 view .LVU228
 799 00b2 04F1AC00 		add	r0, r4, #172
 800 00b6 FFF7FEFF 		bl	_ZN12PwmSingleOut4initEv
 801              	.LVL65:
  29:src/unit/robot/robot.cpp ****       motor4a.init();
 802              		.loc 1 29 7 is_stmt 1 view .LVU229
 803              		.loc 1 29 19 is_stmt 0 view .LVU230
 804 00ba 04F1BC00 		add	r0, r4, #188
 805 00be FFF7FEFF 		bl	_ZN12PwmSingleOut4initEv
 806              	.LVL66:
  30:src/unit/robot/robot.cpp ****       motor4b.init();
 807              		.loc 1 30 7 is_stmt 1 view .LVU231
 808              		.loc 1 30 19 is_stmt 0 view .LVU232
 809 00c2 04F1CC00 		add	r0, r4, #204
 810 00c6 FFF7FEFF 		bl	_ZN12PwmSingleOut4initEv
 811              	.LVL67:
  31:src/unit/robot/robot.cpp ****       dribbler_front_a.init();
 812              		.loc 1 31 7 is_stmt 1 view .LVU233
 813              		.loc 1 31 28 is_stmt 0 view .LVU234
 814 00ca 04F1DC00 		add	r0, r4, #220
 815 00ce FFF7FEFF 		bl	_ZN12PwmSingleOut4initEv
 816              	.LVL68:
  32:src/unit/robot/robot.cpp ****       dribbler_front_b.init();
 817              		.loc 1 32 7 is_stmt 1 view .LVU235
 818              		.loc 1 32 28 is_stmt 0 view .LVU236
 819 00d2 04F1EC00 		add	r0, r4, #236
 820 00d6 FFF7FEFF 		bl	_ZN12PwmSingleOut4initEv
 821              	.LVL69:
  33:src/unit/robot/robot.cpp ****       dribbler_back_a.init();
 822              		.loc 1 33 7 is_stmt 1 view .LVU237
 823              		.loc 1 33 27 is_stmt 0 view .LVU238
 824 00da 04F1FC00 		add	r0, r4, #252
 825 00de FFF7FEFF 		bl	_ZN12PwmSingleOut4initEv
 826              	.LVL70:
  34:src/unit/robot/robot.cpp ****       dribbler_back_b.init();
 827              		.loc 1 34 7 is_stmt 1 view .LVU239
 828              		.loc 1 34 27 is_stmt 0 view .LVU240
 829 00e2 04F58670 		add	r0, r4, #268
 830 00e6 FFF7FEFF 		bl	_ZN12PwmSingleOut4initEv
 831              	.LVL71:
  35:src/unit/robot/robot.cpp **** 
  36:src/unit/robot/robot.cpp ****       // 接続確認
  37:src/unit/robot/robot.cpp ****       motor.CheckConnection();
 832              		.loc 1 37 7 is_stmt 1 view .LVU241
 833              		.loc 1 37 28 is_stmt 0 view .LVU242
ARM GAS  /var/folders/5c/srt4fy4j1pd641bjfx75k5000000gn/T//ccFHb7ij.s 			page 20


 834 00ea 04F59870 		add	r0, r4, #304
 835 00ee FFF7FEFF 		bl	_ZN10MotorDrive15CheckConnectionEv
 836              	.LVL72:
  38:src/unit/robot/robot.cpp ****       HAL_Delay(200);
 837              		.loc 1 38 7 is_stmt 1 view .LVU243
 838              		.loc 1 38 16 is_stmt 0 view .LVU244
 839 00f2 C820     		movs	r0, #200
 840 00f4 FFF7FEFF 		bl	HAL_Delay
 841              	.LVL73:
  39:src/unit/robot/robot.cpp ****       dribbler_front.CheckConnection();
 842              		.loc 1 39 7 is_stmt 1 view .LVU245
 843              		.loc 1 39 37 is_stmt 0 view .LVU246
 844 00f8 04F58150 		add	r0, r4, #4128
 845 00fc FFF7FEFF 		bl	_ZN13DribblerDrive15CheckConnectionEv
 846              	.LVL74:
  40:src/unit/robot/robot.cpp ****       dribbler_back.CheckConnection();
 847              		.loc 1 40 7 is_stmt 1 view .LVU247
 848              		.loc 1 40 36 is_stmt 0 view .LVU248
 849 0100 04F59B50 		add	r0, r4, #4960
 850 0104 FFF7FEFF 		bl	_ZN13DribblerDrive15CheckConnectionEv
 851              	.LVL75:
  41:src/unit/robot/robot.cpp **** }
 852              		.loc 1 41 1 view .LVU249
 853 0108 70BD     		pop	{r4, r5, r6, pc}
 854              	.LVL76:
 855              	.L15:
 856              		.loc 1 41 1 view .LVU250
 857 010a 00BF     		.align	2
 858              	.L14:
 859 010c 00000000 		.word	hadc1
 860 0110 00000000 		.word	adc_get_val
 861              		.cfi_endproc
 862              	.LFE272:
 863              		.fnend
 865              		.global	__aeabi_i2d
 866              		.global	__aeabi_dmul
 867              		.global	__aeabi_d2f
 868              		.global	__aeabi_f2d
 869              		.global	__aeabi_dadd
 870              		.global	__aeabi_ui2d
 871              		.global	__aeabi_d2uiz
 872              		.section	.text._ZN5Robot10GetSensorsEv,"ax",%progbits
 873              		.align	1
 874              		.global	_ZN5Robot10GetSensorsEv
 875              		.syntax unified
 876              		.thumb
 877              		.thumb_func
 879              	_ZN5Robot10GetSensorsEv:
 880              		.fnstart
 881              	.LVL77:
 882              	.LFB273:
  42:src/unit/robot/robot.cpp **** 
  43:src/unit/robot/robot.cpp **** void Robot::GetSensors() {
 883              		.loc 1 43 26 is_stmt 1 view -0
 884              		.cfi_startproc
 885              		@ args = 0, pretend = 0, frame = 0
 886              		@ frame_needed = 0, uses_anonymous_args = 0
ARM GAS  /var/folders/5c/srt4fy4j1pd641bjfx75k5000000gn/T//ccFHb7ij.s 			page 21


 887              		.loc 1 43 26 is_stmt 0 view .LVU252
 888 0000 2DE97043 		push	{r4, r5, r6, r8, r9, lr}
 889              		.save {r4, r5, r6, r8, r9, lr}
 890              	.LCFI5:
 891              		.cfi_def_cfa_offset 24
 892              		.cfi_offset 4, -24
 893              		.cfi_offset 5, -20
 894              		.cfi_offset 6, -16
 895              		.cfi_offset 8, -12
 896              		.cfi_offset 9, -8
 897              		.cfi_offset 14, -4
 898 0004 0446     		mov	r4, r0
  44:src/unit/robot/robot.cpp ****       static float pre_voltage = 9.6;
 899              		.loc 1 44 7 is_stmt 1 view .LVU253
  45:src/unit/robot/robot.cpp ****       info.voltage = adc_get_val[0] * VOLTAGE_CONVERTION;
 900              		.loc 1 45 7 view .LVU254
 901              		.loc 1 45 35 is_stmt 0 view .LVU255
 902 0006 364E     		ldr	r6, .L18+24
 903              		.loc 1 45 37 view .LVU256
 904 0008 3088     		ldrh	r0, [r6]
 905              	.LVL78:
 906              		.loc 1 45 37 view .LVU257
 907 000a FFF7FEFF 		bl	__aeabi_i2d
 908              	.LVL79:
 909 000e 2EA3     		adr	r3, .L18
 910 0010 D3E90023 		ldrd	r2, [r3]
 911 0014 FFF7FEFF 		bl	__aeabi_dmul
 912              	.LVL80:
 913 0018 FFF7FEFF 		bl	__aeabi_d2f
 914              	.LVL81:
 915              		.loc 1 45 20 view .LVU258
 916 001c 2060     		str	r0, [r4]	@ float
  46:src/unit/robot/robot.cpp ****       info.voltage = info.voltage * (1 - VOLTAGE_RC) + pre_voltage * VOLTAGE_RC;
 917              		.loc 1 46 7 is_stmt 1 view .LVU259
 918              		.loc 1 46 27 is_stmt 0 view .LVU260
 919 001e FFF7FEFF 		bl	__aeabi_f2d
 920              	.LVL82:
 921              		.loc 1 46 35 view .LVU261
 922 0022 2BA3     		adr	r3, .L18+8
 923 0024 D3E90023 		ldrd	r2, [r3]
 924 0028 FFF7FEFF 		bl	__aeabi_dmul
 925              	.LVL83:
 926 002c 8046     		mov	r8, r0
 927 002e 8946     		mov	r9, r1
 928              		.loc 1 46 56 view .LVU262
 929 0030 2C4D     		ldr	r5, .L18+28
 930 0032 2868     		ldr	r0, [r5]	@ float
 931 0034 FFF7FEFF 		bl	__aeabi_f2d
 932              	.LVL84:
 933              		.loc 1 46 68 view .LVU263
 934 0038 27A3     		adr	r3, .L18+16
 935 003a D3E90023 		ldrd	r2, [r3]
 936 003e FFF7FEFF 		bl	__aeabi_dmul
 937              	.LVL85:
 938 0042 0246     		mov	r2, r0
 939 0044 0B46     		mov	r3, r1
 940              		.loc 1 46 54 view .LVU264
ARM GAS  /var/folders/5c/srt4fy4j1pd641bjfx75k5000000gn/T//ccFHb7ij.s 			page 22


 941 0046 4046     		mov	r0, r8
 942 0048 4946     		mov	r1, r9
 943 004a FFF7FEFF 		bl	__aeabi_dadd
 944              	.LVL86:
 945 004e FFF7FEFF 		bl	__aeabi_d2f
 946              	.LVL87:
 947              		.loc 1 46 20 view .LVU265
 948 0052 2060     		str	r0, [r4]	@ float
  47:src/unit/robot/robot.cpp ****       pre_voltage = info.voltage;
 949              		.loc 1 47 7 is_stmt 1 view .LVU266
 950              		.loc 1 47 19 is_stmt 0 view .LVU267
 951 0054 2860     		str	r0, [r5]	@ float
  48:src/unit/robot/robot.cpp **** 
  49:src/unit/robot/robot.cpp ****       catch_front.Compute(adc_get_val[1]);
 952              		.loc 1 49 7 is_stmt 1 view .LVU268
 953              		.loc 1 49 26 is_stmt 0 view .LVU269
 954 0056 04F5B858 		add	r8, r4, #5888
 955 005a 7088     		ldrh	r0, [r6, #2]
 956 005c FFF7FEFF 		bl	__aeabi_ui2d
 957              	.LVL88:
 958 0060 41EC100B 		vmov	d0, r0, r1
 959 0064 4046     		mov	r0, r8
 960 0066 FFF7FEFF 		bl	_ZN9MovingAve7ComputeEd
 961              	.LVL89:
  50:src/unit/robot/robot.cpp ****       catch_back.Compute(adc_get_val[2]);
 962              		.loc 1 50 7 is_stmt 1 view .LVU270
 963              		.loc 1 50 25 is_stmt 0 view .LVU271
 964 006a 04F5D155 		add	r5, r4, #6688
 965 006e 1835     		adds	r5, r5, #24
 966 0070 B088     		ldrh	r0, [r6, #4]
 967 0072 FFF7FEFF 		bl	__aeabi_ui2d
 968              	.LVL90:
 969 0076 41EC100B 		vmov	d0, r0, r1
 970 007a 2846     		mov	r0, r5
 971 007c FFF7FEFF 		bl	_ZN9MovingAve7ComputeEd
 972              	.LVL91:
  51:src/unit/robot/robot.cpp ****       info.Catch.front_val = catch_front.Get();
 973              		.loc 1 51 7 is_stmt 1 view .LVU272
 974              		.loc 1 51 45 is_stmt 0 view .LVU273
 975 0080 4046     		mov	r0, r8
 976 0082 FFF7FEFF 		bl	_ZN9MovingAve3GetEv
 977              	.LVL92:
 978 0086 51EC100B 		vmov	r0, r1, d0
 979              		.loc 1 51 28 view .LVU274
 980 008a FFF7FEFF 		bl	__aeabi_d2uiz
 981              	.LVL93:
 982 008e 2084     		strh	r0, [r4, #32]	@ movhi
  52:src/unit/robot/robot.cpp ****       info.Catch.back_val = catch_back.Get();
 983              		.loc 1 52 7 is_stmt 1 view .LVU275
 984              		.loc 1 52 43 is_stmt 0 view .LVU276
 985 0090 2846     		mov	r0, r5
 986 0092 FFF7FEFF 		bl	_ZN9MovingAve3GetEv
 987              	.LVL94:
 988 0096 51EC100B 		vmov	r0, r1, d0
 989              		.loc 1 52 27 view .LVU277
 990 009a FFF7FEFF 		bl	__aeabi_d2uiz
 991              	.LVL95:
ARM GAS  /var/folders/5c/srt4fy4j1pd641bjfx75k5000000gn/T//ccFHb7ij.s 			page 23


 992 009e 80B2     		uxth	r0, r0
 993 00a0 A084     		strh	r0, [r4, #36]	@ movhi
  53:src/unit/robot/robot.cpp **** 
  54:src/unit/robot/robot.cpp ****       info.Catch.is_front = info.Catch.front_val < CATCH_FRONT_TH ? 1 : 0;
 994              		.loc 1 54 7 is_stmt 1 view .LVU278
 995              		.loc 1 54 40 is_stmt 0 view .LVU279
 996 00a2 238C     		ldrh	r3, [r4, #32]
 997              		.loc 1 54 67 view .LVU280
 998 00a4 40F2F312 		movw	r2, #499
 999 00a8 9342     		cmp	r3, r2
 1000 00aa 8CBF     		ite	hi
 1001 00ac 0023     		movhi	r3, #0
 1002 00ae 0123     		movls	r3, #1
 1003              		.loc 1 54 27 view .LVU281
 1004 00b0 84F82230 		strb	r3, [r4, #34]
  55:src/unit/robot/robot.cpp ****       info.Catch.is_back = info.Catch.back_val < CATCH_BACK_TH ? 1 : 0;
 1005              		.loc 1 55 7 is_stmt 1 view .LVU282
 1006              		.loc 1 55 64 is_stmt 0 view .LVU283
 1007 00b4 9042     		cmp	r0, r2
 1008 00b6 8CBF     		ite	hi
 1009 00b8 0020     		movhi	r0, #0
 1010 00ba 0120     		movls	r0, #1
 1011              		.loc 1 55 26 view .LVU284
 1012 00bc 84F82600 		strb	r0, [r4, #38]
  56:src/unit/robot/robot.cpp **** }
 1013              		.loc 1 56 1 view .LVU285
 1014 00c0 BDE87083 		pop	{r4, r5, r6, r8, r9, pc}
 1015              	.LVL96:
 1016              	.L19:
 1017              		.loc 1 56 1 view .LVU286
 1018 00c4 AFF30080 		.align	3
 1019              	.L18:
 1020 00c8 9A999999 		.word	-1717986918
 1021 00cc 99998A3F 		.word	1066047897
 1022 00d0 00AAF1D2 		.word	-755914240
 1023 00d4 4D62503F 		.word	1062232653
 1024 00d8 2B8716D9 		.word	-652835029
 1025 00dc CEF7EF3F 		.word	1072691150
 1026 00e0 00000000 		.word	adc_get_val
 1027 00e4 00000000 		.word	_ZZN5Robot10GetSensorsEvE11pre_voltage
 1028              		.cfi_endproc
 1029              	.LFE273:
 1030              		.fnend
 1032              		.global	__aeabi_dsub
 1033              		.global	__aeabi_d2iz
 1034              		.section	.text._ZN5Robot7ImuUartEv,"ax",%progbits
 1035              		.align	1
 1036              		.global	_ZN5Robot7ImuUartEv
 1037              		.syntax unified
 1038              		.thumb
 1039              		.thumb_func
 1041              	_ZN5Robot7ImuUartEv:
 1042              		.fnstart
 1043              	.LVL97:
 1044              	.LFB274:
  57:src/unit/robot/robot.cpp **** 
  58:src/unit/robot/robot.cpp **** void Robot::ImuUart() {
ARM GAS  /var/folders/5c/srt4fy4j1pd641bjfx75k5000000gn/T//ccFHb7ij.s 			page 24


 1045              		.loc 1 58 23 is_stmt 1 view -0
 1046              		.cfi_startproc
 1047              		@ args = 0, pretend = 0, frame = 0
 1048              		@ frame_needed = 0, uses_anonymous_args = 0
 1049              		.loc 1 58 23 is_stmt 0 view .LVU288
 1050 0000 38B5     		push	{r3, r4, r5, lr}
 1051              	.LCFI6:
 1052              		.cfi_def_cfa_offset 16
 1053              		.cfi_offset 3, -16
 1054              		.cfi_offset 4, -12
 1055              		.cfi_offset 5, -8
 1056              		.cfi_offset 14, -4
 1057 0002 0446     		mov	r4, r0
  59:src/unit/robot/robot.cpp ****       while (serial1.available()) {
 1058              		.loc 1 59 7 is_stmt 1 view .LVU289
 1059 0004 0BE0     		b	.L21
 1060              	.LVL98:
 1061              	.L31:
 1062              	.LBB154:
  60:src/unit/robot/robot.cpp ****             static const uint8_t HEADER = 0xFF;  // ヘッダ
  61:src/unit/robot/robot.cpp ****             static const uint8_t FOOTER = 0xAA;  // ヘッダ
  62:src/unit/robot/robot.cpp ****             static const uint8_t dataSize = 6;   // データのサイズ
  63:src/unit/robot/robot.cpp ****             static uint8_t index = 0;            // 受信したデータのインデックスカ
  64:src/unit/robot/robot.cpp ****             static uint8_t recv_data[dataSize];  // 受信したデータ
  65:src/unit/robot/robot.cpp ****             static uint8_t recv_byte;
  66:src/unit/robot/robot.cpp **** 
  67:src/unit/robot/robot.cpp ****             recv_byte = serial1.read();
  68:src/unit/robot/robot.cpp ****             if (index == 0) {
  69:src/unit/robot/robot.cpp ****                   if (recv_byte == HEADER) {
  70:src/unit/robot/robot.cpp ****                         index++;
 1063              		.loc 1 70 25 view .LVU290
 1064              		.loc 1 70 30 is_stmt 0 view .LVU291
 1065 0006 0133     		adds	r3, r3, #1
 1066 0008 374A     		ldr	r2, .L33+8
 1067 000a 1370     		strb	r3, [r2]
 1068 000c 07E0     		b	.L21
 1069              	.L22:
  71:src/unit/robot/robot.cpp ****                   } else {
  72:src/unit/robot/robot.cpp ****                         index = 0;
  73:src/unit/robot/robot.cpp ****                   }
  74:src/unit/robot/robot.cpp ****             } else if (index == (dataSize + 1)) {
 1070              		.loc 1 74 20 is_stmt 1 view .LVU292
 1071 000e 072B     		cmp	r3, #7
 1072 0010 26D0     		beq	.L29
  75:src/unit/robot/robot.cpp ****                   if (recv_byte == FOOTER) {
  76:src/unit/robot/robot.cpp ****                         info.Imu.yaw = ((((uint16_t)recv_data[0] << 8) & 0xFF00) | ((int16_t)recv_d
  77:src/unit/robot/robot.cpp ****                         info.Imu.pitch = ((((uint16_t)recv_data[2] << 8) & 0xFF00) | ((int16_t)recv
  78:src/unit/robot/robot.cpp ****                         info.Imu.roll = ((((uint16_t)recv_data[4] << 8) & 0xFF00) | ((int16_t)recv_
  79:src/unit/robot/robot.cpp ****                   }
  80:src/unit/robot/robot.cpp ****                   index = 0;
  81:src/unit/robot/robot.cpp ****             } else {
  82:src/unit/robot/robot.cpp ****                   recv_data[index - 1] = recv_byte;
 1073              		.loc 1 82 19 view .LVU293
 1074              		.loc 1 82 35 is_stmt 0 view .LVU294
 1075 0012 5A1E     		subs	r2, r3, #1
 1076              		.loc 1 82 40 view .LVU295
 1077 0014 3549     		ldr	r1, .L33+12
ARM GAS  /var/folders/5c/srt4fy4j1pd641bjfx75k5000000gn/T//ccFHb7ij.s 			page 25


 1078 0016 8854     		strb	r0, [r1, r2]
  83:src/unit/robot/robot.cpp ****                   index++;
 1079              		.loc 1 83 19 is_stmt 1 view .LVU296
 1080              		.loc 1 83 24 is_stmt 0 view .LVU297
 1081 0018 0133     		adds	r3, r3, #1
 1082 001a 334A     		ldr	r2, .L33+8
 1083 001c 1370     		strb	r3, [r2]
 1084              	.L21:
 1085              		.loc 1 83 24 view .LVU298
 1086              	.LBE154:
  59:src/unit/robot/robot.cpp ****             static const uint8_t HEADER = 0xFF;  // ヘッダ
 1087              		.loc 1 59 31 is_stmt 1 view .LVU299
 1088              	.LVL99:
 1089              	.LBB155:
 1090              	.LBI155:
  33:Lib/BufferedSerial/BufferedSerial.hpp ****             uint16_t rxTop = _rxBufSize - _huart->hdmarx->Instance->NDTR;
 1091              		.loc 2 33 12 view .LVU300
 1092              	.LBB156:
  34:Lib/BufferedSerial/BufferedSerial.hpp ****             return rxTop != rxBtm;
 1093              		.loc 2 34 13 view .LVU301
  34:Lib/BufferedSerial/BufferedSerial.hpp ****             return rxTop != rxBtm;
 1094              		.loc 2 34 30 is_stmt 0 view .LVU302
 1095 001e 04F58052 		add	r2, r4, #4096
 1096 0022 B2F8C036 		ldrh	r3, [r2, #1728]
  34:Lib/BufferedSerial/BufferedSerial.hpp ****             return rxTop != rxBtm;
 1097              		.loc 2 34 43 view .LVU303
 1098 0026 D2F8B416 		ldr	r1, [r2, #1716]
  34:Lib/BufferedSerial/BufferedSerial.hpp ****             return rxTop != rxBtm;
 1099              		.loc 2 34 51 view .LVU304
 1100 002a C96B     		ldr	r1, [r1, #60]
  34:Lib/BufferedSerial/BufferedSerial.hpp ****             return rxTop != rxBtm;
 1101              		.loc 2 34 59 view .LVU305
 1102 002c 0968     		ldr	r1, [r1]
  34:Lib/BufferedSerial/BufferedSerial.hpp ****             return rxTop != rxBtm;
 1103              		.loc 2 34 69 view .LVU306
 1104 002e 4968     		ldr	r1, [r1, #4]
  34:Lib/BufferedSerial/BufferedSerial.hpp ****             return rxTop != rxBtm;
 1105              		.loc 2 34 41 view .LVU307
 1106 0030 89B2     		uxth	r1, r1
  34:Lib/BufferedSerial/BufferedSerial.hpp ****             return rxTop != rxBtm;
 1107              		.loc 2 34 69 view .LVU308
 1108 0032 5B1A     		subs	r3, r3, r1
 1109 0034 9BB2     		uxth	r3, r3
 1110              	.LVL100:
  35:Lib/BufferedSerial/BufferedSerial.hpp ****       }
 1111              		.loc 2 35 13 is_stmt 1 view .LVU309
  35:Lib/BufferedSerial/BufferedSerial.hpp ****       }
 1112              		.loc 2 35 29 is_stmt 0 view .LVU310
 1113 0036 B2F8BE26 		ldrh	r2, [r2, #1726]
 1114              	.LVL101:
  35:Lib/BufferedSerial/BufferedSerial.hpp ****       }
 1115              		.loc 2 35 29 view .LVU311
 1116              	.LBE156:
 1117              	.LBE155:
  59:src/unit/robot/robot.cpp ****             static const uint8_t HEADER = 0xFF;  // ヘッダ
 1118              		.loc 1 59 31 view .LVU312
 1119 003a 9342     		cmp	r3, r2
ARM GAS  /var/folders/5c/srt4fy4j1pd641bjfx75k5000000gn/T//ccFHb7ij.s 			page 26


 1120 003c 4ED0     		beq	.L30
 1121              	.LBB157:
  60:src/unit/robot/robot.cpp ****             static const uint8_t FOOTER = 0xAA;  // ヘッダ
 1122              		.loc 1 60 13 is_stmt 1 view .LVU313
  61:src/unit/robot/robot.cpp ****             static const uint8_t dataSize = 6;   // データのサイズ
 1123              		.loc 1 61 13 view .LVU314
  62:src/unit/robot/robot.cpp ****             static uint8_t index = 0;            // 受信したデータのインデックスカ
 1124              		.loc 1 62 13 view .LVU315
  63:src/unit/robot/robot.cpp ****             static uint8_t recv_data[dataSize];  // 受信したデータ
 1125              		.loc 1 63 13 view .LVU316
  64:src/unit/robot/robot.cpp ****             static uint8_t recv_byte;
 1126              		.loc 1 64 13 view .LVU317
  65:src/unit/robot/robot.cpp **** 
 1127              		.loc 1 65 13 view .LVU318
  67:src/unit/robot/robot.cpp ****             if (index == 0) {
 1128              		.loc 1 67 13 view .LVU319
  67:src/unit/robot/robot.cpp ****             if (index == 0) {
 1129              		.loc 1 67 37 is_stmt 0 view .LVU320
 1130 003e 04F5B550 		add	r0, r4, #5792
 1131 0042 1430     		adds	r0, r0, #20
 1132 0044 FFF7FEFF 		bl	_ZN14BufferedSerial4readEv
 1133              	.LVL102:
  67:src/unit/robot/robot.cpp ****             if (index == 0) {
 1134              		.loc 1 67 23 view .LVU321
 1135 0048 294B     		ldr	r3, .L33+16
 1136 004a 1870     		strb	r0, [r3]
  68:src/unit/robot/robot.cpp ****                   if (recv_byte == HEADER) {
 1137              		.loc 1 68 13 is_stmt 1 view .LVU322
  68:src/unit/robot/robot.cpp ****                   if (recv_byte == HEADER) {
 1138              		.loc 1 68 23 is_stmt 0 view .LVU323
 1139 004c 264B     		ldr	r3, .L33+8
 1140 004e 1B78     		ldrb	r3, [r3]	@ zero_extendqisi2
  68:src/unit/robot/robot.cpp ****                   if (recv_byte == HEADER) {
 1141              		.loc 1 68 13 view .LVU324
 1142 0050 002B     		cmp	r3, #0
 1143 0052 DCD1     		bne	.L22
  69:src/unit/robot/robot.cpp ****                         index++;
 1144              		.loc 1 69 19 is_stmt 1 view .LVU325
 1145 0054 FF28     		cmp	r0, #255
 1146 0056 D6D0     		beq	.L31
  72:src/unit/robot/robot.cpp ****                   }
 1147              		.loc 1 72 25 view .LVU326
  72:src/unit/robot/robot.cpp ****                   }
 1148              		.loc 1 72 31 is_stmt 0 view .LVU327
 1149 0058 234B     		ldr	r3, .L33+8
 1150 005a 0022     		movs	r2, #0
 1151 005c 1A70     		strb	r2, [r3]
 1152 005e DEE7     		b	.L21
 1153              	.L29:
  75:src/unit/robot/robot.cpp ****                         info.Imu.yaw = ((((uint16_t)recv_data[0] << 8) & 0xFF00) | ((int16_t)recv_d
 1154              		.loc 1 75 19 is_stmt 1 view .LVU328
 1155 0060 AA28     		cmp	r0, #170
 1156 0062 03D0     		beq	.L32
 1157              	.L26:
  80:src/unit/robot/robot.cpp ****             } else {
 1158              		.loc 1 80 19 view .LVU329
  80:src/unit/robot/robot.cpp ****             } else {
ARM GAS  /var/folders/5c/srt4fy4j1pd641bjfx75k5000000gn/T//ccFHb7ij.s 			page 27


 1159              		.loc 1 80 25 is_stmt 0 view .LVU330
 1160 0064 204B     		ldr	r3, .L33+8
 1161 0066 0022     		movs	r2, #0
 1162 0068 1A70     		strb	r2, [r3]
 1163 006a D8E7     		b	.L21
 1164              	.L32:
  76:src/unit/robot/robot.cpp ****                         info.Imu.pitch = ((((uint16_t)recv_data[2] << 8) & 0xFF00) | ((int16_t)recv
 1165              		.loc 1 76 25 is_stmt 1 view .LVU331
  76:src/unit/robot/robot.cpp ****                         info.Imu.pitch = ((((uint16_t)recv_data[2] << 8) & 0xFF00) | ((int16_t)recv
 1166              		.loc 1 76 64 is_stmt 0 view .LVU332
 1167 006c 1F4D     		ldr	r5, .L33+12
 1168 006e 2878     		ldrb	r0, [r5]	@ zero_extendqisi2
  76:src/unit/robot/robot.cpp ****                         info.Imu.pitch = ((((uint16_t)recv_data[2] << 8) & 0xFF00) | ((int16_t)recv
 1169              		.loc 1 76 105 view .LVU333
 1170 0070 6B78     		ldrb	r3, [r5, #1]	@ zero_extendqisi2
  76:src/unit/robot/robot.cpp ****                         info.Imu.pitch = ((((uint16_t)recv_data[2] << 8) & 0xFF00) | ((int16_t)recv
 1171              		.loc 1 76 118 view .LVU334
 1172 0072 43EA0020 		orr	r0, r3, r0, lsl #8
 1173 0076 FFF7FEFF 		bl	__aeabi_i2d
 1174              	.LVL103:
 1175 007a 19A3     		adr	r3, .L33
 1176 007c D3E90023 		ldrd	r2, [r3]
 1177 0080 FFF7FEFF 		bl	__aeabi_dmul
 1178              	.LVL104:
  76:src/unit/robot/robot.cpp ****                         info.Imu.pitch = ((((uint16_t)recv_data[2] << 8) & 0xFF00) | ((int16_t)recv
 1179              		.loc 1 76 124 view .LVU335
 1180 0084 0022     		movs	r2, #0
 1181 0086 1B4B     		ldr	r3, .L33+20
 1182 0088 FFF7FEFF 		bl	__aeabi_dsub
 1183              	.LVL105:
  76:src/unit/robot/robot.cpp ****                         info.Imu.pitch = ((((uint16_t)recv_data[2] << 8) & 0xFF00) | ((int16_t)recv
 1184              		.loc 1 76 38 view .LVU336
 1185 008c FFF7FEFF 		bl	__aeabi_d2iz
 1186              	.LVL106:
 1187 0090 2085     		strh	r0, [r4, #40]	@ movhi
  77:src/unit/robot/robot.cpp ****                         info.Imu.roll = ((((uint16_t)recv_data[4] << 8) & 0xFF00) | ((int16_t)recv_
 1188              		.loc 1 77 25 is_stmt 1 view .LVU337
  77:src/unit/robot/robot.cpp ****                         info.Imu.roll = ((((uint16_t)recv_data[4] << 8) & 0xFF00) | ((int16_t)recv_
 1189              		.loc 1 77 66 is_stmt 0 view .LVU338
 1190 0092 A878     		ldrb	r0, [r5, #2]	@ zero_extendqisi2
  77:src/unit/robot/robot.cpp ****                         info.Imu.roll = ((((uint16_t)recv_data[4] << 8) & 0xFF00) | ((int16_t)recv_
 1191              		.loc 1 77 107 view .LVU339
 1192 0094 EB78     		ldrb	r3, [r5, #3]	@ zero_extendqisi2
  77:src/unit/robot/robot.cpp ****                         info.Imu.roll = ((((uint16_t)recv_data[4] << 8) & 0xFF00) | ((int16_t)recv_
 1193              		.loc 1 77 120 view .LVU340
 1194 0096 43EA0020 		orr	r0, r3, r0, lsl #8
 1195 009a FFF7FEFF 		bl	__aeabi_i2d
 1196              	.LVL107:
 1197 009e 10A3     		adr	r3, .L33
 1198 00a0 D3E90023 		ldrd	r2, [r3]
 1199 00a4 FFF7FEFF 		bl	__aeabi_dmul
 1200              	.LVL108:
  77:src/unit/robot/robot.cpp ****                         info.Imu.roll = ((((uint16_t)recv_data[4] << 8) & 0xFF00) | ((int16_t)recv_
 1201              		.loc 1 77 126 view .LVU341
 1202 00a8 0022     		movs	r2, #0
 1203 00aa 124B     		ldr	r3, .L33+20
 1204 00ac FFF7FEFF 		bl	__aeabi_dsub
ARM GAS  /var/folders/5c/srt4fy4j1pd641bjfx75k5000000gn/T//ccFHb7ij.s 			page 28


 1205              	.LVL109:
  77:src/unit/robot/robot.cpp ****                         info.Imu.roll = ((((uint16_t)recv_data[4] << 8) & 0xFF00) | ((int16_t)recv_
 1206              		.loc 1 77 40 view .LVU342
 1207 00b0 FFF7FEFF 		bl	__aeabi_d2iz
 1208              	.LVL110:
 1209 00b4 6085     		strh	r0, [r4, #42]	@ movhi
  78:src/unit/robot/robot.cpp ****                   }
 1210              		.loc 1 78 25 is_stmt 1 view .LVU343
  78:src/unit/robot/robot.cpp ****                   }
 1211              		.loc 1 78 65 is_stmt 0 view .LVU344
 1212 00b6 2879     		ldrb	r0, [r5, #4]	@ zero_extendqisi2
  78:src/unit/robot/robot.cpp ****                   }
 1213              		.loc 1 78 106 view .LVU345
 1214 00b8 6B79     		ldrb	r3, [r5, #5]	@ zero_extendqisi2
  78:src/unit/robot/robot.cpp ****                   }
 1215              		.loc 1 78 119 view .LVU346
 1216 00ba 43EA0020 		orr	r0, r3, r0, lsl #8
 1217 00be FFF7FEFF 		bl	__aeabi_i2d
 1218              	.LVL111:
 1219 00c2 07A3     		adr	r3, .L33
 1220 00c4 D3E90023 		ldrd	r2, [r3]
 1221 00c8 FFF7FEFF 		bl	__aeabi_dmul
 1222              	.LVL112:
  78:src/unit/robot/robot.cpp ****                   }
 1223              		.loc 1 78 125 view .LVU347
 1224 00cc 0022     		movs	r2, #0
 1225 00ce 094B     		ldr	r3, .L33+20
 1226 00d0 FFF7FEFF 		bl	__aeabi_dsub
 1227              	.LVL113:
  78:src/unit/robot/robot.cpp ****                   }
 1228              		.loc 1 78 39 view .LVU348
 1229 00d4 FFF7FEFF 		bl	__aeabi_d2iz
 1230              	.LVL114:
 1231 00d8 A085     		strh	r0, [r4, #44]	@ movhi
 1232 00da C3E7     		b	.L26
 1233              	.L30:
  78:src/unit/robot/robot.cpp ****                   }
 1234              		.loc 1 78 39 view .LVU349
 1235              	.LBE157:
  84:src/unit/robot/robot.cpp ****             }
  85:src/unit/robot/robot.cpp ****       }
  86:src/unit/robot/robot.cpp **** }
 1236              		.loc 1 86 1 view .LVU350
 1237 00dc 38BD     		pop	{r3, r4, r5, pc}
 1238              	.LVL115:
 1239              	.L34:
 1240              		.loc 1 86 1 view .LVU351
 1241 00de 00BF     		.align	3
 1242              	.L33:
 1243 00e0 9A999999 		.word	-1717986918
 1244 00e4 9999B93F 		.word	1069128089
 1245 00e8 00000000 		.word	_ZZN5Robot7ImuUartEvE5index
 1246 00ec 00000000 		.word	_ZZN5Robot7ImuUartEvE9recv_data
 1247 00f0 00000000 		.word	_ZZN5Robot7ImuUartEvE9recv_byte
 1248 00f4 00806640 		.word	1080459264
 1249              		.cfi_endproc
 1250              	.LFE274:
ARM GAS  /var/folders/5c/srt4fy4j1pd641bjfx75k5000000gn/T//ccFHb7ij.s 			page 29


 1251              		.cantunwind
 1252              		.fnend
 1254              		.section	.text._ZN5Robot8LineUartEv,"ax",%progbits
 1255              		.align	1
 1256              		.global	_ZN5Robot8LineUartEv
 1257              		.syntax unified
 1258              		.thumb
 1259              		.thumb_func
 1261              	_ZN5Robot8LineUartEv:
 1262              		.fnstart
 1263              	.LVL116:
 1264              	.LFB275:
  87:src/unit/robot/robot.cpp **** 
  88:src/unit/robot/robot.cpp **** void Robot::LineUart() {
 1265              		.loc 1 88 24 is_stmt 1 view -0
 1266              		.cfi_startproc
 1267              		@ args = 0, pretend = 0, frame = 8
 1268              		@ frame_needed = 0, uses_anonymous_args = 0
 1269              		.loc 1 88 24 is_stmt 0 view .LVU353
 1270 0000 30B5     		push	{r4, r5, lr}
 1271              		.save {r4, r5, lr}
 1272              	.LCFI7:
 1273              		.cfi_def_cfa_offset 12
 1274              		.cfi_offset 4, -12
 1275              		.cfi_offset 5, -8
 1276              		.cfi_offset 14, -4
 1277              		.pad #12
 1278 0002 83B0     		sub	sp, sp, #12
 1279              	.LCFI8:
 1280              		.cfi_def_cfa_offset 24
 1281 0004 0446     		mov	r4, r0
  89:src/unit/robot/robot.cpp ****       while (serial2.available()) {
 1282              		.loc 1 89 7 is_stmt 1 view .LVU354
 1283 0006 0BE0     		b	.L36
 1284              	.LVL117:
 1285              	.L47:
 1286              	.LBB158:
  90:src/unit/robot/robot.cpp ****             static const uint8_t HEADER = 0xFF;   // ヘッダ
  91:src/unit/robot/robot.cpp ****             static const uint8_t FOOTER = 0xAA;   // フッタ
  92:src/unit/robot/robot.cpp ****             static const uint8_t data_size = 6;   // データのサイズ
  93:src/unit/robot/robot.cpp ****             static uint8_t index = 0;             // 受信したデータのインデックスカ
  94:src/unit/robot/robot.cpp ****             static uint8_t recv_data[data_size];  // 受信したデータ
  95:src/unit/robot/robot.cpp ****             static uint8_t recv_byte;
  96:src/unit/robot/robot.cpp **** 
  97:src/unit/robot/robot.cpp ****             recv_byte = serial2.read();
  98:src/unit/robot/robot.cpp ****             if (index == 0) {
  99:src/unit/robot/robot.cpp ****                   if (recv_byte == HEADER) {
 100:src/unit/robot/robot.cpp ****                         index++;
 1287              		.loc 1 100 25 view .LVU355
 1288              		.loc 1 100 30 is_stmt 0 view .LVU356
 1289 0008 0133     		adds	r3, r3, #1
 1290 000a 364A     		ldr	r2, .L50
 1291 000c 1370     		strb	r3, [r2]
 1292 000e 07E0     		b	.L36
 1293              	.L37:
 101:src/unit/robot/robot.cpp ****                   } else {
 102:src/unit/robot/robot.cpp ****                         index = 0;
ARM GAS  /var/folders/5c/srt4fy4j1pd641bjfx75k5000000gn/T//ccFHb7ij.s 			page 30


 103:src/unit/robot/robot.cpp ****                   }
 104:src/unit/robot/robot.cpp ****             } else if (index == (data_size + 1)) {
 1294              		.loc 1 104 20 is_stmt 1 view .LVU357
 1295 0010 072B     		cmp	r3, #7
 1296 0012 26D0     		beq	.L45
 105:src/unit/robot/robot.cpp ****                   if (recv_byte == FOOTER) {
 106:src/unit/robot/robot.cpp ****                         info.motor_rps[0] = recv_data[0];
 107:src/unit/robot/robot.cpp ****                         info.motor_rps[1] = recv_data[1];
 108:src/unit/robot/robot.cpp ****                         info.motor_rps[2] = recv_data[2];
 109:src/unit/robot/robot.cpp ****                         info.motor_rps[3] = recv_data[3];
 110:src/unit/robot/robot.cpp ****                         info.Line.interval = recv_data[4] >> 4;
 111:src/unit/robot/robot.cpp ****                         info.Line.is_on_line = (recv_data[4] >> 3) & 1;
 112:src/unit/robot/robot.cpp ****                         info.Line.is_half_out = (recv_data[4] >> 2) & 1;
 113:src/unit/robot/robot.cpp ****                         info.Line.is_leftside = (recv_data[4] >> 1) & 1;
 114:src/unit/robot/robot.cpp ****                         info.Line.is_rightside = recv_data[4] & 1;
 115:src/unit/robot/robot.cpp ****                         info.Line.dir = recv_data[5] * 2 - 180;
 116:src/unit/robot/robot.cpp ****                   }
 117:src/unit/robot/robot.cpp ****                   index = 0;
 118:src/unit/robot/robot.cpp ****             } else {
 119:src/unit/robot/robot.cpp ****                   recv_data[index - 1] = recv_byte;
 1297              		.loc 1 119 19 view .LVU358
 1298              		.loc 1 119 35 is_stmt 0 view .LVU359
 1299 0014 5A1E     		subs	r2, r3, #1
 1300              		.loc 1 119 40 view .LVU360
 1301 0016 3449     		ldr	r1, .L50+4
 1302 0018 8854     		strb	r0, [r1, r2]
 120:src/unit/robot/robot.cpp ****                   index++;
 1303              		.loc 1 120 19 is_stmt 1 view .LVU361
 1304              		.loc 1 120 24 is_stmt 0 view .LVU362
 1305 001a 0133     		adds	r3, r3, #1
 1306 001c 314A     		ldr	r2, .L50
 1307 001e 1370     		strb	r3, [r2]
 1308              	.L36:
 1309              		.loc 1 120 24 view .LVU363
 1310              	.LBE158:
  89:src/unit/robot/robot.cpp ****             static const uint8_t HEADER = 0xFF;   // ヘッダ
 1311              		.loc 1 89 31 is_stmt 1 view .LVU364
 1312              	.LVL118:
 1313              	.LBB159:
 1314              	.LBI159:
  33:Lib/BufferedSerial/BufferedSerial.hpp ****             uint16_t rxTop = _rxBufSize - _huart->hdmarx->Instance->NDTR;
 1315              		.loc 2 33 12 view .LVU365
 1316              	.LBB160:
  34:Lib/BufferedSerial/BufferedSerial.hpp ****             return rxTop != rxBtm;
 1317              		.loc 2 34 13 view .LVU366
  34:Lib/BufferedSerial/BufferedSerial.hpp ****             return rxTop != rxBtm;
 1318              		.loc 2 34 30 is_stmt 0 view .LVU367
 1319 0020 04F58052 		add	r2, r4, #4096
 1320 0024 B2F8D036 		ldrh	r3, [r2, #1744]
  34:Lib/BufferedSerial/BufferedSerial.hpp ****             return rxTop != rxBtm;
 1321              		.loc 2 34 43 view .LVU368
 1322 0028 D2F8C416 		ldr	r1, [r2, #1732]
  34:Lib/BufferedSerial/BufferedSerial.hpp ****             return rxTop != rxBtm;
 1323              		.loc 2 34 51 view .LVU369
 1324 002c C96B     		ldr	r1, [r1, #60]
  34:Lib/BufferedSerial/BufferedSerial.hpp ****             return rxTop != rxBtm;
 1325              		.loc 2 34 59 view .LVU370
ARM GAS  /var/folders/5c/srt4fy4j1pd641bjfx75k5000000gn/T//ccFHb7ij.s 			page 31


 1326 002e 0968     		ldr	r1, [r1]
  34:Lib/BufferedSerial/BufferedSerial.hpp ****             return rxTop != rxBtm;
 1327              		.loc 2 34 69 view .LVU371
 1328 0030 4968     		ldr	r1, [r1, #4]
  34:Lib/BufferedSerial/BufferedSerial.hpp ****             return rxTop != rxBtm;
 1329              		.loc 2 34 41 view .LVU372
 1330 0032 89B2     		uxth	r1, r1
  34:Lib/BufferedSerial/BufferedSerial.hpp ****             return rxTop != rxBtm;
 1331              		.loc 2 34 69 view .LVU373
 1332 0034 5B1A     		subs	r3, r3, r1
 1333 0036 9BB2     		uxth	r3, r3
 1334              	.LVL119:
  35:Lib/BufferedSerial/BufferedSerial.hpp ****       }
 1335              		.loc 2 35 13 is_stmt 1 view .LVU374
  35:Lib/BufferedSerial/BufferedSerial.hpp ****       }
 1336              		.loc 2 35 29 is_stmt 0 view .LVU375
 1337 0038 B2F8CE26 		ldrh	r2, [r2, #1742]
 1338              	.LVL120:
  35:Lib/BufferedSerial/BufferedSerial.hpp ****       }
 1339              		.loc 2 35 29 view .LVU376
 1340              	.LBE160:
 1341              	.LBE159:
  89:src/unit/robot/robot.cpp ****             static const uint8_t HEADER = 0xFF;   // ヘッダ
 1342              		.loc 1 89 31 view .LVU377
 1343 003c 9342     		cmp	r3, r2
 1344 003e 33D0     		beq	.L46
 1345              	.LBB161:
  90:src/unit/robot/robot.cpp ****             static const uint8_t FOOTER = 0xAA;   // フッタ
 1346              		.loc 1 90 13 is_stmt 1 view .LVU378
  91:src/unit/robot/robot.cpp ****             static const uint8_t data_size = 6;   // データのサイズ
 1347              		.loc 1 91 13 view .LVU379
  92:src/unit/robot/robot.cpp ****             static uint8_t index = 0;             // 受信したデータのインデックスカ
 1348              		.loc 1 92 13 view .LVU380
  93:src/unit/robot/robot.cpp ****             static uint8_t recv_data[data_size];  // 受信したデータ
 1349              		.loc 1 93 13 view .LVU381
  94:src/unit/robot/robot.cpp ****             static uint8_t recv_byte;
 1350              		.loc 1 94 13 view .LVU382
  95:src/unit/robot/robot.cpp **** 
 1351              		.loc 1 95 13 view .LVU383
  97:src/unit/robot/robot.cpp ****             if (index == 0) {
 1352              		.loc 1 97 13 view .LVU384
  97:src/unit/robot/robot.cpp ****             if (index == 0) {
 1353              		.loc 1 97 37 is_stmt 0 view .LVU385
 1354 0040 04F5B650 		add	r0, r4, #5824
 1355 0044 0430     		adds	r0, r0, #4
 1356 0046 FFF7FEFF 		bl	_ZN14BufferedSerial4readEv
 1357              	.LVL121:
  97:src/unit/robot/robot.cpp ****             if (index == 0) {
 1358              		.loc 1 97 23 view .LVU386
 1359 004a 284B     		ldr	r3, .L50+8
 1360 004c 1870     		strb	r0, [r3]
  98:src/unit/robot/robot.cpp ****                   if (recv_byte == HEADER) {
 1361              		.loc 1 98 13 is_stmt 1 view .LVU387
  98:src/unit/robot/robot.cpp ****                   if (recv_byte == HEADER) {
 1362              		.loc 1 98 23 is_stmt 0 view .LVU388
 1363 004e 254B     		ldr	r3, .L50
 1364 0050 1B78     		ldrb	r3, [r3]	@ zero_extendqisi2
ARM GAS  /var/folders/5c/srt4fy4j1pd641bjfx75k5000000gn/T//ccFHb7ij.s 			page 32


  98:src/unit/robot/robot.cpp ****                   if (recv_byte == HEADER) {
 1365              		.loc 1 98 13 view .LVU389
 1366 0052 002B     		cmp	r3, #0
 1367 0054 DCD1     		bne	.L37
  99:src/unit/robot/robot.cpp ****                         index++;
 1368              		.loc 1 99 19 is_stmt 1 view .LVU390
 1369 0056 FF28     		cmp	r0, #255
 1370 0058 D6D0     		beq	.L47
 102:src/unit/robot/robot.cpp ****                   }
 1371              		.loc 1 102 25 view .LVU391
 102:src/unit/robot/robot.cpp ****                   }
 1372              		.loc 1 102 31 is_stmt 0 view .LVU392
 1373 005a 224B     		ldr	r3, .L50
 1374 005c 0022     		movs	r2, #0
 1375 005e 1A70     		strb	r2, [r3]
 1376 0060 DEE7     		b	.L36
 1377              	.L45:
 105:src/unit/robot/robot.cpp ****                         info.motor_rps[0] = recv_data[0];
 1378              		.loc 1 105 19 is_stmt 1 view .LVU393
 1379 0062 AA28     		cmp	r0, #170
 1380 0064 03D0     		beq	.L48
 1381              	.L41:
 117:src/unit/robot/robot.cpp ****             } else {
 1382              		.loc 1 117 19 view .LVU394
 117:src/unit/robot/robot.cpp ****             } else {
 1383              		.loc 1 117 25 is_stmt 0 view .LVU395
 1384 0066 1F4B     		ldr	r3, .L50
 1385 0068 0022     		movs	r2, #0
 1386 006a 1A70     		strb	r2, [r3]
 1387 006c D8E7     		b	.L36
 1388              	.L48:
 106:src/unit/robot/robot.cpp ****                         info.motor_rps[1] = recv_data[1];
 1389              		.loc 1 106 25 is_stmt 1 view .LVU396
 106:src/unit/robot/robot.cpp ****                         info.motor_rps[1] = recv_data[1];
 1390              		.loc 1 106 56 is_stmt 0 view .LVU397
 1391 006e 1E4A     		ldr	r2, .L50+4
 1392 0070 1378     		ldrb	r3, [r2]	@ zero_extendqisi2
 106:src/unit/robot/robot.cpp ****                         info.motor_rps[1] = recv_data[1];
 1393              		.loc 1 106 43 view .LVU398
 1394 0072 2371     		strb	r3, [r4, #4]
 107:src/unit/robot/robot.cpp ****                         info.motor_rps[2] = recv_data[2];
 1395              		.loc 1 107 25 is_stmt 1 view .LVU399
 107:src/unit/robot/robot.cpp ****                         info.motor_rps[2] = recv_data[2];
 1396              		.loc 1 107 56 is_stmt 0 view .LVU400
 1397 0074 5378     		ldrb	r3, [r2, #1]	@ zero_extendqisi2
 107:src/unit/robot/robot.cpp ****                         info.motor_rps[2] = recv_data[2];
 1398              		.loc 1 107 43 view .LVU401
 1399 0076 6371     		strb	r3, [r4, #5]
 108:src/unit/robot/robot.cpp ****                         info.motor_rps[3] = recv_data[3];
 1400              		.loc 1 108 25 is_stmt 1 view .LVU402
 108:src/unit/robot/robot.cpp ****                         info.motor_rps[3] = recv_data[3];
 1401              		.loc 1 108 56 is_stmt 0 view .LVU403
 1402 0078 9378     		ldrb	r3, [r2, #2]	@ zero_extendqisi2
 108:src/unit/robot/robot.cpp ****                         info.motor_rps[3] = recv_data[3];
 1403              		.loc 1 108 43 view .LVU404
 1404 007a A371     		strb	r3, [r4, #6]
 109:src/unit/robot/robot.cpp ****                         info.Line.interval = recv_data[4] >> 4;
ARM GAS  /var/folders/5c/srt4fy4j1pd641bjfx75k5000000gn/T//ccFHb7ij.s 			page 33


 1405              		.loc 1 109 25 is_stmt 1 view .LVU405
 109:src/unit/robot/robot.cpp ****                         info.Line.interval = recv_data[4] >> 4;
 1406              		.loc 1 109 56 is_stmt 0 view .LVU406
 1407 007c D378     		ldrb	r3, [r2, #3]	@ zero_extendqisi2
 109:src/unit/robot/robot.cpp ****                         info.Line.interval = recv_data[4] >> 4;
 1408              		.loc 1 109 43 view .LVU407
 1409 007e E371     		strb	r3, [r4, #7]
 110:src/unit/robot/robot.cpp ****                         info.Line.is_on_line = (recv_data[4] >> 3) & 1;
 1410              		.loc 1 110 25 is_stmt 1 view .LVU408
 110:src/unit/robot/robot.cpp ****                         info.Line.is_on_line = (recv_data[4] >> 3) & 1;
 1411              		.loc 1 110 57 is_stmt 0 view .LVU409
 1412 0080 1379     		ldrb	r3, [r2, #4]	@ zero_extendqisi2
 110:src/unit/robot/robot.cpp ****                         info.Line.is_on_line = (recv_data[4] >> 3) & 1;
 1413              		.loc 1 110 59 view .LVU410
 1414 0082 1909     		lsrs	r1, r3, #4
 110:src/unit/robot/robot.cpp ****                         info.Line.is_on_line = (recv_data[4] >> 3) & 1;
 1415              		.loc 1 110 44 view .LVU411
 1416 0084 2175     		strb	r1, [r4, #20]
 111:src/unit/robot/robot.cpp ****                         info.Line.is_half_out = (recv_data[4] >> 2) & 1;
 1417              		.loc 1 111 25 is_stmt 1 view .LVU412
 111:src/unit/robot/robot.cpp ****                         info.Line.is_half_out = (recv_data[4] >> 2) & 1;
 1418              		.loc 1 111 68 is_stmt 0 view .LVU413
 1419 0086 C3F3C001 		ubfx	r1, r3, #3, #1
 111:src/unit/robot/robot.cpp ****                         info.Line.is_half_out = (recv_data[4] >> 2) & 1;
 1420              		.loc 1 111 46 view .LVU414
 1421 008a 6175     		strb	r1, [r4, #21]
 112:src/unit/robot/robot.cpp ****                         info.Line.is_leftside = (recv_data[4] >> 1) & 1;
 1422              		.loc 1 112 25 is_stmt 1 view .LVU415
 112:src/unit/robot/robot.cpp ****                         info.Line.is_leftside = (recv_data[4] >> 1) & 1;
 1423              		.loc 1 112 69 is_stmt 0 view .LVU416
 1424 008c C3F38001 		ubfx	r1, r3, #2, #1
 112:src/unit/robot/robot.cpp ****                         info.Line.is_leftside = (recv_data[4] >> 1) & 1;
 1425              		.loc 1 112 47 view .LVU417
 1426 0090 A175     		strb	r1, [r4, #22]
 113:src/unit/robot/robot.cpp ****                         info.Line.is_rightside = recv_data[4] & 1;
 1427              		.loc 1 113 25 is_stmt 1 view .LVU418
 113:src/unit/robot/robot.cpp ****                         info.Line.is_rightside = recv_data[4] & 1;
 1428              		.loc 1 113 69 is_stmt 0 view .LVU419
 1429 0092 C3F34001 		ubfx	r1, r3, #1, #1
 113:src/unit/robot/robot.cpp ****                         info.Line.is_rightside = recv_data[4] & 1;
 1430              		.loc 1 113 47 view .LVU420
 1431 0096 E175     		strb	r1, [r4, #23]
 114:src/unit/robot/robot.cpp ****                         info.Line.dir = recv_data[5] * 2 - 180;
 1432              		.loc 1 114 25 is_stmt 1 view .LVU421
 114:src/unit/robot/robot.cpp ****                         info.Line.dir = recv_data[5] * 2 - 180;
 1433              		.loc 1 114 63 is_stmt 0 view .LVU422
 1434 0098 03F00103 		and	r3, r3, #1
 114:src/unit/robot/robot.cpp ****                         info.Line.dir = recv_data[5] * 2 - 180;
 1435              		.loc 1 114 48 view .LVU423
 1436 009c 2376     		strb	r3, [r4, #24]
 115:src/unit/robot/robot.cpp ****                   }
 1437              		.loc 1 115 25 is_stmt 1 view .LVU424
 115:src/unit/robot/robot.cpp ****                   }
 1438              		.loc 1 115 52 is_stmt 0 view .LVU425
 1439 009e 5379     		ldrb	r3, [r2, #5]	@ zero_extendqisi2
 115:src/unit/robot/robot.cpp ****                   }
 1440              		.loc 1 115 58 view .LVU426
ARM GAS  /var/folders/5c/srt4fy4j1pd641bjfx75k5000000gn/T//ccFHb7ij.s 			page 34


 1441 00a0 5A3B     		subs	r3, r3, #90
 115:src/unit/robot/robot.cpp ****                   }
 1442              		.loc 1 115 39 view .LVU427
 1443 00a2 5B00     		lsls	r3, r3, #1
 1444 00a4 6383     		strh	r3, [r4, #26]	@ movhi
 1445 00a6 DEE7     		b	.L41
 1446              	.L46:
 115:src/unit/robot/robot.cpp ****                   }
 1447              		.loc 1 115 39 view .LVU428
 1448              	.LBE161:
 121:src/unit/robot/robot.cpp ****             }
 122:src/unit/robot/robot.cpp ****       }
 123:src/unit/robot/robot.cpp **** 
 124:src/unit/robot/robot.cpp ****       if (line_send_interval_timer.read_us() >= LINE_SEND_PERIOD_US) {
 1449              		.loc 1 124 7 is_stmt 1 view .LVU429
 1450              		.loc 1 124 43 is_stmt 0 view .LVU430
 1451 00a8 04F5B755 		add	r5, r4, #5856
 1452 00ac 1435     		adds	r5, r5, #20
 1453 00ae 2846     		mov	r0, r5
 1454 00b0 FFF7FEFF 		bl	_ZN5Timer7read_usEv
 1455              	.LVL122:
 1456              		.loc 1 124 7 view .LVU431
 1457 00b4 42F20F73 		movw	r3, #9999
 1458 00b8 9842     		cmp	r0, r3
 1459 00ba 01D8     		bhi	.L49
 1460              	.LVL123:
 1461              	.L35:
 125:src/unit/robot/robot.cpp ****             serial2.write(info.Line.on_led);
 126:src/unit/robot/robot.cpp ****             line_send_interval_timer.reset();
 127:src/unit/robot/robot.cpp ****       }
 128:src/unit/robot/robot.cpp **** }
 1462              		.loc 1 128 1 view .LVU432
 1463 00bc 03B0     		add	sp, sp, #12
 1464              	.LCFI9:
 1465              		.cfi_remember_state
 1466              		.cfi_def_cfa_offset 12
 1467              		@ sp needed
 1468 00be 30BD     		pop	{r4, r5, pc}
 1469              	.LVL124:
 1470              	.L49:
 1471              	.LCFI10:
 1472              		.cfi_restore_state
 125:src/unit/robot/robot.cpp ****             serial2.write(info.Line.on_led);
 1473              		.loc 1 125 13 is_stmt 1 view .LVU433
 125:src/unit/robot/robot.cpp ****             serial2.write(info.Line.on_led);
 1474              		.loc 1 125 37 is_stmt 0 view .LVU434
 1475 00c0 A37F     		ldrb	r3, [r4, #30]	@ zero_extendqisi2
 1476              	.LVL125:
 125:src/unit/robot/robot.cpp ****             serial2.write(info.Line.on_led);
 1477              		.loc 1 125 37 view .LVU435
 1478 00c2 8DF80730 		strb	r3, [sp, #7]
 1479              	.LVL126:
 1480              	.LBB162:
 1481              	.LBI162:
  48:Lib/BufferedSerial/BufferedSerial.hpp **** 
  49:Lib/BufferedSerial/BufferedSerial.hpp ****       void write(uint8_t data) {
 1482              		.loc 2 49 12 is_stmt 1 view .LVU436
ARM GAS  /var/folders/5c/srt4fy4j1pd641bjfx75k5000000gn/T//ccFHb7ij.s 			page 35


 1483              	.LBB163:
  50:Lib/BufferedSerial/BufferedSerial.hpp ****             HAL_UART_Transmit(_huart, &data, 1, 100);
 1484              		.loc 2 50 13 view .LVU437
 1485              		.loc 2 50 30 is_stmt 0 view .LVU438
 1486 00c6 04F58054 		add	r4, r4, #4096
 1487              	.LVL127:
 1488              		.loc 2 50 30 view .LVU439
 1489 00ca 6423     		movs	r3, #100
 1490              	.LVL128:
 1491              		.loc 2 50 30 view .LVU440
 1492 00cc 0122     		movs	r2, #1
 1493 00ce 0DF10701 		add	r1, sp, #7
 1494              	.LVL129:
 1495              		.loc 2 50 30 view .LVU441
 1496 00d2 D4F8C406 		ldr	r0, [r4, #1732]
 1497 00d6 FFF7FEFF 		bl	HAL_UART_Transmit
 1498              	.LVL130:
 1499              		.loc 2 50 30 view .LVU442
 1500              	.LBE163:
 1501              	.LBE162:
 126:src/unit/robot/robot.cpp ****       }
 1502              		.loc 1 126 13 is_stmt 1 view .LVU443
 126:src/unit/robot/robot.cpp ****       }
 1503              		.loc 1 126 43 is_stmt 0 view .LVU444
 1504 00da 2846     		mov	r0, r5
 1505 00dc FFF7FEFF 		bl	_ZN5Timer5resetEv
 1506              	.LVL131:
 1507              		.loc 1 128 1 view .LVU445
 1508 00e0 ECE7     		b	.L35
 1509              	.L51:
 1510 00e2 00BF     		.align	2
 1511              	.L50:
 1512 00e4 00000000 		.word	_ZZN5Robot8LineUartEvE5index
 1513 00e8 00000000 		.word	_ZZN5Robot8LineUartEvE9recv_data
 1514 00ec 00000000 		.word	_ZZN5Robot8LineUartEvE9recv_byte
 1515              		.cfi_endproc
 1516              	.LFE275:
 1517              		.fnend
 1519              		.section	.text._ZN5Robot6UiUartEv,"ax",%progbits
 1520              		.align	1
 1521              		.global	_ZN5Robot6UiUartEv
 1522              		.syntax unified
 1523              		.thumb
 1524              		.thumb_func
 1526              	_ZN5Robot6UiUartEv:
 1527              		.fnstart
 1528              	.LVL132:
 1529              	.LFB276:
 129:src/unit/robot/robot.cpp **** 
 130:src/unit/robot/robot.cpp **** void Robot::UiUart() {
 1530              		.loc 1 130 22 is_stmt 1 view -0
 1531              		.cfi_startproc
 1532              		@ args = 0, pretend = 0, frame = 16
 1533              		@ frame_needed = 0, uses_anonymous_args = 0
 1534              		.loc 1 130 22 is_stmt 0 view .LVU447
 1535 0000 F0B5     		push	{r4, r5, r6, r7, lr}
 1536              		.save {r4, r5, r6, r7, lr}
ARM GAS  /var/folders/5c/srt4fy4j1pd641bjfx75k5000000gn/T//ccFHb7ij.s 			page 36


 1537              	.LCFI11:
 1538              		.cfi_def_cfa_offset 20
 1539              		.cfi_offset 4, -20
 1540              		.cfi_offset 5, -16
 1541              		.cfi_offset 6, -12
 1542              		.cfi_offset 7, -8
 1543              		.cfi_offset 14, -4
 1544              		.pad #20
 1545 0002 85B0     		sub	sp, sp, #20
 1546              	.LCFI12:
 1547              		.cfi_def_cfa_offset 40
 1548 0004 0446     		mov	r4, r0
 131:src/unit/robot/robot.cpp ****       static int8_t item;
 1549              		.loc 1 131 7 is_stmt 1 view .LVU448
 132:src/unit/robot/robot.cpp ****       static uint8_t sub_item;
 1550              		.loc 1 132 7 view .LVU449
 133:src/unit/robot/robot.cpp **** 
 134:src/unit/robot/robot.cpp ****       while (serial3.available()) {
 1551              		.loc 1 134 7 view .LVU450
 1552 0006 0BE0     		b	.L53
 1553              	.LVL133:
 1554              	.L68:
 1555              	.LBB164:
 135:src/unit/robot/robot.cpp ****             static const uint8_t HEADER = 0xFF;   // ヘッダ
 136:src/unit/robot/robot.cpp ****             static const uint8_t FOOTER = 0xAA;   // ヘッダ
 137:src/unit/robot/robot.cpp ****             static const uint8_t data_size = 4;   // データのサイズ
 138:src/unit/robot/robot.cpp ****             static uint8_t index = 0;             // 受信したデータのインデックスカ
 139:src/unit/robot/robot.cpp ****             static uint8_t recv_data[data_size];  // 受信したデータ
 140:src/unit/robot/robot.cpp ****             static uint8_t recv_byte;
 141:src/unit/robot/robot.cpp **** 
 142:src/unit/robot/robot.cpp ****             recv_byte = serial3.read();
 143:src/unit/robot/robot.cpp ****             if (index == 0) {
 144:src/unit/robot/robot.cpp ****                   if (recv_byte == HEADER) {
 145:src/unit/robot/robot.cpp ****                         index++;
 1556              		.loc 1 145 25 view .LVU451
 1557              		.loc 1 145 30 is_stmt 0 view .LVU452
 1558 0008 0133     		adds	r3, r3, #1
 1559 000a 7F4A     		ldr	r2, .L74+8
 1560 000c 1370     		strb	r3, [r2]
 1561 000e 07E0     		b	.L53
 1562              	.L54:
 146:src/unit/robot/robot.cpp ****                   } else {
 147:src/unit/robot/robot.cpp ****                         index = 0;
 148:src/unit/robot/robot.cpp ****                   }
 149:src/unit/robot/robot.cpp ****             } else if (index == (data_size + 1)) {
 1563              		.loc 1 149 20 is_stmt 1 view .LVU453
 1564 0010 052B     		cmp	r3, #5
 1565 0012 26D0     		beq	.L66
 150:src/unit/robot/robot.cpp ****                   if (recv_byte == FOOTER) {
 151:src/unit/robot/robot.cpp ****                         item = ((recv_data[0] >> 4) & 0b00001111) - 8;
 152:src/unit/robot/robot.cpp ****                         sub_item = recv_data[0] & 0b00001111;
 153:src/unit/robot/robot.cpp ****                         info.mode = (recv_data[1] >> 4) & 0b00001111;
 154:src/unit/robot/robot.cpp ****                         info.Ui.dribbler_sig = (recv_data[1] >> 1) & 0b0000111;
 155:src/unit/robot/robot.cpp ****                         info.Ui.set_yaw_zero = recv_data[1] & 0b0000001;
 156:src/unit/robot/robot.cpp ****                         info.moving_speed = recv_data[2] * 0.01;
 157:src/unit/robot/robot.cpp ****                         info.line_moving_speed = recv_data[3] * 0.01;
 158:src/unit/robot/robot.cpp ****                   }
ARM GAS  /var/folders/5c/srt4fy4j1pd641bjfx75k5000000gn/T//ccFHb7ij.s 			page 37


 159:src/unit/robot/robot.cpp ****                   index = 0;
 160:src/unit/robot/robot.cpp ****             } else {
 161:src/unit/robot/robot.cpp ****                   recv_data[index - 1] = recv_byte;
 1566              		.loc 1 161 19 view .LVU454
 1567              		.loc 1 161 35 is_stmt 0 view .LVU455
 1568 0014 5A1E     		subs	r2, r3, #1
 1569              		.loc 1 161 40 view .LVU456
 1570 0016 7D49     		ldr	r1, .L74+12
 1571 0018 8854     		strb	r0, [r1, r2]
 162:src/unit/robot/robot.cpp ****                   index++;
 1572              		.loc 1 162 19 is_stmt 1 view .LVU457
 1573              		.loc 1 162 24 is_stmt 0 view .LVU458
 1574 001a 0133     		adds	r3, r3, #1
 1575 001c 7A4A     		ldr	r2, .L74+8
 1576 001e 1370     		strb	r3, [r2]
 1577              	.L53:
 1578              		.loc 1 162 24 view .LVU459
 1579              	.LBE164:
 134:src/unit/robot/robot.cpp ****             static const uint8_t HEADER = 0xFF;   // ヘッダ
 1580              		.loc 1 134 31 is_stmt 1 view .LVU460
 1581              	.LVL134:
 1582              	.LBB165:
 1583              	.LBI165:
  33:Lib/BufferedSerial/BufferedSerial.hpp ****             uint16_t rxTop = _rxBufSize - _huart->hdmarx->Instance->NDTR;
 1584              		.loc 2 33 12 view .LVU461
 1585              	.LBB166:
  34:Lib/BufferedSerial/BufferedSerial.hpp ****             return rxTop != rxBtm;
 1586              		.loc 2 34 13 view .LVU462
  34:Lib/BufferedSerial/BufferedSerial.hpp ****             return rxTop != rxBtm;
 1587              		.loc 2 34 30 is_stmt 0 view .LVU463
 1588 0020 04F58052 		add	r2, r4, #4096
 1589 0024 B2F8E036 		ldrh	r3, [r2, #1760]
  34:Lib/BufferedSerial/BufferedSerial.hpp ****             return rxTop != rxBtm;
 1590              		.loc 2 34 43 view .LVU464
 1591 0028 D2F8D416 		ldr	r1, [r2, #1748]
  34:Lib/BufferedSerial/BufferedSerial.hpp ****             return rxTop != rxBtm;
 1592              		.loc 2 34 51 view .LVU465
 1593 002c C96B     		ldr	r1, [r1, #60]
  34:Lib/BufferedSerial/BufferedSerial.hpp ****             return rxTop != rxBtm;
 1594              		.loc 2 34 59 view .LVU466
 1595 002e 0968     		ldr	r1, [r1]
  34:Lib/BufferedSerial/BufferedSerial.hpp ****             return rxTop != rxBtm;
 1596              		.loc 2 34 69 view .LVU467
 1597 0030 4968     		ldr	r1, [r1, #4]
  34:Lib/BufferedSerial/BufferedSerial.hpp ****             return rxTop != rxBtm;
 1598              		.loc 2 34 41 view .LVU468
 1599 0032 89B2     		uxth	r1, r1
  34:Lib/BufferedSerial/BufferedSerial.hpp ****             return rxTop != rxBtm;
 1600              		.loc 2 34 69 view .LVU469
 1601 0034 5B1A     		subs	r3, r3, r1
 1602 0036 9BB2     		uxth	r3, r3
 1603              	.LVL135:
  35:Lib/BufferedSerial/BufferedSerial.hpp ****       }
 1604              		.loc 2 35 13 is_stmt 1 view .LVU470
  35:Lib/BufferedSerial/BufferedSerial.hpp ****       }
 1605              		.loc 2 35 29 is_stmt 0 view .LVU471
 1606 0038 B2F8DE26 		ldrh	r2, [r2, #1758]
ARM GAS  /var/folders/5c/srt4fy4j1pd641bjfx75k5000000gn/T//ccFHb7ij.s 			page 38


 1607              	.LVL136:
  35:Lib/BufferedSerial/BufferedSerial.hpp ****       }
 1608              		.loc 2 35 29 view .LVU472
 1609              	.LBE166:
 1610              	.LBE165:
 134:src/unit/robot/robot.cpp ****             static const uint8_t HEADER = 0xFF;   // ヘッダ
 1611              		.loc 1 134 31 view .LVU473
 1612 003c 9342     		cmp	r3, r2
 1613 003e 42D0     		beq	.L67
 1614              	.LBB167:
 135:src/unit/robot/robot.cpp ****             static const uint8_t FOOTER = 0xAA;   // ヘッダ
 1615              		.loc 1 135 13 is_stmt 1 view .LVU474
 136:src/unit/robot/robot.cpp ****             static const uint8_t data_size = 4;   // データのサイズ
 1616              		.loc 1 136 13 view .LVU475
 137:src/unit/robot/robot.cpp ****             static uint8_t index = 0;             // 受信したデータのインデックスカ
 1617              		.loc 1 137 13 view .LVU476
 138:src/unit/robot/robot.cpp ****             static uint8_t recv_data[data_size];  // 受信したデータ
 1618              		.loc 1 138 13 view .LVU477
 139:src/unit/robot/robot.cpp ****             static uint8_t recv_byte;
 1619              		.loc 1 139 13 view .LVU478
 140:src/unit/robot/robot.cpp **** 
 1620              		.loc 1 140 13 view .LVU479
 142:src/unit/robot/robot.cpp ****             if (index == 0) {
 1621              		.loc 1 142 13 view .LVU480
 142:src/unit/robot/robot.cpp ****             if (index == 0) {
 1622              		.loc 1 142 37 is_stmt 0 view .LVU481
 1623 0040 04F5B650 		add	r0, r4, #5824
 1624 0044 1430     		adds	r0, r0, #20
 1625 0046 FFF7FEFF 		bl	_ZN14BufferedSerial4readEv
 1626              	.LVL137:
 142:src/unit/robot/robot.cpp ****             if (index == 0) {
 1627              		.loc 1 142 23 view .LVU482
 1628 004a 714B     		ldr	r3, .L74+16
 1629 004c 1870     		strb	r0, [r3]
 143:src/unit/robot/robot.cpp ****                   if (recv_byte == HEADER) {
 1630              		.loc 1 143 13 is_stmt 1 view .LVU483
 143:src/unit/robot/robot.cpp ****                   if (recv_byte == HEADER) {
 1631              		.loc 1 143 23 is_stmt 0 view .LVU484
 1632 004e 6E4B     		ldr	r3, .L74+8
 1633 0050 1B78     		ldrb	r3, [r3]	@ zero_extendqisi2
 143:src/unit/robot/robot.cpp ****                   if (recv_byte == HEADER) {
 1634              		.loc 1 143 13 view .LVU485
 1635 0052 002B     		cmp	r3, #0
 1636 0054 DCD1     		bne	.L54
 144:src/unit/robot/robot.cpp ****                         index++;
 1637              		.loc 1 144 19 is_stmt 1 view .LVU486
 1638 0056 FF28     		cmp	r0, #255
 1639 0058 D6D0     		beq	.L68
 147:src/unit/robot/robot.cpp ****                   }
 1640              		.loc 1 147 25 view .LVU487
 147:src/unit/robot/robot.cpp ****                   }
 1641              		.loc 1 147 31 is_stmt 0 view .LVU488
 1642 005a 6B4B     		ldr	r3, .L74+8
 1643 005c 0022     		movs	r2, #0
 1644 005e 1A70     		strb	r2, [r3]
 1645 0060 DEE7     		b	.L53
 1646              	.L66:
ARM GAS  /var/folders/5c/srt4fy4j1pd641bjfx75k5000000gn/T//ccFHb7ij.s 			page 39


 150:src/unit/robot/robot.cpp ****                         item = ((recv_data[0] >> 4) & 0b00001111) - 8;
 1647              		.loc 1 150 19 is_stmt 1 view .LVU489
 1648 0062 AA28     		cmp	r0, #170
 1649 0064 03D0     		beq	.L69
 1650              	.L58:
 159:src/unit/robot/robot.cpp ****             } else {
 1651              		.loc 1 159 19 view .LVU490
 159:src/unit/robot/robot.cpp ****             } else {
 1652              		.loc 1 159 25 is_stmt 0 view .LVU491
 1653 0066 684B     		ldr	r3, .L74+8
 1654 0068 0022     		movs	r2, #0
 1655 006a 1A70     		strb	r2, [r3]
 1656 006c D8E7     		b	.L53
 1657              	.L69:
 151:src/unit/robot/robot.cpp ****                         sub_item = recv_data[0] & 0b00001111;
 1658              		.loc 1 151 25 is_stmt 1 view .LVU492
 151:src/unit/robot/robot.cpp ****                         sub_item = recv_data[0] & 0b00001111;
 1659              		.loc 1 151 45 is_stmt 0 view .LVU493
 1660 006e 674D     		ldr	r5, .L74+12
 1661 0070 2B78     		ldrb	r3, [r5]	@ zero_extendqisi2
 151:src/unit/robot/robot.cpp ****                         sub_item = recv_data[0] & 0b00001111;
 1662              		.loc 1 151 47 view .LVU494
 1663 0072 1A09     		lsrs	r2, r3, #4
 151:src/unit/robot/robot.cpp ****                         sub_item = recv_data[0] & 0b00001111;
 1664              		.loc 1 151 67 view .LVU495
 1665 0074 083A     		subs	r2, r2, #8
 151:src/unit/robot/robot.cpp ****                         sub_item = recv_data[0] & 0b00001111;
 1666              		.loc 1 151 30 view .LVU496
 1667 0076 6749     		ldr	r1, .L74+20
 1668 0078 0A70     		strb	r2, [r1]
 152:src/unit/robot/robot.cpp ****                         info.mode = (recv_data[1] >> 4) & 0b00001111;
 1669              		.loc 1 152 25 is_stmt 1 view .LVU497
 152:src/unit/robot/robot.cpp ****                         info.mode = (recv_data[1] >> 4) & 0b00001111;
 1670              		.loc 1 152 49 is_stmt 0 view .LVU498
 1671 007a 03F00F03 		and	r3, r3, #15
 152:src/unit/robot/robot.cpp ****                         info.mode = (recv_data[1] >> 4) & 0b00001111;
 1672              		.loc 1 152 34 view .LVU499
 1673 007e 664A     		ldr	r2, .L74+24
 1674 0080 1370     		strb	r3, [r2]
 153:src/unit/robot/robot.cpp ****                         info.Ui.dribbler_sig = (recv_data[1] >> 1) & 0b0000111;
 1675              		.loc 1 153 25 is_stmt 1 view .LVU500
 153:src/unit/robot/robot.cpp ****                         info.Ui.dribbler_sig = (recv_data[1] >> 1) & 0b0000111;
 1676              		.loc 1 153 49 is_stmt 0 view .LVU501
 1677 0082 6B78     		ldrb	r3, [r5, #1]	@ zero_extendqisi2
 153:src/unit/robot/robot.cpp ****                         info.Ui.dribbler_sig = (recv_data[1] >> 1) & 0b0000111;
 1678              		.loc 1 153 51 view .LVU502
 1679 0084 1A09     		lsrs	r2, r3, #4
 153:src/unit/robot/robot.cpp ****                         info.Ui.dribbler_sig = (recv_data[1] >> 1) & 0b0000111;
 1680              		.loc 1 153 35 view .LVU503
 1681 0086 2272     		strb	r2, [r4, #8]
 154:src/unit/robot/robot.cpp ****                         info.Ui.set_yaw_zero = recv_data[1] & 0b0000001;
 1682              		.loc 1 154 25 is_stmt 1 view .LVU504
 154:src/unit/robot/robot.cpp ****                         info.Ui.set_yaw_zero = recv_data[1] & 0b0000001;
 1683              		.loc 1 154 68 is_stmt 0 view .LVU505
 1684 0088 C3F34202 		ubfx	r2, r3, #1, #3
 154:src/unit/robot/robot.cpp ****                         info.Ui.set_yaw_zero = recv_data[1] & 0b0000001;
 1685              		.loc 1 154 46 view .LVU506
ARM GAS  /var/folders/5c/srt4fy4j1pd641bjfx75k5000000gn/T//ccFHb7ij.s 			page 40


 1686 008c 84F82F20 		strb	r2, [r4, #47]
 155:src/unit/robot/robot.cpp ****                         info.moving_speed = recv_data[2] * 0.01;
 1687              		.loc 1 155 25 is_stmt 1 view .LVU507
 155:src/unit/robot/robot.cpp ****                         info.moving_speed = recv_data[2] * 0.01;
 1688              		.loc 1 155 61 is_stmt 0 view .LVU508
 1689 0090 03F00103 		and	r3, r3, #1
 155:src/unit/robot/robot.cpp ****                         info.moving_speed = recv_data[2] * 0.01;
 1690              		.loc 1 155 46 view .LVU509
 1691 0094 84F82E30 		strb	r3, [r4, #46]
 156:src/unit/robot/robot.cpp ****                         info.line_moving_speed = recv_data[3] * 0.01;
 1692              		.loc 1 156 25 is_stmt 1 view .LVU510
 156:src/unit/robot/robot.cpp ****                         info.line_moving_speed = recv_data[3] * 0.01;
 1693              		.loc 1 156 58 is_stmt 0 view .LVU511
 1694 0098 A878     		ldrb	r0, [r5, #2]	@ zero_extendqisi2
 1695 009a FFF7FEFF 		bl	__aeabi_i2d
 1696              	.LVL138:
 1697 009e 58A3     		adr	r3, .L74
 1698 00a0 D3E90023 		ldrd	r2, [r3]
 1699 00a4 FFF7FEFF 		bl	__aeabi_dmul
 1700              	.LVL139:
 1701 00a8 FFF7FEFF 		bl	__aeabi_d2f
 1702              	.LVL140:
 156:src/unit/robot/robot.cpp ****                         info.line_moving_speed = recv_data[3] * 0.01;
 1703              		.loc 1 156 43 view .LVU512
 1704 00ac E060     		str	r0, [r4, #12]	@ float
 157:src/unit/robot/robot.cpp ****                   }
 1705              		.loc 1 157 25 is_stmt 1 view .LVU513
 157:src/unit/robot/robot.cpp ****                   }
 1706              		.loc 1 157 63 is_stmt 0 view .LVU514
 1707 00ae E878     		ldrb	r0, [r5, #3]	@ zero_extendqisi2
 1708 00b0 FFF7FEFF 		bl	__aeabi_i2d
 1709              	.LVL141:
 1710 00b4 52A3     		adr	r3, .L74
 1711 00b6 D3E90023 		ldrd	r2, [r3]
 1712 00ba FFF7FEFF 		bl	__aeabi_dmul
 1713              	.LVL142:
 1714 00be FFF7FEFF 		bl	__aeabi_d2f
 1715              	.LVL143:
 157:src/unit/robot/robot.cpp ****                   }
 1716              		.loc 1 157 48 view .LVU515
 1717 00c2 2061     		str	r0, [r4, #16]	@ float
 1718 00c4 CFE7     		b	.L58
 1719              	.L67:
 157:src/unit/robot/robot.cpp ****                   }
 1720              		.loc 1 157 48 view .LVU516
 1721              	.LBE167:
 163:src/unit/robot/robot.cpp ****             }
 164:src/unit/robot/robot.cpp ****       }
 165:src/unit/robot/robot.cpp **** 
 166:src/unit/robot/robot.cpp ****       if (info.mode == 0) {
 1722              		.loc 1 166 7 is_stmt 1 view .LVU517
 1723              	.LBB168:
 1724              		.loc 1 166 16 is_stmt 0 view .LVU518
 1725 00c6 237A     		ldrb	r3, [r4, #8]	@ zero_extendqisi2
 1726              		.loc 1 166 7 view .LVU519
 1727 00c8 0BB1     		cbz	r3, .L70
 1728              	.LVL144:
ARM GAS  /var/folders/5c/srt4fy4j1pd641bjfx75k5000000gn/T//ccFHb7ij.s 			page 41


 1729              	.L52:
 1730              		.loc 1 166 7 view .LVU520
 1731              	.LBE168:
 167:src/unit/robot/robot.cpp ****             int16_t debug_val[2];
 168:src/unit/robot/robot.cpp ****             debug_val[0] = info.Cam.ball_dir;
 169:src/unit/robot/robot.cpp ****             debug_val[1] = info.Cam.ball_dis;
 170:src/unit/robot/robot.cpp **** 
 171:src/unit/robot/robot.cpp ****             if (ui_send_interval_timer.read_us() >= UI_SEND_PERIOD_US) {
 172:src/unit/robot/robot.cpp ****                   static const uint8_t HEADER = 0xFF;  // ヘッダ
 173:src/unit/robot/robot.cpp ****                   static const uint8_t FOOTER = 0xAA;  // ヘッダ
 174:src/unit/robot/robot.cpp ****                   if (item == -2) {
 175:src/unit/robot/robot.cpp ****                         static const uint8_t data_size = 1;
 176:src/unit/robot/robot.cpp ****                         uint8_t send_data[data_size];
 177:src/unit/robot/robot.cpp ****                         send_data[0] = info.Catch.is_front << 1 | info.Catch.is_back;
 178:src/unit/robot/robot.cpp ****                         serial3.write(send_data, data_size);
 179:src/unit/robot/robot.cpp ****                   } else if (item == 0) {
 180:src/unit/robot/robot.cpp ****                         static const uint8_t data_size = 10;
 181:src/unit/robot/robot.cpp ****                         uint8_t send_data[data_size];
 182:src/unit/robot/robot.cpp ****                         send_data[0] = HEADER;
 183:src/unit/robot/robot.cpp ****                         send_data[1] = info.voltage * 20;
 184:src/unit/robot/robot.cpp ****                         send_data[2] = info.voltage * 0;
 185:src/unit/robot/robot.cpp ****                         send_data[3] = (uint8_t)(((uint16_t)(info.Imu.yaw + 32768) & 0xFF00) >> 8);
 186:src/unit/robot/robot.cpp ****                         send_data[4] = (uint8_t)((uint16_t)(info.Imu.yaw + 32768) & 0x00FF);
 187:src/unit/robot/robot.cpp ****                         send_data[5] = (uint8_t)(((uint16_t)(debug_val[0] + 32768) & 0xFF00) >> 8);
 188:src/unit/robot/robot.cpp ****                         send_data[6] = (uint8_t)((uint16_t)(debug_val[0] + 32768) & 0x00FF);
 189:src/unit/robot/robot.cpp ****                         send_data[7] = (uint8_t)(((uint16_t)(debug_val[1] + 32768) & 0xFF00) >> 8);
 190:src/unit/robot/robot.cpp ****                         send_data[8] = (uint8_t)((uint16_t)(debug_val[1] + 32768) & 0x00FF);
 191:src/unit/robot/robot.cpp ****                         send_data[9] = FOOTER;
 192:src/unit/robot/robot.cpp ****                         serial3.write(send_data, data_size);
 193:src/unit/robot/robot.cpp ****                   } else if (item == 1) {
 194:src/unit/robot/robot.cpp ****                         static const uint8_t data_size = 6;
 195:src/unit/robot/robot.cpp ****                         uint8_t send_data[data_size];
 196:src/unit/robot/robot.cpp ****                         send_data[0] = HEADER;
 197:src/unit/robot/robot.cpp ****                         send_data[1] = info.Line.dir;
 198:src/unit/robot/robot.cpp ****                         send_data[2] = info.Line.inside_dir;
 199:src/unit/robot/robot.cpp ****                         send_data[3] = info.Line.interval;
 200:src/unit/robot/robot.cpp ****                         send_data[4] = info.Line.is_on_line << 2 | info.Line.is_leftside << 1 | inf
 201:src/unit/robot/robot.cpp ****                         send_data[5] = FOOTER;
 202:src/unit/robot/robot.cpp ****                         serial3.write(send_data, data_size);
 203:src/unit/robot/robot.cpp ****                   }
 204:src/unit/robot/robot.cpp **** 
 205:src/unit/robot/robot.cpp ****                   ui_send_interval_timer.reset();
 206:src/unit/robot/robot.cpp ****             }
 207:src/unit/robot/robot.cpp ****       }
 208:src/unit/robot/robot.cpp **** }
 1732              		.loc 1 208 1 view .LVU521
 1733 00ca 05B0     		add	sp, sp, #20
 1734              	.LCFI13:
 1735              		.cfi_remember_state
 1736              		.cfi_def_cfa_offset 20
 1737              		@ sp needed
 1738 00cc F0BD     		pop	{r4, r5, r6, r7, pc}
 1739              	.LVL145:
 1740              	.L70:
 1741              	.LCFI14:
 1742              		.cfi_restore_state
 1743              	.LBB199:
ARM GAS  /var/folders/5c/srt4fy4j1pd641bjfx75k5000000gn/T//ccFHb7ij.s 			page 42


 1744              	.LBB169:
 167:src/unit/robot/robot.cpp ****             int16_t debug_val[2];
 1745              		.loc 1 167 13 is_stmt 1 view .LVU522
 168:src/unit/robot/robot.cpp ****             debug_val[1] = info.Cam.ball_dis;
 1746              		.loc 1 168 13 view .LVU523
 168:src/unit/robot/robot.cpp ****             debug_val[1] = info.Cam.ball_dis;
 1747              		.loc 1 168 37 is_stmt 0 view .LVU524
 1748 00ce B4F93070 		ldrsh	r7, [r4, #48]
 168:src/unit/robot/robot.cpp ****             debug_val[1] = info.Cam.ball_dis;
 1749              		.loc 1 168 26 view .LVU525
 1750 00d2 ADF80070 		strh	r7, [sp]	@ movhi
 169:src/unit/robot/robot.cpp **** 
 1751              		.loc 1 169 13 is_stmt 1 view .LVU526
 169:src/unit/robot/robot.cpp **** 
 1752              		.loc 1 169 37 is_stmt 0 view .LVU527
 1753 00d6 B4F93260 		ldrsh	r6, [r4, #50]
 169:src/unit/robot/robot.cpp **** 
 1754              		.loc 1 169 26 view .LVU528
 1755 00da ADF80260 		strh	r6, [sp, #2]	@ movhi
 171:src/unit/robot/robot.cpp ****                   static const uint8_t HEADER = 0xFF;  // ヘッダ
 1756              		.loc 1 171 13 is_stmt 1 view .LVU529
 1757              	.LBB170:
 171:src/unit/robot/robot.cpp ****                   static const uint8_t HEADER = 0xFF;  // ヘッダ
 1758              		.loc 1 171 47 is_stmt 0 view .LVU530
 1759 00de 04F5B755 		add	r5, r4, #5856
 1760 00e2 1835     		adds	r5, r5, #24
 1761 00e4 2846     		mov	r0, r5
 1762 00e6 FFF7FEFF 		bl	_ZN5Timer7read_usEv
 1763              	.LVL146:
 171:src/unit/robot/robot.cpp ****                   static const uint8_t HEADER = 0xFF;  // ヘッダ
 1764              		.loc 1 171 13 view .LVU531
 1765 00ea 4C4B     		ldr	r3, .L74+28
 1766 00ec 9842     		cmp	r0, r3
 1767 00ee ECD9     		bls	.L52
 1768              	.LBB171:
 172:src/unit/robot/robot.cpp ****                   static const uint8_t FOOTER = 0xAA;  // ヘッダ
 1769              		.loc 1 172 19 is_stmt 1 view .LVU532
 173:src/unit/robot/robot.cpp ****                   if (item == -2) {
 1770              		.loc 1 173 19 view .LVU533
 174:src/unit/robot/robot.cpp ****                         static const uint8_t data_size = 1;
 1771              		.loc 1 174 19 view .LVU534
 1772              	.LBB172:
 174:src/unit/robot/robot.cpp ****                         static const uint8_t data_size = 1;
 1773              		.loc 1 174 28 is_stmt 0 view .LVU535
 1774 00f0 484B     		ldr	r3, .L74+20
 1775 00f2 93F90030 		ldrsb	r3, [r3]
 174:src/unit/robot/robot.cpp ****                         static const uint8_t data_size = 1;
 1776              		.loc 1 174 19 view .LVU536
 1777 00f6 13F1020F 		cmn	r3, #2
 1778 00fa 06D0     		beq	.L71
 1779              	.LBE172:
 1780              	.LBE171:
 1781              	.LBE170:
 1782              	.LBE169:
 1783              	.LBE199:
 179:src/unit/robot/robot.cpp ****                         static const uint8_t data_size = 10;
 1784              		.loc 1 179 26 is_stmt 1 view .LVU537
ARM GAS  /var/folders/5c/srt4fy4j1pd641bjfx75k5000000gn/T//ccFHb7ij.s 			page 43


 1785              	.LBB200:
 1786              	.LBB196:
 1787              	.LBB193:
 1788              	.LBB190:
 1789              	.LBB187:
 1790              	.LBB173:
 1791 00fc BBB1     		cbz	r3, .L72
 1792              	.LBE173:
 1793              	.LBE187:
 1794              	.LBE190:
 1795              	.LBE193:
 1796              	.LBE196:
 1797              	.LBE200:
 193:src/unit/robot/robot.cpp ****                         static const uint8_t data_size = 6;
 1798              		.loc 1 193 26 view .LVU538
 1799              	.LBB201:
 1800              	.LBB197:
 1801              	.LBB194:
 1802              	.LBB191:
 1803              	.LBB188:
 1804              	.LBB182:
 1805              	.LBB174:
 1806 00fe 012B     		cmp	r3, #1
 1807 0100 55D0     		beq	.L73
 1808              	.LVL147:
 1809              	.L63:
 193:src/unit/robot/robot.cpp ****                         static const uint8_t data_size = 6;
 1810              		.loc 1 193 26 is_stmt 0 view .LVU539
 1811              	.LBE174:
 1812              	.LBE182:
 1813              	.LBE188:
 205:src/unit/robot/robot.cpp ****             }
 1814              		.loc 1 205 19 is_stmt 1 view .LVU540
 205:src/unit/robot/robot.cpp ****             }
 1815              		.loc 1 205 47 is_stmt 0 view .LVU541
 1816 0102 2846     		mov	r0, r5
 1817 0104 FFF7FEFF 		bl	_ZN5Timer5resetEv
 1818              	.LVL148:
 1819              	.LBE191:
 1820              	.LBE194:
 1821              	.LBE197:
 1822              	.LBE201:
 1823              		.loc 1 208 1 view .LVU542
 1824 0108 DFE7     		b	.L52
 1825              	.LVL149:
 1826              	.L71:
 1827              	.LBB202:
 1828              	.LBB198:
 1829              	.LBB195:
 1830              	.LBB192:
 1831              	.LBB189:
 1832              	.LBB183:
 175:src/unit/robot/robot.cpp ****                         uint8_t send_data[data_size];
 1833              		.loc 1 175 25 is_stmt 1 view .LVU543
 176:src/unit/robot/robot.cpp ****                         send_data[0] = info.Catch.is_front << 1 | info.Catch.is_back;
 1834              		.loc 1 176 25 view .LVU544
 177:src/unit/robot/robot.cpp ****                         serial3.write(send_data, data_size);
ARM GAS  /var/folders/5c/srt4fy4j1pd641bjfx75k5000000gn/T//ccFHb7ij.s 			page 44


 1835              		.loc 1 177 25 view .LVU545
 177:src/unit/robot/robot.cpp ****                         serial3.write(send_data, data_size);
 1836              		.loc 1 177 51 is_stmt 0 view .LVU546
 1837 010a 94F82220 		ldrb	r2, [r4, #34]	@ zero_extendqisi2
 177:src/unit/robot/robot.cpp ****                         serial3.write(send_data, data_size);
 1838              		.loc 1 177 78 view .LVU547
 1839 010e 94F92630 		ldrsb	r3, [r4, #38]
 177:src/unit/robot/robot.cpp ****                         serial3.write(send_data, data_size);
 1840              		.loc 1 177 65 view .LVU548
 1841 0112 43EA4203 		orr	r3, r3, r2, lsl #1
 177:src/unit/robot/robot.cpp ****                         serial3.write(send_data, data_size);
 1842              		.loc 1 177 38 view .LVU549
 1843 0116 8DF80430 		strb	r3, [sp, #4]
 178:src/unit/robot/robot.cpp ****                   } else if (item == 0) {
 1844              		.loc 1 178 25 is_stmt 1 view .LVU550
 1845              	.LVL150:
 1846              	.LBB184:
 1847              	.LBI184:
  51:Lib/BufferedSerial/BufferedSerial.hpp ****       }
  52:Lib/BufferedSerial/BufferedSerial.hpp **** 
  53:Lib/BufferedSerial/BufferedSerial.hpp ****       void write(const uint8_t *data, uint16_t len) {
 1848              		.loc 2 53 12 view .LVU551
 1849              	.LBB185:
  54:Lib/BufferedSerial/BufferedSerial.hpp ****             HAL_UART_Transmit(_huart, (uint8_t *)data, len, 100);
 1850              		.loc 2 54 13 view .LVU552
 1851              		.loc 2 54 30 is_stmt 0 view .LVU553
 1852 011a 04F58054 		add	r4, r4, #4096
 1853              	.LVL151:
 1854              		.loc 2 54 30 view .LVU554
 1855 011e 6423     		movs	r3, #100
 1856 0120 0122     		movs	r2, #1
 1857 0122 01A9     		add	r1, sp, #4
 1858              	.LVL152:
 1859              		.loc 2 54 30 view .LVU555
 1860 0124 D4F8D406 		ldr	r0, [r4, #1748]
 1861 0128 FFF7FEFF 		bl	HAL_UART_Transmit
 1862              	.LVL153:
 1863              		.loc 2 54 30 view .LVU556
 1864              	.LBE185:
 1865              	.LBE184:
 1866              	.LBE183:
 1867 012c E9E7     		b	.L63
 1868              	.LVL154:
 1869              	.L72:
 1870              	.LBB186:
 1871              	.LBB178:
 180:src/unit/robot/robot.cpp ****                         uint8_t send_data[data_size];
 1872              		.loc 1 180 25 is_stmt 1 view .LVU557
 181:src/unit/robot/robot.cpp ****                         send_data[0] = HEADER;
 1873              		.loc 1 181 25 view .LVU558
 182:src/unit/robot/robot.cpp ****                         send_data[1] = info.voltage * 20;
 1874              		.loc 1 182 25 view .LVU559
 182:src/unit/robot/robot.cpp ****                         send_data[1] = info.voltage * 20;
 1875              		.loc 1 182 38 is_stmt 0 view .LVU560
 1876 012e FF23     		movs	r3, #255
 1877 0130 8DF80430 		strb	r3, [sp, #4]
 183:src/unit/robot/robot.cpp ****                         send_data[2] = info.voltage * 0;
ARM GAS  /var/folders/5c/srt4fy4j1pd641bjfx75k5000000gn/T//ccFHb7ij.s 			page 45


 1878              		.loc 1 183 25 is_stmt 1 view .LVU561
 183:src/unit/robot/robot.cpp ****                         send_data[2] = info.voltage * 0;
 1879              		.loc 1 183 45 is_stmt 0 view .LVU562
 1880 0134 D4ED007A 		vldr.32	s15, [r4]
 183:src/unit/robot/robot.cpp ****                         send_data[2] = info.voltage * 0;
 1881              		.loc 1 183 53 view .LVU563
 1882 0138 B3EE047A 		vmov.f32	s14, #2.0e+1
 1883 013c 27EE877A 		vmul.f32	s14, s15, s14
 183:src/unit/robot/robot.cpp ****                         send_data[2] = info.voltage * 0;
 1884              		.loc 1 183 38 view .LVU564
 1885 0140 BCEEC77A 		vcvt.u32.f32	s14, s14
 1886 0144 17EE103A 		vmov	r3, s14	@ int
 1887 0148 8DF80530 		strb	r3, [sp, #5]
 184:src/unit/robot/robot.cpp ****                         send_data[3] = (uint8_t)(((uint16_t)(info.Imu.yaw + 32768) & 0xFF00) >> 8);
 1888              		.loc 1 184 25 is_stmt 1 view .LVU565
 184:src/unit/robot/robot.cpp ****                         send_data[3] = (uint8_t)(((uint16_t)(info.Imu.yaw + 32768) & 0xFF00) >> 8);
 1889              		.loc 1 184 53 is_stmt 0 view .LVU566
 1890 014c 9FED347A 		vldr.32	s14, .L74+32
 1891 0150 67EE877A 		vmul.f32	s15, s15, s14
 184:src/unit/robot/robot.cpp ****                         send_data[3] = (uint8_t)(((uint16_t)(info.Imu.yaw + 32768) & 0xFF00) >> 8);
 1892              		.loc 1 184 38 view .LVU567
 1893 0154 FCEEE77A 		vcvt.u32.f32	s15, s15
 1894 0158 17EE903A 		vmov	r3, s15	@ int
 1895 015c 8DF80630 		strb	r3, [sp, #6]
 185:src/unit/robot/robot.cpp ****                         send_data[4] = (uint8_t)((uint16_t)(info.Imu.yaw + 32768) & 0x00FF);
 1896              		.loc 1 185 25 is_stmt 1 view .LVU568
 185:src/unit/robot/robot.cpp ****                         send_data[4] = (uint8_t)((uint16_t)(info.Imu.yaw + 32768) & 0x00FF);
 1897              		.loc 1 185 71 is_stmt 0 view .LVU569
 1898 0160 B4F92820 		ldrsh	r2, [r4, #40]
 1899 0164 93B2     		uxth	r3, r2
 185:src/unit/robot/robot.cpp ****                         send_data[4] = (uint8_t)((uint16_t)(info.Imu.yaw + 32768) & 0x00FF);
 1900              		.loc 1 185 75 view .LVU570
 1901 0166 83F40043 		eor	r3, r3, #32768
 185:src/unit/robot/robot.cpp ****                         send_data[4] = (uint8_t)((uint16_t)(info.Imu.yaw + 32768) & 0x00FF);
 1902              		.loc 1 185 94 view .LVU571
 1903 016a 1B0A     		lsrs	r3, r3, #8
 185:src/unit/robot/robot.cpp ****                         send_data[4] = (uint8_t)((uint16_t)(info.Imu.yaw + 32768) & 0x00FF);
 1904              		.loc 1 185 38 view .LVU572
 1905 016c 8DF80730 		strb	r3, [sp, #7]
 186:src/unit/robot/robot.cpp ****                         send_data[5] = (uint8_t)(((uint16_t)(debug_val[0] + 32768) & 0xFF00) >> 8);
 1906              		.loc 1 186 25 is_stmt 1 view .LVU573
 186:src/unit/robot/robot.cpp ****                         send_data[5] = (uint8_t)(((uint16_t)(debug_val[0] + 32768) & 0xFF00) >> 8);
 1907              		.loc 1 186 38 is_stmt 0 view .LVU574
 1908 0170 8DF80820 		strb	r2, [sp, #8]
 187:src/unit/robot/robot.cpp ****                         send_data[6] = (uint8_t)((uint16_t)(debug_val[0] + 32768) & 0x00FF);
 1909              		.loc 1 187 25 is_stmt 1 view .LVU575
 187:src/unit/robot/robot.cpp ****                         send_data[6] = (uint8_t)((uint16_t)(debug_val[0] + 32768) & 0x00FF);
 1910              		.loc 1 187 73 is_stmt 0 view .LVU576
 1911 0174 BBB2     		uxth	r3, r7
 187:src/unit/robot/robot.cpp ****                         send_data[6] = (uint8_t)((uint16_t)(debug_val[0] + 32768) & 0x00FF);
 1912              		.loc 1 187 75 view .LVU577
 1913 0176 83F40043 		eor	r3, r3, #32768
 187:src/unit/robot/robot.cpp ****                         send_data[6] = (uint8_t)((uint16_t)(debug_val[0] + 32768) & 0x00FF);
 1914              		.loc 1 187 94 view .LVU578
 1915 017a 1B0A     		lsrs	r3, r3, #8
 187:src/unit/robot/robot.cpp ****                         send_data[6] = (uint8_t)((uint16_t)(debug_val[0] + 32768) & 0x00FF);
 1916              		.loc 1 187 38 view .LVU579
ARM GAS  /var/folders/5c/srt4fy4j1pd641bjfx75k5000000gn/T//ccFHb7ij.s 			page 46


 1917 017c 8DF80930 		strb	r3, [sp, #9]
 188:src/unit/robot/robot.cpp ****                         send_data[7] = (uint8_t)(((uint16_t)(debug_val[1] + 32768) & 0xFF00) >> 8);
 1918              		.loc 1 188 25 is_stmt 1 view .LVU580
 188:src/unit/robot/robot.cpp ****                         send_data[7] = (uint8_t)(((uint16_t)(debug_val[1] + 32768) & 0xFF00) >> 8);
 1919              		.loc 1 188 38 is_stmt 0 view .LVU581
 1920 0180 8DF80A70 		strb	r7, [sp, #10]
 189:src/unit/robot/robot.cpp ****                         send_data[8] = (uint8_t)((uint16_t)(debug_val[1] + 32768) & 0x00FF);
 1921              		.loc 1 189 25 is_stmt 1 view .LVU582
 189:src/unit/robot/robot.cpp ****                         send_data[8] = (uint8_t)((uint16_t)(debug_val[1] + 32768) & 0x00FF);
 1922              		.loc 1 189 73 is_stmt 0 view .LVU583
 1923 0184 B3B2     		uxth	r3, r6
 189:src/unit/robot/robot.cpp ****                         send_data[8] = (uint8_t)((uint16_t)(debug_val[1] + 32768) & 0x00FF);
 1924              		.loc 1 189 75 view .LVU584
 1925 0186 83F40043 		eor	r3, r3, #32768
 189:src/unit/robot/robot.cpp ****                         send_data[8] = (uint8_t)((uint16_t)(debug_val[1] + 32768) & 0x00FF);
 1926              		.loc 1 189 94 view .LVU585
 1927 018a 1B0A     		lsrs	r3, r3, #8
 189:src/unit/robot/robot.cpp ****                         send_data[8] = (uint8_t)((uint16_t)(debug_val[1] + 32768) & 0x00FF);
 1928              		.loc 1 189 38 view .LVU586
 1929 018c 8DF80B30 		strb	r3, [sp, #11]
 190:src/unit/robot/robot.cpp ****                         send_data[9] = FOOTER;
 1930              		.loc 1 190 25 is_stmt 1 view .LVU587
 190:src/unit/robot/robot.cpp ****                         send_data[9] = FOOTER;
 1931              		.loc 1 190 38 is_stmt 0 view .LVU588
 1932 0190 8DF80C60 		strb	r6, [sp, #12]
 191:src/unit/robot/robot.cpp ****                         serial3.write(send_data, data_size);
 1933              		.loc 1 191 25 is_stmt 1 view .LVU589
 191:src/unit/robot/robot.cpp ****                         serial3.write(send_data, data_size);
 1934              		.loc 1 191 38 is_stmt 0 view .LVU590
 1935 0194 AA23     		movs	r3, #170
 1936 0196 8DF80D30 		strb	r3, [sp, #13]
 192:src/unit/robot/robot.cpp ****                   } else if (item == 1) {
 1937              		.loc 1 192 25 is_stmt 1 view .LVU591
 1938              	.LVL155:
 1939              	.LBB179:
 1940              	.LBI179:
  53:Lib/BufferedSerial/BufferedSerial.hpp ****             HAL_UART_Transmit(_huart, (uint8_t *)data, len, 100);
 1941              		.loc 2 53 12 view .LVU592
 1942              	.LBB180:
 1943              		.loc 2 54 13 view .LVU593
 1944              		.loc 2 54 30 is_stmt 0 view .LVU594
 1945 019a 04F58054 		add	r4, r4, #4096
 1946              	.LVL156:
 1947              		.loc 2 54 30 view .LVU595
 1948 019e 6423     		movs	r3, #100
 1949 01a0 0A22     		movs	r2, #10
 1950 01a2 01A9     		add	r1, sp, #4
 1951              	.LVL157:
 1952              		.loc 2 54 30 view .LVU596
 1953 01a4 D4F8D406 		ldr	r0, [r4, #1748]
 1954 01a8 FFF7FEFF 		bl	HAL_UART_Transmit
 1955              	.LVL158:
 1956              		.loc 2 54 30 view .LVU597
 1957              	.LBE180:
 1958              	.LBE179:
 1959              	.LBE178:
 1960 01ac A9E7     		b	.L63
ARM GAS  /var/folders/5c/srt4fy4j1pd641bjfx75k5000000gn/T//ccFHb7ij.s 			page 47


 1961              	.LVL159:
 1962              	.L73:
 1963              	.LBB181:
 1964              	.LBB175:
 194:src/unit/robot/robot.cpp ****                         uint8_t send_data[data_size];
 1965              		.loc 1 194 25 is_stmt 1 view .LVU598
 195:src/unit/robot/robot.cpp ****                         send_data[0] = HEADER;
 1966              		.loc 1 195 25 view .LVU599
 196:src/unit/robot/robot.cpp ****                         send_data[1] = info.Line.dir;
 1967              		.loc 1 196 25 view .LVU600
 196:src/unit/robot/robot.cpp ****                         send_data[1] = info.Line.dir;
 1968              		.loc 1 196 38 is_stmt 0 view .LVU601
 1969 01ae FF23     		movs	r3, #255
 1970 01b0 8DF80430 		strb	r3, [sp, #4]
 197:src/unit/robot/robot.cpp ****                         send_data[2] = info.Line.inside_dir;
 1971              		.loc 1 197 25 is_stmt 1 view .LVU602
 197:src/unit/robot/robot.cpp ****                         send_data[2] = info.Line.inside_dir;
 1972              		.loc 1 197 50 is_stmt 0 view .LVU603
 1973 01b4 B4F91A30 		ldrsh	r3, [r4, #26]
 197:src/unit/robot/robot.cpp ****                         send_data[2] = info.Line.inside_dir;
 1974              		.loc 1 197 38 view .LVU604
 1975 01b8 8DF80530 		strb	r3, [sp, #5]
 198:src/unit/robot/robot.cpp ****                         send_data[3] = info.Line.interval;
 1976              		.loc 1 198 25 is_stmt 1 view .LVU605
 198:src/unit/robot/robot.cpp ****                         send_data[3] = info.Line.interval;
 1977              		.loc 1 198 50 is_stmt 0 view .LVU606
 1978 01bc B4F91C30 		ldrsh	r3, [r4, #28]
 198:src/unit/robot/robot.cpp ****                         send_data[3] = info.Line.interval;
 1979              		.loc 1 198 38 view .LVU607
 1980 01c0 8DF80630 		strb	r3, [sp, #6]
 199:src/unit/robot/robot.cpp ****                         send_data[4] = info.Line.is_on_line << 2 | info.Line.is_leftside << 1 | inf
 1981              		.loc 1 199 25 is_stmt 1 view .LVU608
 199:src/unit/robot/robot.cpp ****                         send_data[4] = info.Line.is_on_line << 2 | info.Line.is_leftside << 1 | inf
 1982              		.loc 1 199 50 is_stmt 0 view .LVU609
 1983 01c4 237D     		ldrb	r3, [r4, #20]	@ zero_extendqisi2
 199:src/unit/robot/robot.cpp ****                         send_data[4] = info.Line.is_on_line << 2 | info.Line.is_leftside << 1 | inf
 1984              		.loc 1 199 38 view .LVU610
 1985 01c6 8DF80730 		strb	r3, [sp, #7]
 200:src/unit/robot/robot.cpp ****                         send_data[5] = FOOTER;
 1986              		.loc 1 200 25 is_stmt 1 view .LVU611
 200:src/unit/robot/robot.cpp ****                         send_data[5] = FOOTER;
 1987              		.loc 1 200 50 is_stmt 0 view .LVU612
 1988 01ca 627D     		ldrb	r2, [r4, #21]	@ zero_extendqisi2
 200:src/unit/robot/robot.cpp ****                         send_data[5] = FOOTER;
 1989              		.loc 1 200 78 view .LVU613
 1990 01cc E37D     		ldrb	r3, [r4, #23]	@ zero_extendqisi2
 200:src/unit/robot/robot.cpp ****                         send_data[5] = FOOTER;
 1991              		.loc 1 200 90 view .LVU614
 1992 01ce 5B00     		lsls	r3, r3, #1
 200:src/unit/robot/robot.cpp ****                         send_data[5] = FOOTER;
 1993              		.loc 1 200 66 view .LVU615
 1994 01d0 43EA8203 		orr	r3, r3, r2, lsl #2
 1995 01d4 5BB2     		sxtb	r3, r3
 200:src/unit/robot/robot.cpp ****                         send_data[5] = FOOTER;
 1996              		.loc 1 200 107 view .LVU616
 1997 01d6 94F91820 		ldrsb	r2, [r4, #24]
 200:src/unit/robot/robot.cpp ****                         send_data[5] = FOOTER;
ARM GAS  /var/folders/5c/srt4fy4j1pd641bjfx75k5000000gn/T//ccFHb7ij.s 			page 48


 1998              		.loc 1 200 95 view .LVU617
 1999 01da 1343     		orrs	r3, r3, r2
 200:src/unit/robot/robot.cpp ****                         send_data[5] = FOOTER;
 2000              		.loc 1 200 38 view .LVU618
 2001 01dc 8DF80830 		strb	r3, [sp, #8]
 201:src/unit/robot/robot.cpp ****                         serial3.write(send_data, data_size);
 2002              		.loc 1 201 25 is_stmt 1 view .LVU619
 201:src/unit/robot/robot.cpp ****                         serial3.write(send_data, data_size);
 2003              		.loc 1 201 38 is_stmt 0 view .LVU620
 2004 01e0 AA23     		movs	r3, #170
 2005 01e2 8DF80930 		strb	r3, [sp, #9]
 202:src/unit/robot/robot.cpp ****                   }
 2006              		.loc 1 202 25 is_stmt 1 view .LVU621
 2007              	.LVL160:
 2008              	.LBB176:
 2009              	.LBI176:
  53:Lib/BufferedSerial/BufferedSerial.hpp ****             HAL_UART_Transmit(_huart, (uint8_t *)data, len, 100);
 2010              		.loc 2 53 12 view .LVU622
 2011              	.LBB177:
 2012              		.loc 2 54 13 view .LVU623
 2013              		.loc 2 54 30 is_stmt 0 view .LVU624
 2014 01e6 04F58054 		add	r4, r4, #4096
 2015              	.LVL161:
 2016              		.loc 2 54 30 view .LVU625
 2017 01ea 6423     		movs	r3, #100
 2018 01ec 0622     		movs	r2, #6
 2019 01ee 01A9     		add	r1, sp, #4
 2020              	.LVL162:
 2021              		.loc 2 54 30 view .LVU626
 2022 01f0 D4F8D406 		ldr	r0, [r4, #1748]
 2023 01f4 FFF7FEFF 		bl	HAL_UART_Transmit
 2024              	.LVL163:
 2025              		.loc 2 54 30 view .LVU627
 2026              	.LBE177:
 2027              	.LBE176:
 2028              	.LBE175:
 2029 01f8 83E7     		b	.L63
 2030              	.L75:
 2031 01fa 00BFAFF3 		.align	3
 2031      0080
 2032              	.L74:
 2033 0200 7B14AE47 		.word	1202590843
 2034 0204 E17A843F 		.word	1065646817
 2035 0208 00000000 		.word	_ZZN5Robot6UiUartEvE5index
 2036 020c 00000000 		.word	_ZZN5Robot6UiUartEvE9recv_data
 2037 0210 00000000 		.word	_ZZN5Robot6UiUartEvE9recv_byte
 2038 0214 00000000 		.word	_ZZN5Robot6UiUartEvE4item
 2039 0218 00000000 		.word	_ZZN5Robot6UiUartEvE8sub_item
 2040 021c 9F860100 		.word	99999
 2041 0220 00000000 		.word	0
 2042              	.LBE181:
 2043              	.LBE186:
 2044              	.LBE189:
 2045              	.LBE192:
 2046              	.LBE195:
 2047              	.LBE198:
 2048              	.LBE202:
ARM GAS  /var/folders/5c/srt4fy4j1pd641bjfx75k5000000gn/T//ccFHb7ij.s 			page 49


 2049              		.cfi_endproc
 2050              	.LFE276:
 2051              		.fnend
 2053              		.section	.text._ZN5Robot7CamUartEv,"ax",%progbits
 2054              		.align	1
 2055              		.global	_ZN5Robot7CamUartEv
 2056              		.syntax unified
 2057              		.thumb
 2058              		.thumb_func
 2060              	_ZN5Robot7CamUartEv:
 2061              		.fnstart
 2062              	.LVL164:
 2063              	.LFB277:
 209:src/unit/robot/robot.cpp **** 
 210:src/unit/robot/robot.cpp **** void Robot::CamUart() {
 2064              		.loc 1 210 23 is_stmt 1 view -0
 2065              		.cfi_startproc
 2066              		@ args = 0, pretend = 0, frame = 8
 2067              		@ frame_needed = 0, uses_anonymous_args = 0
 2068              		.loc 1 210 23 is_stmt 0 view .LVU629
 2069 0000 30B5     		push	{r4, r5, lr}
 2070              		.save {r4, r5, lr}
 2071              	.LCFI15:
 2072              		.cfi_def_cfa_offset 12
 2073              		.cfi_offset 4, -12
 2074              		.cfi_offset 5, -8
 2075              		.cfi_offset 14, -4
 2076              		.pad #12
 2077 0002 83B0     		sub	sp, sp, #12
 2078              	.LCFI16:
 2079              		.cfi_def_cfa_offset 24
 2080 0004 0446     		mov	r4, r0
 211:src/unit/robot/robot.cpp ****       while (serial4.available()) {
 2081              		.loc 1 211 7 is_stmt 1 view .LVU630
 2082 0006 0BE0     		b	.L77
 2083              	.LVL165:
 2084              	.L88:
 2085              	.LBB203:
 212:src/unit/robot/robot.cpp ****             static const uint8_t HEADER = 0xFF;   // ヘッダ
 213:src/unit/robot/robot.cpp ****             static const uint8_t FOOTER = 0xAA;   // フッタ
 214:src/unit/robot/robot.cpp ****             static const uint8_t data_size = 11;  // データのサイズ
 215:src/unit/robot/robot.cpp ****             static uint8_t index = 0;             // 受信したデータのインデックスカ
 216:src/unit/robot/robot.cpp ****             static uint8_t recv_data[data_size];  // 受信したデータ
 217:src/unit/robot/robot.cpp ****             static uint8_t recv_byte;
 218:src/unit/robot/robot.cpp **** 
 219:src/unit/robot/robot.cpp ****             recv_byte = serial4.read();
 220:src/unit/robot/robot.cpp ****             if (index == 0) {
 221:src/unit/robot/robot.cpp ****                   if (recv_byte == HEADER) {
 222:src/unit/robot/robot.cpp ****                         index++;
 2086              		.loc 1 222 25 view .LVU631
 2087              		.loc 1 222 30 is_stmt 0 view .LVU632
 2088 0008 0133     		adds	r3, r3, #1
 2089 000a 414A     		ldr	r2, .L91
 2090 000c 1370     		strb	r3, [r2]
 2091 000e 07E0     		b	.L77
 2092              	.L78:
 223:src/unit/robot/robot.cpp ****                   } else {
ARM GAS  /var/folders/5c/srt4fy4j1pd641bjfx75k5000000gn/T//ccFHb7ij.s 			page 50


 224:src/unit/robot/robot.cpp ****                         index = 0;
 225:src/unit/robot/robot.cpp ****                   }
 226:src/unit/robot/robot.cpp ****             } else if (index == (data_size + 1)) {
 2093              		.loc 1 226 20 is_stmt 1 view .LVU633
 2094 0010 0C2B     		cmp	r3, #12
 2095 0012 26D0     		beq	.L86
 227:src/unit/robot/robot.cpp ****                   if (recv_byte == FOOTER) {
 228:src/unit/robot/robot.cpp ****                         info.Cam.ball_dir = ((((uint16_t)recv_data[0] << 8) & 0xFF00) | ((int16_t)r
 229:src/unit/robot/robot.cpp ****                         info.Cam.ball_dis = recv_data[2];
 230:src/unit/robot/robot.cpp ****                         info.Cam.yellow_goal_dir = recv_data[3] * 2 - 180;
 231:src/unit/robot/robot.cpp ****                         info.Cam.yellow_goal_height = recv_data[4];
 232:src/unit/robot/robot.cpp ****                         info.Cam.blue_goal_dir = recv_data[5] * 2 - 180;
 233:src/unit/robot/robot.cpp ****                         info.Cam.blue_goal_height = recv_data[6];
 234:src/unit/robot/robot.cpp ****                         info.Cam.is_goal_front = recv_data[7];
 235:src/unit/robot/robot.cpp ****                         info.Cam.own_x = recv_data[8] - 127;
 236:src/unit/robot/robot.cpp ****                         info.Cam.own_y = recv_data[9] - 127;
 237:src/unit/robot/robot.cpp ****                         info.Cam.proximity[0] = recv_data[10];
 238:src/unit/robot/robot.cpp ****                   }
 239:src/unit/robot/robot.cpp ****                   index = 0;
 240:src/unit/robot/robot.cpp ****             } else {
 241:src/unit/robot/robot.cpp ****                   recv_data[index - 1] = recv_byte;
 2096              		.loc 1 241 19 view .LVU634
 2097              		.loc 1 241 35 is_stmt 0 view .LVU635
 2098 0014 5A1E     		subs	r2, r3, #1
 2099              		.loc 1 241 40 view .LVU636
 2100 0016 3F49     		ldr	r1, .L91+4
 2101 0018 8854     		strb	r0, [r1, r2]
 242:src/unit/robot/robot.cpp ****                   index++;
 2102              		.loc 1 242 19 is_stmt 1 view .LVU637
 2103              		.loc 1 242 24 is_stmt 0 view .LVU638
 2104 001a 0133     		adds	r3, r3, #1
 2105 001c 3C4A     		ldr	r2, .L91
 2106 001e 1370     		strb	r3, [r2]
 2107              	.L77:
 2108              		.loc 1 242 24 view .LVU639
 2109              	.LBE203:
 211:src/unit/robot/robot.cpp ****             static const uint8_t HEADER = 0xFF;   // ヘッダ
 2110              		.loc 1 211 31 is_stmt 1 view .LVU640
 2111              	.LVL166:
 2112              	.LBB204:
 2113              	.LBI204:
  33:Lib/BufferedSerial/BufferedSerial.hpp ****             uint16_t rxTop = _rxBufSize - _huart->hdmarx->Instance->NDTR;
 2114              		.loc 2 33 12 view .LVU641
 2115              	.LBB205:
  34:Lib/BufferedSerial/BufferedSerial.hpp ****             return rxTop != rxBtm;
 2116              		.loc 2 34 13 view .LVU642
  34:Lib/BufferedSerial/BufferedSerial.hpp ****             return rxTop != rxBtm;
 2117              		.loc 2 34 30 is_stmt 0 view .LVU643
 2118 0020 04F58052 		add	r2, r4, #4096
 2119 0024 B2F8F036 		ldrh	r3, [r2, #1776]
  34:Lib/BufferedSerial/BufferedSerial.hpp ****             return rxTop != rxBtm;
 2120              		.loc 2 34 43 view .LVU644
 2121 0028 D2F8E416 		ldr	r1, [r2, #1764]
  34:Lib/BufferedSerial/BufferedSerial.hpp ****             return rxTop != rxBtm;
 2122              		.loc 2 34 51 view .LVU645
 2123 002c C96B     		ldr	r1, [r1, #60]
  34:Lib/BufferedSerial/BufferedSerial.hpp ****             return rxTop != rxBtm;
ARM GAS  /var/folders/5c/srt4fy4j1pd641bjfx75k5000000gn/T//ccFHb7ij.s 			page 51


 2124              		.loc 2 34 59 view .LVU646
 2125 002e 0968     		ldr	r1, [r1]
  34:Lib/BufferedSerial/BufferedSerial.hpp ****             return rxTop != rxBtm;
 2126              		.loc 2 34 69 view .LVU647
 2127 0030 4968     		ldr	r1, [r1, #4]
  34:Lib/BufferedSerial/BufferedSerial.hpp ****             return rxTop != rxBtm;
 2128              		.loc 2 34 41 view .LVU648
 2129 0032 89B2     		uxth	r1, r1
  34:Lib/BufferedSerial/BufferedSerial.hpp ****             return rxTop != rxBtm;
 2130              		.loc 2 34 69 view .LVU649
 2131 0034 5B1A     		subs	r3, r3, r1
 2132 0036 9BB2     		uxth	r3, r3
 2133              	.LVL167:
  35:Lib/BufferedSerial/BufferedSerial.hpp ****       }
 2134              		.loc 2 35 13 is_stmt 1 view .LVU650
  35:Lib/BufferedSerial/BufferedSerial.hpp ****       }
 2135              		.loc 2 35 29 is_stmt 0 view .LVU651
 2136 0038 B2F8EE26 		ldrh	r2, [r2, #1774]
 2137              	.LVL168:
  35:Lib/BufferedSerial/BufferedSerial.hpp ****       }
 2138              		.loc 2 35 29 view .LVU652
 2139              	.LBE205:
 2140              	.LBE204:
 211:src/unit/robot/robot.cpp ****             static const uint8_t HEADER = 0xFF;   // ヘッダ
 2141              		.loc 1 211 31 view .LVU653
 2142 003c 9342     		cmp	r3, r2
 2143 003e 3ED0     		beq	.L87
 2144              	.LBB206:
 212:src/unit/robot/robot.cpp ****             static const uint8_t FOOTER = 0xAA;   // フッタ
 2145              		.loc 1 212 13 is_stmt 1 view .LVU654
 213:src/unit/robot/robot.cpp ****             static const uint8_t data_size = 11;  // データのサイズ
 2146              		.loc 1 213 13 view .LVU655
 214:src/unit/robot/robot.cpp ****             static uint8_t index = 0;             // 受信したデータのインデックスカ
 2147              		.loc 1 214 13 view .LVU656
 215:src/unit/robot/robot.cpp ****             static uint8_t recv_data[data_size];  // 受信したデータ
 2148              		.loc 1 215 13 view .LVU657
 216:src/unit/robot/robot.cpp ****             static uint8_t recv_byte;
 2149              		.loc 1 216 13 view .LVU658
 217:src/unit/robot/robot.cpp **** 
 2150              		.loc 1 217 13 view .LVU659
 219:src/unit/robot/robot.cpp ****             if (index == 0) {
 2151              		.loc 1 219 13 view .LVU660
 219:src/unit/robot/robot.cpp ****             if (index == 0) {
 2152              		.loc 1 219 37 is_stmt 0 view .LVU661
 2153 0040 04F5B750 		add	r0, r4, #5856
 2154 0044 0430     		adds	r0, r0, #4
 2155 0046 FFF7FEFF 		bl	_ZN14BufferedSerial4readEv
 2156              	.LVL169:
 219:src/unit/robot/robot.cpp ****             if (index == 0) {
 2157              		.loc 1 219 23 view .LVU662
 2158 004a 334B     		ldr	r3, .L91+8
 2159 004c 1870     		strb	r0, [r3]
 220:src/unit/robot/robot.cpp ****                   if (recv_byte == HEADER) {
 2160              		.loc 1 220 13 is_stmt 1 view .LVU663
 220:src/unit/robot/robot.cpp ****                   if (recv_byte == HEADER) {
 2161              		.loc 1 220 23 is_stmt 0 view .LVU664
 2162 004e 304B     		ldr	r3, .L91
ARM GAS  /var/folders/5c/srt4fy4j1pd641bjfx75k5000000gn/T//ccFHb7ij.s 			page 52


 2163 0050 1B78     		ldrb	r3, [r3]	@ zero_extendqisi2
 220:src/unit/robot/robot.cpp ****                   if (recv_byte == HEADER) {
 2164              		.loc 1 220 13 view .LVU665
 2165 0052 002B     		cmp	r3, #0
 2166 0054 DCD1     		bne	.L78
 221:src/unit/robot/robot.cpp ****                         index++;
 2167              		.loc 1 221 19 is_stmt 1 view .LVU666
 2168 0056 FF28     		cmp	r0, #255
 2169 0058 D6D0     		beq	.L88
 224:src/unit/robot/robot.cpp ****                   }
 2170              		.loc 1 224 25 view .LVU667
 224:src/unit/robot/robot.cpp ****                   }
 2171              		.loc 1 224 31 is_stmt 0 view .LVU668
 2172 005a 2D4B     		ldr	r3, .L91
 2173 005c 0022     		movs	r2, #0
 2174 005e 1A70     		strb	r2, [r3]
 2175 0060 DEE7     		b	.L77
 2176              	.L86:
 227:src/unit/robot/robot.cpp ****                         info.Cam.ball_dir = ((((uint16_t)recv_data[0] << 8) & 0xFF00) | ((int16_t)r
 2177              		.loc 1 227 19 is_stmt 1 view .LVU669
 2178 0062 AA28     		cmp	r0, #170
 2179 0064 03D0     		beq	.L89
 2180              	.L82:
 239:src/unit/robot/robot.cpp ****             } else {
 2181              		.loc 1 239 19 view .LVU670
 239:src/unit/robot/robot.cpp ****             } else {
 2182              		.loc 1 239 25 is_stmt 0 view .LVU671
 2183 0066 2A4B     		ldr	r3, .L91
 2184 0068 0022     		movs	r2, #0
 2185 006a 1A70     		strb	r2, [r3]
 2186 006c D8E7     		b	.L77
 2187              	.L89:
 228:src/unit/robot/robot.cpp ****                         info.Cam.ball_dis = recv_data[2];
 2188              		.loc 1 228 25 is_stmt 1 view .LVU672
 228:src/unit/robot/robot.cpp ****                         info.Cam.ball_dis = recv_data[2];
 2189              		.loc 1 228 69 is_stmt 0 view .LVU673
 2190 006e 294B     		ldr	r3, .L91+4
 2191 0070 1978     		ldrb	r1, [r3]	@ zero_extendqisi2
 228:src/unit/robot/robot.cpp ****                         info.Cam.ball_dis = recv_data[2];
 2192              		.loc 1 228 110 view .LVU674
 2193 0072 5A78     		ldrb	r2, [r3, #1]	@ zero_extendqisi2
 228:src/unit/robot/robot.cpp ****                         info.Cam.ball_dis = recv_data[2];
 2194              		.loc 1 228 87 view .LVU675
 2195 0074 42EA0122 		orr	r2, r2, r1, lsl #8
 228:src/unit/robot/robot.cpp ****                         info.Cam.ball_dis = recv_data[2];
 2196              		.loc 1 228 123 view .LVU676
 2197 0078 A2F50042 		sub	r2, r2, #32768
 228:src/unit/robot/robot.cpp ****                         info.Cam.ball_dis = recv_data[2];
 2198              		.loc 1 228 43 view .LVU677
 2199 007c 2286     		strh	r2, [r4, #48]	@ movhi
 229:src/unit/robot/robot.cpp ****                         info.Cam.yellow_goal_dir = recv_data[3] * 2 - 180;
 2200              		.loc 1 229 25 is_stmt 1 view .LVU678
 229:src/unit/robot/robot.cpp ****                         info.Cam.yellow_goal_dir = recv_data[3] * 2 - 180;
 2201              		.loc 1 229 56 is_stmt 0 view .LVU679
 2202 007e 9A78     		ldrb	r2, [r3, #2]	@ zero_extendqisi2
 229:src/unit/robot/robot.cpp ****                         info.Cam.yellow_goal_dir = recv_data[3] * 2 - 180;
 2203              		.loc 1 229 43 view .LVU680
ARM GAS  /var/folders/5c/srt4fy4j1pd641bjfx75k5000000gn/T//ccFHb7ij.s 			page 53


 2204 0080 6286     		strh	r2, [r4, #50]	@ movhi
 230:src/unit/robot/robot.cpp ****                         info.Cam.yellow_goal_height = recv_data[4];
 2205              		.loc 1 230 25 is_stmt 1 view .LVU681
 230:src/unit/robot/robot.cpp ****                         info.Cam.yellow_goal_height = recv_data[4];
 2206              		.loc 1 230 63 is_stmt 0 view .LVU682
 2207 0082 DA78     		ldrb	r2, [r3, #3]	@ zero_extendqisi2
 230:src/unit/robot/robot.cpp ****                         info.Cam.yellow_goal_height = recv_data[4];
 2208              		.loc 1 230 69 view .LVU683
 2209 0084 5A3A     		subs	r2, r2, #90
 230:src/unit/robot/robot.cpp ****                         info.Cam.yellow_goal_height = recv_data[4];
 2210              		.loc 1 230 50 view .LVU684
 2211 0086 5200     		lsls	r2, r2, #1
 2212 0088 A286     		strh	r2, [r4, #52]	@ movhi
 231:src/unit/robot/robot.cpp ****                         info.Cam.blue_goal_dir = recv_data[5] * 2 - 180;
 2213              		.loc 1 231 25 is_stmt 1 view .LVU685
 231:src/unit/robot/robot.cpp ****                         info.Cam.blue_goal_dir = recv_data[5] * 2 - 180;
 2214              		.loc 1 231 66 is_stmt 0 view .LVU686
 2215 008a 1A79     		ldrb	r2, [r3, #4]	@ zero_extendqisi2
 231:src/unit/robot/robot.cpp ****                         info.Cam.blue_goal_dir = recv_data[5] * 2 - 180;
 2216              		.loc 1 231 53 view .LVU687
 2217 008c E286     		strh	r2, [r4, #54]	@ movhi
 232:src/unit/robot/robot.cpp ****                         info.Cam.blue_goal_height = recv_data[6];
 2218              		.loc 1 232 25 is_stmt 1 view .LVU688
 232:src/unit/robot/robot.cpp ****                         info.Cam.blue_goal_height = recv_data[6];
 2219              		.loc 1 232 61 is_stmt 0 view .LVU689
 2220 008e 5A79     		ldrb	r2, [r3, #5]	@ zero_extendqisi2
 232:src/unit/robot/robot.cpp ****                         info.Cam.blue_goal_height = recv_data[6];
 2221              		.loc 1 232 67 view .LVU690
 2222 0090 5A3A     		subs	r2, r2, #90
 232:src/unit/robot/robot.cpp ****                         info.Cam.blue_goal_height = recv_data[6];
 2223              		.loc 1 232 48 view .LVU691
 2224 0092 5200     		lsls	r2, r2, #1
 2225 0094 2287     		strh	r2, [r4, #56]	@ movhi
 233:src/unit/robot/robot.cpp ****                         info.Cam.is_goal_front = recv_data[7];
 2226              		.loc 1 233 25 is_stmt 1 view .LVU692
 233:src/unit/robot/robot.cpp ****                         info.Cam.is_goal_front = recv_data[7];
 2227              		.loc 1 233 64 is_stmt 0 view .LVU693
 2228 0096 9A79     		ldrb	r2, [r3, #6]	@ zero_extendqisi2
 233:src/unit/robot/robot.cpp ****                         info.Cam.is_goal_front = recv_data[7];
 2229              		.loc 1 233 51 view .LVU694
 2230 0098 6287     		strh	r2, [r4, #58]	@ movhi
 234:src/unit/robot/robot.cpp ****                         info.Cam.own_x = recv_data[8] - 127;
 2231              		.loc 1 234 25 is_stmt 1 view .LVU695
 234:src/unit/robot/robot.cpp ****                         info.Cam.own_x = recv_data[8] - 127;
 2232              		.loc 1 234 61 is_stmt 0 view .LVU696
 2233 009a DA79     		ldrb	r2, [r3, #7]	@ zero_extendqisi2
 2234 009c 003A     		subs	r2, r2, #0
 2235 009e 18BF     		it	ne
 2236 00a0 0122     		movne	r2, #1
 234:src/unit/robot/robot.cpp ****                         info.Cam.own_x = recv_data[8] - 127;
 2237              		.loc 1 234 48 view .LVU697
 2238 00a2 84F83E20 		strb	r2, [r4, #62]
 235:src/unit/robot/robot.cpp ****                         info.Cam.own_y = recv_data[9] - 127;
 2239              		.loc 1 235 25 is_stmt 1 view .LVU698
 235:src/unit/robot/robot.cpp ****                         info.Cam.own_y = recv_data[9] - 127;
 2240              		.loc 1 235 53 is_stmt 0 view .LVU699
 2241 00a6 1A7A     		ldrb	r2, [r3, #8]	@ zero_extendqisi2
ARM GAS  /var/folders/5c/srt4fy4j1pd641bjfx75k5000000gn/T//ccFHb7ij.s 			page 54


 235:src/unit/robot/robot.cpp ****                         info.Cam.own_y = recv_data[9] - 127;
 2242              		.loc 1 235 55 view .LVU700
 2243 00a8 7F3A     		subs	r2, r2, #127
 235:src/unit/robot/robot.cpp ****                         info.Cam.own_y = recv_data[9] - 127;
 2244              		.loc 1 235 40 view .LVU701
 2245 00aa 84F83C20 		strb	r2, [r4, #60]
 236:src/unit/robot/robot.cpp ****                         info.Cam.proximity[0] = recv_data[10];
 2246              		.loc 1 236 25 is_stmt 1 view .LVU702
 236:src/unit/robot/robot.cpp ****                         info.Cam.proximity[0] = recv_data[10];
 2247              		.loc 1 236 53 is_stmt 0 view .LVU703
 2248 00ae 5A7A     		ldrb	r2, [r3, #9]	@ zero_extendqisi2
 236:src/unit/robot/robot.cpp ****                         info.Cam.proximity[0] = recv_data[10];
 2249              		.loc 1 236 55 view .LVU704
 2250 00b0 7F3A     		subs	r2, r2, #127
 236:src/unit/robot/robot.cpp ****                         info.Cam.proximity[0] = recv_data[10];
 2251              		.loc 1 236 40 view .LVU705
 2252 00b2 84F83D20 		strb	r2, [r4, #61]
 237:src/unit/robot/robot.cpp ****                   }
 2253              		.loc 1 237 25 is_stmt 1 view .LVU706
 237:src/unit/robot/robot.cpp ****                   }
 2254              		.loc 1 237 61 is_stmt 0 view .LVU707
 2255 00b6 9B7A     		ldrb	r3, [r3, #10]	@ zero_extendqisi2
 237:src/unit/robot/robot.cpp ****                   }
 2256              		.loc 1 237 47 view .LVU708
 2257 00b8 84F83F30 		strb	r3, [r4, #63]
 2258 00bc D3E7     		b	.L82
 2259              	.L87:
 237:src/unit/robot/robot.cpp ****                   }
 2260              		.loc 1 237 47 view .LVU709
 2261              	.LBE206:
 243:src/unit/robot/robot.cpp ****             }
 244:src/unit/robot/robot.cpp ****       }
 245:src/unit/robot/robot.cpp **** 
 246:src/unit/robot/robot.cpp ****       if (cam_send_interval_timer.read_us() >= CAM_SEND_PERIOD_US) {
 2262              		.loc 1 246 7 is_stmt 1 view .LVU710
 2263              		.loc 1 246 42 is_stmt 0 view .LVU711
 2264 00be 04F5B755 		add	r5, r4, #5856
 2265 00c2 1C35     		adds	r5, r5, #28
 2266 00c4 2846     		mov	r0, r5
 2267 00c6 FFF7FEFF 		bl	_ZN5Timer7read_usEv
 2268              	.LVL170:
 2269              		.loc 1 246 7 view .LVU712
 2270 00ca B0F57A7F 		cmp	r0, #1000
 2271 00ce 01D2     		bcs	.L90
 2272              	.LVL171:
 2273              	.L76:
 247:src/unit/robot/robot.cpp ****             serial4.write(info.Imu.yaw * 0.5 + 90);
 248:src/unit/robot/robot.cpp ****             cam_send_interval_timer.reset();
 249:src/unit/robot/robot.cpp ****       }
 250:src/unit/robot/robot.cpp **** }...
 2274              		.loc 1 250 1 view .LVU713
 2275 00d0 03B0     		add	sp, sp, #12
 2276              	.LCFI17:
 2277              		.cfi_remember_state
 2278              		.cfi_def_cfa_offset 12
 2279              		@ sp needed
 2280 00d2 30BD     		pop	{r4, r5, pc}
ARM GAS  /var/folders/5c/srt4fy4j1pd641bjfx75k5000000gn/T//ccFHb7ij.s 			page 55


 2281              	.LVL172:
 2282              	.L90:
 2283              	.LCFI18:
 2284              		.cfi_restore_state
 247:src/unit/robot/robot.cpp ****             serial4.write(info.Imu.yaw * 0.5 + 90);
 2285              		.loc 1 247 13 is_stmt 1 view .LVU714
 247:src/unit/robot/robot.cpp ****             serial4.write(info.Imu.yaw * 0.5 + 90);
 2286              		.loc 1 247 40 is_stmt 0 view .LVU715
 2287 00d4 B4F92800 		ldrsh	r0, [r4, #40]
 2288 00d8 FFF7FEFF 		bl	__aeabi_i2d
 2289              	.LVL173:
 2290 00dc 0022     		movs	r2, #0
 2291 00de 0F4B     		ldr	r3, .L91+12
 2292 00e0 FFF7FEFF 		bl	__aeabi_dmul
 2293              	.LVL174:
 247:src/unit/robot/robot.cpp ****             serial4.write(info.Imu.yaw * 0.5 + 90);
 2294              		.loc 1 247 46 view .LVU716
 2295 00e4 0022     		movs	r2, #0
 2296 00e6 0E4B     		ldr	r3, .L91+16
 2297 00e8 FFF7FEFF 		bl	__aeabi_dadd
 2298              	.LVL175:
 247:src/unit/robot/robot.cpp ****             serial4.write(info.Imu.yaw * 0.5 + 90);
 2299              		.loc 1 247 26 view .LVU717
 2300 00ec FFF7FEFF 		bl	__aeabi_d2uiz
 2301              	.LVL176:
 247:src/unit/robot/robot.cpp ****             serial4.write(info.Imu.yaw * 0.5 + 90);
 2302              		.loc 1 247 26 view .LVU718
 2303 00f0 8DF80700 		strb	r0, [sp, #7]
 2304              	.LVL177:
 2305              	.LBB207:
 2306              	.LBI207:
  49:Lib/BufferedSerial/BufferedSerial.hpp ****             HAL_UART_Transmit(_huart, &data, 1, 100);
 2307              		.loc 2 49 12 is_stmt 1 view .LVU719
 2308              	.LBB208:
  50:Lib/BufferedSerial/BufferedSerial.hpp ****       }
 2309              		.loc 2 50 13 view .LVU720
  50:Lib/BufferedSerial/BufferedSerial.hpp ****       }
 2310              		.loc 2 50 30 is_stmt 0 view .LVU721
 2311 00f4 04F58054 		add	r4, r4, #4096
 2312              	.LVL178:
  50:Lib/BufferedSerial/BufferedSerial.hpp ****       }
 2313              		.loc 2 50 30 view .LVU722
 2314 00f8 6423     		movs	r3, #100
 2315 00fa 0122     		movs	r2, #1
 2316 00fc 0DF10701 		add	r1, sp, #7
 2317 0100 D4F8E406 		ldr	r0, [r4, #1764]
 2318              	.LVL179:
  50:Lib/BufferedSerial/BufferedSerial.hpp ****       }
 2319              		.loc 2 50 30 view .LVU723
 2320 0104 FFF7FEFF 		bl	HAL_UART_Transmit
 2321              	.LVL180:
  50:Lib/BufferedSerial/BufferedSerial.hpp ****       }
 2322              		.loc 2 50 30 view .LVU724
 2323              	.LBE208:
 2324              	.LBE207:
 248:src/unit/robot/robot.cpp ****             cam_send_interval_timer.reset();
 2325              		.loc 1 248 13 is_stmt 1 view .LVU725
ARM GAS  /var/folders/5c/srt4fy4j1pd641bjfx75k5000000gn/T//ccFHb7ij.s 			page 56


 248:src/unit/robot/robot.cpp ****             cam_send_interval_timer.reset();
 2326              		.loc 1 248 42 is_stmt 0 view .LVU726
 2327 0108 2846     		mov	r0, r5
 2328 010a FFF7FEFF 		bl	_ZN5Timer5resetEv
 2329              	.LVL181:
 2330              		.loc 1 250 1 view .LVU727
 2331 010e DFE7     		b	.L76
 2332              	.L92:
 2333              		.align	2
 2334              	.L91:
 2335 0110 00000000 		.word	_ZZN5Robot7CamUartEvE5index
 2336 0114 00000000 		.word	_ZZN5Robot7CamUartEvE9recv_data
 2337 0118 00000000 		.word	_ZZN5Robot7CamUartEvE9recv_byte
 2338 011c 0000E03F 		.word	1071644672
 2339 0120 00805640 		.word	1079410688
 2340              		.cfi_endproc
 2341              	.LFE277:
 2342              		.fnend
 2344              		.section	.bss._ZZN5Robot7CamUartEvE9recv_byte,"aw",%nobits
 2347              	_ZZN5Robot7CamUartEvE9recv_byte:
 2348 0000 00       		.space	1
 2349              		.section	.bss._ZZN5Robot7CamUartEvE9recv_data,"aw",%nobits
 2350              		.align	2
 2353              	_ZZN5Robot7CamUartEvE9recv_data:
 2354 0000 00000000 		.space	11
 2354      00000000 
 2354      000000
 2355              		.section	.bss._ZZN5Robot7CamUartEvE5index,"aw",%nobits
 2358              	_ZZN5Robot7CamUartEvE5index:
 2359 0000 00       		.space	1
 2360              		.section	.bss._ZZN5Robot6UiUartEvE9recv_byte,"aw",%nobits
 2363              	_ZZN5Robot6UiUartEvE9recv_byte:
 2364 0000 00       		.space	1
 2365              		.section	.bss._ZZN5Robot6UiUartEvE9recv_data,"aw",%nobits
 2366              		.align	2
 2369              	_ZZN5Robot6UiUartEvE9recv_data:
 2370 0000 00000000 		.space	4
 2371              		.section	.bss._ZZN5Robot6UiUartEvE5index,"aw",%nobits
 2374              	_ZZN5Robot6UiUartEvE5index:
 2375 0000 00       		.space	1
 2376              		.section	.bss._ZZN5Robot6UiUartEvE8sub_item,"aw",%nobits
 2379              	_ZZN5Robot6UiUartEvE8sub_item:
 2380 0000 00       		.space	1
 2381              		.section	.bss._ZZN5Robot6UiUartEvE4item,"aw",%nobits
 2384              	_ZZN5Robot6UiUartEvE4item:
 2385 0000 00       		.space	1
 2386              		.section	.bss._ZZN5Robot8LineUartEvE9recv_byte,"aw",%nobits
 2389              	_ZZN5Robot8LineUartEvE9recv_byte:
 2390 0000 00       		.space	1
 2391              		.section	.bss._ZZN5Robot8LineUartEvE9recv_data,"aw",%nobits
 2392              		.align	2
 2395              	_ZZN5Robot8LineUartEvE9recv_data:
 2396 0000 00000000 		.space	6
 2396      0000
 2397              		.section	.bss._ZZN5Robot8LineUartEvE5index,"aw",%nobits
 2400              	_ZZN5Robot8LineUartEvE5index:
 2401 0000 00       		.space	1
ARM GAS  /var/folders/5c/srt4fy4j1pd641bjfx75k5000000gn/T//ccFHb7ij.s 			page 57


 2402              		.section	.bss._ZZN5Robot7ImuUartEvE9recv_byte,"aw",%nobits
 2405              	_ZZN5Robot7ImuUartEvE9recv_byte:
 2406 0000 00       		.space	1
 2407              		.section	.bss._ZZN5Robot7ImuUartEvE9recv_data,"aw",%nobits
 2408              		.align	2
 2411              	_ZZN5Robot7ImuUartEvE9recv_data:
 2412 0000 00000000 		.space	6
 2412      0000
 2413              		.section	.bss._ZZN5Robot7ImuUartEvE5index,"aw",%nobits
 2416              	_ZZN5Robot7ImuUartEvE5index:
 2417 0000 00       		.space	1
 2418              		.section	.data._ZZN5Robot10GetSensorsEvE11pre_voltage,"aw"
 2419              		.align	2
 2422              	_ZZN5Robot10GetSensorsEvE11pre_voltage:
 2423 0000 9A991941 		.word	1092196762
 2424              		.global	adc_get_val
 2425              		.section	.bss.adc_get_val,"aw",%nobits
 2426              		.align	2
 2429              	adc_get_val:
 2430 0000 00000000 		.space	6
 2430      0000
 2431              		.text
 2432              	.Letext0:
 2433              		.file 5 "/opt/ST/STM32CubeCLT_1.16.0/GNU-tools-for-STM32/arm-none-eabi/include/machine/_default_ty
 2434              		.file 6 "/opt/ST/STM32CubeCLT_1.16.0/GNU-tools-for-STM32/lib/gcc/arm-none-eabi/12.3.1/include/stdd
 2435              		.file 7 "/opt/ST/STM32CubeCLT_1.16.0/GNU-tools-for-STM32/arm-none-eabi/include/sys/_types.h"
 2436              		.file 8 "/opt/ST/STM32CubeCLT_1.16.0/GNU-tools-for-STM32/arm-none-eabi/include/sys/reent.h"
 2437              		.file 9 "/opt/ST/STM32CubeCLT_1.16.0/GNU-tools-for-STM32/arm-none-eabi/include/sys/lock.h"
 2438              		.file 10 "/opt/ST/STM32CubeCLT_1.16.0/GNU-tools-for-STM32/arm-none-eabi/include/stdio.h"
 2439              		.file 11 "/opt/ST/STM32CubeCLT_1.16.0/GNU-tools-for-STM32/arm-none-eabi/include/sys/_stdint.h"
 2440              		.file 12 "Drivers/CMSIS/Device/ST/STM32F4xx/Include/stm32f446xx.h"
 2441              		.file 13 "Drivers/CMSIS/Device/ST/STM32F4xx/Include/stm32f4xx.h"
 2442              		.file 14 "Drivers/STM32F4xx_HAL_Driver/Inc/stm32f4xx_hal_def.h"
 2443              		.file 15 "Drivers/STM32F4xx_HAL_Driver/Inc/stm32f4xx_hal_gpio.h"
 2444              		.file 16 "Drivers/STM32F4xx_HAL_Driver/Inc/stm32f4xx_hal_dma.h"
 2445              		.file 17 "Drivers/STM32F4xx_HAL_Driver/Inc/stm32f4xx_hal_adc.h"
 2446              		.file 18 "Drivers/STM32F4xx_HAL_Driver/Inc/stm32f4xx_hal_tim.h"
 2447              		.file 19 "Drivers/STM32F4xx_HAL_Driver/Inc/stm32f4xx_hal_uart.h"
 2448              		.file 20 "Drivers/STM32F4xx_HAL_Driver/Inc/stm32f4xx_hal.h"
 2449              		.file 21 "Core/Inc/usart.h"
 2450              		.file 22 "Lib/MovingAve/MovingAve.hpp"
 2451              		.file 23 "/opt/ST/STM32CubeCLT_1.16.0/GNU-tools-for-STM32/arm-none-eabi/include/c++/12.3.1/cstdio"
 2452              		.file 24 "/opt/ST/STM32CubeCLT_1.16.0/GNU-tools-for-STM32/arm-none-eabi/include/c++/12.3.1/arm-non
 2453              		.file 25 "Core/Inc/tim.h"
 2454              		.file 26 "Lib/Timer/Timer.hpp"
 2455              		.file 27 "Core/Inc/adc.h"
 2456              		.file 28 "src/unit/dribbler_drive/dribbler_drive.hpp"
 2457              		.file 29 "src/unit/kicker/kicker.hpp"
 2458              		.file 30 "Lib/pid/pid.hpp"
 2459              		.file 31 "src/unit/motor_drive/motor_drive.hpp"
 2460              		.file 32 "src/unit/robot/robot.hpp"
ARM GAS  /var/folders/5c/srt4fy4j1pd641bjfx75k5000000gn/T//ccFHb7ij.s 			page 58


DEFINED SYMBOLS
                            *ABS*:00000000 robot.cpp
/var/folders/5c/srt4fy4j1pd641bjfx75k5000000gn/T//ccFHb7ij.s:21     .text._ZN14BufferedSerial4readEv:00000000 $t
/var/folders/5c/srt4fy4j1pd641bjfx75k5000000gn/T//ccFHb7ij.s:27     .text._ZN14BufferedSerial4readEv:00000000 _ZN14BufferedSerial4readEv
.ARM.exidx.text._ZN14BufferedSerial4readEv:00000000 $d
/var/folders/5c/srt4fy4j1pd641bjfx75k5000000gn/T//ccFHb7ij.s:93     .text._ZN12PwmSingleOut4initEv:00000000 $t
/var/folders/5c/srt4fy4j1pd641bjfx75k5000000gn/T//ccFHb7ij.s:99     .text._ZN12PwmSingleOut4initEv:00000000 _ZN12PwmSingleOut4initEv
.ARM.exidx.text._ZN12PwmSingleOut4initEv:00000000 $d
/var/folders/5c/srt4fy4j1pd641bjfx75k5000000gn/T//ccFHb7ij.s:139    .text._ZN5RobotC2Ev:00000000 $t
/var/folders/5c/srt4fy4j1pd641bjfx75k5000000gn/T//ccFHb7ij.s:145    .text._ZN5RobotC2Ev:00000000 _ZN5RobotC2Ev
/var/folders/5c/srt4fy4j1pd641bjfx75k5000000gn/T//ccFHb7ij.s:607    .text._ZN5RobotC2Ev:00000214 $d
    .ARM.exidx.text._ZN5RobotC2Ev:00000000 $d
/var/folders/5c/srt4fy4j1pd641bjfx75k5000000gn/T//ccFHb7ij.s:145    .text._ZN5RobotC2Ev:00000000 _ZN5RobotC1Ev
/var/folders/5c/srt4fy4j1pd641bjfx75k5000000gn/T//ccFHb7ij.s:625    .text._ZN5Robot12HardwareInitEv:00000000 $t
/var/folders/5c/srt4fy4j1pd641bjfx75k5000000gn/T//ccFHb7ij.s:631    .text._ZN5Robot12HardwareInitEv:00000000 _ZN5Robot12HardwareInitEv
/var/folders/5c/srt4fy4j1pd641bjfx75k5000000gn/T//ccFHb7ij.s:859    .text._ZN5Robot12HardwareInitEv:0000010c $d
/var/folders/5c/srt4fy4j1pd641bjfx75k5000000gn/T//ccFHb7ij.s:2429   .bss.adc_get_val:00000000 adc_get_val
.ARM.exidx.text._ZN5Robot12HardwareInitEv:00000000 $d
/var/folders/5c/srt4fy4j1pd641bjfx75k5000000gn/T//ccFHb7ij.s:873    .text._ZN5Robot10GetSensorsEv:00000000 $t
/var/folders/5c/srt4fy4j1pd641bjfx75k5000000gn/T//ccFHb7ij.s:879    .text._ZN5Robot10GetSensorsEv:00000000 _ZN5Robot10GetSensorsEv
/var/folders/5c/srt4fy4j1pd641bjfx75k5000000gn/T//ccFHb7ij.s:1020   .text._ZN5Robot10GetSensorsEv:000000c8 $d
/var/folders/5c/srt4fy4j1pd641bjfx75k5000000gn/T//ccFHb7ij.s:2422   .data._ZZN5Robot10GetSensorsEvE11pre_voltage:00000000 _ZZN5Robot10GetSensorsEvE11pre_voltage
.ARM.exidx.text._ZN5Robot10GetSensorsEv:00000000 $d
/var/folders/5c/srt4fy4j1pd641bjfx75k5000000gn/T//ccFHb7ij.s:1035   .text._ZN5Robot7ImuUartEv:00000000 $t
/var/folders/5c/srt4fy4j1pd641bjfx75k5000000gn/T//ccFHb7ij.s:1041   .text._ZN5Robot7ImuUartEv:00000000 _ZN5Robot7ImuUartEv
/var/folders/5c/srt4fy4j1pd641bjfx75k5000000gn/T//ccFHb7ij.s:1243   .text._ZN5Robot7ImuUartEv:000000e0 $d
/var/folders/5c/srt4fy4j1pd641bjfx75k5000000gn/T//ccFHb7ij.s:2416   .bss._ZZN5Robot7ImuUartEvE5index:00000000 _ZZN5Robot7ImuUartEvE5index
/var/folders/5c/srt4fy4j1pd641bjfx75k5000000gn/T//ccFHb7ij.s:2411   .bss._ZZN5Robot7ImuUartEvE9recv_data:00000000 _ZZN5Robot7ImuUartEvE9recv_data
/var/folders/5c/srt4fy4j1pd641bjfx75k5000000gn/T//ccFHb7ij.s:2405   .bss._ZZN5Robot7ImuUartEvE9recv_byte:00000000 _ZZN5Robot7ImuUartEvE9recv_byte
.ARM.exidx.text._ZN5Robot7ImuUartEv:00000000 $d
/var/folders/5c/srt4fy4j1pd641bjfx75k5000000gn/T//ccFHb7ij.s:1255   .text._ZN5Robot8LineUartEv:00000000 $t
/var/folders/5c/srt4fy4j1pd641bjfx75k5000000gn/T//ccFHb7ij.s:1261   .text._ZN5Robot8LineUartEv:00000000 _ZN5Robot8LineUartEv
/var/folders/5c/srt4fy4j1pd641bjfx75k5000000gn/T//ccFHb7ij.s:1512   .text._ZN5Robot8LineUartEv:000000e4 $d
/var/folders/5c/srt4fy4j1pd641bjfx75k5000000gn/T//ccFHb7ij.s:2400   .bss._ZZN5Robot8LineUartEvE5index:00000000 _ZZN5Robot8LineUartEvE5index
/var/folders/5c/srt4fy4j1pd641bjfx75k5000000gn/T//ccFHb7ij.s:2395   .bss._ZZN5Robot8LineUartEvE9recv_data:00000000 _ZZN5Robot8LineUartEvE9recv_data
/var/folders/5c/srt4fy4j1pd641bjfx75k5000000gn/T//ccFHb7ij.s:2389   .bss._ZZN5Robot8LineUartEvE9recv_byte:00000000 _ZZN5Robot8LineUartEvE9recv_byte
.ARM.exidx.text._ZN5Robot8LineUartEv:00000000 $d
/var/folders/5c/srt4fy4j1pd641bjfx75k5000000gn/T//ccFHb7ij.s:1520   .text._ZN5Robot6UiUartEv:00000000 $t
/var/folders/5c/srt4fy4j1pd641bjfx75k5000000gn/T//ccFHb7ij.s:1526   .text._ZN5Robot6UiUartEv:00000000 _ZN5Robot6UiUartEv
/var/folders/5c/srt4fy4j1pd641bjfx75k5000000gn/T//ccFHb7ij.s:2033   .text._ZN5Robot6UiUartEv:00000200 $d
/var/folders/5c/srt4fy4j1pd641bjfx75k5000000gn/T//ccFHb7ij.s:2374   .bss._ZZN5Robot6UiUartEvE5index:00000000 _ZZN5Robot6UiUartEvE5index
/var/folders/5c/srt4fy4j1pd641bjfx75k5000000gn/T//ccFHb7ij.s:2369   .bss._ZZN5Robot6UiUartEvE9recv_data:00000000 _ZZN5Robot6UiUartEvE9recv_data
/var/folders/5c/srt4fy4j1pd641bjfx75k5000000gn/T//ccFHb7ij.s:2363   .bss._ZZN5Robot6UiUartEvE9recv_byte:00000000 _ZZN5Robot6UiUartEvE9recv_byte
/var/folders/5c/srt4fy4j1pd641bjfx75k5000000gn/T//ccFHb7ij.s:2384   .bss._ZZN5Robot6UiUartEvE4item:00000000 _ZZN5Robot6UiUartEvE4item
/var/folders/5c/srt4fy4j1pd641bjfx75k5000000gn/T//ccFHb7ij.s:2379   .bss._ZZN5Robot6UiUartEvE8sub_item:00000000 _ZZN5Robot6UiUartEvE8sub_item
.ARM.exidx.text._ZN5Robot6UiUartEv:00000000 $d
/var/folders/5c/srt4fy4j1pd641bjfx75k5000000gn/T//ccFHb7ij.s:2054   .text._ZN5Robot7CamUartEv:00000000 $t
/var/folders/5c/srt4fy4j1pd641bjfx75k5000000gn/T//ccFHb7ij.s:2060   .text._ZN5Robot7CamUartEv:00000000 _ZN5Robot7CamUartEv
/var/folders/5c/srt4fy4j1pd641bjfx75k5000000gn/T//ccFHb7ij.s:2335   .text._ZN5Robot7CamUartEv:00000110 $d
/var/folders/5c/srt4fy4j1pd641bjfx75k5000000gn/T//ccFHb7ij.s:2358   .bss._ZZN5Robot7CamUartEvE5index:00000000 _ZZN5Robot7CamUartEvE5index
/var/folders/5c/srt4fy4j1pd641bjfx75k5000000gn/T//ccFHb7ij.s:2353   .bss._ZZN5Robot7CamUartEvE9recv_data:00000000 _ZZN5Robot7CamUartEvE9recv_data
/var/folders/5c/srt4fy4j1pd641bjfx75k5000000gn/T//ccFHb7ij.s:2347   .bss._ZZN5Robot7CamUartEvE9recv_byte:00000000 _ZZN5Robot7CamUartEvE9recv_byte
.ARM.exidx.text._ZN5Robot7CamUartEv:00000000 $d
/var/folders/5c/srt4fy4j1pd641bjfx75k5000000gn/T//ccFHb7ij.s:2348   .bss._ZZN5Robot7CamUartEvE9recv_byte:00000000 $d
/var/folders/5c/srt4fy4j1pd641bjfx75k5000000gn/T//ccFHb7ij.s:2350   .bss._ZZN5Robot7CamUartEvE9recv_data:00000000 $d
/var/folders/5c/srt4fy4j1pd641bjfx75k5000000gn/T//ccFHb7ij.s:2359   .bss._ZZN5Robot7CamUartEvE5index:00000000 $d
/var/folders/5c/srt4fy4j1pd641bjfx75k5000000gn/T//ccFHb7ij.s:2364   .bss._ZZN5Robot6UiUartEvE9recv_byte:00000000 $d
ARM GAS  /var/folders/5c/srt4fy4j1pd641bjfx75k5000000gn/T//ccFHb7ij.s 			page 59


/var/folders/5c/srt4fy4j1pd641bjfx75k5000000gn/T//ccFHb7ij.s:2366   .bss._ZZN5Robot6UiUartEvE9recv_data:00000000 $d
/var/folders/5c/srt4fy4j1pd641bjfx75k5000000gn/T//ccFHb7ij.s:2375   .bss._ZZN5Robot6UiUartEvE5index:00000000 $d
/var/folders/5c/srt4fy4j1pd641bjfx75k5000000gn/T//ccFHb7ij.s:2380   .bss._ZZN5Robot6UiUartEvE8sub_item:00000000 $d
/var/folders/5c/srt4fy4j1pd641bjfx75k5000000gn/T//ccFHb7ij.s:2385   .bss._ZZN5Robot6UiUartEvE4item:00000000 $d
/var/folders/5c/srt4fy4j1pd641bjfx75k5000000gn/T//ccFHb7ij.s:2390   .bss._ZZN5Robot8LineUartEvE9recv_byte:00000000 $d
/var/folders/5c/srt4fy4j1pd641bjfx75k5000000gn/T//ccFHb7ij.s:2392   .bss._ZZN5Robot8LineUartEvE9recv_data:00000000 $d
/var/folders/5c/srt4fy4j1pd641bjfx75k5000000gn/T//ccFHb7ij.s:2401   .bss._ZZN5Robot8LineUartEvE5index:00000000 $d
/var/folders/5c/srt4fy4j1pd641bjfx75k5000000gn/T//ccFHb7ij.s:2406   .bss._ZZN5Robot7ImuUartEvE9recv_byte:00000000 $d
/var/folders/5c/srt4fy4j1pd641bjfx75k5000000gn/T//ccFHb7ij.s:2408   .bss._ZZN5Robot7ImuUartEvE9recv_data:00000000 $d
/var/folders/5c/srt4fy4j1pd641bjfx75k5000000gn/T//ccFHb7ij.s:2417   .bss._ZZN5Robot7ImuUartEvE5index:00000000 $d
/var/folders/5c/srt4fy4j1pd641bjfx75k5000000gn/T//ccFHb7ij.s:2419   .data._ZZN5Robot10GetSensorsEvE11pre_voltage:00000000 $d
/var/folders/5c/srt4fy4j1pd641bjfx75k5000000gn/T//ccFHb7ij.s:2426   .bss.adc_get_val:00000000 $d

UNDEFINED SYMBOLS
HAL_TIM_PWM_Start
__aeabi_unwind_cpp_pr0
HAL_GPIO_WritePin
_ZN10MotorDriveC1EP12PwmSingleOutS1_S1_S1_S1_S1_S1_S1_PsPh
_ZN13DribblerDriveC1EP12PwmSingleOutS1_
_ZN6KickerC1EP10DigitalOutS1_
_Znaj
_ZN5TimerC1Ev
_ZN9MovingAve9SetLengthEh
htim13
htim12
htim2
htim3
htim4
huart1
huart2
huart3
huart4
HAL_ADC_Start
HAL_ADC_Start_DMA
HAL_UART_Receive_DMA
_ZN10MotorDrive15CheckConnectionEv
HAL_Delay
_ZN13DribblerDrive15CheckConnectionEv
hadc1
__aeabi_i2d
__aeabi_dmul
__aeabi_d2f
__aeabi_f2d
__aeabi_dadd
__aeabi_ui2d
__aeabi_d2uiz
_ZN9MovingAve7ComputeEd
_ZN9MovingAve3GetEv
__aeabi_dsub
__aeabi_d2iz
_ZN5Timer7read_usEv
HAL_UART_Transmit
_ZN5Timer5resetEv
