ARM GAS  /var/folders/5c/srt4fy4j1pd641bjfx75k5000000gn/T//cc8K6cUY.s 			page 1


   1              		.cpu cortex-m4
   2              		.arch armv7e-m
   3              		.fpu fpv4-sp-d16
   4              		.eabi_attribute 27, 1
   5              		.eabi_attribute 28, 1
   6              		.eabi_attribute 20, 1
   7              		.eabi_attribute 21, 1
   8              		.eabi_attribute 23, 3
   9              		.eabi_attribute 24, 1
  10              		.eabi_attribute 25, 1
  11              		.eabi_attribute 26, 1
  12              		.eabi_attribute 30, 1
  13              		.eabi_attribute 34, 1
  14              		.eabi_attribute 18, 4
  15              		.file	"robot.cpp"
  16              		.text
  17              	.Ltext0:
  18              		.cfi_sections	.debug_frame
  19              		.file 1 "src/unit/robot.cpp"
  20              		.section	.text._ZN12PwmSingleOut4initEv,"axG",%progbits,_ZN12PwmSingleOut4initEv,comdat
  21              		.align	1
  22              		.weak	_ZN12PwmSingleOut4initEv
  23              		.syntax unified
  24              		.thumb
  25              		.thumb_func
  27              	_ZN12PwmSingleOut4initEv:
  28              		.fnstart
  29              	.LVL0:
  30              	.LFB256:
  31              		.file 2 "Lib/PWMSingle/PWMSingle.hpp"
   1:Lib/PWMSingle/PWMSingle.hpp **** #ifndef __PWMSINGLE__
   2:Lib/PWMSingle/PWMSingle.hpp **** #define __PWMSINGLE__
   3:Lib/PWMSingle/PWMSingle.hpp **** 
   4:Lib/PWMSingle/PWMSingle.hpp **** #include "MyMath.hpp"
   5:Lib/PWMSingle/PWMSingle.hpp **** #include "tim.h"
   6:Lib/PWMSingle/PWMSingle.hpp **** 
   7:Lib/PWMSingle/PWMSingle.hpp **** #ifdef __cplusplus
   8:Lib/PWMSingle/PWMSingle.hpp **** extern "C" {
   9:Lib/PWMSingle/PWMSingle.hpp **** 
  10:Lib/PWMSingle/PWMSingle.hpp **** class PwmSingleOut {
  11:Lib/PWMSingle/PWMSingle.hpp ****      public:
  12:Lib/PWMSingle/PWMSingle.hpp ****       PwmSingleOut(TIM_HandleTypeDef *htim, uint32_t channel)
  13:Lib/PWMSingle/PWMSingle.hpp ****           : _htim(htim), _channel(channel), _maxValue(_htim->Init.Period) {
  14:Lib/PWMSingle/PWMSingle.hpp ****       }
  15:Lib/PWMSingle/PWMSingle.hpp **** 
  16:Lib/PWMSingle/PWMSingle.hpp ****       void init() {
  32              		.loc 2 16 12 view -0
  33              		.cfi_startproc
  34              		@ args = 0, pretend = 0, frame = 0
  35              		@ frame_needed = 0, uses_anonymous_args = 0
  36              		.loc 2 16 12 is_stmt 0 view .LVU1
  37 0000 10B5     		push	{r4, lr}
  38              		.save {r4, lr}
  39              	.LCFI0:
  40              		.cfi_def_cfa_offset 8
  41              		.cfi_offset 4, -8
  42              		.cfi_offset 14, -4
ARM GAS  /var/folders/5c/srt4fy4j1pd641bjfx75k5000000gn/T//cc8K6cUY.s 			page 2


  43 0002 0446     		mov	r4, r0
  17:Lib/PWMSingle/PWMSingle.hpp ****             HAL_TIM_PWM_Start(_htim, _channel);
  44              		.loc 2 17 13 is_stmt 1 view .LVU2
  45              		.loc 2 17 30 is_stmt 0 view .LVU3
  46 0004 4168     		ldr	r1, [r0, #4]
  47 0006 0068     		ldr	r0, [r0]
  48              	.LVL1:
  49              		.loc 2 17 30 view .LVU4
  50 0008 FFF7FEFF 		bl	HAL_TIM_PWM_Start
  51              	.LVL2:
  18:Lib/PWMSingle/PWMSingle.hpp ****             _maxValue = _htim->Init.Period;
  52              		.loc 2 18 13 is_stmt 1 view .LVU5
  53              		.loc 2 18 25 is_stmt 0 view .LVU6
  54 000c 2368     		ldr	r3, [r4]
  55              		.loc 2 18 37 view .LVU7
  56 000e DB68     		ldr	r3, [r3, #12]
  57              		.loc 2 18 23 view .LVU8
  58 0010 A360     		str	r3, [r4, #8]
  19:Lib/PWMSingle/PWMSingle.hpp ****       }
  59              		.loc 2 19 7 view .LVU9
  60 0012 10BD     		pop	{r4, pc}
  61              		.loc 2 19 7 view .LVU10
  62              		.cfi_endproc
  63              	.LFE256:
  64              		.fnend
  66              		.section	.text._ZN5RobotC2Ev,"ax",%progbits
  67              		.align	1
  68              		.global	_ZN5RobotC2Ev
  69              		.syntax unified
  70              		.thumb
  71              		.thumb_func
  73              	_ZN5RobotC2Ev:
  74              		.fnstart
  75              	.LVL3:
  76              	.LFB262:
   1:src/unit/robot.cpp **** #include "robot.hpp"
   2:src/unit/robot.cpp **** 
   3:src/unit/robot.cpp **** uint16_t adc_get_val[2];
   4:src/unit/robot.cpp **** 
   5:src/unit/robot.cpp **** Robot::Robot() {
  77              		.loc 1 5 1 is_stmt 1 view -0
  78              		.cfi_startproc
  79              		@ args = 0, pretend = 0, frame = 0
  80              		@ frame_needed = 0, uses_anonymous_args = 0
  81              		.loc 1 5 1 is_stmt 0 view .LVU12
  82 0000 F8B5     		push	{r3, r4, r5, r6, r7, lr}
  83              		.save {r3, r4, r5, r6, r7, lr}
  84              	.LCFI1:
  85              		.cfi_def_cfa_offset 24
  86              		.cfi_offset 3, -24
  87              		.cfi_offset 4, -20
  88              		.cfi_offset 5, -16
  89              		.cfi_offset 6, -12
  90              		.cfi_offset 7, -8
  91              		.cfi_offset 14, -4
  92 0002 0446     		mov	r4, r0
  93              	.LVL4:
ARM GAS  /var/folders/5c/srt4fy4j1pd641bjfx75k5000000gn/T//cc8K6cUY.s 			page 3


  94              	.LBB45:
  95              	.LBB46:
  96              	.LBI46:
  97              		.file 3 "Lib/DigitalInOut/DigitalInOut.hpp"
   1:Lib/DigitalInOut/DigitalInOut.hpp **** #ifndef __DigitalInOut__
   2:Lib/DigitalInOut/DigitalInOut.hpp **** #define __DigitalInOut__
   3:Lib/DigitalInOut/DigitalInOut.hpp **** 
   4:Lib/DigitalInOut/DigitalInOut.hpp **** #include "main.h"
   5:Lib/DigitalInOut/DigitalInOut.hpp **** 
   6:Lib/DigitalInOut/DigitalInOut.hpp **** #ifdef __cplusplus
   7:Lib/DigitalInOut/DigitalInOut.hpp **** 
   8:Lib/DigitalInOut/DigitalInOut.hpp **** extern "C" {
   9:Lib/DigitalInOut/DigitalInOut.hpp **** 
  10:Lib/DigitalInOut/DigitalInOut.hpp **** class DigitalOut {
  11:Lib/DigitalInOut/DigitalInOut.hpp ****   public:
  12:Lib/DigitalInOut/DigitalInOut.hpp ****     DigitalOut(GPIO_TypeDef *port, uint16_t pin) : port(port), pin(pin) {
  98              		.loc 3 12 5 is_stmt 1 view .LVU13
  99              	.LBB47:
 100              		.loc 3 12 52 is_stmt 0 view .LVU14
 101 0004 2848     		ldr	r0, .L5
 102              	.LVL5:
 103              		.loc 3 12 52 view .LVU15
 104 0006 6060     		str	r0, [r4, #4]
 105              		.loc 3 12 64 view .LVU16
 106 0008 2021     		movs	r1, #32
 107 000a 2181     		strh	r1, [r4, #8]	@ movhi
  13:Lib/DigitalInOut/DigitalInOut.hpp ****         HAL_GPIO_WritePin(port, pin, GPIO_PIN_RESET);
 108              		.loc 3 13 9 is_stmt 1 view .LVU17
 109              		.loc 3 13 26 is_stmt 0 view .LVU18
 110 000c 0022     		movs	r2, #0
 111 000e FFF7FEFF 		bl	HAL_GPIO_WritePin
 112              	.LVL6:
 113              		.loc 3 13 26 view .LVU19
 114              	.LBE47:
 115              	.LBE46:
 116              	.LBB48:
 117              	.LBI48:
  12:Lib/PWMSingle/PWMSingle.hpp ****           : _htim(htim), _channel(channel), _maxValue(_htim->Init.Period) {
 118              		.loc 2 12 7 is_stmt 1 view .LVU20
 119              	.LBB49:
  13:Lib/PWMSingle/PWMSingle.hpp ****       }
 120              		.loc 2 13 13 is_stmt 0 view .LVU21
 121 0012 264A     		ldr	r2, .L5+4
 122 0014 E260     		str	r2, [r4, #12]
  13:Lib/PWMSingle/PWMSingle.hpp ****       }
 123              		.loc 2 13 26 view .LVU22
 124 0016 0023     		movs	r3, #0
 125 0018 2361     		str	r3, [r4, #16]
  13:Lib/PWMSingle/PWMSingle.hpp ****       }
 126              		.loc 2 13 67 view .LVU23
 127 001a D268     		ldr	r2, [r2, #12]
  13:Lib/PWMSingle/PWMSingle.hpp ****       }
 128              		.loc 2 13 45 view .LVU24
 129 001c 6261     		str	r2, [r4, #20]
 130              	.LVL7:
  13:Lib/PWMSingle/PWMSingle.hpp ****       }
 131              		.loc 2 13 45 view .LVU25
ARM GAS  /var/folders/5c/srt4fy4j1pd641bjfx75k5000000gn/T//cc8K6cUY.s 			page 4


 132              	.LBE49:
 133              	.LBE48:
 134              	.LBB50:
 135              	.LBI50:
  12:Lib/PWMSingle/PWMSingle.hpp ****           : _htim(htim), _channel(channel), _maxValue(_htim->Init.Period) {
 136              		.loc 2 12 7 is_stmt 1 view .LVU26
 137              	.LBB51:
  13:Lib/PWMSingle/PWMSingle.hpp ****       }
 138              		.loc 2 13 13 is_stmt 0 view .LVU27
 139 001e 244A     		ldr	r2, .L5+8
 140 0020 E261     		str	r2, [r4, #28]
  13:Lib/PWMSingle/PWMSingle.hpp ****       }
 141              		.loc 2 13 26 view .LVU28
 142 0022 2362     		str	r3, [r4, #32]
  13:Lib/PWMSingle/PWMSingle.hpp ****       }
 143              		.loc 2 13 67 view .LVU29
 144 0024 D168     		ldr	r1, [r2, #12]
  13:Lib/PWMSingle/PWMSingle.hpp ****       }
 145              		.loc 2 13 45 view .LVU30
 146 0026 6162     		str	r1, [r4, #36]
 147              	.LVL8:
  13:Lib/PWMSingle/PWMSingle.hpp ****       }
 148              		.loc 2 13 45 view .LVU31
 149              	.LBE51:
 150              	.LBE50:
 151              	.LBB52:
 152              	.LBI52:
  12:Lib/PWMSingle/PWMSingle.hpp ****           : _htim(htim), _channel(channel), _maxValue(_htim->Init.Period) {
 153              		.loc 2 12 7 is_stmt 1 view .LVU32
 154              	.LBB53:
  13:Lib/PWMSingle/PWMSingle.hpp ****       }
 155              		.loc 2 13 13 is_stmt 0 view .LVU33
 156 0028 E262     		str	r2, [r4, #44]
  13:Lib/PWMSingle/PWMSingle.hpp ****       }
 157              		.loc 2 13 26 view .LVU34
 158 002a 0425     		movs	r5, #4
 159 002c 2563     		str	r5, [r4, #48]
  13:Lib/PWMSingle/PWMSingle.hpp ****       }
 160              		.loc 2 13 45 view .LVU35
 161 002e 6163     		str	r1, [r4, #52]
 162              	.LVL9:
  13:Lib/PWMSingle/PWMSingle.hpp ****       }
 163              		.loc 2 13 45 view .LVU36
 164              	.LBE53:
 165              	.LBE52:
 166              	.LBB54:
 167              	.LBI54:
  12:Lib/PWMSingle/PWMSingle.hpp ****           : _htim(htim), _channel(channel), _maxValue(_htim->Init.Period) {
 168              		.loc 2 12 7 is_stmt 1 view .LVU37
 169              	.LBB55:
  13:Lib/PWMSingle/PWMSingle.hpp ****       }
 170              		.loc 2 13 13 is_stmt 0 view .LVU38
 171 0030 204A     		ldr	r2, .L5+12
 172 0032 E263     		str	r2, [r4, #60]
  13:Lib/PWMSingle/PWMSingle.hpp ****       }
 173              		.loc 2 13 26 view .LVU39
 174 0034 0C27     		movs	r7, #12
ARM GAS  /var/folders/5c/srt4fy4j1pd641bjfx75k5000000gn/T//cc8K6cUY.s 			page 5


 175 0036 2764     		str	r7, [r4, #64]
  13:Lib/PWMSingle/PWMSingle.hpp ****       }
 176              		.loc 2 13 67 view .LVU40
 177 0038 D068     		ldr	r0, [r2, #12]
  13:Lib/PWMSingle/PWMSingle.hpp ****       }
 178              		.loc 2 13 45 view .LVU41
 179 003a 6064     		str	r0, [r4, #68]
 180              	.LVL10:
  13:Lib/PWMSingle/PWMSingle.hpp ****       }
 181              		.loc 2 13 45 view .LVU42
 182              	.LBE55:
 183              	.LBE54:
 184              	.LBB56:
 185              	.LBI56:
  12:Lib/PWMSingle/PWMSingle.hpp ****           : _htim(htim), _channel(channel), _maxValue(_htim->Init.Period) {
 186              		.loc 2 12 7 is_stmt 1 view .LVU43
 187              	.LBB57:
  13:Lib/PWMSingle/PWMSingle.hpp ****       }
 188              		.loc 2 13 13 is_stmt 0 view .LVU44
 189 003c E264     		str	r2, [r4, #76]
  13:Lib/PWMSingle/PWMSingle.hpp ****       }
 190              		.loc 2 13 26 view .LVU45
 191 003e 4FF0080C 		mov	ip, #8
 192 0042 C4F850C0 		str	ip, [r4, #80]
  13:Lib/PWMSingle/PWMSingle.hpp ****       }
 193              		.loc 2 13 45 view .LVU46
 194 0046 6065     		str	r0, [r4, #84]
 195              	.LVL11:
  13:Lib/PWMSingle/PWMSingle.hpp ****       }
 196              		.loc 2 13 45 view .LVU47
 197              	.LBE57:
 198              	.LBE56:
 199              	.LBB58:
 200              	.LBI58:
  12:Lib/PWMSingle/PWMSingle.hpp ****           : _htim(htim), _channel(channel), _maxValue(_htim->Init.Period) {
 201              		.loc 2 12 7 is_stmt 1 view .LVU48
 202              	.LBB59:
  13:Lib/PWMSingle/PWMSingle.hpp ****       }
 203              		.loc 2 13 13 is_stmt 0 view .LVU49
 204 0048 1B49     		ldr	r1, .L5+16
 205 004a E165     		str	r1, [r4, #92]
  13:Lib/PWMSingle/PWMSingle.hpp ****       }
 206              		.loc 2 13 26 view .LVU50
 207 004c 2566     		str	r5, [r4, #96]
  13:Lib/PWMSingle/PWMSingle.hpp ****       }
 208              		.loc 2 13 67 view .LVU51
 209 004e CE68     		ldr	r6, [r1, #12]
  13:Lib/PWMSingle/PWMSingle.hpp ****       }
 210              		.loc 2 13 45 view .LVU52
 211 0050 6666     		str	r6, [r4, #100]
 212              	.LVL12:
  13:Lib/PWMSingle/PWMSingle.hpp ****       }
 213              		.loc 2 13 45 view .LVU53
 214              	.LBE59:
 215              	.LBE58:
 216              	.LBB60:
 217              	.LBI60:
ARM GAS  /var/folders/5c/srt4fy4j1pd641bjfx75k5000000gn/T//cc8K6cUY.s 			page 6


  12:Lib/PWMSingle/PWMSingle.hpp ****           : _htim(htim), _channel(channel), _maxValue(_htim->Init.Period) {
 218              		.loc 2 12 7 is_stmt 1 view .LVU54
 219              	.LBB61:
  13:Lib/PWMSingle/PWMSingle.hpp ****       }
 220              		.loc 2 13 13 is_stmt 0 view .LVU55
 221 0052 E266     		str	r2, [r4, #108]
  13:Lib/PWMSingle/PWMSingle.hpp ****       }
 222              		.loc 2 13 26 view .LVU56
 223 0054 2567     		str	r5, [r4, #112]
  13:Lib/PWMSingle/PWMSingle.hpp ****       }
 224              		.loc 2 13 45 view .LVU57
 225 0056 6067     		str	r0, [r4, #116]
 226              	.LVL13:
  13:Lib/PWMSingle/PWMSingle.hpp ****       }
 227              		.loc 2 13 45 view .LVU58
 228              	.LBE61:
 229              	.LBE60:
 230              	.LBB62:
 231              	.LBI62:
  12:Lib/PWMSingle/PWMSingle.hpp ****           : _htim(htim), _channel(channel), _maxValue(_htim->Init.Period) {
 232              		.loc 2 12 7 is_stmt 1 view .LVU59
 233              	.LBB63:
  13:Lib/PWMSingle/PWMSingle.hpp ****       }
 234              		.loc 2 13 13 is_stmt 0 view .LVU60
 235 0058 E167     		str	r1, [r4, #124]
  13:Lib/PWMSingle/PWMSingle.hpp ****       }
 236              		.loc 2 13 26 view .LVU61
 237 005a C4F88030 		str	r3, [r4, #128]
  13:Lib/PWMSingle/PWMSingle.hpp ****       }
 238              		.loc 2 13 45 view .LVU62
 239 005e C4F88460 		str	r6, [r4, #132]
 240              	.LVL14:
  13:Lib/PWMSingle/PWMSingle.hpp ****       }
 241              		.loc 2 13 45 view .LVU63
 242              	.LBE63:
 243              	.LBE62:
 244              	.LBB64:
 245              	.LBI64:
  12:Lib/PWMSingle/PWMSingle.hpp ****           : _htim(htim), _channel(channel), _maxValue(_htim->Init.Period) {
 246              		.loc 2 12 7 is_stmt 1 view .LVU64
 247              	.LBB65:
  13:Lib/PWMSingle/PWMSingle.hpp ****       }
 248              		.loc 2 13 13 is_stmt 0 view .LVU65
 249 0062 C4F88C10 		str	r1, [r4, #140]
  13:Lib/PWMSingle/PWMSingle.hpp ****       }
 250              		.loc 2 13 26 view .LVU66
 251 0066 C4F890C0 		str	ip, [r4, #144]
  13:Lib/PWMSingle/PWMSingle.hpp ****       }
 252              		.loc 2 13 45 view .LVU67
 253 006a C4F89460 		str	r6, [r4, #148]
 254              	.LVL15:
  13:Lib/PWMSingle/PWMSingle.hpp ****       }
 255              		.loc 2 13 45 view .LVU68
 256              	.LBE65:
 257              	.LBE64:
 258              	.LBB66:
 259              	.LBI66:
ARM GAS  /var/folders/5c/srt4fy4j1pd641bjfx75k5000000gn/T//cc8K6cUY.s 			page 7


  12:Lib/PWMSingle/PWMSingle.hpp ****           : _htim(htim), _channel(channel), _maxValue(_htim->Init.Period) {
 260              		.loc 2 12 7 is_stmt 1 view .LVU69
 261              	.LBB67:
  13:Lib/PWMSingle/PWMSingle.hpp ****       }
 262              		.loc 2 13 13 is_stmt 0 view .LVU70
 263 006e 1349     		ldr	r1, .L5+20
 264 0070 C4F89C10 		str	r1, [r4, #156]
  13:Lib/PWMSingle/PWMSingle.hpp ****       }
 265              		.loc 2 13 26 view .LVU71
 266 0074 C4F8A030 		str	r3, [r4, #160]
  13:Lib/PWMSingle/PWMSingle.hpp ****       }
 267              		.loc 2 13 67 view .LVU72
 268 0078 CE68     		ldr	r6, [r1, #12]
  13:Lib/PWMSingle/PWMSingle.hpp ****       }
 269              		.loc 2 13 45 view .LVU73
 270 007a C4F8A460 		str	r6, [r4, #164]
 271              	.LVL16:
  13:Lib/PWMSingle/PWMSingle.hpp ****       }
 272              		.loc 2 13 45 view .LVU74
 273              	.LBE67:
 274              	.LBE66:
 275              	.LBB68:
 276              	.LBI68:
  12:Lib/PWMSingle/PWMSingle.hpp ****           : _htim(htim), _channel(channel), _maxValue(_htim->Init.Period) {
 277              		.loc 2 12 7 is_stmt 1 view .LVU75
 278              	.LBB69:
  13:Lib/PWMSingle/PWMSingle.hpp ****       }
 279              		.loc 2 13 13 is_stmt 0 view .LVU76
 280 007e C4F8AC10 		str	r1, [r4, #172]
  13:Lib/PWMSingle/PWMSingle.hpp ****       }
 281              		.loc 2 13 26 view .LVU77
 282 0082 C4F8B050 		str	r5, [r4, #176]
  13:Lib/PWMSingle/PWMSingle.hpp ****       }
 283              		.loc 2 13 45 view .LVU78
 284 0086 C4F8B460 		str	r6, [r4, #180]
 285              	.LVL17:
  13:Lib/PWMSingle/PWMSingle.hpp ****       }
 286              		.loc 2 13 45 view .LVU79
 287              	.LBE69:
 288              	.LBE68:
 289              	.LBB70:
 290              	.LBI70:
  12:Lib/PWMSingle/PWMSingle.hpp ****           : _htim(htim), _channel(channel), _maxValue(_htim->Init.Period) {
 291              		.loc 2 12 7 is_stmt 1 view .LVU80
 292              	.LBB71:
  13:Lib/PWMSingle/PWMSingle.hpp ****       }
 293              		.loc 2 13 13 is_stmt 0 view .LVU81
 294 008a C4F8BC20 		str	r2, [r4, #188]
  13:Lib/PWMSingle/PWMSingle.hpp ****       }
 295              		.loc 2 13 26 view .LVU82
 296 008e C4F8C030 		str	r3, [r4, #192]
  13:Lib/PWMSingle/PWMSingle.hpp ****       }
 297              		.loc 2 13 45 view .LVU83
 298 0092 C4F8C400 		str	r0, [r4, #196]
 299              	.LVL18:
  13:Lib/PWMSingle/PWMSingle.hpp ****       }
 300              		.loc 2 13 45 view .LVU84
ARM GAS  /var/folders/5c/srt4fy4j1pd641bjfx75k5000000gn/T//cc8K6cUY.s 			page 8


 301              	.LBE71:
 302              	.LBE70:
 303              	.LBB72:
 304              	.LBI72:
  12:Lib/PWMSingle/PWMSingle.hpp ****           : _htim(htim), _channel(channel), _maxValue(_htim->Init.Period) {
 305              		.loc 2 12 7 is_stmt 1 view .LVU85
 306              	.LBB73:
  13:Lib/PWMSingle/PWMSingle.hpp ****       }
 307              		.loc 2 13 13 is_stmt 0 view .LVU86
 308 0096 C4F8CC10 		str	r1, [r4, #204]
  13:Lib/PWMSingle/PWMSingle.hpp ****       }
 309              		.loc 2 13 26 view .LVU87
 310 009a C4F8D070 		str	r7, [r4, #208]
  13:Lib/PWMSingle/PWMSingle.hpp ****       }
 311              		.loc 2 13 45 view .LVU88
 312 009e C4F8D460 		str	r6, [r4, #212]
 313              	.LVL19:
  13:Lib/PWMSingle/PWMSingle.hpp ****       }
 314              		.loc 2 13 45 view .LVU89
 315              	.LBE73:
 316              	.LBE72:
 317              	.LBE45:
   6:src/unit/robot.cpp **** }
 318              		.loc 1 6 1 view .LVU90
 319 00a2 2046     		mov	r0, r4
 320 00a4 F8BD     		pop	{r3, r4, r5, r6, r7, pc}
 321              	.LVL20:
 322              	.L6:
 323              		.loc 1 6 1 view .LVU91
 324 00a6 00BF     		.align	2
 325              	.L5:
 326 00a8 00000240 		.word	1073872896
 327 00ac 00000000 		.word	htim13
 328 00b0 00000000 		.word	htim12
 329 00b4 00000000 		.word	htim2
 330 00b8 00000000 		.word	htim3
 331 00bc 00000000 		.word	htim4
 332              		.cfi_endproc
 333              	.LFE262:
 334              		.fnend
 336              		.global	_ZN5RobotC1Ev
 337              		.thumb_set _ZN5RobotC1Ev,_ZN5RobotC2Ev
 338              		.section	.text._ZN5Robot12HardwareInitEv,"ax",%progbits
 339              		.align	1
 340              		.global	_ZN5Robot12HardwareInitEv
 341              		.syntax unified
 342              		.thumb
 343              		.thumb_func
 345              	_ZN5Robot12HardwareInitEv:
 346              		.fnstart
 347              	.LVL21:
 348              	.LFB264:
   7:src/unit/robot.cpp **** 
   8:src/unit/robot.cpp **** void Robot::HardwareInit() {
 349              		.loc 1 8 28 is_stmt 1 view -0
 350              		.cfi_startproc
 351              		@ args = 0, pretend = 0, frame = 0
ARM GAS  /var/folders/5c/srt4fy4j1pd641bjfx75k5000000gn/T//cc8K6cUY.s 			page 9


 352              		@ frame_needed = 0, uses_anonymous_args = 0
 353              		.loc 1 8 28 is_stmt 0 view .LVU93
 354 0000 10B5     		push	{r4, lr}
 355              		.save {r4, lr}
 356              	.LCFI2:
 357              		.cfi_def_cfa_offset 8
 358              		.cfi_offset 4, -8
 359              		.cfi_offset 14, -4
 360 0002 0446     		mov	r4, r0
   9:src/unit/robot.cpp ****       // HAL_ADC_Start(&hadc1);
  10:src/unit/robot.cpp ****       // HAL_ADC_Start_DMA(&hadc1, (uint32_t *)&adc_get_val, 14);
  11:src/unit/robot.cpp ****       // for (uint8_t i = 0; i < LINE_QTY; i++) {
  12:src/unit/robot.cpp ****       //       while (!(adc_get_val[i] > 0));
  13:src/unit/robot.cpp ****       // }
  14:src/unit/robot.cpp **** 
  15:src/unit/robot.cpp ****       // 諸々の初期化
  16:src/unit/robot.cpp ****       // serial6.init();
  17:src/unit/robot.cpp ****       LedH.init();
 361              		.loc 1 17 7 is_stmt 1 view .LVU94
 362              		.loc 1 17 16 is_stmt 0 view .LVU95
 363 0004 0C30     		adds	r0, r0, #12
 364              	.LVL22:
 365              		.loc 1 17 16 view .LVU96
 366 0006 FFF7FEFF 		bl	_ZN12PwmSingleOut4initEv
 367              	.LVL23:
  18:src/unit/robot.cpp ****       Motor1A.init();
 368              		.loc 1 18 7 is_stmt 1 view .LVU97
 369              		.loc 1 18 19 is_stmt 0 view .LVU98
 370 000a 04F11C00 		add	r0, r4, #28
 371 000e FFF7FEFF 		bl	_ZN12PwmSingleOut4initEv
 372              	.LVL24:
  19:src/unit/robot.cpp ****       Motor1B.init();
 373              		.loc 1 19 7 is_stmt 1 view .LVU99
 374              		.loc 1 19 19 is_stmt 0 view .LVU100
 375 0012 04F12C00 		add	r0, r4, #44
 376 0016 FFF7FEFF 		bl	_ZN12PwmSingleOut4initEv
 377              	.LVL25:
  20:src/unit/robot.cpp ****       Motor2A.init();
 378              		.loc 1 20 7 is_stmt 1 view .LVU101
 379              		.loc 1 20 19 is_stmt 0 view .LVU102
 380 001a 04F13C00 		add	r0, r4, #60
 381 001e FFF7FEFF 		bl	_ZN12PwmSingleOut4initEv
 382              	.LVL26:
  21:src/unit/robot.cpp ****       Motor2B.init();
 383              		.loc 1 21 7 is_stmt 1 view .LVU103
 384              		.loc 1 21 19 is_stmt 0 view .LVU104
 385 0022 04F14C00 		add	r0, r4, #76
 386 0026 FFF7FEFF 		bl	_ZN12PwmSingleOut4initEv
 387              	.LVL27:
  22:src/unit/robot.cpp ****       Motor3A.init();
 388              		.loc 1 22 7 is_stmt 1 view .LVU105
 389              		.loc 1 22 19 is_stmt 0 view .LVU106
 390 002a 04F15C00 		add	r0, r4, #92
 391 002e FFF7FEFF 		bl	_ZN12PwmSingleOut4initEv
 392              	.LVL28:
  23:src/unit/robot.cpp ****       Motor3B.init();
 393              		.loc 1 23 7 is_stmt 1 view .LVU107
ARM GAS  /var/folders/5c/srt4fy4j1pd641bjfx75k5000000gn/T//cc8K6cUY.s 			page 10


 394              		.loc 1 23 19 is_stmt 0 view .LVU108
 395 0032 04F16C00 		add	r0, r4, #108
 396 0036 FFF7FEFF 		bl	_ZN12PwmSingleOut4initEv
 397              	.LVL29:
  24:src/unit/robot.cpp ****       Motor4A.init();
 398              		.loc 1 24 7 is_stmt 1 view .LVU109
 399              		.loc 1 24 19 is_stmt 0 view .LVU110
 400 003a 04F17C00 		add	r0, r4, #124
 401 003e FFF7FEFF 		bl	_ZN12PwmSingleOut4initEv
 402              	.LVL30:
  25:src/unit/robot.cpp ****       Motor4B.init();
 403              		.loc 1 25 7 is_stmt 1 view .LVU111
 404              		.loc 1 25 19 is_stmt 0 view .LVU112
 405 0042 04F18C00 		add	r0, r4, #140
 406 0046 FFF7FEFF 		bl	_ZN12PwmSingleOut4initEv
 407              	.LVL31:
  26:src/unit/robot.cpp ****       DribblerFrontA.init();
 408              		.loc 1 26 7 is_stmt 1 view .LVU113
 409              		.loc 1 26 26 is_stmt 0 view .LVU114
 410 004a 04F19C00 		add	r0, r4, #156
 411 004e FFF7FEFF 		bl	_ZN12PwmSingleOut4initEv
 412              	.LVL32:
  27:src/unit/robot.cpp ****       DribblerFrontB.init();
 413              		.loc 1 27 7 is_stmt 1 view .LVU115
 414              		.loc 1 27 26 is_stmt 0 view .LVU116
 415 0052 04F1AC00 		add	r0, r4, #172
 416 0056 FFF7FEFF 		bl	_ZN12PwmSingleOut4initEv
 417              	.LVL33:
  28:src/unit/robot.cpp ****       DribblerBackA.init();
 418              		.loc 1 28 7 is_stmt 1 view .LVU117
 419              		.loc 1 28 25 is_stmt 0 view .LVU118
 420 005a 04F1BC00 		add	r0, r4, #188
 421 005e FFF7FEFF 		bl	_ZN12PwmSingleOut4initEv
 422              	.LVL34:
  29:src/unit/robot.cpp ****       DribblerBackB.init();
 423              		.loc 1 29 7 is_stmt 1 view .LVU119
 424              		.loc 1 29 25 is_stmt 0 view .LVU120
 425 0062 04F1CC00 		add	r0, r4, #204
 426 0066 FFF7FEFF 		bl	_ZN12PwmSingleOut4initEv
 427              	.LVL35:
  30:src/unit/robot.cpp **** }
 428              		.loc 1 30 1 view .LVU121
 429 006a 10BD     		pop	{r4, pc}
 430              		.loc 1 30 1 view .LVU122
 431              		.cfi_endproc
 432              	.LFE264:
 433              		.fnend
 435              		.section	.text._ZN5Robot10GetSensorsEv,"ax",%progbits
 436              		.align	1
 437              		.global	_ZN5Robot10GetSensorsEv
 438              		.syntax unified
 439              		.thumb
 440              		.thumb_func
 442              	_ZN5Robot10GetSensorsEv:
 443              		.fnstart
 444              	.LVL36:
 445              	.LFB265:
ARM GAS  /var/folders/5c/srt4fy4j1pd641bjfx75k5000000gn/T//cc8K6cUY.s 			page 11


  31:src/unit/robot.cpp **** 
  32:src/unit/robot.cpp **** void Robot::GetSensors() {
 446              		.loc 1 32 26 is_stmt 1 view -0
 447              		.cfi_startproc
 448              		@ args = 0, pretend = 0, frame = 0
 449              		@ frame_needed = 0, uses_anonymous_args = 0
 450              		@ link register save eliminated.
  33:src/unit/robot.cpp **** }...
 451              		.loc 1 33 1 is_stmt 0 view .LVU124
 452 0000 7047     		bx	lr
 453              		.cfi_endproc
 454              	.LFE265:
 455              		.cantunwind
 456              		.fnend
 458              		.global	adc_get_val
 459              		.section	.bss.adc_get_val,"aw",%nobits
 460              		.align	2
 463              	adc_get_val:
 464 0000 00000000 		.space	4
 465              		.text
 466              	.Letext0:
 467              		.file 4 "/opt/ST/STM32CubeCLT_1.16.0/GNU-tools-for-STM32/arm-none-eabi/include/machine/_default_ty
 468              		.file 5 "/opt/ST/STM32CubeCLT_1.16.0/GNU-tools-for-STM32/arm-none-eabi/include/sys/_stdint.h"
 469              		.file 6 "Drivers/CMSIS/Device/ST/STM32F4xx/Include/stm32f446xx.h"
 470              		.file 7 "Drivers/CMSIS/Device/ST/STM32F4xx/Include/stm32f4xx.h"
 471              		.file 8 "/opt/ST/STM32CubeCLT_1.16.0/GNU-tools-for-STM32/lib/gcc/arm-none-eabi/12.3.1/include/stdd
 472              		.file 9 "Drivers/STM32F4xx_HAL_Driver/Inc/stm32f4xx_hal_def.h"
 473              		.file 10 "Drivers/STM32F4xx_HAL_Driver/Inc/stm32f4xx_hal_gpio.h"
 474              		.file 11 "Drivers/STM32F4xx_HAL_Driver/Inc/stm32f4xx_hal_dma.h"
 475              		.file 12 "Drivers/STM32F4xx_HAL_Driver/Inc/stm32f4xx_hal_tim.h"
 476              		.file 13 "Drivers/STM32F4xx_HAL_Driver/Inc/stm32f4xx_hal.h"
 477              		.file 14 "/opt/ST/STM32CubeCLT_1.16.0/GNU-tools-for-STM32/arm-none-eabi/include/c++/12.3.1/cstdio"
 478              		.file 15 "/opt/ST/STM32CubeCLT_1.16.0/GNU-tools-for-STM32/arm-none-eabi/include/c++/12.3.1/arm-non
 479              		.file 16 "/opt/ST/STM32CubeCLT_1.16.0/GNU-tools-for-STM32/arm-none-eabi/include/sys/_types.h"
 480              		.file 17 "/opt/ST/STM32CubeCLT_1.16.0/GNU-tools-for-STM32/arm-none-eabi/include/sys/reent.h"
 481              		.file 18 "/opt/ST/STM32CubeCLT_1.16.0/GNU-tools-for-STM32/arm-none-eabi/include/sys/lock.h"
 482              		.file 19 "/opt/ST/STM32CubeCLT_1.16.0/GNU-tools-for-STM32/arm-none-eabi/include/stdio.h"
 483              		.file 20 "Core/Inc/tim.h"
 484              		.file 21 "src/unit/robot.hpp"
ARM GAS  /var/folders/5c/srt4fy4j1pd641bjfx75k5000000gn/T//cc8K6cUY.s 			page 12


DEFINED SYMBOLS
                            *ABS*:00000000 robot.cpp
/var/folders/5c/srt4fy4j1pd641bjfx75k5000000gn/T//cc8K6cUY.s:21     .text._ZN12PwmSingleOut4initEv:00000000 $t
/var/folders/5c/srt4fy4j1pd641bjfx75k5000000gn/T//cc8K6cUY.s:27     .text._ZN12PwmSingleOut4initEv:00000000 _ZN12PwmSingleOut4initEv
.ARM.exidx.text._ZN12PwmSingleOut4initEv:00000000 $d
/var/folders/5c/srt4fy4j1pd641bjfx75k5000000gn/T//cc8K6cUY.s:67     .text._ZN5RobotC2Ev:00000000 $t
/var/folders/5c/srt4fy4j1pd641bjfx75k5000000gn/T//cc8K6cUY.s:73     .text._ZN5RobotC2Ev:00000000 _ZN5RobotC2Ev
/var/folders/5c/srt4fy4j1pd641bjfx75k5000000gn/T//cc8K6cUY.s:326    .text._ZN5RobotC2Ev:000000a8 $d
    .ARM.exidx.text._ZN5RobotC2Ev:00000000 $d
/var/folders/5c/srt4fy4j1pd641bjfx75k5000000gn/T//cc8K6cUY.s:73     .text._ZN5RobotC2Ev:00000000 _ZN5RobotC1Ev
/var/folders/5c/srt4fy4j1pd641bjfx75k5000000gn/T//cc8K6cUY.s:339    .text._ZN5Robot12HardwareInitEv:00000000 $t
/var/folders/5c/srt4fy4j1pd641bjfx75k5000000gn/T//cc8K6cUY.s:345    .text._ZN5Robot12HardwareInitEv:00000000 _ZN5Robot12HardwareInitEv
.ARM.exidx.text._ZN5Robot12HardwareInitEv:00000000 $d
/var/folders/5c/srt4fy4j1pd641bjfx75k5000000gn/T//cc8K6cUY.s:436    .text._ZN5Robot10GetSensorsEv:00000000 $t
/var/folders/5c/srt4fy4j1pd641bjfx75k5000000gn/T//cc8K6cUY.s:442    .text._ZN5Robot10GetSensorsEv:00000000 _ZN5Robot10GetSensorsEv
.ARM.exidx.text._ZN5Robot10GetSensorsEv:00000000 $d
/var/folders/5c/srt4fy4j1pd641bjfx75k5000000gn/T//cc8K6cUY.s:463    .bss.adc_get_val:00000000 adc_get_val
/var/folders/5c/srt4fy4j1pd641bjfx75k5000000gn/T//cc8K6cUY.s:460    .bss.adc_get_val:00000000 $d

UNDEFINED SYMBOLS
HAL_TIM_PWM_Start
__aeabi_unwind_cpp_pr0
HAL_GPIO_WritePin
htim13
htim12
htim2
htim3
htim4
