ARM GAS  /var/folders/5c/srt4fy4j1pd641bjfx75k5000000gn/T//ccgUJOj8.s 			page 1


   1              		.cpu cortex-m4
   2              		.arch armv7e-m
   3              		.fpu fpv4-sp-d16
   4              		.eabi_attribute 27, 1
   5              		.eabi_attribute 28, 1
   6              		.eabi_attribute 20, 1
   7              		.eabi_attribute 21, 1
   8              		.eabi_attribute 23, 3
   9              		.eabi_attribute 24, 1
  10              		.eabi_attribute 25, 1
  11              		.eabi_attribute 26, 1
  12              		.eabi_attribute 30, 1
  13              		.eabi_attribute 34, 1
  14              		.eabi_attribute 18, 4
  15              		.file	"robot.cpp"
  16              		.text
  17              	.Ltext0:
  18              		.cfi_sections	.debug_frame
  19              		.file 1 "src/unit/robot/robot.cpp"
  20              		.section	.text._ZN14BufferedSerial9availableEv,"axG",%progbits,_ZN14BufferedSerial9availableEv,com
  21              		.align	1
  22              		.weak	_ZN14BufferedSerial9availableEv
  23              		.syntax unified
  24              		.thumb
  25              		.thumb_func
  27              	_ZN14BufferedSerial9availableEv:
  28              		.fnstart
  29              	.LVL0:
  30              	.LFB247:
  31              		.file 2 "Lib/BufferedSerial/BufferedSerial.hpp"
   1:Lib/BufferedSerial/BufferedSerial.hpp **** #ifndef __BUFFERED_SERIAL__
   2:Lib/BufferedSerial/BufferedSerial.hpp **** #define __BUFFERED_SERIAL__
   3:Lib/BufferedSerial/BufferedSerial.hpp **** 
   4:Lib/BufferedSerial/BufferedSerial.hpp **** #include <stdio.h>
   5:Lib/BufferedSerial/BufferedSerial.hpp **** 
   6:Lib/BufferedSerial/BufferedSerial.hpp **** #include "usart.h"
   7:Lib/BufferedSerial/BufferedSerial.hpp **** 
   8:Lib/BufferedSerial/BufferedSerial.hpp **** #ifdef __cplusplus
   9:Lib/BufferedSerial/BufferedSerial.hpp **** 
  10:Lib/BufferedSerial/BufferedSerial.hpp **** /*
  11:Lib/BufferedSerial/BufferedSerial.hpp ****  Initの順番をDMAが先になるようにする
  12:Lib/BufferedSerial/BufferedSerial.hpp ****  - MX_DMA_Init();
  13:Lib/BufferedSerial/BufferedSerial.hpp ****  - MX_USART2_UART_Init();
  14:Lib/BufferedSerial/BufferedSerial.hpp ****  - DMAはCircularモードにする
  15:Lib/BufferedSerial/BufferedSerial.hpp **** */
  16:Lib/BufferedSerial/BufferedSerial.hpp **** 
  17:Lib/BufferedSerial/BufferedSerial.hpp **** class BufferedSerial {
  18:Lib/BufferedSerial/BufferedSerial.hpp ****      public:
  19:Lib/BufferedSerial/BufferedSerial.hpp ****       BufferedSerial(UART_HandleTypeDef *huart, uint16_t rxBufSize)
  20:Lib/BufferedSerial/BufferedSerial.hpp ****           : _huart(huart),
  21:Lib/BufferedSerial/BufferedSerial.hpp ****             _rxBuf(new uint8_t[rxBufSize]),
  22:Lib/BufferedSerial/BufferedSerial.hpp ****             rxTop(0),
  23:Lib/BufferedSerial/BufferedSerial.hpp ****             rxBtm(0),
  24:Lib/BufferedSerial/BufferedSerial.hpp ****             _rxBufSize(rxBufSize),
  25:Lib/BufferedSerial/BufferedSerial.hpp ****             _useDMA(false) {}
  26:Lib/BufferedSerial/BufferedSerial.hpp ****       ~BufferedSerial() {
  27:Lib/BufferedSerial/BufferedSerial.hpp ****             delete[] _rxBuf;
ARM GAS  /var/folders/5c/srt4fy4j1pd641bjfx75k5000000gn/T//ccgUJOj8.s 			page 2


  28:Lib/BufferedSerial/BufferedSerial.hpp ****       }
  29:Lib/BufferedSerial/BufferedSerial.hpp **** 
  30:Lib/BufferedSerial/BufferedSerial.hpp ****       void init(bool dma = false) {
  31:Lib/BufferedSerial/BufferedSerial.hpp ****             _useDMA = dma;
  32:Lib/BufferedSerial/BufferedSerial.hpp ****             HAL_UART_Receive_DMA(_huart, _rxBuf, _rxBufSize);
  33:Lib/BufferedSerial/BufferedSerial.hpp ****       }
  34:Lib/BufferedSerial/BufferedSerial.hpp **** 
  35:Lib/BufferedSerial/BufferedSerial.hpp ****       bool available() {
  32              		.loc 2 35 12 view -0
  33              		.cfi_startproc
  34              		@ args = 0, pretend = 0, frame = 0
  35              		@ frame_needed = 0, uses_anonymous_args = 0
  36              		.loc 2 35 12 is_stmt 0 view .LVU1
  37 0000 10B5     		push	{r4, lr}
  38              		.save {r4, lr}
  39              	.LCFI0:
  40              		.cfi_def_cfa_offset 8
  41              		.cfi_offset 4, -8
  42              		.cfi_offset 14, -4
  43 0002 0446     		mov	r4, r0
  36:Lib/BufferedSerial/BufferedSerial.hpp ****             if (__HAL_UART_GET_FLAG(_huart, UART_FLAG_ORE) || __HAL_UART_GET_FLAG(_huart, UART_FLAG
  44              		.loc 2 36 13 is_stmt 1 view .LVU2
  45              		.loc 2 36 17 is_stmt 0 view .LVU3
  46 0004 0068     		ldr	r0, [r0]
  47              	.LVL1:
  48              		.loc 2 36 17 view .LVU4
  49 0006 0368     		ldr	r3, [r0]
  50 0008 1A68     		ldr	r2, [r3]
  51              		.loc 2 36 150 view .LVU5
  52 000a 12F0080F 		tst	r2, #8
  53 000e 0BD1     		bne	.L2
  54              		.loc 2 36 63 discriminator 2 view .LVU6
  55 0010 1A68     		ldr	r2, [r3]
  56              		.loc 2 36 60 discriminator 2 view .LVU7
  57 0012 12F0040F 		tst	r2, #4
  58 0016 07D1     		bne	.L2
  59              		.loc 2 36 108 discriminator 4 view .LVU8
  60 0018 1A68     		ldr	r2, [r3]
  61              		.loc 2 36 105 discriminator 4 view .LVU9
  62 001a 12F0020F 		tst	r2, #2
  63 001e 03D1     		bne	.L2
  64              		.loc 2 36 153 discriminator 6 view .LVU10
  65 0020 1B68     		ldr	r3, [r3]
  66              		.loc 2 36 150 discriminator 6 view .LVU11
  67 0022 13F0010F 		tst	r3, #1
  68 0026 06D0     		beq	.L3
  69              	.L2:
  37:Lib/BufferedSerial/BufferedSerial.hpp ****                   HAL_UART_Abort(_huart);
  70              		.loc 2 37 19 is_stmt 1 view .LVU12
  71              		.loc 2 37 33 is_stmt 0 view .LVU13
  72 0028 FFF7FEFF 		bl	HAL_UART_Abort
  73              	.LVL2:
  38:Lib/BufferedSerial/BufferedSerial.hpp ****                   HAL_UART_Receive_DMA(_huart, _rxBuf, _rxBufSize);
  74              		.loc 2 38 19 is_stmt 1 view .LVU14
  75              		.loc 2 38 39 is_stmt 0 view .LVU15
  76 002c A289     		ldrh	r2, [r4, #12]
  77 002e 6168     		ldr	r1, [r4, #4]
ARM GAS  /var/folders/5c/srt4fy4j1pd641bjfx75k5000000gn/T//ccgUJOj8.s 			page 3


  78 0030 2068     		ldr	r0, [r4]
  79 0032 FFF7FEFF 		bl	HAL_UART_Receive_DMA
  80              	.LVL3:
  81              	.L3:
  39:Lib/BufferedSerial/BufferedSerial.hpp ****             }
  40:Lib/BufferedSerial/BufferedSerial.hpp ****             uint16_t rxTop = _rxBufSize - _huart->hdmarx->Instance->NDTR;
  82              		.loc 2 40 13 is_stmt 1 view .LVU16
  83              		.loc 2 40 30 is_stmt 0 view .LVU17
  84 0036 A389     		ldrh	r3, [r4, #12]
  85              		.loc 2 40 43 view .LVU18
  86 0038 2268     		ldr	r2, [r4]
  87              		.loc 2 40 51 view .LVU19
  88 003a D26B     		ldr	r2, [r2, #60]
  89              		.loc 2 40 59 view .LVU20
  90 003c 1268     		ldr	r2, [r2]
  91              		.loc 2 40 69 view .LVU21
  92 003e 5268     		ldr	r2, [r2, #4]
  93              		.loc 2 40 41 view .LVU22
  94 0040 92B2     		uxth	r2, r2
  95              		.loc 2 40 69 view .LVU23
  96 0042 9B1A     		subs	r3, r3, r2
  97 0044 9BB2     		uxth	r3, r3
  98              	.LVL4:
  41:Lib/BufferedSerial/BufferedSerial.hpp ****             return rxTop != rxBtm;
  99              		.loc 2 41 13 is_stmt 1 view .LVU24
 100              		.loc 2 41 29 is_stmt 0 view .LVU25
 101 0046 6089     		ldrh	r0, [r4, #10]
  42:Lib/BufferedSerial/BufferedSerial.hpp ****       }
 102              		.loc 2 42 7 view .LVU26
 103 0048 C01A     		subs	r0, r0, r3
 104 004a 18BF     		it	ne
 105 004c 0120     		movne	r0, #1
 106 004e 10BD     		pop	{r4, pc}
 107              		.loc 2 42 7 view .LVU27
 108              		.cfi_endproc
 109              	.LFE247:
 110              		.fnend
 112              		.section	.text._ZN14BufferedSerial4readEv,"axG",%progbits,_ZN14BufferedSerial4readEv,comdat
 113              		.align	1
 114              		.weak	_ZN14BufferedSerial4readEv
 115              		.syntax unified
 116              		.thumb
 117              		.thumb_func
 119              	_ZN14BufferedSerial4readEv:
 120              		.fnstart
 121              	.LVL5:
 122              	.LFB248:
  43:Lib/BufferedSerial/BufferedSerial.hpp **** 
  44:Lib/BufferedSerial/BufferedSerial.hpp ****       uint8_t read() {
 123              		.loc 2 44 15 is_stmt 1 view -0
 124              		.cfi_startproc
 125              		@ args = 0, pretend = 0, frame = 0
 126              		@ frame_needed = 0, uses_anonymous_args = 0
 127              		@ link register save eliminated.
 128              		.loc 2 44 15 is_stmt 0 view .LVU29
 129 0000 0246     		mov	r2, r0
  45:Lib/BufferedSerial/BufferedSerial.hpp ****             uint16_t rxTop = _rxBufSize - _huart->hdmarx->Instance->NDTR;
ARM GAS  /var/folders/5c/srt4fy4j1pd641bjfx75k5000000gn/T//ccgUJOj8.s 			page 4


 130              		.loc 2 45 13 is_stmt 1 view .LVU30
 131              		.loc 2 45 30 is_stmt 0 view .LVU31
 132 0002 B0F80CC0 		ldrh	ip, [r0, #12]
 133              		.loc 2 45 43 view .LVU32
 134 0006 0368     		ldr	r3, [r0]
 135              		.loc 2 45 51 view .LVU33
 136 0008 DB6B     		ldr	r3, [r3, #60]
 137              		.loc 2 45 59 view .LVU34
 138 000a 1B68     		ldr	r3, [r3]
 139              		.loc 2 45 69 view .LVU35
 140 000c 5B68     		ldr	r3, [r3, #4]
 141              		.loc 2 45 41 view .LVU36
 142 000e 9BB2     		uxth	r3, r3
 143              		.loc 2 45 69 view .LVU37
 144 0010 ACEB0303 		sub	r3, ip, r3
 145 0014 9BB2     		uxth	r3, r3
 146              	.LVL6:
  46:Lib/BufferedSerial/BufferedSerial.hpp ****             if (rxTop == rxBtm) {
 147              		.loc 2 46 13 is_stmt 1 view .LVU38
 148              		.loc 2 46 26 is_stmt 0 view .LVU39
 149 0016 4189     		ldrh	r1, [r0, #10]
 150              		.loc 2 46 13 view .LVU40
 151 0018 9942     		cmp	r1, r3
 152 001a 08D0     		beq	.L7
  47:Lib/BufferedSerial/BufferedSerial.hpp ****                   return 0;
  48:Lib/BufferedSerial/BufferedSerial.hpp ****             }
  49:Lib/BufferedSerial/BufferedSerial.hpp ****             uint8_t data = _rxBuf[rxBtm];
 153              		.loc 2 49 13 is_stmt 1 view .LVU41
 154              		.loc 2 49 28 is_stmt 0 view .LVU42
 155 001c 4368     		ldr	r3, [r0, #4]
 156              	.LVL7:
 157              		.loc 2 49 21 view .LVU43
 158 001e 585C     		ldrb	r0, [r3, r1]	@ zero_extendqisi2
 159              	.LVL8:
  50:Lib/BufferedSerial/BufferedSerial.hpp ****             rxBtm = (rxBtm + 1) % _rxBufSize;
 160              		.loc 2 50 13 is_stmt 1 view .LVU44
 161              		.loc 2 50 28 is_stmt 0 view .LVU45
 162 0020 0131     		adds	r1, r1, #1
 163              		.loc 2 50 33 view .LVU46
 164 0022 91FBFCF3 		sdiv	r3, r1, ip
 165 0026 0CFB1311 		mls	r1, ip, r3, r1
 166              		.loc 2 50 19 view .LVU47
 167 002a 5181     		strh	r1, [r2, #10]	@ movhi
  51:Lib/BufferedSerial/BufferedSerial.hpp ****             return data;
 168              		.loc 2 51 13 is_stmt 1 view .LVU48
 169              		.loc 2 51 20 is_stmt 0 view .LVU49
 170 002c 7047     		bx	lr
 171              	.LVL9:
 172              	.L7:
  47:Lib/BufferedSerial/BufferedSerial.hpp ****                   return 0;
 173              		.loc 2 47 26 view .LVU50
 174 002e 0020     		movs	r0, #0
 175              	.LVL10:
  52:Lib/BufferedSerial/BufferedSerial.hpp ****       }
 176              		.loc 2 52 7 view .LVU51
 177 0030 7047     		bx	lr
 178              		.cfi_endproc
ARM GAS  /var/folders/5c/srt4fy4j1pd641bjfx75k5000000gn/T//ccgUJOj8.s 			page 5


 179              	.LFE248:
 180              		.cantunwind
 181              		.fnend
 183              		.section	.text._ZN12PwmSingleOut4initEv,"axG",%progbits,_ZN12PwmSingleOut4initEv,comdat
 184              		.align	1
 185              		.weak	_ZN12PwmSingleOut4initEv
 186              		.syntax unified
 187              		.thumb
 188              		.thumb_func
 190              	_ZN12PwmSingleOut4initEv:
 191              		.fnstart
 192              	.LVL11:
 193              	.LFB267:
 194              		.file 3 "Lib/PWMSingle/PWMSingle.hpp"
   1:Lib/PWMSingle/PWMSingle.hpp **** #ifndef __PWMSINGLE__
   2:Lib/PWMSingle/PWMSingle.hpp **** #define __PWMSINGLE__
   3:Lib/PWMSingle/PWMSingle.hpp **** 
   4:Lib/PWMSingle/PWMSingle.hpp **** #include "MyMath.hpp"
   5:Lib/PWMSingle/PWMSingle.hpp **** #include "tim.h"
   6:Lib/PWMSingle/PWMSingle.hpp **** 
   7:Lib/PWMSingle/PWMSingle.hpp **** #ifdef __cplusplus
   8:Lib/PWMSingle/PWMSingle.hpp **** extern "C" {
   9:Lib/PWMSingle/PWMSingle.hpp **** 
  10:Lib/PWMSingle/PWMSingle.hpp **** class PwmSingleOut {
  11:Lib/PWMSingle/PWMSingle.hpp ****      public:
  12:Lib/PWMSingle/PWMSingle.hpp ****       PwmSingleOut(TIM_HandleTypeDef *htim, uint32_t channel)
  13:Lib/PWMSingle/PWMSingle.hpp ****           : _htim(htim), _channel(channel), _maxValue(_htim->Init.Period) {
  14:Lib/PWMSingle/PWMSingle.hpp ****       }
  15:Lib/PWMSingle/PWMSingle.hpp **** 
  16:Lib/PWMSingle/PWMSingle.hpp ****       void init() {
 195              		.loc 3 16 12 is_stmt 1 view -0
 196              		.cfi_startproc
 197              		@ args = 0, pretend = 0, frame = 0
 198              		@ frame_needed = 0, uses_anonymous_args = 0
 199              		.loc 3 16 12 is_stmt 0 view .LVU53
 200 0000 10B5     		push	{r4, lr}
 201              		.save {r4, lr}
 202              	.LCFI1:
 203              		.cfi_def_cfa_offset 8
 204              		.cfi_offset 4, -8
 205              		.cfi_offset 14, -4
 206 0002 0446     		mov	r4, r0
  17:Lib/PWMSingle/PWMSingle.hpp ****             HAL_TIM_PWM_Start(_htim, _channel);
 207              		.loc 3 17 13 is_stmt 1 view .LVU54
 208              		.loc 3 17 30 is_stmt 0 view .LVU55
 209 0004 4168     		ldr	r1, [r0, #4]
 210 0006 0068     		ldr	r0, [r0]
 211              	.LVL12:
 212              		.loc 3 17 30 view .LVU56
 213 0008 FFF7FEFF 		bl	HAL_TIM_PWM_Start
 214              	.LVL13:
  18:Lib/PWMSingle/PWMSingle.hpp ****             _maxValue = _htim->Init.Period;
 215              		.loc 3 18 13 is_stmt 1 view .LVU57
 216              		.loc 3 18 25 is_stmt 0 view .LVU58
 217 000c 2368     		ldr	r3, [r4]
 218              		.loc 3 18 37 view .LVU59
 219 000e DB68     		ldr	r3, [r3, #12]
ARM GAS  /var/folders/5c/srt4fy4j1pd641bjfx75k5000000gn/T//ccgUJOj8.s 			page 6


 220              		.loc 3 18 23 view .LVU60
 221 0010 A360     		str	r3, [r4, #8]
  19:Lib/PWMSingle/PWMSingle.hpp ****       }
 222              		.loc 3 19 7 view .LVU61
 223 0012 10BD     		pop	{r4, pc}
 224              		.loc 3 19 7 view .LVU62
 225              		.cfi_endproc
 226              	.LFE267:
 227              		.fnend
 229              		.section	.text._ZN5RobotC2Ev,"ax",%progbits
 230              		.align	1
 231              		.global	_ZN5RobotC2Ev
 232              		.syntax unified
 233              		.thumb
 234              		.thumb_func
 236              	_ZN5RobotC2Ev:
 237              		.fnstart
 238              	.LVL14:
 239              	.LFB273:
   1:src/unit/robot/robot.cpp **** #include "robot.hpp"
   2:src/unit/robot/robot.cpp **** 
   3:src/unit/robot/robot.cpp **** uint16_t adc_get_val[3];
   4:src/unit/robot/robot.cpp **** 
   5:src/unit/robot/robot.cpp **** Robot::Robot() {
 240              		.loc 1 5 1 is_stmt 1 view -0
 241              		.cfi_startproc
 242              		@ args = 0, pretend = 0, frame = 0
 243              		@ frame_needed = 0, uses_anonymous_args = 0
 244              		.loc 1 5 1 is_stmt 0 view .LVU64
 245 0000 F0B5     		push	{r4, r5, r6, r7, lr}
 246              		.save {r4, r5, r6, r7, lr}
 247              	.LCFI2:
 248              		.cfi_def_cfa_offset 20
 249              		.cfi_offset 4, -20
 250              		.cfi_offset 5, -16
 251              		.cfi_offset 6, -12
 252              		.cfi_offset 7, -8
 253              		.cfi_offset 14, -4
 254              		.pad #36
 255 0002 89B0     		sub	sp, sp, #36
 256              	.LCFI3:
 257              		.cfi_def_cfa_offset 56
 258 0004 0446     		mov	r4, r0
 259              	.LVL15:
 260              	.LBB112:
 261              	.LBB113:
 262              	.LBI113:
 263              		.file 4 "Lib/DigitalInOut/DigitalInOut.hpp"
   1:Lib/DigitalInOut/DigitalInOut.hpp **** #ifndef __DigitalInOut__
   2:Lib/DigitalInOut/DigitalInOut.hpp **** #define __DigitalInOut__
   3:Lib/DigitalInOut/DigitalInOut.hpp **** 
   4:Lib/DigitalInOut/DigitalInOut.hpp **** #include "main.h"
   5:Lib/DigitalInOut/DigitalInOut.hpp **** 
   6:Lib/DigitalInOut/DigitalInOut.hpp **** #ifdef __cplusplus
   7:Lib/DigitalInOut/DigitalInOut.hpp **** 
   8:Lib/DigitalInOut/DigitalInOut.hpp **** extern "C" {
   9:Lib/DigitalInOut/DigitalInOut.hpp **** 
ARM GAS  /var/folders/5c/srt4fy4j1pd641bjfx75k5000000gn/T//ccgUJOj8.s 			page 7


  10:Lib/DigitalInOut/DigitalInOut.hpp **** class DigitalOut {
  11:Lib/DigitalInOut/DigitalInOut.hpp ****   public:
  12:Lib/DigitalInOut/DigitalInOut.hpp ****     DigitalOut(GPIO_TypeDef *port, uint16_t pin) : port(port), pin(pin) {
 264              		.loc 4 12 5 is_stmt 1 view .LVU65
 265              	.LBB114:
 266              		.loc 4 12 52 is_stmt 0 view .LVU66
 267 0006 9548     		ldr	r0, .L26
 268              	.LVL16:
 269              		.loc 4 12 52 view .LVU67
 270 0008 6064     		str	r0, [r4, #68]
 271              		.loc 4 12 64 view .LVU68
 272 000a 2021     		movs	r1, #32
 273 000c A4F84810 		strh	r1, [r4, #72]	@ movhi
  13:Lib/DigitalInOut/DigitalInOut.hpp ****         HAL_GPIO_WritePin(port, pin, GPIO_PIN_RESET);
 274              		.loc 4 13 9 is_stmt 1 view .LVU69
 275              		.loc 4 13 26 is_stmt 0 view .LVU70
 276 0010 0022     		movs	r2, #0
 277              	.LEHB0:
 278 0012 FFF7FEFF 		bl	HAL_GPIO_WritePin
 279              	.LVL17:
 280              		.loc 4 13 26 view .LVU71
 281              	.LBE114:
 282              	.LBE113:
 283              	.LBB115:
 284              	.LBI115:
  12:Lib/PWMSingle/PWMSingle.hpp ****           : _htim(htim), _channel(channel), _maxValue(_htim->Init.Period) {
 285              		.loc 3 12 7 is_stmt 1 view .LVU72
 286              	.LBB116:
  13:Lib/PWMSingle/PWMSingle.hpp ****       }
 287              		.loc 3 13 13 is_stmt 0 view .LVU73
 288 0016 924B     		ldr	r3, .L26+4
 289 0018 E364     		str	r3, [r4, #76]
  13:Lib/PWMSingle/PWMSingle.hpp ****       }
 290              		.loc 3 13 26 view .LVU74
 291 001a 0025     		movs	r5, #0
 292 001c 2565     		str	r5, [r4, #80]
  13:Lib/PWMSingle/PWMSingle.hpp ****       }
 293              		.loc 3 13 67 view .LVU75
 294 001e DB68     		ldr	r3, [r3, #12]
  13:Lib/PWMSingle/PWMSingle.hpp ****       }
 295              		.loc 3 13 45 view .LVU76
 296 0020 6365     		str	r3, [r4, #84]
 297              	.LVL18:
  13:Lib/PWMSingle/PWMSingle.hpp ****       }
 298              		.loc 3 13 45 view .LVU77
 299              	.LBE116:
 300              	.LBE115:
 301              	.LBB117:
 302              	.LBI117:
  12:Lib/PWMSingle/PWMSingle.hpp ****           : _htim(htim), _channel(channel), _maxValue(_htim->Init.Period) {
 303              		.loc 3 12 7 is_stmt 1 view .LVU78
 304              	.LBB118:
  13:Lib/PWMSingle/PWMSingle.hpp ****       }
 305              		.loc 3 13 13 is_stmt 0 view .LVU79
 306 0022 904B     		ldr	r3, .L26+8
 307 0024 E365     		str	r3, [r4, #92]
  13:Lib/PWMSingle/PWMSingle.hpp ****       }
ARM GAS  /var/folders/5c/srt4fy4j1pd641bjfx75k5000000gn/T//ccgUJOj8.s 			page 8


 308              		.loc 3 13 26 view .LVU80
 309 0026 0420     		movs	r0, #4
 310 0028 2066     		str	r0, [r4, #96]
  13:Lib/PWMSingle/PWMSingle.hpp ****       }
 311              		.loc 3 13 67 view .LVU81
 312 002a DA68     		ldr	r2, [r3, #12]
  13:Lib/PWMSingle/PWMSingle.hpp ****       }
 313              		.loc 3 13 45 view .LVU82
 314 002c 6266     		str	r2, [r4, #100]
 315              	.LVL19:
  13:Lib/PWMSingle/PWMSingle.hpp ****       }
 316              		.loc 3 13 45 view .LVU83
 317              	.LBE118:
 318              	.LBE117:
 319              	.LBB119:
 320              	.LBI119:
  12:Lib/PWMSingle/PWMSingle.hpp ****           : _htim(htim), _channel(channel), _maxValue(_htim->Init.Period) {
 321              		.loc 3 12 7 is_stmt 1 view .LVU84
 322              	.LBB120:
  13:Lib/PWMSingle/PWMSingle.hpp ****       }
 323              		.loc 3 13 13 is_stmt 0 view .LVU85
 324 002e E366     		str	r3, [r4, #108]
  13:Lib/PWMSingle/PWMSingle.hpp ****       }
 325              		.loc 3 13 26 view .LVU86
 326 0030 2567     		str	r5, [r4, #112]
  13:Lib/PWMSingle/PWMSingle.hpp ****       }
 327              		.loc 3 13 45 view .LVU87
 328 0032 6267     		str	r2, [r4, #116]
 329              	.LVL20:
  13:Lib/PWMSingle/PWMSingle.hpp ****       }
 330              		.loc 3 13 45 view .LVU88
 331              	.LBE120:
 332              	.LBE119:
 333              	.LBB121:
 334              	.LBI121:
  12:Lib/PWMSingle/PWMSingle.hpp ****           : _htim(htim), _channel(channel), _maxValue(_htim->Init.Period) {
 335              		.loc 3 12 7 is_stmt 1 view .LVU89
 336              	.LBB122:
  13:Lib/PWMSingle/PWMSingle.hpp ****       }
 337              		.loc 3 13 13 is_stmt 0 view .LVU90
 338 0034 8C4B     		ldr	r3, .L26+12
 339 0036 E367     		str	r3, [r4, #124]
  13:Lib/PWMSingle/PWMSingle.hpp ****       }
 340              		.loc 3 13 26 view .LVU91
 341 0038 4FF0080C 		mov	ip, #8
 342 003c C4F880C0 		str	ip, [r4, #128]
  13:Lib/PWMSingle/PWMSingle.hpp ****       }
 343              		.loc 3 13 67 view .LVU92
 344 0040 D968     		ldr	r1, [r3, #12]
  13:Lib/PWMSingle/PWMSingle.hpp ****       }
 345              		.loc 3 13 45 view .LVU93
 346 0042 C4F88410 		str	r1, [r4, #132]
 347              	.LVL21:
  13:Lib/PWMSingle/PWMSingle.hpp ****       }
 348              		.loc 3 13 45 view .LVU94
 349              	.LBE122:
 350              	.LBE121:
ARM GAS  /var/folders/5c/srt4fy4j1pd641bjfx75k5000000gn/T//ccgUJOj8.s 			page 9


 351              	.LBB123:
 352              	.LBI123:
  12:Lib/PWMSingle/PWMSingle.hpp ****           : _htim(htim), _channel(channel), _maxValue(_htim->Init.Period) {
 353              		.loc 3 12 7 is_stmt 1 view .LVU95
 354              	.LBB124:
  13:Lib/PWMSingle/PWMSingle.hpp ****       }
 355              		.loc 3 13 13 is_stmt 0 view .LVU96
 356 0046 C4F88C30 		str	r3, [r4, #140]
  13:Lib/PWMSingle/PWMSingle.hpp ****       }
 357              		.loc 3 13 26 view .LVU97
 358 004a 0C27     		movs	r7, #12
 359 004c C4F89070 		str	r7, [r4, #144]
  13:Lib/PWMSingle/PWMSingle.hpp ****       }
 360              		.loc 3 13 45 view .LVU98
 361 0050 C4F89410 		str	r1, [r4, #148]
 362              	.LVL22:
  13:Lib/PWMSingle/PWMSingle.hpp ****       }
 363              		.loc 3 13 45 view .LVU99
 364              	.LBE124:
 365              	.LBE123:
 366              	.LBB125:
 367              	.LBI125:
  12:Lib/PWMSingle/PWMSingle.hpp ****           : _htim(htim), _channel(channel), _maxValue(_htim->Init.Period) {
 368              		.loc 3 12 7 is_stmt 1 view .LVU100
 369              	.LBB126:
  13:Lib/PWMSingle/PWMSingle.hpp ****       }
 370              		.loc 3 13 13 is_stmt 0 view .LVU101
 371 0054 854A     		ldr	r2, .L26+16
 372 0056 C4F89C20 		str	r2, [r4, #156]
  13:Lib/PWMSingle/PWMSingle.hpp ****       }
 373              		.loc 3 13 26 view .LVU102
 374 005a C4F8A000 		str	r0, [r4, #160]
  13:Lib/PWMSingle/PWMSingle.hpp ****       }
 375              		.loc 3 13 67 view .LVU103
 376 005e D668     		ldr	r6, [r2, #12]
  13:Lib/PWMSingle/PWMSingle.hpp ****       }
 377              		.loc 3 13 45 view .LVU104
 378 0060 C4F8A460 		str	r6, [r4, #164]
 379              	.LVL23:
  13:Lib/PWMSingle/PWMSingle.hpp ****       }
 380              		.loc 3 13 45 view .LVU105
 381              	.LBE126:
 382              	.LBE125:
 383              	.LBB127:
 384              	.LBI127:
  12:Lib/PWMSingle/PWMSingle.hpp ****           : _htim(htim), _channel(channel), _maxValue(_htim->Init.Period) {
 385              		.loc 3 12 7 is_stmt 1 view .LVU106
 386              	.LBB128:
  13:Lib/PWMSingle/PWMSingle.hpp ****       }
 387              		.loc 3 13 13 is_stmt 0 view .LVU107
 388 0064 C4F8AC30 		str	r3, [r4, #172]
  13:Lib/PWMSingle/PWMSingle.hpp ****       }
 389              		.loc 3 13 26 view .LVU108
 390 0068 C4F8B000 		str	r0, [r4, #176]
  13:Lib/PWMSingle/PWMSingle.hpp ****       }
 391              		.loc 3 13 45 view .LVU109
 392 006c C4F8B410 		str	r1, [r4, #180]
ARM GAS  /var/folders/5c/srt4fy4j1pd641bjfx75k5000000gn/T//ccgUJOj8.s 			page 10


 393              	.LVL24:
  13:Lib/PWMSingle/PWMSingle.hpp ****       }
 394              		.loc 3 13 45 view .LVU110
 395              	.LBE128:
 396              	.LBE127:
 397              	.LBB129:
 398              	.LBI129:
  12:Lib/PWMSingle/PWMSingle.hpp ****           : _htim(htim), _channel(channel), _maxValue(_htim->Init.Period) {
 399              		.loc 3 12 7 is_stmt 1 view .LVU111
 400              	.LBB130:
  13:Lib/PWMSingle/PWMSingle.hpp ****       }
 401              		.loc 3 13 13 is_stmt 0 view .LVU112
 402 0070 C4F8BC20 		str	r2, [r4, #188]
  13:Lib/PWMSingle/PWMSingle.hpp ****       }
 403              		.loc 3 13 26 view .LVU113
 404 0074 C4F8C050 		str	r5, [r4, #192]
  13:Lib/PWMSingle/PWMSingle.hpp ****       }
 405              		.loc 3 13 45 view .LVU114
 406 0078 C4F8C460 		str	r6, [r4, #196]
 407              	.LVL25:
  13:Lib/PWMSingle/PWMSingle.hpp ****       }
 408              		.loc 3 13 45 view .LVU115
 409              	.LBE130:
 410              	.LBE129:
 411              	.LBB131:
 412              	.LBI131:
  12:Lib/PWMSingle/PWMSingle.hpp ****           : _htim(htim), _channel(channel), _maxValue(_htim->Init.Period) {
 413              		.loc 3 12 7 is_stmt 1 view .LVU116
 414              	.LBB132:
  13:Lib/PWMSingle/PWMSingle.hpp ****       }
 415              		.loc 3 13 13 is_stmt 0 view .LVU117
 416 007c C4F8CC20 		str	r2, [r4, #204]
  13:Lib/PWMSingle/PWMSingle.hpp ****       }
 417              		.loc 3 13 26 view .LVU118
 418 0080 C4F8D0C0 		str	ip, [r4, #208]
  13:Lib/PWMSingle/PWMSingle.hpp ****       }
 419              		.loc 3 13 45 view .LVU119
 420 0084 C4F8D460 		str	r6, [r4, #212]
 421              	.LVL26:
  13:Lib/PWMSingle/PWMSingle.hpp ****       }
 422              		.loc 3 13 45 view .LVU120
 423              	.LBE132:
 424              	.LBE131:
 425              	.LBB133:
 426              	.LBI133:
  12:Lib/PWMSingle/PWMSingle.hpp ****           : _htim(htim), _channel(channel), _maxValue(_htim->Init.Period) {
 427              		.loc 3 12 7 is_stmt 1 view .LVU121
 428              	.LBB134:
  13:Lib/PWMSingle/PWMSingle.hpp ****       }
 429              		.loc 3 13 13 is_stmt 0 view .LVU122
 430 0088 794A     		ldr	r2, .L26+20
 431 008a C4F8DC20 		str	r2, [r4, #220]
  13:Lib/PWMSingle/PWMSingle.hpp ****       }
 432              		.loc 3 13 26 view .LVU123
 433 008e C4F8E050 		str	r5, [r4, #224]
  13:Lib/PWMSingle/PWMSingle.hpp ****       }
 434              		.loc 3 13 67 view .LVU124
ARM GAS  /var/folders/5c/srt4fy4j1pd641bjfx75k5000000gn/T//ccgUJOj8.s 			page 11


 435 0092 D668     		ldr	r6, [r2, #12]
  13:Lib/PWMSingle/PWMSingle.hpp ****       }
 436              		.loc 3 13 45 view .LVU125
 437 0094 C4F8E460 		str	r6, [r4, #228]
 438              	.LVL27:
  13:Lib/PWMSingle/PWMSingle.hpp ****       }
 439              		.loc 3 13 45 view .LVU126
 440              	.LBE134:
 441              	.LBE133:
 442              	.LBB135:
 443              	.LBI135:
  12:Lib/PWMSingle/PWMSingle.hpp ****           : _htim(htim), _channel(channel), _maxValue(_htim->Init.Period) {
 444              		.loc 3 12 7 is_stmt 1 view .LVU127
 445              	.LBB136:
  13:Lib/PWMSingle/PWMSingle.hpp ****       }
 446              		.loc 3 13 13 is_stmt 0 view .LVU128
 447 0098 C4F8EC20 		str	r2, [r4, #236]
  13:Lib/PWMSingle/PWMSingle.hpp ****       }
 448              		.loc 3 13 26 view .LVU129
 449 009c C4F8F000 		str	r0, [r4, #240]
  13:Lib/PWMSingle/PWMSingle.hpp ****       }
 450              		.loc 3 13 45 view .LVU130
 451 00a0 C4F8F460 		str	r6, [r4, #244]
 452              	.LVL28:
  13:Lib/PWMSingle/PWMSingle.hpp ****       }
 453              		.loc 3 13 45 view .LVU131
 454              	.LBE136:
 455              	.LBE135:
 456              	.LBB137:
 457              	.LBI137:
  12:Lib/PWMSingle/PWMSingle.hpp ****           : _htim(htim), _channel(channel), _maxValue(_htim->Init.Period) {
 458              		.loc 3 12 7 is_stmt 1 view .LVU132
 459              	.LBB138:
  13:Lib/PWMSingle/PWMSingle.hpp ****       }
 460              		.loc 3 13 13 is_stmt 0 view .LVU133
 461 00a4 C4F8FC30 		str	r3, [r4, #252]
  13:Lib/PWMSingle/PWMSingle.hpp ****       }
 462              		.loc 3 13 26 view .LVU134
 463 00a8 C4F80051 		str	r5, [r4, #256]
  13:Lib/PWMSingle/PWMSingle.hpp ****       }
 464              		.loc 3 13 45 view .LVU135
 465 00ac C4F80411 		str	r1, [r4, #260]
 466              	.LVL29:
  13:Lib/PWMSingle/PWMSingle.hpp ****       }
 467              		.loc 3 13 45 view .LVU136
 468              	.LBE138:
 469              	.LBE137:
 470              	.LBB139:
 471              	.LBI139:
  12:Lib/PWMSingle/PWMSingle.hpp ****           : _htim(htim), _channel(channel), _maxValue(_htim->Init.Period) {
 472              		.loc 3 12 7 is_stmt 1 view .LVU137
 473              	.LBB140:
  13:Lib/PWMSingle/PWMSingle.hpp ****       }
 474              		.loc 3 13 13 is_stmt 0 view .LVU138
 475 00b0 C4F80C21 		str	r2, [r4, #268]
  13:Lib/PWMSingle/PWMSingle.hpp ****       }
 476              		.loc 3 13 26 view .LVU139
ARM GAS  /var/folders/5c/srt4fy4j1pd641bjfx75k5000000gn/T//ccgUJOj8.s 			page 12


 477 00b4 C4F81071 		str	r7, [r4, #272]
  13:Lib/PWMSingle/PWMSingle.hpp ****       }
 478              		.loc 3 13 45 view .LVU140
 479 00b8 C4F81461 		str	r6, [r4, #276]
 480              	.LVL30:
  13:Lib/PWMSingle/PWMSingle.hpp ****       }
 481              		.loc 3 13 45 view .LVU141
 482              	.LBE140:
 483              	.LBE139:
 484              	.LBB141:
 485              	.LBI141:
  12:Lib/DigitalInOut/DigitalInOut.hpp ****         HAL_GPIO_WritePin(port, pin, GPIO_PIN_RESET);
 486              		.loc 4 12 5 is_stmt 1 view .LVU142
 487              	.LBB142:
  12:Lib/DigitalInOut/DigitalInOut.hpp ****         HAL_GPIO_WritePin(port, pin, GPIO_PIN_RESET);
 488              		.loc 4 12 52 is_stmt 0 view .LVU143
 489 00bc 6D4E     		ldr	r6, .L26+24
 490 00be C4F81C61 		str	r6, [r4, #284]
  12:Lib/DigitalInOut/DigitalInOut.hpp ****         HAL_GPIO_WritePin(port, pin, GPIO_PIN_RESET);
 491              		.loc 4 12 64 view .LVU144
 492 00c2 0121     		movs	r1, #1
 493 00c4 A4F82011 		strh	r1, [r4, #288]	@ movhi
 494              		.loc 4 13 9 is_stmt 1 view .LVU145
 495              		.loc 4 13 26 is_stmt 0 view .LVU146
 496 00c8 2A46     		mov	r2, r5
 497 00ca 3046     		mov	r0, r6
 498 00cc FFF7FEFF 		bl	HAL_GPIO_WritePin
 499              	.LVL31:
 500              		.loc 4 13 26 view .LVU147
 501              	.LBE142:
 502              	.LBE141:
 503              	.LBB143:
 504              	.LBI143:
  12:Lib/DigitalInOut/DigitalInOut.hpp ****         HAL_GPIO_WritePin(port, pin, GPIO_PIN_RESET);
 505              		.loc 4 12 5 is_stmt 1 view .LVU148
 506              	.LBB144:
  12:Lib/DigitalInOut/DigitalInOut.hpp ****         HAL_GPIO_WritePin(port, pin, GPIO_PIN_RESET);
 507              		.loc 4 12 52 is_stmt 0 view .LVU149
 508 00d0 C4F82461 		str	r6, [r4, #292]
  12:Lib/DigitalInOut/DigitalInOut.hpp ****         HAL_GPIO_WritePin(port, pin, GPIO_PIN_RESET);
 509              		.loc 4 12 64 view .LVU150
 510 00d4 0221     		movs	r1, #2
 511 00d6 A4F82811 		strh	r1, [r4, #296]	@ movhi
 512              		.loc 4 13 9 is_stmt 1 view .LVU151
 513              		.loc 4 13 26 is_stmt 0 view .LVU152
 514 00da 2A46     		mov	r2, r5
 515 00dc 3046     		mov	r0, r6
 516 00de FFF7FEFF 		bl	HAL_GPIO_WritePin
 517              	.LVL32:
 518              		.loc 4 13 26 view .LVU153
 519              	.LBE144:
 520              	.LBE143:
 521              		.loc 1 5 14 view .LVU154
 522 00e2 231D     		adds	r3, r4, #4
 523 00e4 0693     		str	r3, [sp, #24]
 524 00e6 04F12803 		add	r3, r4, #40
 525 00ea 0593     		str	r3, [sp, #20]
ARM GAS  /var/folders/5c/srt4fy4j1pd641bjfx75k5000000gn/T//ccgUJOj8.s 			page 13


 526 00ec 04F1CC03 		add	r3, r4, #204
 527 00f0 0493     		str	r3, [sp, #16]
 528 00f2 04F1BC03 		add	r3, r4, #188
 529 00f6 0393     		str	r3, [sp, #12]
 530 00f8 04F1AC03 		add	r3, r4, #172
 531 00fc 0293     		str	r3, [sp, #8]
 532 00fe 04F19C03 		add	r3, r4, #156
 533 0102 0193     		str	r3, [sp, #4]
 534 0104 04F18C03 		add	r3, r4, #140
 535 0108 0093     		str	r3, [sp]
 536 010a 04F17C03 		add	r3, r4, #124
 537 010e 04F16C02 		add	r2, r4, #108
 538 0112 04F15C01 		add	r1, r4, #92
 539 0116 04F59870 		add	r0, r4, #304
 540 011a FFF7FEFF 		bl	_ZN10MotorDriveC1EP12PwmSingleOutS1_S1_S1_S1_S1_S1_S1_PsPh
 541              	.LVL33:
 542 011e 04F1EC02 		add	r2, r4, #236
 543 0122 04F1DC01 		add	r1, r4, #220
 544 0126 04F58150 		add	r0, r4, #4128
 545 012a FFF7FEFF 		bl	_ZN13DribblerDriveC1EP12PwmSingleOutS1_
 546              	.LVL34:
 547 012e 04F58672 		add	r2, r4, #268
 548 0132 04F1FC01 		add	r1, r4, #252
 549 0136 04F59B50 		add	r0, r4, #4960
 550 013a FFF7FEFF 		bl	_ZN13DribblerDriveC1EP12PwmSingleOutS1_
 551              	.LVL35:
 552 013e 04F59272 		add	r2, r4, #292
 553 0142 04F58E71 		add	r1, r4, #284
 554 0146 04F5B550 		add	r0, r4, #5792
 555 014a FFF7FEFF 		bl	_ZN6KickerC1EP10DigitalOutS1_
 556              	.LVL36:
 557              	.LBB145:
 558              	.LBI145:
  19:Lib/BufferedSerial/BufferedSerial.hpp ****           : _huart(huart),
 559              		.loc 2 19 7 is_stmt 1 view .LVU155
 560              	.LBB146:
  20:Lib/BufferedSerial/BufferedSerial.hpp ****             _rxBuf(new uint8_t[rxBufSize]),
 561              		.loc 2 20 13 is_stmt 0 view .LVU156
 562 014e 04F58056 		add	r6, r4, #4096
 563 0152 494B     		ldr	r3, .L26+28
 564 0154 C6F8B436 		str	r3, [r6, #1716]
  21:Lib/BufferedSerial/BufferedSerial.hpp ****             rxTop(0),
 565              		.loc 2 21 41 view .LVU157
 566 0158 8020     		movs	r0, #128
 567 015a FFF7FEFF 		bl	_Znaj
 568              	.LVL37:
 569              	.LEHE0:
  21:Lib/BufferedSerial/BufferedSerial.hpp ****             rxTop(0),
 570              		.loc 2 21 13 view .LVU158
 571 015e C6F8B806 		str	r0, [r6, #1720]
  22:Lib/BufferedSerial/BufferedSerial.hpp ****             rxBtm(0),
 572              		.loc 2 22 13 view .LVU159
 573 0162 A6F8BC56 		strh	r5, [r6, #1724]	@ movhi
  23:Lib/BufferedSerial/BufferedSerial.hpp ****             _rxBufSize(rxBufSize),
 574              		.loc 2 23 13 view .LVU160
 575 0166 A6F8BE56 		strh	r5, [r6, #1726]	@ movhi
  24:Lib/BufferedSerial/BufferedSerial.hpp ****             _useDMA(false) {}
ARM GAS  /var/folders/5c/srt4fy4j1pd641bjfx75k5000000gn/T//ccgUJOj8.s 			page 14


 576              		.loc 2 24 13 view .LVU161
 577 016a 8023     		movs	r3, #128
 578 016c A6F8C036 		strh	r3, [r6, #1728]	@ movhi
  25:Lib/BufferedSerial/BufferedSerial.hpp ****       ~BufferedSerial() {
 579              		.loc 2 25 13 view .LVU162
 580 0170 86F8C256 		strb	r5, [r6, #1730]
 581              	.LVL38:
  25:Lib/BufferedSerial/BufferedSerial.hpp ****       ~BufferedSerial() {
 582              		.loc 2 25 13 view .LVU163
 583              	.LBE146:
 584              	.LBE145:
 585              	.LBB147:
 586              	.LBI147:
  19:Lib/BufferedSerial/BufferedSerial.hpp ****           : _huart(huart),
 587              		.loc 2 19 7 is_stmt 1 view .LVU164
 588              	.LBB148:
  20:Lib/BufferedSerial/BufferedSerial.hpp ****             _rxBuf(new uint8_t[rxBufSize]),
 589              		.loc 2 20 13 is_stmt 0 view .LVU165
 590 0174 414B     		ldr	r3, .L26+32
 591 0176 C6F8C436 		str	r3, [r6, #1732]
  21:Lib/BufferedSerial/BufferedSerial.hpp ****             rxTop(0),
 592              		.loc 2 21 41 view .LVU166
 593 017a 4FF48070 		mov	r0, #256
 594              	.LEHB1:
 595 017e FFF7FEFF 		bl	_Znaj
 596              	.LVL39:
 597              	.LEHE1:
  21:Lib/BufferedSerial/BufferedSerial.hpp ****             rxTop(0),
 598              		.loc 2 21 13 view .LVU167
 599 0182 C6F8C806 		str	r0, [r6, #1736]
  22:Lib/BufferedSerial/BufferedSerial.hpp ****             rxBtm(0),
 600              		.loc 2 22 13 view .LVU168
 601 0186 A6F8CC56 		strh	r5, [r6, #1740]	@ movhi
  23:Lib/BufferedSerial/BufferedSerial.hpp ****             _rxBufSize(rxBufSize),
 602              		.loc 2 23 13 view .LVU169
 603 018a A6F8CE56 		strh	r5, [r6, #1742]	@ movhi
  24:Lib/BufferedSerial/BufferedSerial.hpp ****             _useDMA(false) {}
 604              		.loc 2 24 13 view .LVU170
 605 018e 4FF48070 		mov	r0, #256
 606 0192 A6F8D006 		strh	r0, [r6, #1744]	@ movhi
  25:Lib/BufferedSerial/BufferedSerial.hpp ****       ~BufferedSerial() {
 607              		.loc 2 25 13 view .LVU171
 608 0196 86F8D256 		strb	r5, [r6, #1746]
 609              	.LVL40:
  25:Lib/BufferedSerial/BufferedSerial.hpp ****       ~BufferedSerial() {
 610              		.loc 2 25 13 view .LVU172
 611              	.LBE148:
 612              	.LBE147:
 613              	.LBB149:
 614              	.LBI149:
  19:Lib/BufferedSerial/BufferedSerial.hpp ****           : _huart(huart),
 615              		.loc 2 19 7 is_stmt 1 view .LVU173
 616              	.LBB150:
  20:Lib/BufferedSerial/BufferedSerial.hpp ****             _rxBuf(new uint8_t[rxBufSize]),
 617              		.loc 2 20 13 is_stmt 0 view .LVU174
 618 019a 394A     		ldr	r2, .L26+36
 619 019c C6F8D426 		str	r2, [r6, #1748]
ARM GAS  /var/folders/5c/srt4fy4j1pd641bjfx75k5000000gn/T//ccgUJOj8.s 			page 15


 620              	.LEHB2:
  21:Lib/BufferedSerial/BufferedSerial.hpp ****             rxTop(0),
 621              		.loc 2 21 41 view .LVU175
 622 01a0 FFF7FEFF 		bl	_Znaj
 623              	.LVL41:
 624              	.LEHE2:
  21:Lib/BufferedSerial/BufferedSerial.hpp ****             rxTop(0),
 625              		.loc 2 21 13 view .LVU176
 626 01a4 C6F8D806 		str	r0, [r6, #1752]
  22:Lib/BufferedSerial/BufferedSerial.hpp ****             rxBtm(0),
 627              		.loc 2 22 13 view .LVU177
 628 01a8 A6F8DC56 		strh	r5, [r6, #1756]	@ movhi
  23:Lib/BufferedSerial/BufferedSerial.hpp ****             _rxBufSize(rxBufSize),
 629              		.loc 2 23 13 view .LVU178
 630 01ac A6F8DE56 		strh	r5, [r6, #1758]	@ movhi
  24:Lib/BufferedSerial/BufferedSerial.hpp ****             _useDMA(false) {}
 631              		.loc 2 24 13 view .LVU179
 632 01b0 4FF48070 		mov	r0, #256
 633 01b4 A6F8E006 		strh	r0, [r6, #1760]	@ movhi
  25:Lib/BufferedSerial/BufferedSerial.hpp ****       ~BufferedSerial() {
 634              		.loc 2 25 13 view .LVU180
 635 01b8 86F8E256 		strb	r5, [r6, #1762]
 636              	.LVL42:
  25:Lib/BufferedSerial/BufferedSerial.hpp ****       ~BufferedSerial() {
 637              		.loc 2 25 13 view .LVU181
 638              	.LBE150:
 639              	.LBE149:
 640              	.LBB151:
 641              	.LBI151:
  19:Lib/BufferedSerial/BufferedSerial.hpp ****           : _huart(huart),
 642              		.loc 2 19 7 is_stmt 1 view .LVU182
 643              	.LBB152:
  20:Lib/BufferedSerial/BufferedSerial.hpp ****             _rxBuf(new uint8_t[rxBufSize]),
 644              		.loc 2 20 13 is_stmt 0 view .LVU183
 645 01bc 314A     		ldr	r2, .L26+40
 646 01be C6F8E426 		str	r2, [r6, #1764]
 647              	.LEHB3:
  21:Lib/BufferedSerial/BufferedSerial.hpp ****             rxTop(0),
 648              		.loc 2 21 41 view .LVU184
 649 01c2 FFF7FEFF 		bl	_Znaj
 650              	.LVL43:
 651              	.LEHE3:
  21:Lib/BufferedSerial/BufferedSerial.hpp ****             rxTop(0),
 652              		.loc 2 21 13 view .LVU185
 653 01c6 C6F8E806 		str	r0, [r6, #1768]
  22:Lib/BufferedSerial/BufferedSerial.hpp ****             rxBtm(0),
 654              		.loc 2 22 13 view .LVU186
 655 01ca A6F8EC56 		strh	r5, [r6, #1772]	@ movhi
  23:Lib/BufferedSerial/BufferedSerial.hpp ****             _rxBufSize(rxBufSize),
 656              		.loc 2 23 13 view .LVU187
 657 01ce A6F8EE56 		strh	r5, [r6, #1774]	@ movhi
  24:Lib/BufferedSerial/BufferedSerial.hpp ****             _useDMA(false) {}
 658              		.loc 2 24 13 view .LVU188
 659 01d2 4FF48071 		mov	r1, #256
 660 01d6 A6F8F016 		strh	r1, [r6, #1776]	@ movhi
  25:Lib/BufferedSerial/BufferedSerial.hpp ****       ~BufferedSerial() {
 661              		.loc 2 25 13 view .LVU189
ARM GAS  /var/folders/5c/srt4fy4j1pd641bjfx75k5000000gn/T//ccgUJOj8.s 			page 16


 662 01da 86F8F256 		strb	r5, [r6, #1778]
 663              	.LVL44:
  25:Lib/BufferedSerial/BufferedSerial.hpp ****       ~BufferedSerial() {
 664              		.loc 2 25 13 view .LVU190
 665              	.LBE152:
 666              	.LBE151:
 667              		.loc 1 5 14 view .LVU191
 668 01de 04F5B750 		add	r0, r4, #5856
 669 01e2 1430     		adds	r0, r0, #20
 670              	.LEHB4:
 671 01e4 FFF7FEFF 		bl	_ZN5TimerC1Ev
 672              	.LVL45:
 673              		.loc 1 5 14 discriminator 4 view .LVU192
 674 01e8 04F5B750 		add	r0, r4, #5856
 675 01ec 1830     		adds	r0, r0, #24
 676 01ee FFF7FEFF 		bl	_ZN5TimerC1Ev
 677              	.LVL46:
 678              		.loc 1 5 14 discriminator 5 view .LVU193
 679 01f2 04F5B750 		add	r0, r4, #5856
 680 01f6 1C30     		adds	r0, r0, #28
 681 01f8 FFF7FEFF 		bl	_ZN5TimerC1Ev
 682              	.LVL47:
   6:src/unit/robot/robot.cpp ****       catch_front.SetLength(10);
 683              		.loc 1 6 7 is_stmt 1 view .LVU194
 684              		.loc 1 6 28 is_stmt 0 view .LVU195
 685 01fc 0A21     		movs	r1, #10
 686 01fe 04F5B850 		add	r0, r4, #5888
 687 0202 FFF7FEFF 		bl	_ZN9MovingAve9SetLengthEh
 688              	.LVL48:
   7:src/unit/robot/robot.cpp ****       catch_back.SetLength(10);
 689              		.loc 1 7 7 is_stmt 1 view .LVU196
 690              		.loc 1 7 27 is_stmt 0 view .LVU197
 691 0206 0A21     		movs	r1, #10
 692 0208 04F5D150 		add	r0, r4, #6688
 693 020c 1830     		adds	r0, r0, #24
 694 020e FFF7FEFF 		bl	_ZN9MovingAve9SetLengthEh
 695              	.LVL49:
 696              	.LEHE4:
 697 0212 20E0     		b	.L25
 698              	.L22:
 699              	.LVL50:
 700              	.LBB153:
 701              	.LBI153:
  26:Lib/BufferedSerial/BufferedSerial.hpp ****             delete[] _rxBuf;
 702              		.loc 2 26 7 is_stmt 1 view .LVU198
 703              	.LBB154:
  27:Lib/BufferedSerial/BufferedSerial.hpp ****       }
 704              		.loc 2 27 13 view .LVU199
  27:Lib/BufferedSerial/BufferedSerial.hpp ****       }
 705              		.loc 2 27 22 is_stmt 0 view .LVU200
 706 0214 04F58053 		add	r3, r4, #4096
 707 0218 D3F8E806 		ldr	r0, [r3, #1768]
  27:Lib/BufferedSerial/BufferedSerial.hpp ****       }
 708              		.loc 2 27 13 view .LVU201
 709 021c 08B1     		cbz	r0, .L13
  27:Lib/BufferedSerial/BufferedSerial.hpp ****       }
 710              		.loc 2 27 22 view .LVU202
ARM GAS  /var/folders/5c/srt4fy4j1pd641bjfx75k5000000gn/T//ccgUJOj8.s 			page 17


 711 021e FFF7FEFF 		bl	_ZdaPv
 712              	.LVL51:
 713              	.L13:
  27:Lib/BufferedSerial/BufferedSerial.hpp ****       }
 714              		.loc 2 27 22 view .LVU203
 715              	.LBE154:
 716              	.LBE153:
 717              	.LBB155:
 718              	.LBI155:
  26:Lib/BufferedSerial/BufferedSerial.hpp ****             delete[] _rxBuf;
 719              		.loc 2 26 7 is_stmt 1 view .LVU204
 720              	.LBB156:
  27:Lib/BufferedSerial/BufferedSerial.hpp ****       }
 721              		.loc 2 27 13 view .LVU205
  27:Lib/BufferedSerial/BufferedSerial.hpp ****       }
 722              		.loc 2 27 22 is_stmt 0 view .LVU206
 723 0222 04F58053 		add	r3, r4, #4096
 724 0226 D3F8D806 		ldr	r0, [r3, #1752]
  27:Lib/BufferedSerial/BufferedSerial.hpp ****       }
 725              		.loc 2 27 13 view .LVU207
 726 022a 08B1     		cbz	r0, .L15
  27:Lib/BufferedSerial/BufferedSerial.hpp ****       }
 727              		.loc 2 27 22 view .LVU208
 728 022c FFF7FEFF 		bl	_ZdaPv
 729              	.LVL52:
 730              	.L15:
  27:Lib/BufferedSerial/BufferedSerial.hpp ****       }
 731              		.loc 2 27 22 view .LVU209
 732              	.LBE156:
 733              	.LBE155:
 734              	.LBB157:
 735              	.LBI157:
  26:Lib/BufferedSerial/BufferedSerial.hpp ****             delete[] _rxBuf;
 736              		.loc 2 26 7 is_stmt 1 view .LVU210
 737              	.LBB158:
  27:Lib/BufferedSerial/BufferedSerial.hpp ****       }
 738              		.loc 2 27 13 view .LVU211
  27:Lib/BufferedSerial/BufferedSerial.hpp ****       }
 739              		.loc 2 27 22 is_stmt 0 view .LVU212
 740 0230 04F58053 		add	r3, r4, #4096
 741 0234 D3F8C806 		ldr	r0, [r3, #1736]
  27:Lib/BufferedSerial/BufferedSerial.hpp ****       }
 742              		.loc 2 27 13 view .LVU213
 743 0238 08B1     		cbz	r0, .L17
  27:Lib/BufferedSerial/BufferedSerial.hpp ****       }
 744              		.loc 2 27 22 view .LVU214
 745 023a FFF7FEFF 		bl	_ZdaPv
 746              	.LVL53:
 747              	.L17:
  27:Lib/BufferedSerial/BufferedSerial.hpp ****       }
 748              		.loc 2 27 22 view .LVU215
 749              	.LBE158:
 750              	.LBE157:
 751              	.LBB159:
 752              	.LBI159:
  26:Lib/BufferedSerial/BufferedSerial.hpp ****             delete[] _rxBuf;
 753              		.loc 2 26 7 is_stmt 1 view .LVU216
ARM GAS  /var/folders/5c/srt4fy4j1pd641bjfx75k5000000gn/T//ccgUJOj8.s 			page 18


 754              	.LBB160:
  27:Lib/BufferedSerial/BufferedSerial.hpp ****       }
 755              		.loc 2 27 13 view .LVU217
  27:Lib/BufferedSerial/BufferedSerial.hpp ****       }
 756              		.loc 2 27 22 is_stmt 0 view .LVU218
 757 023e 04F58054 		add	r4, r4, #4096
 758              	.LVL54:
  27:Lib/BufferedSerial/BufferedSerial.hpp ****       }
 759              		.loc 2 27 22 view .LVU219
 760 0242 D4F8B806 		ldr	r0, [r4, #1720]
  27:Lib/BufferedSerial/BufferedSerial.hpp ****       }
 761              		.loc 2 27 13 view .LVU220
 762 0246 08B1     		cbz	r0, .L18
  27:Lib/BufferedSerial/BufferedSerial.hpp ****       }
 763              		.loc 2 27 22 view .LVU221
 764 0248 FFF7FEFF 		bl	_ZdaPv
 765              	.LVL55:
 766              	.L18:
 767              	.LEHB5:
  27:Lib/BufferedSerial/BufferedSerial.hpp ****       }
 768              		.loc 2 27 22 view .LVU222
 769 024c FFF7FEFF 		bl	__cxa_end_cleanup
 770              	.LVL56:
 771              	.LEHE5:
 772              	.L21:
  27:Lib/BufferedSerial/BufferedSerial.hpp ****       }
 773              		.loc 2 27 22 view .LVU223
 774 0250 E7E7     		b	.L13
 775              	.LVL57:
 776              	.L20:
  27:Lib/BufferedSerial/BufferedSerial.hpp ****       }
 777              		.loc 2 27 22 view .LVU224
 778 0252 EDE7     		b	.L15
 779              	.LVL58:
 780              	.L19:
  27:Lib/BufferedSerial/BufferedSerial.hpp ****       }
 781              		.loc 2 27 22 view .LVU225
 782 0254 F3E7     		b	.L17
 783              	.LVL59:
 784              	.L25:
  27:Lib/BufferedSerial/BufferedSerial.hpp ****       }
 785              		.loc 2 27 22 view .LVU226
 786              	.LBE160:
 787              	.LBE159:
 788              	.LBE112:
   8:src/unit/robot/robot.cpp **** }
 789              		.loc 1 8 1 view .LVU227
 790 0256 2046     		mov	r0, r4
 791 0258 09B0     		add	sp, sp, #36
 792              	.LCFI4:
 793              		.cfi_def_cfa_offset 20
 794              		@ sp needed
 795 025a F0BD     		pop	{r4, r5, r6, r7, pc}
 796              	.LVL60:
 797              	.L27:
 798              		.loc 1 8 1 view .LVU228
 799              		.align	2
ARM GAS  /var/folders/5c/srt4fy4j1pd641bjfx75k5000000gn/T//ccgUJOj8.s 			page 19


 800              	.L26:
 801 025c 00000240 		.word	1073872896
 802 0260 00000000 		.word	htim13
 803 0264 00000000 		.word	htim12
 804 0268 00000000 		.word	htim2
 805 026c 00000000 		.word	htim3
 806 0270 00000000 		.word	htim4
 807 0274 00080240 		.word	1073874944
 808 0278 00000000 		.word	huart1
 809 027c 00000000 		.word	huart2
 810 0280 00000000 		.word	huart3
 811 0284 00000000 		.word	huart4
 812              		.cfi_endproc
 813              	.LFE273:
 814              		.global	__gxx_personality_v0
 815              		.personality	__gxx_personality_v0
 816              		.handlerdata
 817              	.LLSDA273:
 818 0008 FF       		.byte	0xff
 819 0009 FF       		.byte	0xff
 820 000a 01       		.byte	0x1
 821 000b 22       		.uleb128 .LLSDACSE273-.LLSDACSB273
 822              	.LLSDACSB273:
 823 000c 12       		.uleb128 .LEHB0-.LFB273
 824 000d CC02     		.uleb128 .LEHE0-.LEHB0
 825 000f 00       		.uleb128 0
 826 0010 00       		.uleb128 0
 827 0011 FE02     		.uleb128 .LEHB1-.LFB273
 828 0013 04       		.uleb128 .LEHE1-.LEHB1
 829 0014 D404     		.uleb128 .L19-.LFB273
 830 0016 00       		.uleb128 0
 831 0017 A003     		.uleb128 .LEHB2-.LFB273
 832 0019 04       		.uleb128 .LEHE2-.LEHB2
 833 001a D204     		.uleb128 .L20-.LFB273
 834 001c 00       		.uleb128 0
 835 001d C203     		.uleb128 .LEHB3-.LFB273
 836 001f 04       		.uleb128 .LEHE3-.LEHB3
 837 0020 D004     		.uleb128 .L21-.LFB273
 838 0022 00       		.uleb128 0
 839 0023 E403     		.uleb128 .LEHB4-.LFB273
 840 0025 2E       		.uleb128 .LEHE4-.LEHB4
 841 0026 9404     		.uleb128 .L22-.LFB273
 842 0028 00       		.uleb128 0
 843 0029 CC04     		.uleb128 .LEHB5-.LFB273
 844 002b 04       		.uleb128 .LEHE5-.LEHB5
 845 002c 00       		.uleb128 0
 846 002d 00       		.uleb128 0
 847              	.LLSDACSE273:
 848              		.section	.text._ZN5RobotC2Ev
 849              		.fnend
 851              		.global	_ZN5RobotC1Ev
 852              		.thumb_set _ZN5RobotC1Ev,_ZN5RobotC2Ev
 853              		.section	.text._ZN5Robot12HardwareInitEv,"ax",%progbits
 854              		.align	1
 855              		.global	_ZN5Robot12HardwareInitEv
 856              		.syntax unified
 857              		.thumb
ARM GAS  /var/folders/5c/srt4fy4j1pd641bjfx75k5000000gn/T//ccgUJOj8.s 			page 20


 858              		.thumb_func
 860              	_ZN5Robot12HardwareInitEv:
 861              		.fnstart
 862              	.LVL61:
 863              	.LFB275:
   9:src/unit/robot/robot.cpp **** 
  10:src/unit/robot/robot.cpp **** void Robot::HardwareInit() {
 864              		.loc 1 10 28 is_stmt 1 view -0
 865              		.cfi_startproc
 866              		@ args = 0, pretend = 0, frame = 0
 867              		@ frame_needed = 0, uses_anonymous_args = 0
 868              		.loc 1 10 28 is_stmt 0 view .LVU230
 869 0000 70B5     		push	{r4, r5, r6, lr}
 870              		.save {r4, r5, r6, lr}
 871              	.LCFI5:
 872              		.cfi_def_cfa_offset 16
 873              		.cfi_offset 4, -16
 874              		.cfi_offset 5, -12
 875              		.cfi_offset 6, -8
 876              		.cfi_offset 14, -4
 877 0002 0446     		mov	r4, r0
  11:src/unit/robot/robot.cpp ****       HAL_ADC_Start(&hadc1);
 878              		.loc 1 11 7 is_stmt 1 view .LVU231
 879              		.loc 1 11 20 is_stmt 0 view .LVU232
 880 0004 414D     		ldr	r5, .L32
 881 0006 2846     		mov	r0, r5
 882              	.LVL62:
 883              		.loc 1 11 20 view .LVU233
 884 0008 FFF7FEFF 		bl	HAL_ADC_Start
 885              	.LVL63:
  12:src/unit/robot/robot.cpp ****       HAL_ADC_Start_DMA(&hadc1, (uint32_t *)&adc_get_val, 3);
 886              		.loc 1 12 7 is_stmt 1 view .LVU234
 887              		.loc 1 12 24 is_stmt 0 view .LVU235
 888 000c 0322     		movs	r2, #3
 889 000e 4049     		ldr	r1, .L32+4
 890 0010 2846     		mov	r0, r5
 891 0012 FFF7FEFF 		bl	HAL_ADC_Start_DMA
 892              	.LVL64:
  13:src/unit/robot/robot.cpp ****       for (uint8_t i = 0; i < 3; i++) {
 893              		.loc 1 13 7 is_stmt 1 view .LVU236
 894              	.LBB161:
 895              		.loc 1 13 20 is_stmt 0 view .LVU237
 896 0016 0022     		movs	r2, #0
 897              		.loc 1 13 7 view .LVU238
 898 0018 06E0     		b	.L29
 899              	.LVL65:
 900              	.L30:
  14:src/unit/robot/robot.cpp ****             while (!(adc_get_val[i] > 0));
 901              		.loc 1 14 20 is_stmt 1 discriminator 1 view .LVU239
 902              		.loc 1 14 35 is_stmt 0 discriminator 1 view .LVU240
 903 001a 3D4B     		ldr	r3, .L32+4
 904 001c 33F81230 		ldrh	r3, [r3, r2, lsl #1]
 905              		.loc 1 14 20 discriminator 1 view .LVU241
 906 0020 002B     		cmp	r3, #0
 907 0022 FAD0     		beq	.L30
  13:src/unit/robot/robot.cpp ****       for (uint8_t i = 0; i < 3; i++) {
 908              		.loc 1 13 7 is_stmt 1 discriminator 2 view .LVU242
ARM GAS  /var/folders/5c/srt4fy4j1pd641bjfx75k5000000gn/T//ccgUJOj8.s 			page 21


 909 0024 0132     		adds	r2, r2, #1
 910              	.LVL66:
  13:src/unit/robot/robot.cpp ****       for (uint8_t i = 0; i < 3; i++) {
 911              		.loc 1 13 7 is_stmt 0 discriminator 2 view .LVU243
 912 0026 D2B2     		uxtb	r2, r2
 913              	.LVL67:
 914              	.L29:
  13:src/unit/robot/robot.cpp ****       for (uint8_t i = 0; i < 3; i++) {
 915              		.loc 1 13 29 is_stmt 1 discriminator 1 view .LVU244
 916 0028 022A     		cmp	r2, #2
 917 002a F6D9     		bls	.L30
 918              	.LBE161:
  15:src/unit/robot/robot.cpp ****       }
  16:src/unit/robot/robot.cpp **** 
  17:src/unit/robot/robot.cpp ****       // 諸々の初期化
  18:src/unit/robot/robot.cpp ****       serial1.init();
 919              		.loc 1 18 7 view .LVU245
 920              	.LVL68:
 921              	.LBB162:
 922              	.LBI162:
  30:Lib/BufferedSerial/BufferedSerial.hpp ****             _useDMA = dma;
 923              		.loc 2 30 12 view .LVU246
 924              	.LBB163:
  31:Lib/BufferedSerial/BufferedSerial.hpp ****             HAL_UART_Receive_DMA(_huart, _rxBuf, _rxBufSize);
 925              		.loc 2 31 13 view .LVU247
  31:Lib/BufferedSerial/BufferedSerial.hpp ****             HAL_UART_Receive_DMA(_huart, _rxBuf, _rxBufSize);
 926              		.loc 2 31 21 is_stmt 0 view .LVU248
 927 002c 04F58055 		add	r5, r4, #4096
 928 0030 0026     		movs	r6, #0
 929 0032 85F8C266 		strb	r6, [r5, #1730]
  32:Lib/BufferedSerial/BufferedSerial.hpp ****       }
 930              		.loc 2 32 13 is_stmt 1 view .LVU249
  32:Lib/BufferedSerial/BufferedSerial.hpp ****       }
 931              		.loc 2 32 33 is_stmt 0 view .LVU250
 932 0036 B5F8C026 		ldrh	r2, [r5, #1728]
 933              	.LVL69:
  32:Lib/BufferedSerial/BufferedSerial.hpp ****       }
 934              		.loc 2 32 33 view .LVU251
 935 003a D5F8B816 		ldr	r1, [r5, #1720]
 936 003e D5F8B406 		ldr	r0, [r5, #1716]
 937 0042 FFF7FEFF 		bl	HAL_UART_Receive_DMA
 938              	.LVL70:
  32:Lib/BufferedSerial/BufferedSerial.hpp ****       }
 939              		.loc 2 32 33 view .LVU252
 940              	.LBE163:
 941              	.LBE162:
  19:src/unit/robot/robot.cpp ****       serial2.init();
 942              		.loc 1 19 7 is_stmt 1 view .LVU253
 943              	.LBB164:
 944              	.LBI164:
  30:Lib/BufferedSerial/BufferedSerial.hpp ****             _useDMA = dma;
 945              		.loc 2 30 12 view .LVU254
 946              	.LBB165:
  31:Lib/BufferedSerial/BufferedSerial.hpp ****             HAL_UART_Receive_DMA(_huart, _rxBuf, _rxBufSize);
 947              		.loc 2 31 13 view .LVU255
  31:Lib/BufferedSerial/BufferedSerial.hpp ****             HAL_UART_Receive_DMA(_huart, _rxBuf, _rxBufSize);
 948              		.loc 2 31 21 is_stmt 0 view .LVU256
ARM GAS  /var/folders/5c/srt4fy4j1pd641bjfx75k5000000gn/T//ccgUJOj8.s 			page 22


 949 0046 85F8D266 		strb	r6, [r5, #1746]
  32:Lib/BufferedSerial/BufferedSerial.hpp ****       }
 950              		.loc 2 32 13 is_stmt 1 view .LVU257
  32:Lib/BufferedSerial/BufferedSerial.hpp ****       }
 951              		.loc 2 32 33 is_stmt 0 view .LVU258
 952 004a B5F8D026 		ldrh	r2, [r5, #1744]
 953 004e D5F8C816 		ldr	r1, [r5, #1736]
 954 0052 D5F8C406 		ldr	r0, [r5, #1732]
 955 0056 FFF7FEFF 		bl	HAL_UART_Receive_DMA
 956              	.LVL71:
  32:Lib/BufferedSerial/BufferedSerial.hpp ****       }
 957              		.loc 2 32 33 view .LVU259
 958              	.LBE165:
 959              	.LBE164:
  20:src/unit/robot/robot.cpp ****       serial3.init();
 960              		.loc 1 20 7 is_stmt 1 view .LVU260
 961              	.LBB166:
 962              	.LBI166:
  30:Lib/BufferedSerial/BufferedSerial.hpp ****             _useDMA = dma;
 963              		.loc 2 30 12 view .LVU261
 964              	.LBB167:
  31:Lib/BufferedSerial/BufferedSerial.hpp ****             HAL_UART_Receive_DMA(_huart, _rxBuf, _rxBufSize);
 965              		.loc 2 31 13 view .LVU262
  31:Lib/BufferedSerial/BufferedSerial.hpp ****             HAL_UART_Receive_DMA(_huart, _rxBuf, _rxBufSize);
 966              		.loc 2 31 21 is_stmt 0 view .LVU263
 967 005a 85F8E266 		strb	r6, [r5, #1762]
  32:Lib/BufferedSerial/BufferedSerial.hpp ****       }
 968              		.loc 2 32 13 is_stmt 1 view .LVU264
  32:Lib/BufferedSerial/BufferedSerial.hpp ****       }
 969              		.loc 2 32 33 is_stmt 0 view .LVU265
 970 005e B5F8E026 		ldrh	r2, [r5, #1760]
 971 0062 D5F8D816 		ldr	r1, [r5, #1752]
 972 0066 D5F8D406 		ldr	r0, [r5, #1748]
 973 006a FFF7FEFF 		bl	HAL_UART_Receive_DMA
 974              	.LVL72:
  32:Lib/BufferedSerial/BufferedSerial.hpp ****       }
 975              		.loc 2 32 33 view .LVU266
 976              	.LBE167:
 977              	.LBE166:
  21:src/unit/robot/robot.cpp ****       serial4.init();
 978              		.loc 1 21 7 is_stmt 1 view .LVU267
 979              	.LBB168:
 980              	.LBI168:
  30:Lib/BufferedSerial/BufferedSerial.hpp ****             _useDMA = dma;
 981              		.loc 2 30 12 view .LVU268
 982              	.LBB169:
  31:Lib/BufferedSerial/BufferedSerial.hpp ****             HAL_UART_Receive_DMA(_huart, _rxBuf, _rxBufSize);
 983              		.loc 2 31 13 view .LVU269
  31:Lib/BufferedSerial/BufferedSerial.hpp ****             HAL_UART_Receive_DMA(_huart, _rxBuf, _rxBufSize);
 984              		.loc 2 31 21 is_stmt 0 view .LVU270
 985 006e 85F8F266 		strb	r6, [r5, #1778]
  32:Lib/BufferedSerial/BufferedSerial.hpp ****       }
 986              		.loc 2 32 13 is_stmt 1 view .LVU271
  32:Lib/BufferedSerial/BufferedSerial.hpp ****       }
 987              		.loc 2 32 33 is_stmt 0 view .LVU272
 988 0072 B5F8F026 		ldrh	r2, [r5, #1776]
 989 0076 D5F8E816 		ldr	r1, [r5, #1768]
ARM GAS  /var/folders/5c/srt4fy4j1pd641bjfx75k5000000gn/T//ccgUJOj8.s 			page 23


 990 007a D5F8E406 		ldr	r0, [r5, #1764]
 991 007e FFF7FEFF 		bl	HAL_UART_Receive_DMA
 992              	.LVL73:
  32:Lib/BufferedSerial/BufferedSerial.hpp ****       }
 993              		.loc 2 32 33 view .LVU273
 994              	.LBE169:
 995              	.LBE168:
  22:src/unit/robot/robot.cpp ****       ledh.init();
 996              		.loc 1 22 7 is_stmt 1 view .LVU274
 997              		.loc 1 22 16 is_stmt 0 view .LVU275
 998 0082 04F14C00 		add	r0, r4, #76
 999 0086 FFF7FEFF 		bl	_ZN12PwmSingleOut4initEv
 1000              	.LVL74:
  23:src/unit/robot/robot.cpp ****       motor1a.init();
 1001              		.loc 1 23 7 is_stmt 1 view .LVU276
 1002              		.loc 1 23 19 is_stmt 0 view .LVU277
 1003 008a 04F15C00 		add	r0, r4, #92
 1004 008e FFF7FEFF 		bl	_ZN12PwmSingleOut4initEv
 1005              	.LVL75:
  24:src/unit/robot/robot.cpp ****       motor1b.init();
 1006              		.loc 1 24 7 is_stmt 1 view .LVU278
 1007              		.loc 1 24 19 is_stmt 0 view .LVU279
 1008 0092 04F16C00 		add	r0, r4, #108
 1009 0096 FFF7FEFF 		bl	_ZN12PwmSingleOut4initEv
 1010              	.LVL76:
  25:src/unit/robot/robot.cpp ****       motor2a.init();
 1011              		.loc 1 25 7 is_stmt 1 view .LVU280
 1012              		.loc 1 25 19 is_stmt 0 view .LVU281
 1013 009a 04F17C00 		add	r0, r4, #124
 1014 009e FFF7FEFF 		bl	_ZN12PwmSingleOut4initEv
 1015              	.LVL77:
  26:src/unit/robot/robot.cpp ****       motor2b.init();
 1016              		.loc 1 26 7 is_stmt 1 view .LVU282
 1017              		.loc 1 26 19 is_stmt 0 view .LVU283
 1018 00a2 04F18C00 		add	r0, r4, #140
 1019 00a6 FFF7FEFF 		bl	_ZN12PwmSingleOut4initEv
 1020              	.LVL78:
  27:src/unit/robot/robot.cpp ****       motor3a.init();
 1021              		.loc 1 27 7 is_stmt 1 view .LVU284
 1022              		.loc 1 27 19 is_stmt 0 view .LVU285
 1023 00aa 04F19C00 		add	r0, r4, #156
 1024 00ae FFF7FEFF 		bl	_ZN12PwmSingleOut4initEv
 1025              	.LVL79:
  28:src/unit/robot/robot.cpp ****       motor3b.init();
 1026              		.loc 1 28 7 is_stmt 1 view .LVU286
 1027              		.loc 1 28 19 is_stmt 0 view .LVU287
 1028 00b2 04F1AC00 		add	r0, r4, #172
 1029 00b6 FFF7FEFF 		bl	_ZN12PwmSingleOut4initEv
 1030              	.LVL80:
  29:src/unit/robot/robot.cpp ****       motor4a.init();
 1031              		.loc 1 29 7 is_stmt 1 view .LVU288
 1032              		.loc 1 29 19 is_stmt 0 view .LVU289
 1033 00ba 04F1BC00 		add	r0, r4, #188
 1034 00be FFF7FEFF 		bl	_ZN12PwmSingleOut4initEv
 1035              	.LVL81:
  30:src/unit/robot/robot.cpp ****       motor4b.init();
 1036              		.loc 1 30 7 is_stmt 1 view .LVU290
ARM GAS  /var/folders/5c/srt4fy4j1pd641bjfx75k5000000gn/T//ccgUJOj8.s 			page 24


 1037              		.loc 1 30 19 is_stmt 0 view .LVU291
 1038 00c2 04F1CC00 		add	r0, r4, #204
 1039 00c6 FFF7FEFF 		bl	_ZN12PwmSingleOut4initEv
 1040              	.LVL82:
  31:src/unit/robot/robot.cpp ****       dribbler_front_a.init();
 1041              		.loc 1 31 7 is_stmt 1 view .LVU292
 1042              		.loc 1 31 28 is_stmt 0 view .LVU293
 1043 00ca 04F1DC00 		add	r0, r4, #220
 1044 00ce FFF7FEFF 		bl	_ZN12PwmSingleOut4initEv
 1045              	.LVL83:
  32:src/unit/robot/robot.cpp ****       dribbler_front_b.init();
 1046              		.loc 1 32 7 is_stmt 1 view .LVU294
 1047              		.loc 1 32 28 is_stmt 0 view .LVU295
 1048 00d2 04F1EC00 		add	r0, r4, #236
 1049 00d6 FFF7FEFF 		bl	_ZN12PwmSingleOut4initEv
 1050              	.LVL84:
  33:src/unit/robot/robot.cpp ****       dribbler_back_a.init();
 1051              		.loc 1 33 7 is_stmt 1 view .LVU296
 1052              		.loc 1 33 27 is_stmt 0 view .LVU297
 1053 00da 04F1FC00 		add	r0, r4, #252
 1054 00de FFF7FEFF 		bl	_ZN12PwmSingleOut4initEv
 1055              	.LVL85:
  34:src/unit/robot/robot.cpp ****       dribbler_back_b.init();
 1056              		.loc 1 34 7 is_stmt 1 view .LVU298
 1057              		.loc 1 34 27 is_stmt 0 view .LVU299
 1058 00e2 04F58670 		add	r0, r4, #268
 1059 00e6 FFF7FEFF 		bl	_ZN12PwmSingleOut4initEv
 1060              	.LVL86:
  35:src/unit/robot/robot.cpp **** 
  36:src/unit/robot/robot.cpp ****       // 接続確認
  37:src/unit/robot/robot.cpp ****       motor.CheckConnection();
 1061              		.loc 1 37 7 is_stmt 1 view .LVU300
 1062              		.loc 1 37 28 is_stmt 0 view .LVU301
 1063 00ea 04F59870 		add	r0, r4, #304
 1064 00ee FFF7FEFF 		bl	_ZN10MotorDrive15CheckConnectionEv
 1065              	.LVL87:
  38:src/unit/robot/robot.cpp ****       HAL_Delay(200);
 1066              		.loc 1 38 7 is_stmt 1 view .LVU302
 1067              		.loc 1 38 16 is_stmt 0 view .LVU303
 1068 00f2 C820     		movs	r0, #200
 1069 00f4 FFF7FEFF 		bl	HAL_Delay
 1070              	.LVL88:
  39:src/unit/robot/robot.cpp ****       dribbler_front.CheckConnection();
 1071              		.loc 1 39 7 is_stmt 1 view .LVU304
 1072              		.loc 1 39 37 is_stmt 0 view .LVU305
 1073 00f8 04F58150 		add	r0, r4, #4128
 1074 00fc FFF7FEFF 		bl	_ZN13DribblerDrive15CheckConnectionEv
 1075              	.LVL89:
  40:src/unit/robot/robot.cpp ****       dribbler_back.CheckConnection();
 1076              		.loc 1 40 7 is_stmt 1 view .LVU306
 1077              		.loc 1 40 36 is_stmt 0 view .LVU307
 1078 0100 04F59B50 		add	r0, r4, #4960
 1079 0104 FFF7FEFF 		bl	_ZN13DribblerDrive15CheckConnectionEv
 1080              	.LVL90:
  41:src/unit/robot/robot.cpp **** }
 1081              		.loc 1 41 1 view .LVU308
 1082 0108 70BD     		pop	{r4, r5, r6, pc}
ARM GAS  /var/folders/5c/srt4fy4j1pd641bjfx75k5000000gn/T//ccgUJOj8.s 			page 25


 1083              	.LVL91:
 1084              	.L33:
 1085              		.loc 1 41 1 view .LVU309
 1086 010a 00BF     		.align	2
 1087              	.L32:
 1088 010c 00000000 		.word	hadc1
 1089 0110 00000000 		.word	adc_get_val
 1090              		.cfi_endproc
 1091              	.LFE275:
 1092              		.fnend
 1094              		.global	__aeabi_i2d
 1095              		.global	__aeabi_dmul
 1096              		.global	__aeabi_d2f
 1097              		.global	__aeabi_f2d
 1098              		.global	__aeabi_dadd
 1099              		.global	__aeabi_ui2d
 1100              		.global	__aeabi_d2uiz
 1101              		.section	.text._ZN5Robot10GetSensorsEv,"ax",%progbits
 1102              		.align	1
 1103              		.global	_ZN5Robot10GetSensorsEv
 1104              		.syntax unified
 1105              		.thumb
 1106              		.thumb_func
 1108              	_ZN5Robot10GetSensorsEv:
 1109              		.fnstart
 1110              	.LVL92:
 1111              	.LFB276:
  42:src/unit/robot/robot.cpp **** 
  43:src/unit/robot/robot.cpp **** void Robot::GetSensors() {
 1112              		.loc 1 43 26 is_stmt 1 view -0
 1113              		.cfi_startproc
 1114              		@ args = 0, pretend = 0, frame = 0
 1115              		@ frame_needed = 0, uses_anonymous_args = 0
 1116              		.loc 1 43 26 is_stmt 0 view .LVU311
 1117 0000 2DE97043 		push	{r4, r5, r6, r8, r9, lr}
 1118              		.save {r4, r5, r6, r8, r9, lr}
 1119              	.LCFI6:
 1120              		.cfi_def_cfa_offset 24
 1121              		.cfi_offset 4, -24
 1122              		.cfi_offset 5, -20
 1123              		.cfi_offset 6, -16
 1124              		.cfi_offset 8, -12
 1125              		.cfi_offset 9, -8
 1126              		.cfi_offset 14, -4
 1127 0004 0446     		mov	r4, r0
  44:src/unit/robot/robot.cpp ****       static float pre_voltage = 9.6;
 1128              		.loc 1 44 7 is_stmt 1 view .LVU312
  45:src/unit/robot/robot.cpp ****       info.voltage = adc_get_val[0] * VOLTAGE_CONVERTION;
 1129              		.loc 1 45 7 view .LVU313
 1130              		.loc 1 45 35 is_stmt 0 view .LVU314
 1131 0006 364E     		ldr	r6, .L36+24
 1132              		.loc 1 45 37 view .LVU315
 1133 0008 3088     		ldrh	r0, [r6]
 1134              	.LVL93:
 1135              		.loc 1 45 37 view .LVU316
 1136 000a FFF7FEFF 		bl	__aeabi_i2d
 1137              	.LVL94:
ARM GAS  /var/folders/5c/srt4fy4j1pd641bjfx75k5000000gn/T//ccgUJOj8.s 			page 26


 1138 000e 2EA3     		adr	r3, .L36
 1139 0010 D3E90023 		ldrd	r2, [r3]
 1140 0014 FFF7FEFF 		bl	__aeabi_dmul
 1141              	.LVL95:
 1142 0018 FFF7FEFF 		bl	__aeabi_d2f
 1143              	.LVL96:
 1144              		.loc 1 45 20 view .LVU317
 1145 001c 2060     		str	r0, [r4]	@ float
  46:src/unit/robot/robot.cpp ****       info.voltage = info.voltage * (1 - VOLTAGE_RC) + pre_voltage * VOLTAGE_RC;
 1146              		.loc 1 46 7 is_stmt 1 view .LVU318
 1147              		.loc 1 46 27 is_stmt 0 view .LVU319
 1148 001e FFF7FEFF 		bl	__aeabi_f2d
 1149              	.LVL97:
 1150              		.loc 1 46 35 view .LVU320
 1151 0022 2BA3     		adr	r3, .L36+8
 1152 0024 D3E90023 		ldrd	r2, [r3]
 1153 0028 FFF7FEFF 		bl	__aeabi_dmul
 1154              	.LVL98:
 1155 002c 8046     		mov	r8, r0
 1156 002e 8946     		mov	r9, r1
 1157              		.loc 1 46 56 view .LVU321
 1158 0030 2C4D     		ldr	r5, .L36+28
 1159 0032 2868     		ldr	r0, [r5]	@ float
 1160 0034 FFF7FEFF 		bl	__aeabi_f2d
 1161              	.LVL99:
 1162              		.loc 1 46 68 view .LVU322
 1163 0038 27A3     		adr	r3, .L36+16
 1164 003a D3E90023 		ldrd	r2, [r3]
 1165 003e FFF7FEFF 		bl	__aeabi_dmul
 1166              	.LVL100:
 1167 0042 0246     		mov	r2, r0
 1168 0044 0B46     		mov	r3, r1
 1169              		.loc 1 46 54 view .LVU323
 1170 0046 4046     		mov	r0, r8
 1171 0048 4946     		mov	r1, r9
 1172 004a FFF7FEFF 		bl	__aeabi_dadd
 1173              	.LVL101:
 1174 004e FFF7FEFF 		bl	__aeabi_d2f
 1175              	.LVL102:
 1176              		.loc 1 46 20 view .LVU324
 1177 0052 2060     		str	r0, [r4]	@ float
  47:src/unit/robot/robot.cpp ****       pre_voltage = info.voltage;
 1178              		.loc 1 47 7 is_stmt 1 view .LVU325
 1179              		.loc 1 47 19 is_stmt 0 view .LVU326
 1180 0054 2860     		str	r0, [r5]	@ float
  48:src/unit/robot/robot.cpp **** 
  49:src/unit/robot/robot.cpp ****       catch_front.Compute(adc_get_val[1]);
 1181              		.loc 1 49 7 is_stmt 1 view .LVU327
 1182              		.loc 1 49 26 is_stmt 0 view .LVU328
 1183 0056 04F5B858 		add	r8, r4, #5888
 1184 005a 7088     		ldrh	r0, [r6, #2]
 1185 005c FFF7FEFF 		bl	__aeabi_ui2d
 1186              	.LVL103:
 1187 0060 41EC100B 		vmov	d0, r0, r1
 1188 0064 4046     		mov	r0, r8
 1189 0066 FFF7FEFF 		bl	_ZN9MovingAve7ComputeEd
 1190              	.LVL104:
ARM GAS  /var/folders/5c/srt4fy4j1pd641bjfx75k5000000gn/T//ccgUJOj8.s 			page 27


  50:src/unit/robot/robot.cpp ****       catch_back.Compute(adc_get_val[2]);
 1191              		.loc 1 50 7 is_stmt 1 view .LVU329
 1192              		.loc 1 50 25 is_stmt 0 view .LVU330
 1193 006a 04F5D155 		add	r5, r4, #6688
 1194 006e 1835     		adds	r5, r5, #24
 1195 0070 B088     		ldrh	r0, [r6, #4]
 1196 0072 FFF7FEFF 		bl	__aeabi_ui2d
 1197              	.LVL105:
 1198 0076 41EC100B 		vmov	d0, r0, r1
 1199 007a 2846     		mov	r0, r5
 1200 007c FFF7FEFF 		bl	_ZN9MovingAve7ComputeEd
 1201              	.LVL106:
  51:src/unit/robot/robot.cpp ****       info.Catch.front_val = catch_front.Get();
 1202              		.loc 1 51 7 is_stmt 1 view .LVU331
 1203              		.loc 1 51 45 is_stmt 0 view .LVU332
 1204 0080 4046     		mov	r0, r8
 1205 0082 FFF7FEFF 		bl	_ZN9MovingAve3GetEv
 1206              	.LVL107:
 1207 0086 51EC100B 		vmov	r0, r1, d0
 1208              		.loc 1 51 28 view .LVU333
 1209 008a FFF7FEFF 		bl	__aeabi_d2uiz
 1210              	.LVL108:
 1211 008e 2084     		strh	r0, [r4, #32]	@ movhi
  52:src/unit/robot/robot.cpp ****       info.Catch.back_val = catch_back.Get();
 1212              		.loc 1 52 7 is_stmt 1 view .LVU334
 1213              		.loc 1 52 43 is_stmt 0 view .LVU335
 1214 0090 2846     		mov	r0, r5
 1215 0092 FFF7FEFF 		bl	_ZN9MovingAve3GetEv
 1216              	.LVL109:
 1217 0096 51EC100B 		vmov	r0, r1, d0
 1218              		.loc 1 52 27 view .LVU336
 1219 009a FFF7FEFF 		bl	__aeabi_d2uiz
 1220              	.LVL110:
 1221 009e 80B2     		uxth	r0, r0
 1222 00a0 A084     		strh	r0, [r4, #36]	@ movhi
  53:src/unit/robot/robot.cpp **** 
  54:src/unit/robot/robot.cpp ****       info.Catch.is_front = info.Catch.front_val < CATCH_FRONT_TH ? 1 : 0;
 1223              		.loc 1 54 7 is_stmt 1 view .LVU337
 1224              		.loc 1 54 40 is_stmt 0 view .LVU338
 1225 00a2 238C     		ldrh	r3, [r4, #32]
 1226              		.loc 1 54 67 view .LVU339
 1227 00a4 40F2F312 		movw	r2, #499
 1228 00a8 9342     		cmp	r3, r2
 1229 00aa 8CBF     		ite	hi
 1230 00ac 0023     		movhi	r3, #0
 1231 00ae 0123     		movls	r3, #1
 1232              		.loc 1 54 27 view .LVU340
 1233 00b0 84F82230 		strb	r3, [r4, #34]
  55:src/unit/robot/robot.cpp ****       info.Catch.is_back = info.Catch.back_val < CATCH_BACK_TH ? 1 : 0;
 1234              		.loc 1 55 7 is_stmt 1 view .LVU341
 1235              		.loc 1 55 64 is_stmt 0 view .LVU342
 1236 00b4 9042     		cmp	r0, r2
 1237 00b6 8CBF     		ite	hi
 1238 00b8 0020     		movhi	r0, #0
 1239 00ba 0120     		movls	r0, #1
 1240              		.loc 1 55 26 view .LVU343
 1241 00bc 84F82600 		strb	r0, [r4, #38]
ARM GAS  /var/folders/5c/srt4fy4j1pd641bjfx75k5000000gn/T//ccgUJOj8.s 			page 28


  56:src/unit/robot/robot.cpp **** }
 1242              		.loc 1 56 1 view .LVU344
 1243 00c0 BDE87083 		pop	{r4, r5, r6, r8, r9, pc}
 1244              	.LVL111:
 1245              	.L37:
 1246              		.loc 1 56 1 view .LVU345
 1247 00c4 AFF30080 		.align	3
 1248              	.L36:
 1249 00c8 9A999999 		.word	-1717986918
 1250 00cc 99998A3F 		.word	1066047897
 1251 00d0 00AAF1D2 		.word	-755914240
 1252 00d4 4D62503F 		.word	1062232653
 1253 00d8 2B8716D9 		.word	-652835029
 1254 00dc CEF7EF3F 		.word	1072691150
 1255 00e0 00000000 		.word	adc_get_val
 1256 00e4 00000000 		.word	_ZZN5Robot10GetSensorsEvE11pre_voltage
 1257              		.cfi_endproc
 1258              	.LFE276:
 1259              		.fnend
 1261              		.global	__aeabi_dsub
 1262              		.global	__aeabi_d2iz
 1263              		.section	.text._ZN5Robot7ImuUartEv,"ax",%progbits
 1264              		.align	1
 1265              		.global	_ZN5Robot7ImuUartEv
 1266              		.syntax unified
 1267              		.thumb
 1268              		.thumb_func
 1270              	_ZN5Robot7ImuUartEv:
 1271              		.fnstart
 1272              	.LVL112:
 1273              	.LFB277:
  57:src/unit/robot/robot.cpp **** 
  58:src/unit/robot/robot.cpp **** void Robot::ImuUart() {
 1274              		.loc 1 58 23 is_stmt 1 view -0
 1275              		.cfi_startproc
 1276              		@ args = 0, pretend = 0, frame = 0
 1277              		@ frame_needed = 0, uses_anonymous_args = 0
 1278              		.loc 1 58 23 is_stmt 0 view .LVU347
 1279 0000 38B5     		push	{r3, r4, r5, lr}
 1280              		.save {r3, r4, r5, lr}
 1281              	.LCFI7:
 1282              		.cfi_def_cfa_offset 16
 1283              		.cfi_offset 3, -16
 1284              		.cfi_offset 4, -12
 1285              		.cfi_offset 5, -8
 1286              		.cfi_offset 14, -4
 1287 0002 0546     		mov	r5, r0
  59:src/unit/robot/robot.cpp ****       while (serial1.available()) {
 1288              		.loc 1 59 7 is_stmt 1 view .LVU348
 1289 0004 0BE0     		b	.L39
 1290              	.LVL113:
 1291              	.L49:
 1292              	.LBB170:
  60:src/unit/robot/robot.cpp ****             static const uint8_t HEADER = 0xFF;  // ヘッダ
  61:src/unit/robot/robot.cpp ****             static const uint8_t FOOTER = 0xAA;  // ヘッダ
  62:src/unit/robot/robot.cpp ****             static const uint8_t dataSize = 6;   // データのサイズ
  63:src/unit/robot/robot.cpp ****             static uint8_t index = 0;            // 受信したデータのインデックスカ
ARM GAS  /var/folders/5c/srt4fy4j1pd641bjfx75k5000000gn/T//ccgUJOj8.s 			page 29


  64:src/unit/robot/robot.cpp ****             static uint8_t recv_data[dataSize];  // 受信したデータ
  65:src/unit/robot/robot.cpp ****             static uint8_t recv_byte;
  66:src/unit/robot/robot.cpp **** 
  67:src/unit/robot/robot.cpp ****             recv_byte = serial1.read();
  68:src/unit/robot/robot.cpp ****             if (index == 0) {
  69:src/unit/robot/robot.cpp ****                   if (recv_byte == HEADER) {
  70:src/unit/robot/robot.cpp ****                         index++;
 1293              		.loc 1 70 25 view .LVU349
 1294              		.loc 1 70 30 is_stmt 0 view .LVU350
 1295 0006 0133     		adds	r3, r3, #1
 1296 0008 334A     		ldr	r2, .L51+8
 1297 000a 1370     		strb	r3, [r2]
 1298 000c 07E0     		b	.L39
 1299              	.L40:
  71:src/unit/robot/robot.cpp ****                   } else {
  72:src/unit/robot/robot.cpp ****                         index = 0;
  73:src/unit/robot/robot.cpp ****                   }
  74:src/unit/robot/robot.cpp ****             } else if (index == (dataSize + 1)) {
 1300              		.loc 1 74 20 is_stmt 1 view .LVU351
 1301 000e 072B     		cmp	r3, #7
 1302 0010 1CD0     		beq	.L47
  75:src/unit/robot/robot.cpp ****                   if (recv_byte == FOOTER) {
  76:src/unit/robot/robot.cpp ****                         info.Imu.yaw = ((((uint16_t)recv_data[0] << 8) & 0xFF00) | ((int16_t)recv_d
  77:src/unit/robot/robot.cpp ****                         info.Imu.pitch = ((((uint16_t)recv_data[2] << 8) & 0xFF00) | ((int16_t)recv
  78:src/unit/robot/robot.cpp ****                         info.Imu.roll = ((((uint16_t)recv_data[4] << 8) & 0xFF00) | ((int16_t)recv_
  79:src/unit/robot/robot.cpp ****                   }
  80:src/unit/robot/robot.cpp ****                   index = 0;
  81:src/unit/robot/robot.cpp ****             } else {
  82:src/unit/robot/robot.cpp ****                   recv_data[index - 1] = recv_byte;
 1303              		.loc 1 82 19 view .LVU352
 1304              		.loc 1 82 35 is_stmt 0 view .LVU353
 1305 0012 5A1E     		subs	r2, r3, #1
 1306              		.loc 1 82 40 view .LVU354
 1307 0014 3149     		ldr	r1, .L51+12
 1308 0016 8854     		strb	r0, [r1, r2]
  83:src/unit/robot/robot.cpp ****                   index++;
 1309              		.loc 1 83 19 is_stmt 1 view .LVU355
 1310              		.loc 1 83 24 is_stmt 0 view .LVU356
 1311 0018 0133     		adds	r3, r3, #1
 1312 001a 2F4A     		ldr	r2, .L51+8
 1313 001c 1370     		strb	r3, [r2]
 1314              	.L39:
 1315              		.loc 1 83 24 view .LVU357
 1316              	.LBE170:
  59:src/unit/robot/robot.cpp ****             static const uint8_t HEADER = 0xFF;  // ヘッダ
 1317              		.loc 1 59 31 is_stmt 1 view .LVU358
 1318 001e 05F5B554 		add	r4, r5, #5792
 1319 0022 1434     		adds	r4, r4, #20
 1320 0024 2046     		mov	r0, r4
 1321 0026 FFF7FEFF 		bl	_ZN14BufferedSerial9availableEv
 1322              	.LVL114:
 1323 002a 0028     		cmp	r0, #0
 1324 002c 4CD0     		beq	.L48
 1325              	.LBB171:
  60:src/unit/robot/robot.cpp ****             static const uint8_t FOOTER = 0xAA;  // ヘッダ
 1326              		.loc 1 60 13 view .LVU359
  61:src/unit/robot/robot.cpp ****             static const uint8_t dataSize = 6;   // データのサイズ
ARM GAS  /var/folders/5c/srt4fy4j1pd641bjfx75k5000000gn/T//ccgUJOj8.s 			page 30


 1327              		.loc 1 61 13 view .LVU360
  62:src/unit/robot/robot.cpp ****             static uint8_t index = 0;            // 受信したデータのインデックスカ
 1328              		.loc 1 62 13 view .LVU361
  63:src/unit/robot/robot.cpp ****             static uint8_t recv_data[dataSize];  // 受信したデータ
 1329              		.loc 1 63 13 view .LVU362
  64:src/unit/robot/robot.cpp ****             static uint8_t recv_byte;
 1330              		.loc 1 64 13 view .LVU363
  65:src/unit/robot/robot.cpp **** 
 1331              		.loc 1 65 13 view .LVU364
  67:src/unit/robot/robot.cpp ****             if (index == 0) {
 1332              		.loc 1 67 13 view .LVU365
  67:src/unit/robot/robot.cpp ****             if (index == 0) {
 1333              		.loc 1 67 37 is_stmt 0 view .LVU366
 1334 002e 2046     		mov	r0, r4
 1335 0030 FFF7FEFF 		bl	_ZN14BufferedSerial4readEv
 1336              	.LVL115:
  67:src/unit/robot/robot.cpp ****             if (index == 0) {
 1337              		.loc 1 67 23 view .LVU367
 1338 0034 2A4B     		ldr	r3, .L51+16
 1339 0036 1870     		strb	r0, [r3]
  68:src/unit/robot/robot.cpp ****                   if (recv_byte == HEADER) {
 1340              		.loc 1 68 13 is_stmt 1 view .LVU368
  68:src/unit/robot/robot.cpp ****                   if (recv_byte == HEADER) {
 1341              		.loc 1 68 23 is_stmt 0 view .LVU369
 1342 0038 274B     		ldr	r3, .L51+8
 1343 003a 1B78     		ldrb	r3, [r3]	@ zero_extendqisi2
  68:src/unit/robot/robot.cpp ****                   if (recv_byte == HEADER) {
 1344              		.loc 1 68 13 view .LVU370
 1345 003c 002B     		cmp	r3, #0
 1346 003e E6D1     		bne	.L40
  69:src/unit/robot/robot.cpp ****                         index++;
 1347              		.loc 1 69 19 is_stmt 1 view .LVU371
 1348 0040 FF28     		cmp	r0, #255
 1349 0042 E0D0     		beq	.L49
  72:src/unit/robot/robot.cpp ****                   }
 1350              		.loc 1 72 25 view .LVU372
  72:src/unit/robot/robot.cpp ****                   }
 1351              		.loc 1 72 31 is_stmt 0 view .LVU373
 1352 0044 244B     		ldr	r3, .L51+8
 1353 0046 0022     		movs	r2, #0
 1354 0048 1A70     		strb	r2, [r3]
 1355 004a E8E7     		b	.L39
 1356              	.L47:
  75:src/unit/robot/robot.cpp ****                         info.Imu.yaw = ((((uint16_t)recv_data[0] << 8) & 0xFF00) | ((int16_t)recv_d
 1357              		.loc 1 75 19 is_stmt 1 view .LVU374
 1358 004c AA28     		cmp	r0, #170
 1359 004e 03D0     		beq	.L50
 1360              	.L44:
  80:src/unit/robot/robot.cpp ****             } else {
 1361              		.loc 1 80 19 view .LVU375
  80:src/unit/robot/robot.cpp ****             } else {
 1362              		.loc 1 80 25 is_stmt 0 view .LVU376
 1363 0050 214B     		ldr	r3, .L51+8
 1364 0052 0022     		movs	r2, #0
 1365 0054 1A70     		strb	r2, [r3]
 1366 0056 E2E7     		b	.L39
 1367              	.L50:
ARM GAS  /var/folders/5c/srt4fy4j1pd641bjfx75k5000000gn/T//ccgUJOj8.s 			page 31


  76:src/unit/robot/robot.cpp ****                         info.Imu.pitch = ((((uint16_t)recv_data[2] << 8) & 0xFF00) | ((int16_t)recv
 1368              		.loc 1 76 25 is_stmt 1 view .LVU377
  76:src/unit/robot/robot.cpp ****                         info.Imu.pitch = ((((uint16_t)recv_data[2] << 8) & 0xFF00) | ((int16_t)recv
 1369              		.loc 1 76 64 is_stmt 0 view .LVU378
 1370 0058 204C     		ldr	r4, .L51+12
 1371 005a 2078     		ldrb	r0, [r4]	@ zero_extendqisi2
  76:src/unit/robot/robot.cpp ****                         info.Imu.pitch = ((((uint16_t)recv_data[2] << 8) & 0xFF00) | ((int16_t)recv
 1372              		.loc 1 76 105 view .LVU379
 1373 005c 6378     		ldrb	r3, [r4, #1]	@ zero_extendqisi2
  76:src/unit/robot/robot.cpp ****                         info.Imu.pitch = ((((uint16_t)recv_data[2] << 8) & 0xFF00) | ((int16_t)recv
 1374              		.loc 1 76 118 view .LVU380
 1375 005e 43EA0020 		orr	r0, r3, r0, lsl #8
 1376 0062 FFF7FEFF 		bl	__aeabi_i2d
 1377              	.LVL116:
 1378 0066 1AA3     		adr	r3, .L51
 1379 0068 D3E90023 		ldrd	r2, [r3]
 1380 006c FFF7FEFF 		bl	__aeabi_dmul
 1381              	.LVL117:
  76:src/unit/robot/robot.cpp ****                         info.Imu.pitch = ((((uint16_t)recv_data[2] << 8) & 0xFF00) | ((int16_t)recv
 1382              		.loc 1 76 124 view .LVU381
 1383 0070 0022     		movs	r2, #0
 1384 0072 1C4B     		ldr	r3, .L51+20
 1385 0074 FFF7FEFF 		bl	__aeabi_dsub
 1386              	.LVL118:
  76:src/unit/robot/robot.cpp ****                         info.Imu.pitch = ((((uint16_t)recv_data[2] << 8) & 0xFF00) | ((int16_t)recv
 1387              		.loc 1 76 38 view .LVU382
 1388 0078 FFF7FEFF 		bl	__aeabi_d2iz
 1389              	.LVL119:
 1390 007c 2885     		strh	r0, [r5, #40]	@ movhi
  77:src/unit/robot/robot.cpp ****                         info.Imu.roll = ((((uint16_t)recv_data[4] << 8) & 0xFF00) | ((int16_t)recv_
 1391              		.loc 1 77 25 is_stmt 1 view .LVU383
  77:src/unit/robot/robot.cpp ****                         info.Imu.roll = ((((uint16_t)recv_data[4] << 8) & 0xFF00) | ((int16_t)recv_
 1392              		.loc 1 77 66 is_stmt 0 view .LVU384
 1393 007e A078     		ldrb	r0, [r4, #2]	@ zero_extendqisi2
  77:src/unit/robot/robot.cpp ****                         info.Imu.roll = ((((uint16_t)recv_data[4] << 8) & 0xFF00) | ((int16_t)recv_
 1394              		.loc 1 77 107 view .LVU385
 1395 0080 E378     		ldrb	r3, [r4, #3]	@ zero_extendqisi2
  77:src/unit/robot/robot.cpp ****                         info.Imu.roll = ((((uint16_t)recv_data[4] << 8) & 0xFF00) | ((int16_t)recv_
 1396              		.loc 1 77 120 view .LVU386
 1397 0082 43EA0020 		orr	r0, r3, r0, lsl #8
 1398 0086 FFF7FEFF 		bl	__aeabi_i2d
 1399              	.LVL120:
 1400 008a 11A3     		adr	r3, .L51
 1401 008c D3E90023 		ldrd	r2, [r3]
 1402 0090 FFF7FEFF 		bl	__aeabi_dmul
 1403              	.LVL121:
  77:src/unit/robot/robot.cpp ****                         info.Imu.roll = ((((uint16_t)recv_data[4] << 8) & 0xFF00) | ((int16_t)recv_
 1404              		.loc 1 77 126 view .LVU387
 1405 0094 0022     		movs	r2, #0
 1406 0096 134B     		ldr	r3, .L51+20
 1407 0098 FFF7FEFF 		bl	__aeabi_dsub
 1408              	.LVL122:
  77:src/unit/robot/robot.cpp ****                         info.Imu.roll = ((((uint16_t)recv_data[4] << 8) & 0xFF00) | ((int16_t)recv_
 1409              		.loc 1 77 40 view .LVU388
 1410 009c FFF7FEFF 		bl	__aeabi_d2iz
 1411              	.LVL123:
 1412 00a0 6885     		strh	r0, [r5, #42]	@ movhi
ARM GAS  /var/folders/5c/srt4fy4j1pd641bjfx75k5000000gn/T//ccgUJOj8.s 			page 32


  78:src/unit/robot/robot.cpp ****                   }
 1413              		.loc 1 78 25 is_stmt 1 view .LVU389
  78:src/unit/robot/robot.cpp ****                   }
 1414              		.loc 1 78 65 is_stmt 0 view .LVU390
 1415 00a2 2079     		ldrb	r0, [r4, #4]	@ zero_extendqisi2
  78:src/unit/robot/robot.cpp ****                   }
 1416              		.loc 1 78 106 view .LVU391
 1417 00a4 6379     		ldrb	r3, [r4, #5]	@ zero_extendqisi2
  78:src/unit/robot/robot.cpp ****                   }
 1418              		.loc 1 78 119 view .LVU392
 1419 00a6 43EA0020 		orr	r0, r3, r0, lsl #8
 1420 00aa FFF7FEFF 		bl	__aeabi_i2d
 1421              	.LVL124:
 1422 00ae 08A3     		adr	r3, .L51
 1423 00b0 D3E90023 		ldrd	r2, [r3]
 1424 00b4 FFF7FEFF 		bl	__aeabi_dmul
 1425              	.LVL125:
  78:src/unit/robot/robot.cpp ****                   }
 1426              		.loc 1 78 125 view .LVU393
 1427 00b8 0022     		movs	r2, #0
 1428 00ba 0A4B     		ldr	r3, .L51+20
 1429 00bc FFF7FEFF 		bl	__aeabi_dsub
 1430              	.LVL126:
  78:src/unit/robot/robot.cpp ****                   }
 1431              		.loc 1 78 39 view .LVU394
 1432 00c0 FFF7FEFF 		bl	__aeabi_d2iz
 1433              	.LVL127:
 1434 00c4 A885     		strh	r0, [r5, #44]	@ movhi
 1435 00c6 C3E7     		b	.L44
 1436              	.L48:
  78:src/unit/robot/robot.cpp ****                   }
 1437              		.loc 1 78 39 view .LVU395
 1438              	.LBE171:
  84:src/unit/robot/robot.cpp ****             }
  85:src/unit/robot/robot.cpp ****       }
  86:src/unit/robot/robot.cpp **** }
 1439              		.loc 1 86 1 view .LVU396
 1440 00c8 38BD     		pop	{r3, r4, r5, pc}
 1441              	.LVL128:
 1442              	.L52:
 1443              		.loc 1 86 1 view .LVU397
 1444 00ca 00BFAFF3 		.align	3
 1444      0080
 1445              	.L51:
 1446 00d0 9A999999 		.word	-1717986918
 1447 00d4 9999B93F 		.word	1069128089
 1448 00d8 00000000 		.word	_ZZN5Robot7ImuUartEvE5index
 1449 00dc 00000000 		.word	_ZZN5Robot7ImuUartEvE9recv_data
 1450 00e0 00000000 		.word	_ZZN5Robot7ImuUartEvE9recv_byte
 1451 00e4 00806640 		.word	1080459264
 1452              		.cfi_endproc
 1453              	.LFE277:
 1454              		.fnend
 1456              		.section	.text._ZN5Robot8LineUartEv,"ax",%progbits
 1457              		.align	1
 1458              		.global	_ZN5Robot8LineUartEv
 1459              		.syntax unified
ARM GAS  /var/folders/5c/srt4fy4j1pd641bjfx75k5000000gn/T//ccgUJOj8.s 			page 33


 1460              		.thumb
 1461              		.thumb_func
 1463              	_ZN5Robot8LineUartEv:
 1464              		.fnstart
 1465              	.LVL129:
 1466              	.LFB278:
  87:src/unit/robot/robot.cpp **** 
  88:src/unit/robot/robot.cpp **** void Robot::LineUart() {
 1467              		.loc 1 88 24 is_stmt 1 view -0
 1468              		.cfi_startproc
 1469              		@ args = 0, pretend = 0, frame = 8
 1470              		@ frame_needed = 0, uses_anonymous_args = 0
 1471              		.loc 1 88 24 is_stmt 0 view .LVU399
 1472 0000 30B5     		push	{r4, r5, lr}
 1473              		.save {r4, r5, lr}
 1474              	.LCFI8:
 1475              		.cfi_def_cfa_offset 12
 1476              		.cfi_offset 4, -12
 1477              		.cfi_offset 5, -8
 1478              		.cfi_offset 14, -4
 1479              		.pad #12
 1480 0002 83B0     		sub	sp, sp, #12
 1481              	.LCFI9:
 1482              		.cfi_def_cfa_offset 24
 1483 0004 0546     		mov	r5, r0
  89:src/unit/robot/robot.cpp ****       while (serial2.available()) {
 1484              		.loc 1 89 7 is_stmt 1 view .LVU400
 1485 0006 0BE0     		b	.L54
 1486              	.LVL130:
 1487              	.L66:
 1488              	.LBB172:
 1489              	.LBB173:
  90:src/unit/robot/robot.cpp ****             static const uint8_t HEADER = 0xFF;   // ヘッダ
  91:src/unit/robot/robot.cpp ****             static const uint8_t FOOTER = 0xAA;   // フッタ
  92:src/unit/robot/robot.cpp ****             static const uint8_t data_size = 6;   // データのサイズ
  93:src/unit/robot/robot.cpp ****             static uint8_t index = 0;             // 受信したデータのインデックスカ
  94:src/unit/robot/robot.cpp ****             static uint8_t recv_data[data_size];  // 受信したデータ
  95:src/unit/robot/robot.cpp ****             static uint8_t recv_byte;
  96:src/unit/robot/robot.cpp **** 
  97:src/unit/robot/robot.cpp ****             recv_byte = serial2.read();
  98:src/unit/robot/robot.cpp ****             if (index == 0) {
  99:src/unit/robot/robot.cpp ****                   if (recv_byte == HEADER) {
 100:src/unit/robot/robot.cpp ****                         index++;
 1490              		.loc 1 100 25 view .LVU401
 1491              		.loc 1 100 30 is_stmt 0 view .LVU402
 1492 0008 0133     		adds	r3, r3, #1
 1493 000a 364A     		ldr	r2, .L69
 1494 000c 1370     		strb	r3, [r2]
 1495 000e 07E0     		b	.L54
 1496              	.L55:
 1497              	.LBE173:
 1498              	.LBE172:
 101:src/unit/robot/robot.cpp ****                   } else {
 102:src/unit/robot/robot.cpp ****                         index = 0;
 103:src/unit/robot/robot.cpp ****                   }
 104:src/unit/robot/robot.cpp ****             } else if (index == (data_size + 1)) {
 1499              		.loc 1 104 20 is_stmt 1 view .LVU403
ARM GAS  /var/folders/5c/srt4fy4j1pd641bjfx75k5000000gn/T//ccgUJOj8.s 			page 34


 1500              	.LBB183:
 1501              	.LBB181:
 1502              	.LBB174:
 1503 0010 072B     		cmp	r3, #7
 1504 0012 1CD0     		beq	.L64
 105:src/unit/robot/robot.cpp ****                   if (recv_byte == FOOTER) {
 106:src/unit/robot/robot.cpp ****                         bool is_half_out;
 107:src/unit/robot/robot.cpp ****                         info.motor_rps[0] = recv_data[0];
 108:src/unit/robot/robot.cpp ****                         info.motor_rps[1] = recv_data[1];
 109:src/unit/robot/robot.cpp ****                         info.motor_rps[2] = recv_data[2];
 110:src/unit/robot/robot.cpp ****                         info.motor_rps[3] = recv_data[3];
 111:src/unit/robot/robot.cpp ****                         info.Line.interval = recv_data[4] >> 4;
 112:src/unit/robot/robot.cpp ****                         info.Line.is_on_line = (recv_data[4] >> 3) & 1;
 113:src/unit/robot/robot.cpp ****                         is_half_out = (recv_data[4] >> 2) & 1;
 114:src/unit/robot/robot.cpp ****                         info.Line.is_leftside = (recv_data[4] >> 1) & 1;
 115:src/unit/robot/robot.cpp ****                         info.Line.is_rightside = recv_data[4] & 1;
 116:src/unit/robot/robot.cpp ****                         info.Line.dir = recv_data[5] * 2 - 180;
 117:src/unit/robot/robot.cpp **** 
 118:src/unit/robot/robot.cpp ****                         if (is_half_out == 1) {
 119:src/unit/robot/robot.cpp ****                               info.Line.inside_dir = info.Line.dir;
 120:src/unit/robot/robot.cpp ****                               info.Line.depth = 24 - info.Line.interval;
 121:src/unit/robot/robot.cpp ****                         } else {
 122:src/unit/robot/robot.cpp ****                               info.Line.inside_dir = MyMath::NormalizeDeg180(info.Line.dir + 180);
 123:src/unit/robot/robot.cpp ****                               info.Line.depth = info.Line.interval;
 124:src/unit/robot/robot.cpp ****                         }
 125:src/unit/robot/robot.cpp ****                   }
 126:src/unit/robot/robot.cpp ****                   index = 0;
 127:src/unit/robot/robot.cpp ****             } else {
 128:src/unit/robot/robot.cpp ****                   recv_data[index - 1] = recv_byte;
 1505              		.loc 1 128 19 view .LVU404
 1506              		.loc 1 128 35 is_stmt 0 view .LVU405
 1507 0014 5A1E     		subs	r2, r3, #1
 1508              		.loc 1 128 40 view .LVU406
 1509 0016 3449     		ldr	r1, .L69+4
 1510 0018 8854     		strb	r0, [r1, r2]
 129:src/unit/robot/robot.cpp ****                   index++;
 1511              		.loc 1 129 19 is_stmt 1 view .LVU407
 1512              		.loc 1 129 24 is_stmt 0 view .LVU408
 1513 001a 0133     		adds	r3, r3, #1
 1514 001c 314A     		ldr	r2, .L69
 1515 001e 1370     		strb	r3, [r2]
 1516              	.L54:
 1517              		.loc 1 129 24 view .LVU409
 1518              	.LBE174:
 1519              	.LBE181:
 1520              	.LBE183:
  89:src/unit/robot/robot.cpp ****             static const uint8_t HEADER = 0xFF;   // ヘッダ
 1521              		.loc 1 89 31 is_stmt 1 view .LVU410
 1522 0020 05F5B654 		add	r4, r5, #5824
 1523 0024 0434     		adds	r4, r4, #4
 1524 0026 2046     		mov	r0, r4
 1525 0028 FFF7FEFF 		bl	_ZN14BufferedSerial9availableEv
 1526              	.LVL131:
 1527 002c 0028     		cmp	r0, #0
 1528 002e 3CD0     		beq	.L65
 1529              	.LBB184:
  90:src/unit/robot/robot.cpp ****             static const uint8_t FOOTER = 0xAA;   // フッタ
ARM GAS  /var/folders/5c/srt4fy4j1pd641bjfx75k5000000gn/T//ccgUJOj8.s 			page 35


 1530              		.loc 1 90 13 view .LVU411
  91:src/unit/robot/robot.cpp ****             static const uint8_t data_size = 6;   // データのサイズ
 1531              		.loc 1 91 13 view .LVU412
  92:src/unit/robot/robot.cpp ****             static uint8_t index = 0;             // 受信したデータのインデックスカ
 1532              		.loc 1 92 13 view .LVU413
  93:src/unit/robot/robot.cpp ****             static uint8_t recv_data[data_size];  // 受信したデータ
 1533              		.loc 1 93 13 view .LVU414
  94:src/unit/robot/robot.cpp ****             static uint8_t recv_byte;
 1534              		.loc 1 94 13 view .LVU415
  95:src/unit/robot/robot.cpp **** 
 1535              		.loc 1 95 13 view .LVU416
  97:src/unit/robot/robot.cpp ****             if (index == 0) {
 1536              		.loc 1 97 13 view .LVU417
  97:src/unit/robot/robot.cpp ****             if (index == 0) {
 1537              		.loc 1 97 37 is_stmt 0 view .LVU418
 1538 0030 2046     		mov	r0, r4
 1539 0032 FFF7FEFF 		bl	_ZN14BufferedSerial4readEv
 1540              	.LVL132:
  97:src/unit/robot/robot.cpp ****             if (index == 0) {
 1541              		.loc 1 97 23 view .LVU419
 1542 0036 2D4B     		ldr	r3, .L69+8
 1543 0038 1870     		strb	r0, [r3]
  98:src/unit/robot/robot.cpp ****                   if (recv_byte == HEADER) {
 1544              		.loc 1 98 13 is_stmt 1 view .LVU420
 1545              	.LBB182:
  98:src/unit/robot/robot.cpp ****                   if (recv_byte == HEADER) {
 1546              		.loc 1 98 23 is_stmt 0 view .LVU421
 1547 003a 2A4B     		ldr	r3, .L69
 1548 003c 1B78     		ldrb	r3, [r3]	@ zero_extendqisi2
  98:src/unit/robot/robot.cpp ****                   if (recv_byte == HEADER) {
 1549              		.loc 1 98 13 view .LVU422
 1550 003e 002B     		cmp	r3, #0
 1551 0040 E6D1     		bne	.L55
  99:src/unit/robot/robot.cpp ****                         index++;
 1552              		.loc 1 99 19 is_stmt 1 view .LVU423
 1553 0042 FF28     		cmp	r0, #255
 1554 0044 E0D0     		beq	.L66
 102:src/unit/robot/robot.cpp ****                   }
 1555              		.loc 1 102 25 view .LVU424
 102:src/unit/robot/robot.cpp ****                   }
 1556              		.loc 1 102 31 is_stmt 0 view .LVU425
 1557 0046 274B     		ldr	r3, .L69
 1558 0048 0022     		movs	r2, #0
 1559 004a 1A70     		strb	r2, [r3]
 1560 004c E8E7     		b	.L54
 1561              	.L64:
 1562              	.LBB180:
 1563              	.LBB175:
 105:src/unit/robot/robot.cpp ****                         bool is_half_out;
 1564              		.loc 1 105 19 is_stmt 1 view .LVU426
 1565              	.LBB176:
 1566 004e AA28     		cmp	r0, #170
 1567 0050 03D0     		beq	.L67
 1568              	.L59:
 1569              	.LBE176:
 126:src/unit/robot/robot.cpp ****             } else {
 1570              		.loc 1 126 19 view .LVU427
ARM GAS  /var/folders/5c/srt4fy4j1pd641bjfx75k5000000gn/T//ccgUJOj8.s 			page 36


 126:src/unit/robot/robot.cpp ****             } else {
 1571              		.loc 1 126 25 is_stmt 0 view .LVU428
 1572 0052 244B     		ldr	r3, .L69
 1573 0054 0022     		movs	r2, #0
 1574 0056 1A70     		strb	r2, [r3]
 1575              	.LBE175:
 1576 0058 E2E7     		b	.L54
 1577              	.L67:
 1578              	.LBB179:
 1579              	.LBB178:
 1580              	.LBB177:
 106:src/unit/robot/robot.cpp ****                         info.motor_rps[0] = recv_data[0];
 1581              		.loc 1 106 25 is_stmt 1 view .LVU429
 107:src/unit/robot/robot.cpp ****                         info.motor_rps[1] = recv_data[1];
 1582              		.loc 1 107 25 view .LVU430
 107:src/unit/robot/robot.cpp ****                         info.motor_rps[1] = recv_data[1];
 1583              		.loc 1 107 56 is_stmt 0 view .LVU431
 1584 005a 234B     		ldr	r3, .L69+4
 1585 005c 1A78     		ldrb	r2, [r3]	@ zero_extendqisi2
 107:src/unit/robot/robot.cpp ****                         info.motor_rps[1] = recv_data[1];
 1586              		.loc 1 107 43 view .LVU432
 1587 005e 2A71     		strb	r2, [r5, #4]
 108:src/unit/robot/robot.cpp ****                         info.motor_rps[2] = recv_data[2];
 1588              		.loc 1 108 25 is_stmt 1 view .LVU433
 108:src/unit/robot/robot.cpp ****                         info.motor_rps[2] = recv_data[2];
 1589              		.loc 1 108 56 is_stmt 0 view .LVU434
 1590 0060 5A78     		ldrb	r2, [r3, #1]	@ zero_extendqisi2
 108:src/unit/robot/robot.cpp ****                         info.motor_rps[2] = recv_data[2];
 1591              		.loc 1 108 43 view .LVU435
 1592 0062 6A71     		strb	r2, [r5, #5]
 109:src/unit/robot/robot.cpp ****                         info.motor_rps[3] = recv_data[3];
 1593              		.loc 1 109 25 is_stmt 1 view .LVU436
 109:src/unit/robot/robot.cpp ****                         info.motor_rps[3] = recv_data[3];
 1594              		.loc 1 109 56 is_stmt 0 view .LVU437
 1595 0064 9A78     		ldrb	r2, [r3, #2]	@ zero_extendqisi2
 109:src/unit/robot/robot.cpp ****                         info.motor_rps[3] = recv_data[3];
 1596              		.loc 1 109 43 view .LVU438
 1597 0066 AA71     		strb	r2, [r5, #6]
 110:src/unit/robot/robot.cpp ****                         info.Line.interval = recv_data[4] >> 4;
 1598              		.loc 1 110 25 is_stmt 1 view .LVU439
 110:src/unit/robot/robot.cpp ****                         info.Line.interval = recv_data[4] >> 4;
 1599              		.loc 1 110 56 is_stmt 0 view .LVU440
 1600 0068 DA78     		ldrb	r2, [r3, #3]	@ zero_extendqisi2
 110:src/unit/robot/robot.cpp ****                         info.Line.interval = recv_data[4] >> 4;
 1601              		.loc 1 110 43 view .LVU441
 1602 006a EA71     		strb	r2, [r5, #7]
 111:src/unit/robot/robot.cpp ****                         info.Line.is_on_line = (recv_data[4] >> 3) & 1;
 1603              		.loc 1 111 25 is_stmt 1 view .LVU442
 111:src/unit/robot/robot.cpp ****                         info.Line.is_on_line = (recv_data[4] >> 3) & 1;
 1604              		.loc 1 111 57 is_stmt 0 view .LVU443
 1605 006c 1A79     		ldrb	r2, [r3, #4]	@ zero_extendqisi2
 111:src/unit/robot/robot.cpp ****                         info.Line.is_on_line = (recv_data[4] >> 3) & 1;
 1606              		.loc 1 111 59 view .LVU444
 1607 006e 1109     		lsrs	r1, r2, #4
 111:src/unit/robot/robot.cpp ****                         info.Line.is_on_line = (recv_data[4] >> 3) & 1;
 1608              		.loc 1 111 44 view .LVU445
 1609 0070 2975     		strb	r1, [r5, #20]
ARM GAS  /var/folders/5c/srt4fy4j1pd641bjfx75k5000000gn/T//ccgUJOj8.s 			page 37


 112:src/unit/robot/robot.cpp ****                         is_half_out = (recv_data[4] >> 2) & 1;
 1610              		.loc 1 112 25 is_stmt 1 view .LVU446
 112:src/unit/robot/robot.cpp ****                         is_half_out = (recv_data[4] >> 2) & 1;
 1611              		.loc 1 112 68 is_stmt 0 view .LVU447
 1612 0072 C2F3C000 		ubfx	r0, r2, #3, #1
 112:src/unit/robot/robot.cpp ****                         is_half_out = (recv_data[4] >> 2) & 1;
 1613              		.loc 1 112 46 view .LVU448
 1614 0076 A875     		strb	r0, [r5, #22]
 113:src/unit/robot/robot.cpp ****                         info.Line.is_leftside = (recv_data[4] >> 1) & 1;
 1615              		.loc 1 113 25 is_stmt 1 view .LVU449
 1616              	.LVL133:
 114:src/unit/robot/robot.cpp ****                         info.Line.is_rightside = recv_data[4] & 1;
 1617              		.loc 1 114 25 view .LVU450
 114:src/unit/robot/robot.cpp ****                         info.Line.is_rightside = recv_data[4] & 1;
 1618              		.loc 1 114 69 is_stmt 0 view .LVU451
 1619 0078 C2F34000 		ubfx	r0, r2, #1, #1
 114:src/unit/robot/robot.cpp ****                         info.Line.is_rightside = recv_data[4] & 1;
 1620              		.loc 1 114 47 view .LVU452
 1621 007c E875     		strb	r0, [r5, #23]
 115:src/unit/robot/robot.cpp ****                         info.Line.dir = recv_data[5] * 2 - 180;
 1622              		.loc 1 115 25 is_stmt 1 view .LVU453
 115:src/unit/robot/robot.cpp ****                         info.Line.dir = recv_data[5] * 2 - 180;
 1623              		.loc 1 115 63 is_stmt 0 view .LVU454
 1624 007e 02F00100 		and	r0, r2, #1
 115:src/unit/robot/robot.cpp ****                         info.Line.dir = recv_data[5] * 2 - 180;
 1625              		.loc 1 115 48 view .LVU455
 1626 0082 2876     		strb	r0, [r5, #24]
 116:src/unit/robot/robot.cpp **** 
 1627              		.loc 1 116 25 is_stmt 1 view .LVU456
 116:src/unit/robot/robot.cpp **** 
 1628              		.loc 1 116 52 is_stmt 0 view .LVU457
 1629 0084 5879     		ldrb	r0, [r3, #5]	@ zero_extendqisi2
 116:src/unit/robot/robot.cpp **** 
 1630              		.loc 1 116 58 view .LVU458
 1631 0086 5A38     		subs	r0, r0, #90
 116:src/unit/robot/robot.cpp **** 
 1632              		.loc 1 116 39 view .LVU459
 1633 0088 4000     		lsls	r0, r0, #1
 1634 008a 6883     		strh	r0, [r5, #26]	@ movhi
 118:src/unit/robot/robot.cpp ****                               info.Line.inside_dir = info.Line.dir;
 1635              		.loc 1 118 25 is_stmt 1 view .LVU460
 1636 008c 12F0040F 		tst	r2, #4
 1637 0090 04D0     		beq	.L60
 119:src/unit/robot/robot.cpp ****                               info.Line.depth = 24 - info.Line.interval;
 1638              		.loc 1 119 31 view .LVU461
 119:src/unit/robot/robot.cpp ****                               info.Line.depth = 24 - info.Line.interval;
 1639              		.loc 1 119 52 is_stmt 0 view .LVU462
 1640 0092 A883     		strh	r0, [r5, #28]	@ movhi
 120:src/unit/robot/robot.cpp ****                         } else {
 1641              		.loc 1 120 31 is_stmt 1 view .LVU463
 120:src/unit/robot/robot.cpp ****                         } else {
 1642              		.loc 1 120 52 is_stmt 0 view .LVU464
 1643 0094 C1F11801 		rsb	r1, r1, #24
 120:src/unit/robot/robot.cpp ****                         } else {
 1644              		.loc 1 120 47 view .LVU465
 1645 0098 6975     		strb	r1, [r5, #21]
 1646 009a DAE7     		b	.L59
ARM GAS  /var/folders/5c/srt4fy4j1pd641bjfx75k5000000gn/T//ccgUJOj8.s 			page 38


 1647              	.L60:
 122:src/unit/robot/robot.cpp ****                               info.Line.depth = info.Line.interval;
 1648              		.loc 1 122 31 is_stmt 1 view .LVU466
 122:src/unit/robot/robot.cpp ****                               info.Line.depth = info.Line.interval;
 1649              		.loc 1 122 77 is_stmt 0 view .LVU467
 1650 009c B430     		adds	r0, r0, #180
 1651 009e FFF7FEFF 		bl	NormalizeDeg180
 1652              	.LVL134:
 122:src/unit/robot/robot.cpp ****                               info.Line.depth = info.Line.interval;
 1653              		.loc 1 122 52 view .LVU468
 1654 00a2 A883     		strh	r0, [r5, #28]	@ movhi
 123:src/unit/robot/robot.cpp ****                         }
 1655              		.loc 1 123 31 is_stmt 1 view .LVU469
 123:src/unit/robot/robot.cpp ****                         }
 1656              		.loc 1 123 59 is_stmt 0 view .LVU470
 1657 00a4 2B7D     		ldrb	r3, [r5, #20]	@ zero_extendqisi2
 123:src/unit/robot/robot.cpp ****                         }
 1658              		.loc 1 123 47 view .LVU471
 1659 00a6 6B75     		strb	r3, [r5, #21]
 1660 00a8 D3E7     		b	.L59
 1661              	.LVL135:
 1662              	.L65:
 123:src/unit/robot/robot.cpp ****                         }
 1663              		.loc 1 123 47 view .LVU472
 1664              	.LBE177:
 1665              	.LBE178:
 1666              	.LBE179:
 1667              	.LBE180:
 1668              	.LBE182:
 1669              	.LBE184:
 130:src/unit/robot/robot.cpp ****             }
 131:src/unit/robot/robot.cpp ****       }
 132:src/unit/robot/robot.cpp **** 
 133:src/unit/robot/robot.cpp ****       if (line_send_interval_timer.read_us() >= LINE_SEND_PERIOD_US) {
 1670              		.loc 1 133 7 is_stmt 1 view .LVU473
 1671              		.loc 1 133 43 is_stmt 0 view .LVU474
 1672 00aa 05F5B754 		add	r4, r5, #5856
 1673 00ae 1434     		adds	r4, r4, #20
 1674 00b0 2046     		mov	r0, r4
 1675 00b2 FFF7FEFF 		bl	_ZN5Timer7read_usEv
 1676              	.LVL136:
 1677              		.loc 1 133 7 view .LVU475
 1678 00b6 42F20F73 		movw	r3, #9999
 1679 00ba 9842     		cmp	r0, r3
 1680 00bc 01D8     		bhi	.L68
 1681              	.LVL137:
 1682              	.L53:
 134:src/unit/robot/robot.cpp ****             serial2.write(info.Line.on_led);
 135:src/unit/robot/robot.cpp ****             line_send_interval_timer.reset();
 136:src/unit/robot/robot.cpp ****       }
 137:src/unit/robot/robot.cpp **** }
 1683              		.loc 1 137 1 view .LVU476
 1684 00be 03B0     		add	sp, sp, #12
 1685              	.LCFI10:
 1686              		.cfi_remember_state
 1687              		.cfi_def_cfa_offset 12
 1688              		@ sp needed
ARM GAS  /var/folders/5c/srt4fy4j1pd641bjfx75k5000000gn/T//ccgUJOj8.s 			page 39


 1689 00c0 30BD     		pop	{r4, r5, pc}
 1690              	.LVL138:
 1691              	.L68:
 1692              	.LCFI11:
 1693              		.cfi_restore_state
 134:src/unit/robot/robot.cpp ****             serial2.write(info.Line.on_led);
 1694              		.loc 1 134 13 is_stmt 1 view .LVU477
 134:src/unit/robot/robot.cpp ****             serial2.write(info.Line.on_led);
 1695              		.loc 1 134 37 is_stmt 0 view .LVU478
 1696 00c2 AB7F     		ldrb	r3, [r5, #30]	@ zero_extendqisi2
 1697              	.LVL139:
 134:src/unit/robot/robot.cpp ****             serial2.write(info.Line.on_led);
 1698              		.loc 1 134 37 view .LVU479
 1699 00c4 8DF80730 		strb	r3, [sp, #7]
 1700              	.LVL140:
 1701              	.LBB185:
 1702              	.LBI185:
  53:Lib/BufferedSerial/BufferedSerial.hpp **** 
  54:Lib/BufferedSerial/BufferedSerial.hpp ****       void write(uint8_t data) {
 1703              		.loc 2 54 12 is_stmt 1 view .LVU480
 1704              	.LBB186:
  55:Lib/BufferedSerial/BufferedSerial.hpp ****             HAL_UART_Transmit(_huart, &data, 1, 100);
 1705              		.loc 2 55 13 view .LVU481
 1706              		.loc 2 55 30 is_stmt 0 view .LVU482
 1707 00c8 05F58055 		add	r5, r5, #4096
 1708              	.LVL141:
 1709              		.loc 2 55 30 view .LVU483
 1710 00cc 6423     		movs	r3, #100
 1711              	.LVL142:
 1712              		.loc 2 55 30 view .LVU484
 1713 00ce 0122     		movs	r2, #1
 1714 00d0 0DF10701 		add	r1, sp, #7
 1715              	.LVL143:
 1716              		.loc 2 55 30 view .LVU485
 1717 00d4 D5F8C406 		ldr	r0, [r5, #1732]
 1718 00d8 FFF7FEFF 		bl	HAL_UART_Transmit
 1719              	.LVL144:
 1720              		.loc 2 55 30 view .LVU486
 1721              	.LBE186:
 1722              	.LBE185:
 135:src/unit/robot/robot.cpp ****       }
 1723              		.loc 1 135 13 is_stmt 1 view .LVU487
 135:src/unit/robot/robot.cpp ****       }
 1724              		.loc 1 135 43 is_stmt 0 view .LVU488
 1725 00dc 2046     		mov	r0, r4
 1726 00de FFF7FEFF 		bl	_ZN5Timer5resetEv
 1727              	.LVL145:
 1728              		.loc 1 137 1 view .LVU489
 1729 00e2 ECE7     		b	.L53
 1730              	.L70:
 1731              		.align	2
 1732              	.L69:
 1733 00e4 00000000 		.word	_ZZN5Robot8LineUartEvE5index
 1734 00e8 00000000 		.word	_ZZN5Robot8LineUartEvE9recv_data
 1735 00ec 00000000 		.word	_ZZN5Robot8LineUartEvE9recv_byte
 1736              		.cfi_endproc
 1737              	.LFE278:
ARM GAS  /var/folders/5c/srt4fy4j1pd641bjfx75k5000000gn/T//ccgUJOj8.s 			page 40


 1738              		.fnend
 1740              		.section	.text._ZN5Robot6UiUartEv,"ax",%progbits
 1741              		.align	1
 1742              		.global	_ZN5Robot6UiUartEv
 1743              		.syntax unified
 1744              		.thumb
 1745              		.thumb_func
 1747              	_ZN5Robot6UiUartEv:
 1748              		.fnstart
 1749              	.LVL146:
 1750              	.LFB279:
 138:src/unit/robot/robot.cpp **** 
 139:src/unit/robot/robot.cpp **** void Robot::UiUart() {
 1751              		.loc 1 139 22 is_stmt 1 view -0
 1752              		.cfi_startproc
 1753              		@ args = 0, pretend = 0, frame = 16
 1754              		@ frame_needed = 0, uses_anonymous_args = 0
 1755              		.loc 1 139 22 is_stmt 0 view .LVU491
 1756 0000 F0B5     		push	{r4, r5, r6, r7, lr}
 1757              		.save {r4, r5, r6, r7, lr}
 1758              	.LCFI12:
 1759              		.cfi_def_cfa_offset 20
 1760              		.cfi_offset 4, -20
 1761              		.cfi_offset 5, -16
 1762              		.cfi_offset 6, -12
 1763              		.cfi_offset 7, -8
 1764              		.cfi_offset 14, -4
 1765              		.pad #20
 1766 0002 85B0     		sub	sp, sp, #20
 1767              	.LCFI13:
 1768              		.cfi_def_cfa_offset 40
 1769 0004 0546     		mov	r5, r0
 140:src/unit/robot/robot.cpp ****       static int8_t item;
 1770              		.loc 1 140 7 is_stmt 1 view .LVU492
 141:src/unit/robot/robot.cpp ****       static uint8_t sub_item;
 1771              		.loc 1 141 7 view .LVU493
 142:src/unit/robot/robot.cpp **** 
 143:src/unit/robot/robot.cpp ****       while (serial3.available()) {
 1772              		.loc 1 143 7 view .LVU494
 1773 0006 0BE0     		b	.L72
 1774              	.LVL147:
 1775              	.L87:
 1776              	.LBB187:
 144:src/unit/robot/robot.cpp ****             static const uint8_t HEADER = 0xFF;   // ヘッダ
 145:src/unit/robot/robot.cpp ****             static const uint8_t FOOTER = 0xAA;   // ヘッダ
 146:src/unit/robot/robot.cpp ****             static const uint8_t data_size = 4;   // データのサイズ
 147:src/unit/robot/robot.cpp ****             static uint8_t index = 0;             // 受信したデータのインデックスカ
 148:src/unit/robot/robot.cpp ****             static uint8_t recv_data[data_size];  // 受信したデータ
 149:src/unit/robot/robot.cpp ****             static uint8_t recv_byte;
 150:src/unit/robot/robot.cpp **** 
 151:src/unit/robot/robot.cpp ****             recv_byte = serial3.read();
 152:src/unit/robot/robot.cpp ****             if (index == 0) {
 153:src/unit/robot/robot.cpp ****                   if (recv_byte == HEADER) {
 154:src/unit/robot/robot.cpp ****                         index++;
 1777              		.loc 1 154 25 view .LVU495
 1778              		.loc 1 154 30 is_stmt 0 view .LVU496
 1779 0008 0133     		adds	r3, r3, #1
ARM GAS  /var/folders/5c/srt4fy4j1pd641bjfx75k5000000gn/T//ccgUJOj8.s 			page 41


 1780 000a 854A     		ldr	r2, .L93+8
 1781 000c 1370     		strb	r3, [r2]
 1782 000e 07E0     		b	.L72
 1783              	.L73:
 155:src/unit/robot/robot.cpp ****                   } else {
 156:src/unit/robot/robot.cpp ****                         index = 0;
 157:src/unit/robot/robot.cpp ****                   }
 158:src/unit/robot/robot.cpp ****             } else if (index == (data_size + 1)) {
 1784              		.loc 1 158 20 is_stmt 1 view .LVU497
 1785 0010 052B     		cmp	r3, #5
 1786 0012 1CD0     		beq	.L85
 159:src/unit/robot/robot.cpp ****                   if (recv_byte == FOOTER) {
 160:src/unit/robot/robot.cpp ****                         item = ((recv_data[0] >> 4) & 0b00001111) - 8;
 161:src/unit/robot/robot.cpp ****                         sub_item = recv_data[0] & 0b00001111;
 162:src/unit/robot/robot.cpp ****                         info.mode = (recv_data[1] >> 4) & 0b00001111;
 163:src/unit/robot/robot.cpp ****                         info.Ui.dribbler_sig = (recv_data[1] >> 1) & 0b0000111;
 164:src/unit/robot/robot.cpp ****                         info.Ui.set_yaw_zero = recv_data[1] & 0b0000001;
 165:src/unit/robot/robot.cpp ****                         info.moving_speed = recv_data[2] * 0.01;
 166:src/unit/robot/robot.cpp ****                         info.line_moving_speed = recv_data[3] * 0.01;
 167:src/unit/robot/robot.cpp ****                   }
 168:src/unit/robot/robot.cpp ****                   index = 0;
 169:src/unit/robot/robot.cpp ****             } else {
 170:src/unit/robot/robot.cpp ****                   recv_data[index - 1] = recv_byte;
 1787              		.loc 1 170 19 view .LVU498
 1788              		.loc 1 170 35 is_stmt 0 view .LVU499
 1789 0014 5A1E     		subs	r2, r3, #1
 1790              		.loc 1 170 40 view .LVU500
 1791 0016 8349     		ldr	r1, .L93+12
 1792 0018 8854     		strb	r0, [r1, r2]
 171:src/unit/robot/robot.cpp ****                   index++;
 1793              		.loc 1 171 19 is_stmt 1 view .LVU501
 1794              		.loc 1 171 24 is_stmt 0 view .LVU502
 1795 001a 0133     		adds	r3, r3, #1
 1796 001c 804A     		ldr	r2, .L93+8
 1797 001e 1370     		strb	r3, [r2]
 1798              	.L72:
 1799              		.loc 1 171 24 view .LVU503
 1800              	.LBE187:
 143:src/unit/robot/robot.cpp ****             static const uint8_t HEADER = 0xFF;   // ヘッダ
 1801              		.loc 1 143 31 is_stmt 1 view .LVU504
 1802 0020 05F5B654 		add	r4, r5, #5824
 1803 0024 1434     		adds	r4, r4, #20
 1804 0026 2046     		mov	r0, r4
 1805 0028 FFF7FEFF 		bl	_ZN14BufferedSerial9availableEv
 1806              	.LVL148:
 1807 002c 0028     		cmp	r0, #0
 1808 002e 40D0     		beq	.L86
 1809              	.LBB188:
 144:src/unit/robot/robot.cpp ****             static const uint8_t FOOTER = 0xAA;   // ヘッダ
 1810              		.loc 1 144 13 view .LVU505
 145:src/unit/robot/robot.cpp ****             static const uint8_t data_size = 4;   // データのサイズ
 1811              		.loc 1 145 13 view .LVU506
 146:src/unit/robot/robot.cpp ****             static uint8_t index = 0;             // 受信したデータのインデックスカ
 1812              		.loc 1 146 13 view .LVU507
 147:src/unit/robot/robot.cpp ****             static uint8_t recv_data[data_size];  // 受信したデータ
 1813              		.loc 1 147 13 view .LVU508
 148:src/unit/robot/robot.cpp ****             static uint8_t recv_byte;
ARM GAS  /var/folders/5c/srt4fy4j1pd641bjfx75k5000000gn/T//ccgUJOj8.s 			page 42


 1814              		.loc 1 148 13 view .LVU509
 149:src/unit/robot/robot.cpp **** 
 1815              		.loc 1 149 13 view .LVU510
 151:src/unit/robot/robot.cpp ****             if (index == 0) {
 1816              		.loc 1 151 13 view .LVU511
 151:src/unit/robot/robot.cpp ****             if (index == 0) {
 1817              		.loc 1 151 37 is_stmt 0 view .LVU512
 1818 0030 2046     		mov	r0, r4
 1819 0032 FFF7FEFF 		bl	_ZN14BufferedSerial4readEv
 1820              	.LVL149:
 151:src/unit/robot/robot.cpp ****             if (index == 0) {
 1821              		.loc 1 151 23 view .LVU513
 1822 0036 7C4B     		ldr	r3, .L93+16
 1823 0038 1870     		strb	r0, [r3]
 152:src/unit/robot/robot.cpp ****                   if (recv_byte == HEADER) {
 1824              		.loc 1 152 13 is_stmt 1 view .LVU514
 152:src/unit/robot/robot.cpp ****                   if (recv_byte == HEADER) {
 1825              		.loc 1 152 23 is_stmt 0 view .LVU515
 1826 003a 794B     		ldr	r3, .L93+8
 1827 003c 1B78     		ldrb	r3, [r3]	@ zero_extendqisi2
 152:src/unit/robot/robot.cpp ****                   if (recv_byte == HEADER) {
 1828              		.loc 1 152 13 view .LVU516
 1829 003e 002B     		cmp	r3, #0
 1830 0040 E6D1     		bne	.L73
 153:src/unit/robot/robot.cpp ****                         index++;
 1831              		.loc 1 153 19 is_stmt 1 view .LVU517
 1832 0042 FF28     		cmp	r0, #255
 1833 0044 E0D0     		beq	.L87
 156:src/unit/robot/robot.cpp ****                   }
 1834              		.loc 1 156 25 view .LVU518
 156:src/unit/robot/robot.cpp ****                   }
 1835              		.loc 1 156 31 is_stmt 0 view .LVU519
 1836 0046 764B     		ldr	r3, .L93+8
 1837 0048 0022     		movs	r2, #0
 1838 004a 1A70     		strb	r2, [r3]
 1839 004c E8E7     		b	.L72
 1840              	.L85:
 159:src/unit/robot/robot.cpp ****                         item = ((recv_data[0] >> 4) & 0b00001111) - 8;
 1841              		.loc 1 159 19 is_stmt 1 view .LVU520
 1842 004e AA28     		cmp	r0, #170
 1843 0050 03D0     		beq	.L88
 1844              	.L77:
 168:src/unit/robot/robot.cpp ****             } else {
 1845              		.loc 1 168 19 view .LVU521
 168:src/unit/robot/robot.cpp ****             } else {
 1846              		.loc 1 168 25 is_stmt 0 view .LVU522
 1847 0052 734B     		ldr	r3, .L93+8
 1848 0054 0022     		movs	r2, #0
 1849 0056 1A70     		strb	r2, [r3]
 1850 0058 E2E7     		b	.L72
 1851              	.L88:
 160:src/unit/robot/robot.cpp ****                         sub_item = recv_data[0] & 0b00001111;
 1852              		.loc 1 160 25 is_stmt 1 view .LVU523
 160:src/unit/robot/robot.cpp ****                         sub_item = recv_data[0] & 0b00001111;
 1853              		.loc 1 160 45 is_stmt 0 view .LVU524
 1854 005a 724C     		ldr	r4, .L93+12
 1855 005c 2378     		ldrb	r3, [r4]	@ zero_extendqisi2
ARM GAS  /var/folders/5c/srt4fy4j1pd641bjfx75k5000000gn/T//ccgUJOj8.s 			page 43


 160:src/unit/robot/robot.cpp ****                         sub_item = recv_data[0] & 0b00001111;
 1856              		.loc 1 160 47 view .LVU525
 1857 005e 1A09     		lsrs	r2, r3, #4
 160:src/unit/robot/robot.cpp ****                         sub_item = recv_data[0] & 0b00001111;
 1858              		.loc 1 160 67 view .LVU526
 1859 0060 083A     		subs	r2, r2, #8
 160:src/unit/robot/robot.cpp ****                         sub_item = recv_data[0] & 0b00001111;
 1860              		.loc 1 160 30 view .LVU527
 1861 0062 7249     		ldr	r1, .L93+20
 1862 0064 0A70     		strb	r2, [r1]
 161:src/unit/robot/robot.cpp ****                         info.mode = (recv_data[1] >> 4) & 0b00001111;
 1863              		.loc 1 161 25 is_stmt 1 view .LVU528
 161:src/unit/robot/robot.cpp ****                         info.mode = (recv_data[1] >> 4) & 0b00001111;
 1864              		.loc 1 161 49 is_stmt 0 view .LVU529
 1865 0066 03F00F03 		and	r3, r3, #15
 161:src/unit/robot/robot.cpp ****                         info.mode = (recv_data[1] >> 4) & 0b00001111;
 1866              		.loc 1 161 34 view .LVU530
 1867 006a 714A     		ldr	r2, .L93+24
 1868 006c 1370     		strb	r3, [r2]
 162:src/unit/robot/robot.cpp ****                         info.Ui.dribbler_sig = (recv_data[1] >> 1) & 0b0000111;
 1869              		.loc 1 162 25 is_stmt 1 view .LVU531
 162:src/unit/robot/robot.cpp ****                         info.Ui.dribbler_sig = (recv_data[1] >> 1) & 0b0000111;
 1870              		.loc 1 162 49 is_stmt 0 view .LVU532
 1871 006e 6378     		ldrb	r3, [r4, #1]	@ zero_extendqisi2
 162:src/unit/robot/robot.cpp ****                         info.Ui.dribbler_sig = (recv_data[1] >> 1) & 0b0000111;
 1872              		.loc 1 162 51 view .LVU533
 1873 0070 1A09     		lsrs	r2, r3, #4
 162:src/unit/robot/robot.cpp ****                         info.Ui.dribbler_sig = (recv_data[1] >> 1) & 0b0000111;
 1874              		.loc 1 162 35 view .LVU534
 1875 0072 2A72     		strb	r2, [r5, #8]
 163:src/unit/robot/robot.cpp ****                         info.Ui.set_yaw_zero = recv_data[1] & 0b0000001;
 1876              		.loc 1 163 25 is_stmt 1 view .LVU535
 163:src/unit/robot/robot.cpp ****                         info.Ui.set_yaw_zero = recv_data[1] & 0b0000001;
 1877              		.loc 1 163 68 is_stmt 0 view .LVU536
 1878 0074 C3F34202 		ubfx	r2, r3, #1, #3
 163:src/unit/robot/robot.cpp ****                         info.Ui.set_yaw_zero = recv_data[1] & 0b0000001;
 1879              		.loc 1 163 46 view .LVU537
 1880 0078 85F82F20 		strb	r2, [r5, #47]
 164:src/unit/robot/robot.cpp ****                         info.moving_speed = recv_data[2] * 0.01;
 1881              		.loc 1 164 25 is_stmt 1 view .LVU538
 164:src/unit/robot/robot.cpp ****                         info.moving_speed = recv_data[2] * 0.01;
 1882              		.loc 1 164 61 is_stmt 0 view .LVU539
 1883 007c 03F00103 		and	r3, r3, #1
 164:src/unit/robot/robot.cpp ****                         info.moving_speed = recv_data[2] * 0.01;
 1884              		.loc 1 164 46 view .LVU540
 1885 0080 85F82E30 		strb	r3, [r5, #46]
 165:src/unit/robot/robot.cpp ****                         info.line_moving_speed = recv_data[3] * 0.01;
 1886              		.loc 1 165 25 is_stmt 1 view .LVU541
 165:src/unit/robot/robot.cpp ****                         info.line_moving_speed = recv_data[3] * 0.01;
 1887              		.loc 1 165 58 is_stmt 0 view .LVU542
 1888 0084 A078     		ldrb	r0, [r4, #2]	@ zero_extendqisi2
 1889 0086 FFF7FEFF 		bl	__aeabi_i2d
 1890              	.LVL150:
 1891 008a 63A3     		adr	r3, .L93
 1892 008c D3E90023 		ldrd	r2, [r3]
 1893 0090 FFF7FEFF 		bl	__aeabi_dmul
 1894              	.LVL151:
ARM GAS  /var/folders/5c/srt4fy4j1pd641bjfx75k5000000gn/T//ccgUJOj8.s 			page 44


 1895 0094 FFF7FEFF 		bl	__aeabi_d2f
 1896              	.LVL152:
 165:src/unit/robot/robot.cpp ****                         info.line_moving_speed = recv_data[3] * 0.01;
 1897              		.loc 1 165 43 view .LVU543
 1898 0098 E860     		str	r0, [r5, #12]	@ float
 166:src/unit/robot/robot.cpp ****                   }
 1899              		.loc 1 166 25 is_stmt 1 view .LVU544
 166:src/unit/robot/robot.cpp ****                   }
 1900              		.loc 1 166 63 is_stmt 0 view .LVU545
 1901 009a E078     		ldrb	r0, [r4, #3]	@ zero_extendqisi2
 1902 009c FFF7FEFF 		bl	__aeabi_i2d
 1903              	.LVL153:
 1904 00a0 5DA3     		adr	r3, .L93
 1905 00a2 D3E90023 		ldrd	r2, [r3]
 1906 00a6 FFF7FEFF 		bl	__aeabi_dmul
 1907              	.LVL154:
 1908 00aa FFF7FEFF 		bl	__aeabi_d2f
 1909              	.LVL155:
 166:src/unit/robot/robot.cpp ****                   }
 1910              		.loc 1 166 48 view .LVU546
 1911 00ae 2861     		str	r0, [r5, #16]	@ float
 1912 00b0 CFE7     		b	.L77
 1913              	.L86:
 166:src/unit/robot/robot.cpp ****                   }
 1914              		.loc 1 166 48 view .LVU547
 1915              	.LBE188:
 172:src/unit/robot/robot.cpp ****             }
 173:src/unit/robot/robot.cpp ****       }
 174:src/unit/robot/robot.cpp **** 
 175:src/unit/robot/robot.cpp ****       if (info.mode == 0) {
 1916              		.loc 1 175 7 is_stmt 1 view .LVU548
 1917              	.LBB189:
 1918              		.loc 1 175 16 is_stmt 0 view .LVU549
 1919 00b2 2B7A     		ldrb	r3, [r5, #8]	@ zero_extendqisi2
 1920              		.loc 1 175 7 view .LVU550
 1921 00b4 0BB1     		cbz	r3, .L89
 1922              	.LVL156:
 1923              	.L71:
 1924              		.loc 1 175 7 view .LVU551
 1925              	.LBE189:
 176:src/unit/robot/robot.cpp ****             int16_t debug_val[2];
 177:src/unit/robot/robot.cpp ****             debug_val[0] = info.Cam.ball_dir;
 178:src/unit/robot/robot.cpp ****             debug_val[1] = info.Cam.ball_dis;
 179:src/unit/robot/robot.cpp **** 
 180:src/unit/robot/robot.cpp ****             if (ui_send_interval_timer.read_us() >= UI_SEND_PERIOD_US) {
 181:src/unit/robot/robot.cpp ****                   static const uint8_t HEADER = 0xFF;  // ヘッダ
 182:src/unit/robot/robot.cpp ****                   static const uint8_t FOOTER = 0xAA;  // ヘッダ
 183:src/unit/robot/robot.cpp ****                   if (item == -2) {
 184:src/unit/robot/robot.cpp ****                         static const uint8_t data_size = 1;
 185:src/unit/robot/robot.cpp ****                         uint8_t send_data[data_size];
 186:src/unit/robot/robot.cpp ****                         send_data[0] = info.Catch.is_front << 1 | info.Catch.is_back;
 187:src/unit/robot/robot.cpp ****                         serial3.write(send_data, data_size);
 188:src/unit/robot/robot.cpp ****                   } else if (item == 0) {
 189:src/unit/robot/robot.cpp ****                         static const uint8_t data_size = 10;
 190:src/unit/robot/robot.cpp ****                         uint8_t send_data[data_size];
 191:src/unit/robot/robot.cpp ****                         send_data[0] = HEADER;
 192:src/unit/robot/robot.cpp ****                         send_data[1] = info.voltage * 20;
ARM GAS  /var/folders/5c/srt4fy4j1pd641bjfx75k5000000gn/T//ccgUJOj8.s 			page 45


 193:src/unit/robot/robot.cpp ****                         send_data[2] = info.voltage * 0;
 194:src/unit/robot/robot.cpp ****                         send_data[3] = (uint8_t)(((uint16_t)(info.Imu.yaw + 32768) & 0xFF00) >> 8);
 195:src/unit/robot/robot.cpp ****                         send_data[4] = (uint8_t)((uint16_t)(info.Imu.yaw + 32768) & 0x00FF);
 196:src/unit/robot/robot.cpp ****                         send_data[5] = (uint8_t)(((uint16_t)(debug_val[0] + 32768) & 0xFF00) >> 8);
 197:src/unit/robot/robot.cpp ****                         send_data[6] = (uint8_t)((uint16_t)(debug_val[0] + 32768) & 0x00FF);
 198:src/unit/robot/robot.cpp ****                         send_data[7] = (uint8_t)(((uint16_t)(debug_val[1] + 32768) & 0xFF00) >> 8);
 199:src/unit/robot/robot.cpp ****                         send_data[8] = (uint8_t)((uint16_t)(debug_val[1] + 32768) & 0x00FF);
 200:src/unit/robot/robot.cpp ****                         send_data[9] = FOOTER;
 201:src/unit/robot/robot.cpp ****                         serial3.write(send_data, data_size);
 202:src/unit/robot/robot.cpp ****                   } else if (item == 1) {
 203:src/unit/robot/robot.cpp ****                         static const uint8_t data_size = 6;
 204:src/unit/robot/robot.cpp ****                         uint8_t send_data[data_size];
 205:src/unit/robot/robot.cpp ****                         send_data[0] = HEADER;
 206:src/unit/robot/robot.cpp ****                         send_data[1] = info.Line.dir * 0.5 + 90;
 207:src/unit/robot/robot.cpp ****                         send_data[2] = info.Line.inside_dir * 0.5 + 90;
 208:src/unit/robot/robot.cpp ****                         send_data[3] = info.Line.interval;
 209:src/unit/robot/robot.cpp ****                         send_data[4] = info.Line.is_on_line << 2 | info.Line.is_leftside << 1 | inf
 210:src/unit/robot/robot.cpp ****                         send_data[5] = FOOTER;
 211:src/unit/robot/robot.cpp ****                         serial3.write(send_data, data_size);
 212:src/unit/robot/robot.cpp ****                   }
 213:src/unit/robot/robot.cpp **** 
 214:src/unit/robot/robot.cpp ****                   ui_send_interval_timer.reset();
 215:src/unit/robot/robot.cpp ****             }
 216:src/unit/robot/robot.cpp ****       }
 217:src/unit/robot/robot.cpp **** }
 1926              		.loc 1 217 1 view .LVU552
 1927 00b6 05B0     		add	sp, sp, #20
 1928              	.LCFI14:
 1929              		.cfi_remember_state
 1930              		.cfi_def_cfa_offset 20
 1931              		@ sp needed
 1932 00b8 F0BD     		pop	{r4, r5, r6, r7, pc}
 1933              	.LVL157:
 1934              	.L89:
 1935              	.LCFI15:
 1936              		.cfi_restore_state
 1937              	.LBB220:
 1938              	.LBB190:
 176:src/unit/robot/robot.cpp ****             int16_t debug_val[2];
 1939              		.loc 1 176 13 is_stmt 1 view .LVU553
 177:src/unit/robot/robot.cpp ****             debug_val[1] = info.Cam.ball_dis;
 1940              		.loc 1 177 13 view .LVU554
 177:src/unit/robot/robot.cpp ****             debug_val[1] = info.Cam.ball_dis;
 1941              		.loc 1 177 37 is_stmt 0 view .LVU555
 1942 00ba B5F93070 		ldrsh	r7, [r5, #48]
 177:src/unit/robot/robot.cpp ****             debug_val[1] = info.Cam.ball_dis;
 1943              		.loc 1 177 26 view .LVU556
 1944 00be ADF80070 		strh	r7, [sp]	@ movhi
 178:src/unit/robot/robot.cpp **** 
 1945              		.loc 1 178 13 is_stmt 1 view .LVU557
 178:src/unit/robot/robot.cpp **** 
 1946              		.loc 1 178 37 is_stmt 0 view .LVU558
 1947 00c2 B5F93260 		ldrsh	r6, [r5, #50]
 178:src/unit/robot/robot.cpp **** 
 1948              		.loc 1 178 26 view .LVU559
 1949 00c6 ADF80260 		strh	r6, [sp, #2]	@ movhi
 180:src/unit/robot/robot.cpp ****                   static const uint8_t HEADER = 0xFF;  // ヘッダ
ARM GAS  /var/folders/5c/srt4fy4j1pd641bjfx75k5000000gn/T//ccgUJOj8.s 			page 46


 1950              		.loc 1 180 13 is_stmt 1 view .LVU560
 1951              	.LBB191:
 180:src/unit/robot/robot.cpp ****                   static const uint8_t HEADER = 0xFF;  // ヘッダ
 1952              		.loc 1 180 47 is_stmt 0 view .LVU561
 1953 00ca 05F5B754 		add	r4, r5, #5856
 1954 00ce 1834     		adds	r4, r4, #24
 1955 00d0 2046     		mov	r0, r4
 1956 00d2 FFF7FEFF 		bl	_ZN5Timer7read_usEv
 1957              	.LVL158:
 180:src/unit/robot/robot.cpp ****                   static const uint8_t HEADER = 0xFF;  // ヘッダ
 1958              		.loc 1 180 13 view .LVU562
 1959 00d6 574B     		ldr	r3, .L93+28
 1960 00d8 9842     		cmp	r0, r3
 1961 00da ECD9     		bls	.L71
 1962              	.LBB192:
 181:src/unit/robot/robot.cpp ****                   static const uint8_t FOOTER = 0xAA;  // ヘッダ
 1963              		.loc 1 181 19 is_stmt 1 view .LVU563
 182:src/unit/robot/robot.cpp ****                   if (item == -2) {
 1964              		.loc 1 182 19 view .LVU564
 183:src/unit/robot/robot.cpp ****                         static const uint8_t data_size = 1;
 1965              		.loc 1 183 19 view .LVU565
 1966              	.LBB193:
 183:src/unit/robot/robot.cpp ****                         static const uint8_t data_size = 1;
 1967              		.loc 1 183 28 is_stmt 0 view .LVU566
 1968 00dc 534B     		ldr	r3, .L93+20
 1969 00de 93F90030 		ldrsb	r3, [r3]
 183:src/unit/robot/robot.cpp ****                         static const uint8_t data_size = 1;
 1970              		.loc 1 183 19 view .LVU567
 1971 00e2 13F1020F 		cmn	r3, #2
 1972 00e6 06D0     		beq	.L90
 1973              	.LBE193:
 1974              	.LBE192:
 1975              	.LBE191:
 1976              	.LBE190:
 1977              	.LBE220:
 188:src/unit/robot/robot.cpp ****                         static const uint8_t data_size = 10;
 1978              		.loc 1 188 26 is_stmt 1 view .LVU568
 1979              	.LBB221:
 1980              	.LBB217:
 1981              	.LBB214:
 1982              	.LBB211:
 1983              	.LBB208:
 1984              	.LBB194:
 1985 00e8 BBB1     		cbz	r3, .L91
 1986              	.LBE194:
 1987              	.LBE208:
 1988              	.LBE211:
 1989              	.LBE214:
 1990              	.LBE217:
 1991              	.LBE221:
 202:src/unit/robot/robot.cpp ****                         static const uint8_t data_size = 6;
 1992              		.loc 1 202 26 view .LVU569
 1993              	.LBB222:
 1994              	.LBB218:
 1995              	.LBB215:
 1996              	.LBB212:
 1997              	.LBB209:
ARM GAS  /var/folders/5c/srt4fy4j1pd641bjfx75k5000000gn/T//ccgUJOj8.s 			page 47


 1998              	.LBB203:
 1999              	.LBB195:
 2000 00ea 012B     		cmp	r3, #1
 2001 00ec 55D0     		beq	.L92
 2002              	.LVL159:
 2003              	.L82:
 202:src/unit/robot/robot.cpp ****                         static const uint8_t data_size = 6;
 2004              		.loc 1 202 26 is_stmt 0 view .LVU570
 2005              	.LBE195:
 2006              	.LBE203:
 2007              	.LBE209:
 214:src/unit/robot/robot.cpp ****             }
 2008              		.loc 1 214 19 is_stmt 1 view .LVU571
 214:src/unit/robot/robot.cpp ****             }
 2009              		.loc 1 214 47 is_stmt 0 view .LVU572
 2010 00ee 2046     		mov	r0, r4
 2011 00f0 FFF7FEFF 		bl	_ZN5Timer5resetEv
 2012              	.LVL160:
 2013              	.LBE212:
 2014              	.LBE215:
 2015              	.LBE218:
 2016              	.LBE222:
 2017              		.loc 1 217 1 view .LVU573
 2018 00f4 DFE7     		b	.L71
 2019              	.LVL161:
 2020              	.L90:
 2021              	.LBB223:
 2022              	.LBB219:
 2023              	.LBB216:
 2024              	.LBB213:
 2025              	.LBB210:
 2026              	.LBB204:
 184:src/unit/robot/robot.cpp ****                         uint8_t send_data[data_size];
 2027              		.loc 1 184 25 is_stmt 1 view .LVU574
 185:src/unit/robot/robot.cpp ****                         send_data[0] = info.Catch.is_front << 1 | info.Catch.is_back;
 2028              		.loc 1 185 25 view .LVU575
 186:src/unit/robot/robot.cpp ****                         serial3.write(send_data, data_size);
 2029              		.loc 1 186 25 view .LVU576
 186:src/unit/robot/robot.cpp ****                         serial3.write(send_data, data_size);
 2030              		.loc 1 186 51 is_stmt 0 view .LVU577
 2031 00f6 95F82220 		ldrb	r2, [r5, #34]	@ zero_extendqisi2
 186:src/unit/robot/robot.cpp ****                         serial3.write(send_data, data_size);
 2032              		.loc 1 186 78 view .LVU578
 2033 00fa 95F92630 		ldrsb	r3, [r5, #38]
 186:src/unit/robot/robot.cpp ****                         serial3.write(send_data, data_size);
 2034              		.loc 1 186 65 view .LVU579
 2035 00fe 43EA4203 		orr	r3, r3, r2, lsl #1
 186:src/unit/robot/robot.cpp ****                         serial3.write(send_data, data_size);
 2036              		.loc 1 186 38 view .LVU580
 2037 0102 8DF80430 		strb	r3, [sp, #4]
 187:src/unit/robot/robot.cpp ****                   } else if (item == 0) {
 2038              		.loc 1 187 25 is_stmt 1 view .LVU581
 2039              	.LVL162:
 2040              	.LBB205:
 2041              	.LBI205:
  56:Lib/BufferedSerial/BufferedSerial.hpp ****       }
  57:Lib/BufferedSerial/BufferedSerial.hpp **** 
ARM GAS  /var/folders/5c/srt4fy4j1pd641bjfx75k5000000gn/T//ccgUJOj8.s 			page 48


  58:Lib/BufferedSerial/BufferedSerial.hpp ****       void write(const uint8_t *data, uint16_t len) {
 2042              		.loc 2 58 12 view .LVU582
 2043              	.LBB206:
  59:Lib/BufferedSerial/BufferedSerial.hpp ****             HAL_UART_Transmit(_huart, (uint8_t *)data, len, 100);
 2044              		.loc 2 59 13 view .LVU583
 2045              		.loc 2 59 30 is_stmt 0 view .LVU584
 2046 0106 05F58055 		add	r5, r5, #4096
 2047              	.LVL163:
 2048              		.loc 2 59 30 view .LVU585
 2049 010a 6423     		movs	r3, #100
 2050 010c 0122     		movs	r2, #1
 2051 010e 01A9     		add	r1, sp, #4
 2052              	.LVL164:
 2053              		.loc 2 59 30 view .LVU586
 2054 0110 D5F8D406 		ldr	r0, [r5, #1748]
 2055 0114 FFF7FEFF 		bl	HAL_UART_Transmit
 2056              	.LVL165:
 2057              		.loc 2 59 30 view .LVU587
 2058              	.LBE206:
 2059              	.LBE205:
 2060              	.LBE204:
 2061 0118 E9E7     		b	.L82
 2062              	.LVL166:
 2063              	.L91:
 2064              	.LBB207:
 2065              	.LBB199:
 189:src/unit/robot/robot.cpp ****                         uint8_t send_data[data_size];
 2066              		.loc 1 189 25 is_stmt 1 view .LVU588
 190:src/unit/robot/robot.cpp ****                         send_data[0] = HEADER;
 2067              		.loc 1 190 25 view .LVU589
 191:src/unit/robot/robot.cpp ****                         send_data[1] = info.voltage * 20;
 2068              		.loc 1 191 25 view .LVU590
 191:src/unit/robot/robot.cpp ****                         send_data[1] = info.voltage * 20;
 2069              		.loc 1 191 38 is_stmt 0 view .LVU591
 2070 011a FF23     		movs	r3, #255
 2071 011c 8DF80430 		strb	r3, [sp, #4]
 192:src/unit/robot/robot.cpp ****                         send_data[2] = info.voltage * 0;
 2072              		.loc 1 192 25 is_stmt 1 view .LVU592
 192:src/unit/robot/robot.cpp ****                         send_data[2] = info.voltage * 0;
 2073              		.loc 1 192 45 is_stmt 0 view .LVU593
 2074 0120 D5ED007A 		vldr.32	s15, [r5]
 192:src/unit/robot/robot.cpp ****                         send_data[2] = info.voltage * 0;
 2075              		.loc 1 192 53 view .LVU594
 2076 0124 B3EE047A 		vmov.f32	s14, #2.0e+1
 2077 0128 27EE877A 		vmul.f32	s14, s15, s14
 192:src/unit/robot/robot.cpp ****                         send_data[2] = info.voltage * 0;
 2078              		.loc 1 192 38 view .LVU595
 2079 012c BCEEC77A 		vcvt.u32.f32	s14, s14
 2080 0130 17EE103A 		vmov	r3, s14	@ int
 2081 0134 8DF80530 		strb	r3, [sp, #5]
 193:src/unit/robot/robot.cpp ****                         send_data[3] = (uint8_t)(((uint16_t)(info.Imu.yaw + 32768) & 0xFF00) >> 8);
 2082              		.loc 1 193 25 is_stmt 1 view .LVU596
 193:src/unit/robot/robot.cpp ****                         send_data[3] = (uint8_t)(((uint16_t)(info.Imu.yaw + 32768) & 0xFF00) >> 8);
 2083              		.loc 1 193 53 is_stmt 0 view .LVU597
 2084 0138 9FED3F7A 		vldr.32	s14, .L93+32
 2085 013c 67EE877A 		vmul.f32	s15, s15, s14
 193:src/unit/robot/robot.cpp ****                         send_data[3] = (uint8_t)(((uint16_t)(info.Imu.yaw + 32768) & 0xFF00) >> 8);
ARM GAS  /var/folders/5c/srt4fy4j1pd641bjfx75k5000000gn/T//ccgUJOj8.s 			page 49


 2086              		.loc 1 193 38 view .LVU598
 2087 0140 FCEEE77A 		vcvt.u32.f32	s15, s15
 2088 0144 17EE903A 		vmov	r3, s15	@ int
 2089 0148 8DF80630 		strb	r3, [sp, #6]
 194:src/unit/robot/robot.cpp ****                         send_data[4] = (uint8_t)((uint16_t)(info.Imu.yaw + 32768) & 0x00FF);
 2090              		.loc 1 194 25 is_stmt 1 view .LVU599
 194:src/unit/robot/robot.cpp ****                         send_data[4] = (uint8_t)((uint16_t)(info.Imu.yaw + 32768) & 0x00FF);
 2091              		.loc 1 194 71 is_stmt 0 view .LVU600
 2092 014c B5F92820 		ldrsh	r2, [r5, #40]
 2093 0150 93B2     		uxth	r3, r2
 194:src/unit/robot/robot.cpp ****                         send_data[4] = (uint8_t)((uint16_t)(info.Imu.yaw + 32768) & 0x00FF);
 2094              		.loc 1 194 75 view .LVU601
 2095 0152 83F40043 		eor	r3, r3, #32768
 194:src/unit/robot/robot.cpp ****                         send_data[4] = (uint8_t)((uint16_t)(info.Imu.yaw + 32768) & 0x00FF);
 2096              		.loc 1 194 94 view .LVU602
 2097 0156 1B0A     		lsrs	r3, r3, #8
 194:src/unit/robot/robot.cpp ****                         send_data[4] = (uint8_t)((uint16_t)(info.Imu.yaw + 32768) & 0x00FF);
 2098              		.loc 1 194 38 view .LVU603
 2099 0158 8DF80730 		strb	r3, [sp, #7]
 195:src/unit/robot/robot.cpp ****                         send_data[5] = (uint8_t)(((uint16_t)(debug_val[0] + 32768) & 0xFF00) >> 8);
 2100              		.loc 1 195 25 is_stmt 1 view .LVU604
 195:src/unit/robot/robot.cpp ****                         send_data[5] = (uint8_t)(((uint16_t)(debug_val[0] + 32768) & 0xFF00) >> 8);
 2101              		.loc 1 195 38 is_stmt 0 view .LVU605
 2102 015c 8DF80820 		strb	r2, [sp, #8]
 196:src/unit/robot/robot.cpp ****                         send_data[6] = (uint8_t)((uint16_t)(debug_val[0] + 32768) & 0x00FF);
 2103              		.loc 1 196 25 is_stmt 1 view .LVU606
 196:src/unit/robot/robot.cpp ****                         send_data[6] = (uint8_t)((uint16_t)(debug_val[0] + 32768) & 0x00FF);
 2104              		.loc 1 196 73 is_stmt 0 view .LVU607
 2105 0160 BBB2     		uxth	r3, r7
 196:src/unit/robot/robot.cpp ****                         send_data[6] = (uint8_t)((uint16_t)(debug_val[0] + 32768) & 0x00FF);
 2106              		.loc 1 196 75 view .LVU608
 2107 0162 83F40043 		eor	r3, r3, #32768
 196:src/unit/robot/robot.cpp ****                         send_data[6] = (uint8_t)((uint16_t)(debug_val[0] + 32768) & 0x00FF);
 2108              		.loc 1 196 94 view .LVU609
 2109 0166 1B0A     		lsrs	r3, r3, #8
 196:src/unit/robot/robot.cpp ****                         send_data[6] = (uint8_t)((uint16_t)(debug_val[0] + 32768) & 0x00FF);
 2110              		.loc 1 196 38 view .LVU610
 2111 0168 8DF80930 		strb	r3, [sp, #9]
 197:src/unit/robot/robot.cpp ****                         send_data[7] = (uint8_t)(((uint16_t)(debug_val[1] + 32768) & 0xFF00) >> 8);
 2112              		.loc 1 197 25 is_stmt 1 view .LVU611
 197:src/unit/robot/robot.cpp ****                         send_data[7] = (uint8_t)(((uint16_t)(debug_val[1] + 32768) & 0xFF00) >> 8);
 2113              		.loc 1 197 38 is_stmt 0 view .LVU612
 2114 016c 8DF80A70 		strb	r7, [sp, #10]
 198:src/unit/robot/robot.cpp ****                         send_data[8] = (uint8_t)((uint16_t)(debug_val[1] + 32768) & 0x00FF);
 2115              		.loc 1 198 25 is_stmt 1 view .LVU613
 198:src/unit/robot/robot.cpp ****                         send_data[8] = (uint8_t)((uint16_t)(debug_val[1] + 32768) & 0x00FF);
 2116              		.loc 1 198 73 is_stmt 0 view .LVU614
 2117 0170 B3B2     		uxth	r3, r6
 198:src/unit/robot/robot.cpp ****                         send_data[8] = (uint8_t)((uint16_t)(debug_val[1] + 32768) & 0x00FF);
 2118              		.loc 1 198 75 view .LVU615
 2119 0172 83F40043 		eor	r3, r3, #32768
 198:src/unit/robot/robot.cpp ****                         send_data[8] = (uint8_t)((uint16_t)(debug_val[1] + 32768) & 0x00FF);
 2120              		.loc 1 198 94 view .LVU616
 2121 0176 1B0A     		lsrs	r3, r3, #8
 198:src/unit/robot/robot.cpp ****                         send_data[8] = (uint8_t)((uint16_t)(debug_val[1] + 32768) & 0x00FF);
 2122              		.loc 1 198 38 view .LVU617
 2123 0178 8DF80B30 		strb	r3, [sp, #11]
ARM GAS  /var/folders/5c/srt4fy4j1pd641bjfx75k5000000gn/T//ccgUJOj8.s 			page 50


 199:src/unit/robot/robot.cpp ****                         send_data[9] = FOOTER;
 2124              		.loc 1 199 25 is_stmt 1 view .LVU618
 199:src/unit/robot/robot.cpp ****                         send_data[9] = FOOTER;
 2125              		.loc 1 199 38 is_stmt 0 view .LVU619
 2126 017c 8DF80C60 		strb	r6, [sp, #12]
 200:src/unit/robot/robot.cpp ****                         serial3.write(send_data, data_size);
 2127              		.loc 1 200 25 is_stmt 1 view .LVU620
 200:src/unit/robot/robot.cpp ****                         serial3.write(send_data, data_size);
 2128              		.loc 1 200 38 is_stmt 0 view .LVU621
 2129 0180 AA23     		movs	r3, #170
 2130 0182 8DF80D30 		strb	r3, [sp, #13]
 201:src/unit/robot/robot.cpp ****                   } else if (item == 1) {
 2131              		.loc 1 201 25 is_stmt 1 view .LVU622
 2132              	.LVL167:
 2133              	.LBB200:
 2134              	.LBI200:
  58:Lib/BufferedSerial/BufferedSerial.hpp ****             HAL_UART_Transmit(_huart, (uint8_t *)data, len, 100);
 2135              		.loc 2 58 12 view .LVU623
 2136              	.LBB201:
 2137              		.loc 2 59 13 view .LVU624
 2138              		.loc 2 59 30 is_stmt 0 view .LVU625
 2139 0186 05F58055 		add	r5, r5, #4096
 2140              	.LVL168:
 2141              		.loc 2 59 30 view .LVU626
 2142 018a 6423     		movs	r3, #100
 2143 018c 0A22     		movs	r2, #10
 2144 018e 01A9     		add	r1, sp, #4
 2145              	.LVL169:
 2146              		.loc 2 59 30 view .LVU627
 2147 0190 D5F8D406 		ldr	r0, [r5, #1748]
 2148 0194 FFF7FEFF 		bl	HAL_UART_Transmit
 2149              	.LVL170:
 2150              		.loc 2 59 30 view .LVU628
 2151              	.LBE201:
 2152              	.LBE200:
 2153              	.LBE199:
 2154 0198 A9E7     		b	.L82
 2155              	.LVL171:
 2156              	.L92:
 2157              	.LBB202:
 2158              	.LBB196:
 203:src/unit/robot/robot.cpp ****                         uint8_t send_data[data_size];
 2159              		.loc 1 203 25 is_stmt 1 view .LVU629
 204:src/unit/robot/robot.cpp ****                         send_data[0] = HEADER;
 2160              		.loc 1 204 25 view .LVU630
 205:src/unit/robot/robot.cpp ****                         send_data[1] = info.Line.dir * 0.5 + 90;
 2161              		.loc 1 205 25 view .LVU631
 205:src/unit/robot/robot.cpp ****                         send_data[1] = info.Line.dir * 0.5 + 90;
 2162              		.loc 1 205 38 is_stmt 0 view .LVU632
 2163 019a FF23     		movs	r3, #255
 2164 019c 8DF80430 		strb	r3, [sp, #4]
 206:src/unit/robot/robot.cpp ****                         send_data[2] = info.Line.inside_dir * 0.5 + 90;
 2165              		.loc 1 206 25 is_stmt 1 view .LVU633
 206:src/unit/robot/robot.cpp ****                         send_data[2] = info.Line.inside_dir * 0.5 + 90;
 2166              		.loc 1 206 54 is_stmt 0 view .LVU634
 2167 01a0 B5F91A00 		ldrsh	r0, [r5, #26]
 2168 01a4 FFF7FEFF 		bl	__aeabi_i2d
ARM GAS  /var/folders/5c/srt4fy4j1pd641bjfx75k5000000gn/T//ccgUJOj8.s 			page 51


 2169              	.LVL172:
 2170 01a8 0022     		movs	r2, #0
 2171 01aa 244B     		ldr	r3, .L93+36
 2172 01ac FFF7FEFF 		bl	__aeabi_dmul
 2173              	.LVL173:
 206:src/unit/robot/robot.cpp ****                         send_data[2] = info.Line.inside_dir * 0.5 + 90;
 2174              		.loc 1 206 60 view .LVU635
 2175 01b0 0022     		movs	r2, #0
 2176 01b2 234B     		ldr	r3, .L93+40
 2177 01b4 FFF7FEFF 		bl	__aeabi_dadd
 2178              	.LVL174:
 206:src/unit/robot/robot.cpp ****                         send_data[2] = info.Line.inside_dir * 0.5 + 90;
 2179              		.loc 1 206 38 view .LVU636
 2180 01b8 FFF7FEFF 		bl	__aeabi_d2uiz
 2181              	.LVL175:
 2182 01bc 8DF80500 		strb	r0, [sp, #5]
 207:src/unit/robot/robot.cpp ****                         send_data[3] = info.Line.interval;
 2183              		.loc 1 207 25 is_stmt 1 view .LVU637
 207:src/unit/robot/robot.cpp ****                         send_data[3] = info.Line.interval;
 2184              		.loc 1 207 61 is_stmt 0 view .LVU638
 2185 01c0 B5F91C00 		ldrsh	r0, [r5, #28]
 2186 01c4 FFF7FEFF 		bl	__aeabi_i2d
 2187              	.LVL176:
 2188 01c8 0022     		movs	r2, #0
 2189 01ca 1C4B     		ldr	r3, .L93+36
 2190 01cc FFF7FEFF 		bl	__aeabi_dmul
 2191              	.LVL177:
 207:src/unit/robot/robot.cpp ****                         send_data[3] = info.Line.interval;
 2192              		.loc 1 207 67 view .LVU639
 2193 01d0 0022     		movs	r2, #0
 2194 01d2 1B4B     		ldr	r3, .L93+40
 2195 01d4 FFF7FEFF 		bl	__aeabi_dadd
 2196              	.LVL178:
 207:src/unit/robot/robot.cpp ****                         send_data[3] = info.Line.interval;
 2197              		.loc 1 207 38 view .LVU640
 2198 01d8 FFF7FEFF 		bl	__aeabi_d2uiz
 2199              	.LVL179:
 2200 01dc 8DF80600 		strb	r0, [sp, #6]
 208:src/unit/robot/robot.cpp ****                         send_data[4] = info.Line.is_on_line << 2 | info.Line.is_leftside << 1 | inf
 2201              		.loc 1 208 25 is_stmt 1 view .LVU641
 208:src/unit/robot/robot.cpp ****                         send_data[4] = info.Line.is_on_line << 2 | info.Line.is_leftside << 1 | inf
 2202              		.loc 1 208 50 is_stmt 0 view .LVU642
 2203 01e0 2B7D     		ldrb	r3, [r5, #20]	@ zero_extendqisi2
 208:src/unit/robot/robot.cpp ****                         send_data[4] = info.Line.is_on_line << 2 | info.Line.is_leftside << 1 | inf
 2204              		.loc 1 208 38 view .LVU643
 2205 01e2 8DF80730 		strb	r3, [sp, #7]
 209:src/unit/robot/robot.cpp ****                         send_data[5] = FOOTER;
 2206              		.loc 1 209 25 is_stmt 1 view .LVU644
 209:src/unit/robot/robot.cpp ****                         send_data[5] = FOOTER;
 2207              		.loc 1 209 50 is_stmt 0 view .LVU645
 2208 01e6 AA7D     		ldrb	r2, [r5, #22]	@ zero_extendqisi2
 209:src/unit/robot/robot.cpp ****                         send_data[5] = FOOTER;
 2209              		.loc 1 209 78 view .LVU646
 2210 01e8 EB7D     		ldrb	r3, [r5, #23]	@ zero_extendqisi2
 209:src/unit/robot/robot.cpp ****                         send_data[5] = FOOTER;
 2211              		.loc 1 209 90 view .LVU647
 2212 01ea 5B00     		lsls	r3, r3, #1
ARM GAS  /var/folders/5c/srt4fy4j1pd641bjfx75k5000000gn/T//ccgUJOj8.s 			page 52


 209:src/unit/robot/robot.cpp ****                         send_data[5] = FOOTER;
 2213              		.loc 1 209 66 view .LVU648
 2214 01ec 43EA8203 		orr	r3, r3, r2, lsl #2
 2215 01f0 5BB2     		sxtb	r3, r3
 209:src/unit/robot/robot.cpp ****                         send_data[5] = FOOTER;
 2216              		.loc 1 209 107 view .LVU649
 2217 01f2 95F91820 		ldrsb	r2, [r5, #24]
 209:src/unit/robot/robot.cpp ****                         send_data[5] = FOOTER;
 2218              		.loc 1 209 95 view .LVU650
 2219 01f6 1343     		orrs	r3, r3, r2
 209:src/unit/robot/robot.cpp ****                         send_data[5] = FOOTER;
 2220              		.loc 1 209 38 view .LVU651
 2221 01f8 8DF80830 		strb	r3, [sp, #8]
 210:src/unit/robot/robot.cpp ****                         serial3.write(send_data, data_size);
 2222              		.loc 1 210 25 is_stmt 1 view .LVU652
 210:src/unit/robot/robot.cpp ****                         serial3.write(send_data, data_size);
 2223              		.loc 1 210 38 is_stmt 0 view .LVU653
 2224 01fc AA23     		movs	r3, #170
 2225 01fe 8DF80930 		strb	r3, [sp, #9]
 211:src/unit/robot/robot.cpp ****                   }
 2226              		.loc 1 211 25 is_stmt 1 view .LVU654
 2227              	.LVL180:
 2228              	.LBB197:
 2229              	.LBI197:
  58:Lib/BufferedSerial/BufferedSerial.hpp ****             HAL_UART_Transmit(_huart, (uint8_t *)data, len, 100);
 2230              		.loc 2 58 12 view .LVU655
 2231              	.LBB198:
 2232              		.loc 2 59 13 view .LVU656
 2233              		.loc 2 59 30 is_stmt 0 view .LVU657
 2234 0202 05F58055 		add	r5, r5, #4096
 2235              	.LVL181:
 2236              		.loc 2 59 30 view .LVU658
 2237 0206 6423     		movs	r3, #100
 2238 0208 0622     		movs	r2, #6
 2239 020a 01A9     		add	r1, sp, #4
 2240              	.LVL182:
 2241              		.loc 2 59 30 view .LVU659
 2242 020c D5F8D406 		ldr	r0, [r5, #1748]
 2243 0210 FFF7FEFF 		bl	HAL_UART_Transmit
 2244              	.LVL183:
 2245              		.loc 2 59 30 view .LVU660
 2246              	.LBE198:
 2247              	.LBE197:
 2248              	.LBE196:
 2249 0214 6BE7     		b	.L82
 2250              	.L94:
 2251 0216 00BF     		.align	3
 2252              	.L93:
 2253 0218 7B14AE47 		.word	1202590843
 2254 021c E17A843F 		.word	1065646817
 2255 0220 00000000 		.word	_ZZN5Robot6UiUartEvE5index
 2256 0224 00000000 		.word	_ZZN5Robot6UiUartEvE9recv_data
 2257 0228 00000000 		.word	_ZZN5Robot6UiUartEvE9recv_byte
 2258 022c 00000000 		.word	_ZZN5Robot6UiUartEvE4item
 2259 0230 00000000 		.word	_ZZN5Robot6UiUartEvE8sub_item
 2260 0234 9F860100 		.word	99999
 2261 0238 00000000 		.word	0
ARM GAS  /var/folders/5c/srt4fy4j1pd641bjfx75k5000000gn/T//ccgUJOj8.s 			page 53


 2262 023c 0000E03F 		.word	1071644672
 2263 0240 00805640 		.word	1079410688
 2264              	.LBE202:
 2265              	.LBE207:
 2266              	.LBE210:
 2267              	.LBE213:
 2268              	.LBE216:
 2269              	.LBE219:
 2270              	.LBE223:
 2271              		.cfi_endproc
 2272              	.LFE279:
 2273              		.fnend
 2275              		.section	.text._ZN5Robot7CamUartEv,"ax",%progbits
 2276              		.align	1
 2277              		.global	_ZN5Robot7CamUartEv
 2278              		.syntax unified
 2279              		.thumb
 2280              		.thumb_func
 2282              	_ZN5Robot7CamUartEv:
 2283              		.fnstart
 2284              	.LVL184:
 2285              	.LFB280:
 218:src/unit/robot/robot.cpp **** 
 219:src/unit/robot/robot.cpp **** void Robot::CamUart() {
 2286              		.loc 1 219 23 is_stmt 1 view -0
 2287              		.cfi_startproc
 2288              		@ args = 0, pretend = 0, frame = 8
 2289              		@ frame_needed = 0, uses_anonymous_args = 0
 2290              		.loc 1 219 23 is_stmt 0 view .LVU662
 2291 0000 30B5     		push	{r4, r5, lr}
 2292              		.save {r4, r5, lr}
 2293              	.LCFI16:
 2294              		.cfi_def_cfa_offset 12
 2295              		.cfi_offset 4, -12
 2296              		.cfi_offset 5, -8
 2297              		.cfi_offset 14, -4
 2298              		.pad #12
 2299 0002 83B0     		sub	sp, sp, #12
 2300              	.LCFI17:
 2301              		.cfi_def_cfa_offset 24
 2302 0004 0546     		mov	r5, r0
 220:src/unit/robot/robot.cpp ****       while (serial4.available()) {
 2303              		.loc 1 220 7 is_stmt 1 view .LVU663
 2304 0006 0BE0     		b	.L96
 2305              	.LVL185:
 2306              	.L107:
 2307              	.LBB224:
 221:src/unit/robot/robot.cpp ****             static const uint8_t HEADER = 0xFF;   // ヘッダ
 222:src/unit/robot/robot.cpp ****             static const uint8_t FOOTER = 0xAA;   // フッタ
 223:src/unit/robot/robot.cpp ****             static const uint8_t data_size = 11;  // データのサイズ
 224:src/unit/robot/robot.cpp ****             static uint8_t index = 0;             // 受信したデータのインデックスカ
 225:src/unit/robot/robot.cpp ****             static uint8_t recv_data[data_size];  // 受信したデータ
 226:src/unit/robot/robot.cpp ****             static uint8_t recv_byte;
 227:src/unit/robot/robot.cpp **** 
 228:src/unit/robot/robot.cpp ****             recv_byte = serial4.read();
 229:src/unit/robot/robot.cpp ****             if (index == 0) {
 230:src/unit/robot/robot.cpp ****                   if (recv_byte == HEADER) {
ARM GAS  /var/folders/5c/srt4fy4j1pd641bjfx75k5000000gn/T//ccgUJOj8.s 			page 54


 231:src/unit/robot/robot.cpp ****                         index++;
 2308              		.loc 1 231 25 view .LVU664
 2309              		.loc 1 231 30 is_stmt 0 view .LVU665
 2310 0008 0133     		adds	r3, r3, #1
 2311 000a 3C4A     		ldr	r2, .L110
 2312 000c 1370     		strb	r3, [r2]
 2313 000e 07E0     		b	.L96
 2314              	.L97:
 232:src/unit/robot/robot.cpp ****                   } else {
 233:src/unit/robot/robot.cpp ****                         index = 0;
 234:src/unit/robot/robot.cpp ****                   }
 235:src/unit/robot/robot.cpp ****             } else if (index == (data_size + 1)) {
 2315              		.loc 1 235 20 is_stmt 1 view .LVU666
 2316 0010 0C2B     		cmp	r3, #12
 2317 0012 1CD0     		beq	.L105
 236:src/unit/robot/robot.cpp ****                   if (recv_byte == FOOTER) {
 237:src/unit/robot/robot.cpp ****                         info.Cam.ball_dir = ((((uint16_t)recv_data[0] << 8) & 0xFF00) | ((int16_t)r
 238:src/unit/robot/robot.cpp ****                         info.Cam.ball_dis = recv_data[2];
 239:src/unit/robot/robot.cpp ****                         info.Cam.yellow_goal_dir = recv_data[3] * 2 - 180;
 240:src/unit/robot/robot.cpp ****                         info.Cam.yellow_goal_height = recv_data[4];
 241:src/unit/robot/robot.cpp ****                         info.Cam.blue_goal_dir = recv_data[5] * 2 - 180;
 242:src/unit/robot/robot.cpp ****                         info.Cam.blue_goal_height = recv_data[6];
 243:src/unit/robot/robot.cpp ****                         info.Cam.is_goal_front = recv_data[7];
 244:src/unit/robot/robot.cpp ****                         info.Cam.own_x = recv_data[8] - 127;
 245:src/unit/robot/robot.cpp ****                         info.Cam.own_y = recv_data[9] - 127;
 246:src/unit/robot/robot.cpp ****                         info.Cam.proximity[0] = recv_data[10];
 247:src/unit/robot/robot.cpp ****                   }
 248:src/unit/robot/robot.cpp ****                   index = 0;
 249:src/unit/robot/robot.cpp ****             } else {
 250:src/unit/robot/robot.cpp ****                   recv_data[index - 1] = recv_byte;
 2318              		.loc 1 250 19 view .LVU667
 2319              		.loc 1 250 35 is_stmt 0 view .LVU668
 2320 0014 5A1E     		subs	r2, r3, #1
 2321              		.loc 1 250 40 view .LVU669
 2322 0016 3A49     		ldr	r1, .L110+4
 2323 0018 8854     		strb	r0, [r1, r2]
 251:src/unit/robot/robot.cpp ****                   index++;
 2324              		.loc 1 251 19 is_stmt 1 view .LVU670
 2325              		.loc 1 251 24 is_stmt 0 view .LVU671
 2326 001a 0133     		adds	r3, r3, #1
 2327 001c 374A     		ldr	r2, .L110
 2328 001e 1370     		strb	r3, [r2]
 2329              	.L96:
 2330              		.loc 1 251 24 view .LVU672
 2331              	.LBE224:
 220:src/unit/robot/robot.cpp ****             static const uint8_t HEADER = 0xFF;   // ヘッダ
 2332              		.loc 1 220 31 is_stmt 1 view .LVU673
 2333 0020 05F5B754 		add	r4, r5, #5856
 2334 0024 0434     		adds	r4, r4, #4
 2335 0026 2046     		mov	r0, r4
 2336 0028 FFF7FEFF 		bl	_ZN14BufferedSerial9availableEv
 2337              	.LVL186:
 2338 002c 0028     		cmp	r0, #0
 2339 002e 3CD0     		beq	.L106
 2340              	.LBB225:
 221:src/unit/robot/robot.cpp ****             static const uint8_t FOOTER = 0xAA;   // フッタ
 2341              		.loc 1 221 13 view .LVU674
ARM GAS  /var/folders/5c/srt4fy4j1pd641bjfx75k5000000gn/T//ccgUJOj8.s 			page 55


 222:src/unit/robot/robot.cpp ****             static const uint8_t data_size = 11;  // データのサイズ
 2342              		.loc 1 222 13 view .LVU675
 223:src/unit/robot/robot.cpp ****             static uint8_t index = 0;             // 受信したデータのインデックスカ
 2343              		.loc 1 223 13 view .LVU676
 224:src/unit/robot/robot.cpp ****             static uint8_t recv_data[data_size];  // 受信したデータ
 2344              		.loc 1 224 13 view .LVU677
 225:src/unit/robot/robot.cpp ****             static uint8_t recv_byte;
 2345              		.loc 1 225 13 view .LVU678
 226:src/unit/robot/robot.cpp **** 
 2346              		.loc 1 226 13 view .LVU679
 228:src/unit/robot/robot.cpp ****             if (index == 0) {
 2347              		.loc 1 228 13 view .LVU680
 228:src/unit/robot/robot.cpp ****             if (index == 0) {
 2348              		.loc 1 228 37 is_stmt 0 view .LVU681
 2349 0030 2046     		mov	r0, r4
 2350 0032 FFF7FEFF 		bl	_ZN14BufferedSerial4readEv
 2351              	.LVL187:
 228:src/unit/robot/robot.cpp ****             if (index == 0) {
 2352              		.loc 1 228 23 view .LVU682
 2353 0036 334B     		ldr	r3, .L110+8
 2354 0038 1870     		strb	r0, [r3]
 229:src/unit/robot/robot.cpp ****                   if (recv_byte == HEADER) {
 2355              		.loc 1 229 13 is_stmt 1 view .LVU683
 229:src/unit/robot/robot.cpp ****                   if (recv_byte == HEADER) {
 2356              		.loc 1 229 23 is_stmt 0 view .LVU684
 2357 003a 304B     		ldr	r3, .L110
 2358 003c 1B78     		ldrb	r3, [r3]	@ zero_extendqisi2
 229:src/unit/robot/robot.cpp ****                   if (recv_byte == HEADER) {
 2359              		.loc 1 229 13 view .LVU685
 2360 003e 002B     		cmp	r3, #0
 2361 0040 E6D1     		bne	.L97
 230:src/unit/robot/robot.cpp ****                         index++;
 2362              		.loc 1 230 19 is_stmt 1 view .LVU686
 2363 0042 FF28     		cmp	r0, #255
 2364 0044 E0D0     		beq	.L107
 233:src/unit/robot/robot.cpp ****                   }
 2365              		.loc 1 233 25 view .LVU687
 233:src/unit/robot/robot.cpp ****                   }
 2366              		.loc 1 233 31 is_stmt 0 view .LVU688
 2367 0046 2D4B     		ldr	r3, .L110
 2368 0048 0022     		movs	r2, #0
 2369 004a 1A70     		strb	r2, [r3]
 2370 004c E8E7     		b	.L96
 2371              	.L105:
 236:src/unit/robot/robot.cpp ****                         info.Cam.ball_dir = ((((uint16_t)recv_data[0] << 8) & 0xFF00) | ((int16_t)r
 2372              		.loc 1 236 19 is_stmt 1 view .LVU689
 2373 004e AA28     		cmp	r0, #170
 2374 0050 03D0     		beq	.L108
 2375              	.L101:
 248:src/unit/robot/robot.cpp ****             } else {
 2376              		.loc 1 248 19 view .LVU690
 248:src/unit/robot/robot.cpp ****             } else {
 2377              		.loc 1 248 25 is_stmt 0 view .LVU691
 2378 0052 2A4B     		ldr	r3, .L110
 2379 0054 0022     		movs	r2, #0
 2380 0056 1A70     		strb	r2, [r3]
 2381 0058 E2E7     		b	.L96
ARM GAS  /var/folders/5c/srt4fy4j1pd641bjfx75k5000000gn/T//ccgUJOj8.s 			page 56


 2382              	.L108:
 237:src/unit/robot/robot.cpp ****                         info.Cam.ball_dis = recv_data[2];
 2383              		.loc 1 237 25 is_stmt 1 view .LVU692
 237:src/unit/robot/robot.cpp ****                         info.Cam.ball_dis = recv_data[2];
 2384              		.loc 1 237 69 is_stmt 0 view .LVU693
 2385 005a 294B     		ldr	r3, .L110+4
 2386 005c 1978     		ldrb	r1, [r3]	@ zero_extendqisi2
 237:src/unit/robot/robot.cpp ****                         info.Cam.ball_dis = recv_data[2];
 2387              		.loc 1 237 110 view .LVU694
 2388 005e 5A78     		ldrb	r2, [r3, #1]	@ zero_extendqisi2
 237:src/unit/robot/robot.cpp ****                         info.Cam.ball_dis = recv_data[2];
 2389              		.loc 1 237 87 view .LVU695
 2390 0060 42EA0122 		orr	r2, r2, r1, lsl #8
 237:src/unit/robot/robot.cpp ****                         info.Cam.ball_dis = recv_data[2];
 2391              		.loc 1 237 123 view .LVU696
 2392 0064 A2F50042 		sub	r2, r2, #32768
 237:src/unit/robot/robot.cpp ****                         info.Cam.ball_dis = recv_data[2];
 2393              		.loc 1 237 43 view .LVU697
 2394 0068 2A86     		strh	r2, [r5, #48]	@ movhi
 238:src/unit/robot/robot.cpp ****                         info.Cam.yellow_goal_dir = recv_data[3] * 2 - 180;
 2395              		.loc 1 238 25 is_stmt 1 view .LVU698
 238:src/unit/robot/robot.cpp ****                         info.Cam.yellow_goal_dir = recv_data[3] * 2 - 180;
 2396              		.loc 1 238 56 is_stmt 0 view .LVU699
 2397 006a 9A78     		ldrb	r2, [r3, #2]	@ zero_extendqisi2
 238:src/unit/robot/robot.cpp ****                         info.Cam.yellow_goal_dir = recv_data[3] * 2 - 180;
 2398              		.loc 1 238 43 view .LVU700
 2399 006c 6A86     		strh	r2, [r5, #50]	@ movhi
 239:src/unit/robot/robot.cpp ****                         info.Cam.yellow_goal_height = recv_data[4];
 2400              		.loc 1 239 25 is_stmt 1 view .LVU701
 239:src/unit/robot/robot.cpp ****                         info.Cam.yellow_goal_height = recv_data[4];
 2401              		.loc 1 239 63 is_stmt 0 view .LVU702
 2402 006e DA78     		ldrb	r2, [r3, #3]	@ zero_extendqisi2
 239:src/unit/robot/robot.cpp ****                         info.Cam.yellow_goal_height = recv_data[4];
 2403              		.loc 1 239 69 view .LVU703
 2404 0070 5A3A     		subs	r2, r2, #90
 239:src/unit/robot/robot.cpp ****                         info.Cam.yellow_goal_height = recv_data[4];
 2405              		.loc 1 239 50 view .LVU704
 2406 0072 5200     		lsls	r2, r2, #1
 2407 0074 AA86     		strh	r2, [r5, #52]	@ movhi
 240:src/unit/robot/robot.cpp ****                         info.Cam.blue_goal_dir = recv_data[5] * 2 - 180;
 2408              		.loc 1 240 25 is_stmt 1 view .LVU705
 240:src/unit/robot/robot.cpp ****                         info.Cam.blue_goal_dir = recv_data[5] * 2 - 180;
 2409              		.loc 1 240 66 is_stmt 0 view .LVU706
 2410 0076 1A79     		ldrb	r2, [r3, #4]	@ zero_extendqisi2
 240:src/unit/robot/robot.cpp ****                         info.Cam.blue_goal_dir = recv_data[5] * 2 - 180;
 2411              		.loc 1 240 53 view .LVU707
 2412 0078 EA86     		strh	r2, [r5, #54]	@ movhi
 241:src/unit/robot/robot.cpp ****                         info.Cam.blue_goal_height = recv_data[6];
 2413              		.loc 1 241 25 is_stmt 1 view .LVU708
 241:src/unit/robot/robot.cpp ****                         info.Cam.blue_goal_height = recv_data[6];
 2414              		.loc 1 241 61 is_stmt 0 view .LVU709
 2415 007a 5A79     		ldrb	r2, [r3, #5]	@ zero_extendqisi2
 241:src/unit/robot/robot.cpp ****                         info.Cam.blue_goal_height = recv_data[6];
 2416              		.loc 1 241 67 view .LVU710
 2417 007c 5A3A     		subs	r2, r2, #90
 241:src/unit/robot/robot.cpp ****                         info.Cam.blue_goal_height = recv_data[6];
 2418              		.loc 1 241 48 view .LVU711
ARM GAS  /var/folders/5c/srt4fy4j1pd641bjfx75k5000000gn/T//ccgUJOj8.s 			page 57


 2419 007e 5200     		lsls	r2, r2, #1
 2420 0080 2A87     		strh	r2, [r5, #56]	@ movhi
 242:src/unit/robot/robot.cpp ****                         info.Cam.is_goal_front = recv_data[7];
 2421              		.loc 1 242 25 is_stmt 1 view .LVU712
 242:src/unit/robot/robot.cpp ****                         info.Cam.is_goal_front = recv_data[7];
 2422              		.loc 1 242 64 is_stmt 0 view .LVU713
 2423 0082 9A79     		ldrb	r2, [r3, #6]	@ zero_extendqisi2
 242:src/unit/robot/robot.cpp ****                         info.Cam.is_goal_front = recv_data[7];
 2424              		.loc 1 242 51 view .LVU714
 2425 0084 6A87     		strh	r2, [r5, #58]	@ movhi
 243:src/unit/robot/robot.cpp ****                         info.Cam.own_x = recv_data[8] - 127;
 2426              		.loc 1 243 25 is_stmt 1 view .LVU715
 243:src/unit/robot/robot.cpp ****                         info.Cam.own_x = recv_data[8] - 127;
 2427              		.loc 1 243 61 is_stmt 0 view .LVU716
 2428 0086 DA79     		ldrb	r2, [r3, #7]	@ zero_extendqisi2
 2429 0088 003A     		subs	r2, r2, #0
 2430 008a 18BF     		it	ne
 2431 008c 0122     		movne	r2, #1
 243:src/unit/robot/robot.cpp ****                         info.Cam.own_x = recv_data[8] - 127;
 2432              		.loc 1 243 48 view .LVU717
 2433 008e 85F83E20 		strb	r2, [r5, #62]
 244:src/unit/robot/robot.cpp ****                         info.Cam.own_y = recv_data[9] - 127;
 2434              		.loc 1 244 25 is_stmt 1 view .LVU718
 244:src/unit/robot/robot.cpp ****                         info.Cam.own_y = recv_data[9] - 127;
 2435              		.loc 1 244 53 is_stmt 0 view .LVU719
 2436 0092 1A7A     		ldrb	r2, [r3, #8]	@ zero_extendqisi2
 244:src/unit/robot/robot.cpp ****                         info.Cam.own_y = recv_data[9] - 127;
 2437              		.loc 1 244 55 view .LVU720
 2438 0094 7F3A     		subs	r2, r2, #127
 244:src/unit/robot/robot.cpp ****                         info.Cam.own_y = recv_data[9] - 127;
 2439              		.loc 1 244 40 view .LVU721
 2440 0096 85F83C20 		strb	r2, [r5, #60]
 245:src/unit/robot/robot.cpp ****                         info.Cam.proximity[0] = recv_data[10];
 2441              		.loc 1 245 25 is_stmt 1 view .LVU722
 245:src/unit/robot/robot.cpp ****                         info.Cam.proximity[0] = recv_data[10];
 2442              		.loc 1 245 53 is_stmt 0 view .LVU723
 2443 009a 5A7A     		ldrb	r2, [r3, #9]	@ zero_extendqisi2
 245:src/unit/robot/robot.cpp ****                         info.Cam.proximity[0] = recv_data[10];
 2444              		.loc 1 245 55 view .LVU724
 2445 009c 7F3A     		subs	r2, r2, #127
 245:src/unit/robot/robot.cpp ****                         info.Cam.proximity[0] = recv_data[10];
 2446              		.loc 1 245 40 view .LVU725
 2447 009e 85F83D20 		strb	r2, [r5, #61]
 246:src/unit/robot/robot.cpp ****                   }
 2448              		.loc 1 246 25 is_stmt 1 view .LVU726
 246:src/unit/robot/robot.cpp ****                   }
 2449              		.loc 1 246 61 is_stmt 0 view .LVU727
 2450 00a2 9B7A     		ldrb	r3, [r3, #10]	@ zero_extendqisi2
 246:src/unit/robot/robot.cpp ****                   }
 2451              		.loc 1 246 47 view .LVU728
 2452 00a4 85F83F30 		strb	r3, [r5, #63]
 2453 00a8 D3E7     		b	.L101
 2454              	.L106:
 246:src/unit/robot/robot.cpp ****                   }
 2455              		.loc 1 246 47 view .LVU729
 2456              	.LBE225:
 252:src/unit/robot/robot.cpp ****             }
ARM GAS  /var/folders/5c/srt4fy4j1pd641bjfx75k5000000gn/T//ccgUJOj8.s 			page 58


 253:src/unit/robot/robot.cpp ****       }
 254:src/unit/robot/robot.cpp **** 
 255:src/unit/robot/robot.cpp ****       if (cam_send_interval_timer.read_us() >= CAM_SEND_PERIOD_US) {
 2457              		.loc 1 255 7 is_stmt 1 view .LVU730
 2458              		.loc 1 255 42 is_stmt 0 view .LVU731
 2459 00aa 05F5B754 		add	r4, r5, #5856
 2460 00ae 1C34     		adds	r4, r4, #28
 2461 00b0 2046     		mov	r0, r4
 2462 00b2 FFF7FEFF 		bl	_ZN5Timer7read_usEv
 2463              	.LVL188:
 2464              		.loc 1 255 7 view .LVU732
 2465 00b6 B0F57A7F 		cmp	r0, #1000
 2466 00ba 01D2     		bcs	.L109
 2467              	.LVL189:
 2468              	.L95:
 256:src/unit/robot/robot.cpp ****             serial4.write(info.Imu.yaw * 0.5 + 90);
 257:src/unit/robot/robot.cpp ****             cam_send_interval_timer.reset();
 258:src/unit/robot/robot.cpp ****       }
 259:src/unit/robot/robot.cpp **** }...
 2469              		.loc 1 259 1 view .LVU733
 2470 00bc 03B0     		add	sp, sp, #12
 2471              	.LCFI18:
 2472              		.cfi_remember_state
 2473              		.cfi_def_cfa_offset 12
 2474              		@ sp needed
 2475 00be 30BD     		pop	{r4, r5, pc}
 2476              	.LVL190:
 2477              	.L109:
 2478              	.LCFI19:
 2479              		.cfi_restore_state
 256:src/unit/robot/robot.cpp ****             serial4.write(info.Imu.yaw * 0.5 + 90);
 2480              		.loc 1 256 13 is_stmt 1 view .LVU734
 256:src/unit/robot/robot.cpp ****             serial4.write(info.Imu.yaw * 0.5 + 90);
 2481              		.loc 1 256 40 is_stmt 0 view .LVU735
 2482 00c0 B5F92800 		ldrsh	r0, [r5, #40]
 2483 00c4 FFF7FEFF 		bl	__aeabi_i2d
 2484              	.LVL191:
 2485 00c8 0022     		movs	r2, #0
 2486 00ca 0F4B     		ldr	r3, .L110+12
 2487 00cc FFF7FEFF 		bl	__aeabi_dmul
 2488              	.LVL192:
 256:src/unit/robot/robot.cpp ****             serial4.write(info.Imu.yaw * 0.5 + 90);
 2489              		.loc 1 256 46 view .LVU736
 2490 00d0 0022     		movs	r2, #0
 2491 00d2 0E4B     		ldr	r3, .L110+16
 2492 00d4 FFF7FEFF 		bl	__aeabi_dadd
 2493              	.LVL193:
 256:src/unit/robot/robot.cpp ****             serial4.write(info.Imu.yaw * 0.5 + 90);
 2494              		.loc 1 256 26 view .LVU737
 2495 00d8 FFF7FEFF 		bl	__aeabi_d2uiz
 2496              	.LVL194:
 256:src/unit/robot/robot.cpp ****             serial4.write(info.Imu.yaw * 0.5 + 90);
 2497              		.loc 1 256 26 view .LVU738
 2498 00dc 8DF80700 		strb	r0, [sp, #7]
 2499              	.LVL195:
 2500              	.LBB226:
 2501              	.LBI226:
ARM GAS  /var/folders/5c/srt4fy4j1pd641bjfx75k5000000gn/T//ccgUJOj8.s 			page 59


  54:Lib/BufferedSerial/BufferedSerial.hpp ****             HAL_UART_Transmit(_huart, &data, 1, 100);
 2502              		.loc 2 54 12 is_stmt 1 view .LVU739
 2503              	.LBB227:
  55:Lib/BufferedSerial/BufferedSerial.hpp ****       }
 2504              		.loc 2 55 13 view .LVU740
  55:Lib/BufferedSerial/BufferedSerial.hpp ****       }
 2505              		.loc 2 55 30 is_stmt 0 view .LVU741
 2506 00e0 05F58055 		add	r5, r5, #4096
 2507              	.LVL196:
  55:Lib/BufferedSerial/BufferedSerial.hpp ****       }
 2508              		.loc 2 55 30 view .LVU742
 2509 00e4 6423     		movs	r3, #100
 2510 00e6 0122     		movs	r2, #1
 2511 00e8 0DF10701 		add	r1, sp, #7
 2512 00ec D5F8E406 		ldr	r0, [r5, #1764]
 2513              	.LVL197:
  55:Lib/BufferedSerial/BufferedSerial.hpp ****       }
 2514              		.loc 2 55 30 view .LVU743
 2515 00f0 FFF7FEFF 		bl	HAL_UART_Transmit
 2516              	.LVL198:
  55:Lib/BufferedSerial/BufferedSerial.hpp ****       }
 2517              		.loc 2 55 30 view .LVU744
 2518              	.LBE227:
 2519              	.LBE226:
 257:src/unit/robot/robot.cpp ****             cam_send_interval_timer.reset();
 2520              		.loc 1 257 13 is_stmt 1 view .LVU745
 257:src/unit/robot/robot.cpp ****             cam_send_interval_timer.reset();
 2521              		.loc 1 257 42 is_stmt 0 view .LVU746
 2522 00f4 2046     		mov	r0, r4
 2523 00f6 FFF7FEFF 		bl	_ZN5Timer5resetEv
 2524              	.LVL199:
 2525              		.loc 1 259 1 view .LVU747
 2526 00fa DFE7     		b	.L95
 2527              	.L111:
 2528              		.align	2
 2529              	.L110:
 2530 00fc 00000000 		.word	_ZZN5Robot7CamUartEvE5index
 2531 0100 00000000 		.word	_ZZN5Robot7CamUartEvE9recv_data
 2532 0104 00000000 		.word	_ZZN5Robot7CamUartEvE9recv_byte
 2533 0108 0000E03F 		.word	1071644672
 2534 010c 00805640 		.word	1079410688
 2535              		.cfi_endproc
 2536              	.LFE280:
 2537              		.fnend
 2539              		.section	.bss._ZZN5Robot7CamUartEvE9recv_byte,"aw",%nobits
 2542              	_ZZN5Robot7CamUartEvE9recv_byte:
 2543 0000 00       		.space	1
 2544              		.section	.bss._ZZN5Robot7CamUartEvE9recv_data,"aw",%nobits
 2545              		.align	2
 2548              	_ZZN5Robot7CamUartEvE9recv_data:
 2549 0000 00000000 		.space	11
 2549      00000000 
 2549      000000
 2550              		.section	.bss._ZZN5Robot7CamUartEvE5index,"aw",%nobits
 2553              	_ZZN5Robot7CamUartEvE5index:
 2554 0000 00       		.space	1
 2555              		.section	.bss._ZZN5Robot6UiUartEvE9recv_byte,"aw",%nobits
ARM GAS  /var/folders/5c/srt4fy4j1pd641bjfx75k5000000gn/T//ccgUJOj8.s 			page 60


 2558              	_ZZN5Robot6UiUartEvE9recv_byte:
 2559 0000 00       		.space	1
 2560              		.section	.bss._ZZN5Robot6UiUartEvE9recv_data,"aw",%nobits
 2561              		.align	2
 2564              	_ZZN5Robot6UiUartEvE9recv_data:
 2565 0000 00000000 		.space	4
 2566              		.section	.bss._ZZN5Robot6UiUartEvE5index,"aw",%nobits
 2569              	_ZZN5Robot6UiUartEvE5index:
 2570 0000 00       		.space	1
 2571              		.section	.bss._ZZN5Robot6UiUartEvE8sub_item,"aw",%nobits
 2574              	_ZZN5Robot6UiUartEvE8sub_item:
 2575 0000 00       		.space	1
 2576              		.section	.bss._ZZN5Robot6UiUartEvE4item,"aw",%nobits
 2579              	_ZZN5Robot6UiUartEvE4item:
 2580 0000 00       		.space	1
 2581              		.section	.bss._ZZN5Robot8LineUartEvE9recv_byte,"aw",%nobits
 2584              	_ZZN5Robot8LineUartEvE9recv_byte:
 2585 0000 00       		.space	1
 2586              		.section	.bss._ZZN5Robot8LineUartEvE9recv_data,"aw",%nobits
 2587              		.align	2
 2590              	_ZZN5Robot8LineUartEvE9recv_data:
 2591 0000 00000000 		.space	6
 2591      0000
 2592              		.section	.bss._ZZN5Robot8LineUartEvE5index,"aw",%nobits
 2595              	_ZZN5Robot8LineUartEvE5index:
 2596 0000 00       		.space	1
 2597              		.section	.bss._ZZN5Robot7ImuUartEvE9recv_byte,"aw",%nobits
 2600              	_ZZN5Robot7ImuUartEvE9recv_byte:
 2601 0000 00       		.space	1
 2602              		.section	.bss._ZZN5Robot7ImuUartEvE9recv_data,"aw",%nobits
 2603              		.align	2
 2606              	_ZZN5Robot7ImuUartEvE9recv_data:
 2607 0000 00000000 		.space	6
 2607      0000
 2608              		.section	.bss._ZZN5Robot7ImuUartEvE5index,"aw",%nobits
 2611              	_ZZN5Robot7ImuUartEvE5index:
 2612 0000 00       		.space	1
 2613              		.section	.data._ZZN5Robot10GetSensorsEvE11pre_voltage,"aw"
 2614              		.align	2
 2617              	_ZZN5Robot10GetSensorsEvE11pre_voltage:
 2618 0000 9A991941 		.word	1092196762
 2619              		.global	adc_get_val
 2620              		.section	.bss.adc_get_val,"aw",%nobits
 2621              		.align	2
 2624              	adc_get_val:
 2625 0000 00000000 		.space	6
 2625      0000
 2626              		.text
 2627              	.Letext0:
 2628              		.file 5 "/opt/ST/STM32CubeCLT_1.16.0/GNU-tools-for-STM32/arm-none-eabi/include/machine/_default_ty
 2629              		.file 6 "/opt/ST/STM32CubeCLT_1.16.0/GNU-tools-for-STM32/lib/gcc/arm-none-eabi/12.3.1/include/stdd
 2630              		.file 7 "/opt/ST/STM32CubeCLT_1.16.0/GNU-tools-for-STM32/arm-none-eabi/include/sys/_types.h"
 2631              		.file 8 "/opt/ST/STM32CubeCLT_1.16.0/GNU-tools-for-STM32/arm-none-eabi/include/sys/reent.h"
 2632              		.file 9 "/opt/ST/STM32CubeCLT_1.16.0/GNU-tools-for-STM32/arm-none-eabi/include/sys/lock.h"
 2633              		.file 10 "/opt/ST/STM32CubeCLT_1.16.0/GNU-tools-for-STM32/arm-none-eabi/include/stdio.h"
 2634              		.file 11 "/opt/ST/STM32CubeCLT_1.16.0/GNU-tools-for-STM32/arm-none-eabi/include/sys/_stdint.h"
 2635              		.file 12 "Drivers/CMSIS/Device/ST/STM32F4xx/Include/stm32f446xx.h"
ARM GAS  /var/folders/5c/srt4fy4j1pd641bjfx75k5000000gn/T//ccgUJOj8.s 			page 61


 2636              		.file 13 "Drivers/CMSIS/Device/ST/STM32F4xx/Include/stm32f4xx.h"
 2637              		.file 14 "Drivers/STM32F4xx_HAL_Driver/Inc/stm32f4xx_hal_def.h"
 2638              		.file 15 "Drivers/STM32F4xx_HAL_Driver/Inc/stm32f4xx_hal_gpio.h"
 2639              		.file 16 "Drivers/STM32F4xx_HAL_Driver/Inc/stm32f4xx_hal_dma.h"
 2640              		.file 17 "Drivers/STM32F4xx_HAL_Driver/Inc/stm32f4xx_hal_adc.h"
 2641              		.file 18 "Drivers/STM32F4xx_HAL_Driver/Inc/stm32f4xx_hal_tim.h"
 2642              		.file 19 "Drivers/STM32F4xx_HAL_Driver/Inc/stm32f4xx_hal_uart.h"
 2643              		.file 20 "Drivers/STM32F4xx_HAL_Driver/Inc/stm32f4xx_hal.h"
 2644              		.file 21 "Core/Inc/usart.h"
 2645              		.file 22 "Lib/MovingAve/MovingAve.hpp"
 2646              		.file 23 "/opt/ST/STM32CubeCLT_1.16.0/GNU-tools-for-STM32/arm-none-eabi/include/c++/12.3.1/cstdio"
 2647              		.file 24 "/opt/ST/STM32CubeCLT_1.16.0/GNU-tools-for-STM32/arm-none-eabi/include/c++/12.3.1/arm-non
 2648              		.file 25 "Core/Inc/tim.h"
 2649              		.file 26 "Lib/Timer/Timer.hpp"
 2650              		.file 27 "Core/Inc/adc.h"
 2651              		.file 28 "src/unit/dribbler_drive/dribbler_drive.hpp"
 2652              		.file 29 "src/unit/kicker/kicker.hpp"
 2653              		.file 30 "Lib/pid/pid.hpp"
 2654              		.file 31 "src/unit/motor_drive/motor_drive.hpp"
 2655              		.file 32 "src/unit/robot/robot.hpp"
 2656              		.file 33 "Lib/MyMath/MyMath.hpp"
ARM GAS  /var/folders/5c/srt4fy4j1pd641bjfx75k5000000gn/T//ccgUJOj8.s 			page 62


DEFINED SYMBOLS
                            *ABS*:00000000 robot.cpp
/var/folders/5c/srt4fy4j1pd641bjfx75k5000000gn/T//ccgUJOj8.s:21     .text._ZN14BufferedSerial9availableEv:00000000 $t
/var/folders/5c/srt4fy4j1pd641bjfx75k5000000gn/T//ccgUJOj8.s:27     .text._ZN14BufferedSerial9availableEv:00000000 _ZN14BufferedSerial9availableEv
.ARM.exidx.text._ZN14BufferedSerial9availableEv:00000000 $d
/var/folders/5c/srt4fy4j1pd641bjfx75k5000000gn/T//ccgUJOj8.s:113    .text._ZN14BufferedSerial4readEv:00000000 $t
/var/folders/5c/srt4fy4j1pd641bjfx75k5000000gn/T//ccgUJOj8.s:119    .text._ZN14BufferedSerial4readEv:00000000 _ZN14BufferedSerial4readEv
.ARM.exidx.text._ZN14BufferedSerial4readEv:00000000 $d
/var/folders/5c/srt4fy4j1pd641bjfx75k5000000gn/T//ccgUJOj8.s:184    .text._ZN12PwmSingleOut4initEv:00000000 $t
/var/folders/5c/srt4fy4j1pd641bjfx75k5000000gn/T//ccgUJOj8.s:190    .text._ZN12PwmSingleOut4initEv:00000000 _ZN12PwmSingleOut4initEv
.ARM.exidx.text._ZN12PwmSingleOut4initEv:00000000 $d
/var/folders/5c/srt4fy4j1pd641bjfx75k5000000gn/T//ccgUJOj8.s:230    .text._ZN5RobotC2Ev:00000000 $t
/var/folders/5c/srt4fy4j1pd641bjfx75k5000000gn/T//ccgUJOj8.s:236    .text._ZN5RobotC2Ev:00000000 _ZN5RobotC2Ev
/var/folders/5c/srt4fy4j1pd641bjfx75k5000000gn/T//ccgUJOj8.s:801    .text._ZN5RobotC2Ev:0000025c $d
    .ARM.extab.text._ZN5RobotC2Ev:00000000 $d
    .ARM.exidx.text._ZN5RobotC2Ev:00000000 $d
/var/folders/5c/srt4fy4j1pd641bjfx75k5000000gn/T//ccgUJOj8.s:236    .text._ZN5RobotC2Ev:00000000 _ZN5RobotC1Ev
/var/folders/5c/srt4fy4j1pd641bjfx75k5000000gn/T//ccgUJOj8.s:854    .text._ZN5Robot12HardwareInitEv:00000000 $t
/var/folders/5c/srt4fy4j1pd641bjfx75k5000000gn/T//ccgUJOj8.s:860    .text._ZN5Robot12HardwareInitEv:00000000 _ZN5Robot12HardwareInitEv
/var/folders/5c/srt4fy4j1pd641bjfx75k5000000gn/T//ccgUJOj8.s:1088   .text._ZN5Robot12HardwareInitEv:0000010c $d
/var/folders/5c/srt4fy4j1pd641bjfx75k5000000gn/T//ccgUJOj8.s:2624   .bss.adc_get_val:00000000 adc_get_val
.ARM.exidx.text._ZN5Robot12HardwareInitEv:00000000 $d
/var/folders/5c/srt4fy4j1pd641bjfx75k5000000gn/T//ccgUJOj8.s:1102   .text._ZN5Robot10GetSensorsEv:00000000 $t
/var/folders/5c/srt4fy4j1pd641bjfx75k5000000gn/T//ccgUJOj8.s:1108   .text._ZN5Robot10GetSensorsEv:00000000 _ZN5Robot10GetSensorsEv
/var/folders/5c/srt4fy4j1pd641bjfx75k5000000gn/T//ccgUJOj8.s:1249   .text._ZN5Robot10GetSensorsEv:000000c8 $d
/var/folders/5c/srt4fy4j1pd641bjfx75k5000000gn/T//ccgUJOj8.s:2617   .data._ZZN5Robot10GetSensorsEvE11pre_voltage:00000000 _ZZN5Robot10GetSensorsEvE11pre_voltage
.ARM.exidx.text._ZN5Robot10GetSensorsEv:00000000 $d
/var/folders/5c/srt4fy4j1pd641bjfx75k5000000gn/T//ccgUJOj8.s:1264   .text._ZN5Robot7ImuUartEv:00000000 $t
/var/folders/5c/srt4fy4j1pd641bjfx75k5000000gn/T//ccgUJOj8.s:1270   .text._ZN5Robot7ImuUartEv:00000000 _ZN5Robot7ImuUartEv
/var/folders/5c/srt4fy4j1pd641bjfx75k5000000gn/T//ccgUJOj8.s:1446   .text._ZN5Robot7ImuUartEv:000000d0 $d
/var/folders/5c/srt4fy4j1pd641bjfx75k5000000gn/T//ccgUJOj8.s:2611   .bss._ZZN5Robot7ImuUartEvE5index:00000000 _ZZN5Robot7ImuUartEvE5index
/var/folders/5c/srt4fy4j1pd641bjfx75k5000000gn/T//ccgUJOj8.s:2606   .bss._ZZN5Robot7ImuUartEvE9recv_data:00000000 _ZZN5Robot7ImuUartEvE9recv_data
/var/folders/5c/srt4fy4j1pd641bjfx75k5000000gn/T//ccgUJOj8.s:2600   .bss._ZZN5Robot7ImuUartEvE9recv_byte:00000000 _ZZN5Robot7ImuUartEvE9recv_byte
.ARM.exidx.text._ZN5Robot7ImuUartEv:00000000 $d
/var/folders/5c/srt4fy4j1pd641bjfx75k5000000gn/T//ccgUJOj8.s:1457   .text._ZN5Robot8LineUartEv:00000000 $t
/var/folders/5c/srt4fy4j1pd641bjfx75k5000000gn/T//ccgUJOj8.s:1463   .text._ZN5Robot8LineUartEv:00000000 _ZN5Robot8LineUartEv
/var/folders/5c/srt4fy4j1pd641bjfx75k5000000gn/T//ccgUJOj8.s:1733   .text._ZN5Robot8LineUartEv:000000e4 $d
/var/folders/5c/srt4fy4j1pd641bjfx75k5000000gn/T//ccgUJOj8.s:2595   .bss._ZZN5Robot8LineUartEvE5index:00000000 _ZZN5Robot8LineUartEvE5index
/var/folders/5c/srt4fy4j1pd641bjfx75k5000000gn/T//ccgUJOj8.s:2590   .bss._ZZN5Robot8LineUartEvE9recv_data:00000000 _ZZN5Robot8LineUartEvE9recv_data
/var/folders/5c/srt4fy4j1pd641bjfx75k5000000gn/T//ccgUJOj8.s:2584   .bss._ZZN5Robot8LineUartEvE9recv_byte:00000000 _ZZN5Robot8LineUartEvE9recv_byte
.ARM.exidx.text._ZN5Robot8LineUartEv:00000000 $d
/var/folders/5c/srt4fy4j1pd641bjfx75k5000000gn/T//ccgUJOj8.s:1741   .text._ZN5Robot6UiUartEv:00000000 $t
/var/folders/5c/srt4fy4j1pd641bjfx75k5000000gn/T//ccgUJOj8.s:1747   .text._ZN5Robot6UiUartEv:00000000 _ZN5Robot6UiUartEv
/var/folders/5c/srt4fy4j1pd641bjfx75k5000000gn/T//ccgUJOj8.s:2253   .text._ZN5Robot6UiUartEv:00000218 $d
/var/folders/5c/srt4fy4j1pd641bjfx75k5000000gn/T//ccgUJOj8.s:2569   .bss._ZZN5Robot6UiUartEvE5index:00000000 _ZZN5Robot6UiUartEvE5index
/var/folders/5c/srt4fy4j1pd641bjfx75k5000000gn/T//ccgUJOj8.s:2564   .bss._ZZN5Robot6UiUartEvE9recv_data:00000000 _ZZN5Robot6UiUartEvE9recv_data
/var/folders/5c/srt4fy4j1pd641bjfx75k5000000gn/T//ccgUJOj8.s:2558   .bss._ZZN5Robot6UiUartEvE9recv_byte:00000000 _ZZN5Robot6UiUartEvE9recv_byte
/var/folders/5c/srt4fy4j1pd641bjfx75k5000000gn/T//ccgUJOj8.s:2579   .bss._ZZN5Robot6UiUartEvE4item:00000000 _ZZN5Robot6UiUartEvE4item
/var/folders/5c/srt4fy4j1pd641bjfx75k5000000gn/T//ccgUJOj8.s:2574   .bss._ZZN5Robot6UiUartEvE8sub_item:00000000 _ZZN5Robot6UiUartEvE8sub_item
.ARM.exidx.text._ZN5Robot6UiUartEv:00000000 $d
/var/folders/5c/srt4fy4j1pd641bjfx75k5000000gn/T//ccgUJOj8.s:2276   .text._ZN5Robot7CamUartEv:00000000 $t
/var/folders/5c/srt4fy4j1pd641bjfx75k5000000gn/T//ccgUJOj8.s:2282   .text._ZN5Robot7CamUartEv:00000000 _ZN5Robot7CamUartEv
/var/folders/5c/srt4fy4j1pd641bjfx75k5000000gn/T//ccgUJOj8.s:2530   .text._ZN5Robot7CamUartEv:000000fc $d
/var/folders/5c/srt4fy4j1pd641bjfx75k5000000gn/T//ccgUJOj8.s:2553   .bss._ZZN5Robot7CamUartEvE5index:00000000 _ZZN5Robot7CamUartEvE5index
/var/folders/5c/srt4fy4j1pd641bjfx75k5000000gn/T//ccgUJOj8.s:2548   .bss._ZZN5Robot7CamUartEvE9recv_data:00000000 _ZZN5Robot7CamUartEvE9recv_data
/var/folders/5c/srt4fy4j1pd641bjfx75k5000000gn/T//ccgUJOj8.s:2542   .bss._ZZN5Robot7CamUartEvE9recv_byte:00000000 _ZZN5Robot7CamUartEvE9recv_byte
.ARM.exidx.text._ZN5Robot7CamUartEv:00000000 $d
ARM GAS  /var/folders/5c/srt4fy4j1pd641bjfx75k5000000gn/T//ccgUJOj8.s 			page 63


/var/folders/5c/srt4fy4j1pd641bjfx75k5000000gn/T//ccgUJOj8.s:2543   .bss._ZZN5Robot7CamUartEvE9recv_byte:00000000 $d
/var/folders/5c/srt4fy4j1pd641bjfx75k5000000gn/T//ccgUJOj8.s:2545   .bss._ZZN5Robot7CamUartEvE9recv_data:00000000 $d
/var/folders/5c/srt4fy4j1pd641bjfx75k5000000gn/T//ccgUJOj8.s:2554   .bss._ZZN5Robot7CamUartEvE5index:00000000 $d
/var/folders/5c/srt4fy4j1pd641bjfx75k5000000gn/T//ccgUJOj8.s:2559   .bss._ZZN5Robot6UiUartEvE9recv_byte:00000000 $d
/var/folders/5c/srt4fy4j1pd641bjfx75k5000000gn/T//ccgUJOj8.s:2561   .bss._ZZN5Robot6UiUartEvE9recv_data:00000000 $d
/var/folders/5c/srt4fy4j1pd641bjfx75k5000000gn/T//ccgUJOj8.s:2570   .bss._ZZN5Robot6UiUartEvE5index:00000000 $d
/var/folders/5c/srt4fy4j1pd641bjfx75k5000000gn/T//ccgUJOj8.s:2575   .bss._ZZN5Robot6UiUartEvE8sub_item:00000000 $d
/var/folders/5c/srt4fy4j1pd641bjfx75k5000000gn/T//ccgUJOj8.s:2580   .bss._ZZN5Robot6UiUartEvE4item:00000000 $d
/var/folders/5c/srt4fy4j1pd641bjfx75k5000000gn/T//ccgUJOj8.s:2585   .bss._ZZN5Robot8LineUartEvE9recv_byte:00000000 $d
/var/folders/5c/srt4fy4j1pd641bjfx75k5000000gn/T//ccgUJOj8.s:2587   .bss._ZZN5Robot8LineUartEvE9recv_data:00000000 $d
/var/folders/5c/srt4fy4j1pd641bjfx75k5000000gn/T//ccgUJOj8.s:2596   .bss._ZZN5Robot8LineUartEvE5index:00000000 $d
/var/folders/5c/srt4fy4j1pd641bjfx75k5000000gn/T//ccgUJOj8.s:2601   .bss._ZZN5Robot7ImuUartEvE9recv_byte:00000000 $d
/var/folders/5c/srt4fy4j1pd641bjfx75k5000000gn/T//ccgUJOj8.s:2603   .bss._ZZN5Robot7ImuUartEvE9recv_data:00000000 $d
/var/folders/5c/srt4fy4j1pd641bjfx75k5000000gn/T//ccgUJOj8.s:2612   .bss._ZZN5Robot7ImuUartEvE5index:00000000 $d
/var/folders/5c/srt4fy4j1pd641bjfx75k5000000gn/T//ccgUJOj8.s:2614   .data._ZZN5Robot10GetSensorsEvE11pre_voltage:00000000 $d
/var/folders/5c/srt4fy4j1pd641bjfx75k5000000gn/T//ccgUJOj8.s:2621   .bss.adc_get_val:00000000 $d

UNDEFINED SYMBOLS
HAL_UART_Abort
HAL_UART_Receive_DMA
__aeabi_unwind_cpp_pr0
HAL_TIM_PWM_Start
HAL_GPIO_WritePin
_ZN10MotorDriveC1EP12PwmSingleOutS1_S1_S1_S1_S1_S1_S1_PsPh
_ZN13DribblerDriveC1EP12PwmSingleOutS1_
_ZN6KickerC1EP10DigitalOutS1_
_Znaj
_ZN5TimerC1Ev
_ZN9MovingAve9SetLengthEh
_ZdaPv
__cxa_end_cleanup
htim13
htim12
htim2
htim3
htim4
huart1
huart2
huart3
huart4
__gxx_personality_v0
HAL_ADC_Start
HAL_ADC_Start_DMA
_ZN10MotorDrive15CheckConnectionEv
HAL_Delay
_ZN13DribblerDrive15CheckConnectionEv
hadc1
__aeabi_i2d
__aeabi_dmul
__aeabi_d2f
__aeabi_f2d
__aeabi_dadd
__aeabi_ui2d
__aeabi_d2uiz
_ZN9MovingAve7ComputeEd
_ZN9MovingAve3GetEv
__aeabi_dsub
ARM GAS  /var/folders/5c/srt4fy4j1pd641bjfx75k5000000gn/T//ccgUJOj8.s 			page 64


__aeabi_d2iz
NormalizeDeg180
_ZN5Timer7read_usEv
HAL_UART_Transmit
_ZN5Timer5resetEv
