ARM GAS  /var/folders/5c/srt4fy4j1pd641bjfx75k5000000gn/T//cc9rejNC.s 			page 1


   1              		.cpu cortex-m4
   2              		.arch armv7e-m
   3              		.fpu fpv4-sp-d16
   4              		.eabi_attribute 27, 1
   5              		.eabi_attribute 28, 1
   6              		.eabi_attribute 20, 1
   7              		.eabi_attribute 21, 1
   8              		.eabi_attribute 23, 3
   9              		.eabi_attribute 24, 1
  10              		.eabi_attribute 25, 1
  11              		.eabi_attribute 26, 1
  12              		.eabi_attribute 30, 1
  13              		.eabi_attribute 34, 1
  14              		.eabi_attribute 18, 4
  15              		.file	"robot.cpp"
  16              		.text
  17              	.Ltext0:
  18              		.cfi_sections	.debug_frame
  19              		.file 1 "src/unit/robot/robot.cpp"
  20              		.section	.text._ZN14BufferedSerial4readEv,"axG",%progbits,_ZN14BufferedSerial4readEv,comdat
  21              		.align	1
  22              		.weak	_ZN14BufferedSerial4readEv
  23              		.syntax unified
  24              		.thumb
  25              		.thumb_func
  27              	_ZN14BufferedSerial4readEv:
  28              		.fnstart
  29              	.LVL0:
  30              	.LFB245:
  31              		.file 2 "Lib/BufferedSerial/BufferedSerial.hpp"
   1:Lib/BufferedSerial/BufferedSerial.hpp **** #ifndef __BUFFERED_SERIAL__
   2:Lib/BufferedSerial/BufferedSerial.hpp **** #define __BUFFERED_SERIAL__
   3:Lib/BufferedSerial/BufferedSerial.hpp **** 
   4:Lib/BufferedSerial/BufferedSerial.hpp **** #include <stdio.h>
   5:Lib/BufferedSerial/BufferedSerial.hpp **** 
   6:Lib/BufferedSerial/BufferedSerial.hpp **** #include "usart.h"
   7:Lib/BufferedSerial/BufferedSerial.hpp **** 
   8:Lib/BufferedSerial/BufferedSerial.hpp **** #ifdef __cplusplus
   9:Lib/BufferedSerial/BufferedSerial.hpp **** 
  10:Lib/BufferedSerial/BufferedSerial.hpp **** /*
  11:Lib/BufferedSerial/BufferedSerial.hpp ****  Initの順番をDMAが先になるようにする
  12:Lib/BufferedSerial/BufferedSerial.hpp ****  - MX_DMA_Init();
  13:Lib/BufferedSerial/BufferedSerial.hpp ****  - MX_USART2_UART_Init();
  14:Lib/BufferedSerial/BufferedSerial.hpp ****  - DMAはCircularモードにする
  15:Lib/BufferedSerial/BufferedSerial.hpp **** */
  16:Lib/BufferedSerial/BufferedSerial.hpp **** 
  17:Lib/BufferedSerial/BufferedSerial.hpp **** class BufferedSerial {
  18:Lib/BufferedSerial/BufferedSerial.hpp ****      public:
  19:Lib/BufferedSerial/BufferedSerial.hpp ****       BufferedSerial(UART_HandleTypeDef *huart, uint16_t rxBufSize)
  20:Lib/BufferedSerial/BufferedSerial.hpp ****           : _huart(huart),
  21:Lib/BufferedSerial/BufferedSerial.hpp ****             _rxBuf(new uint8_t[rxBufSize]),
  22:Lib/BufferedSerial/BufferedSerial.hpp ****             rxTop(0),
  23:Lib/BufferedSerial/BufferedSerial.hpp ****             rxBtm(0),
  24:Lib/BufferedSerial/BufferedSerial.hpp ****             _rxBufSize(rxBufSize),
  25:Lib/BufferedSerial/BufferedSerial.hpp ****             _useDMA(false) {
  26:Lib/BufferedSerial/BufferedSerial.hpp ****       }
  27:Lib/BufferedSerial/BufferedSerial.hpp ****       void init(bool dma = false) {
ARM GAS  /var/folders/5c/srt4fy4j1pd641bjfx75k5000000gn/T//cc9rejNC.s 			page 2


  28:Lib/BufferedSerial/BufferedSerial.hpp ****             _useDMA = dma;
  29:Lib/BufferedSerial/BufferedSerial.hpp ****             HAL_UART_Receive_DMA(_huart, _rxBuf, _rxBufSize);
  30:Lib/BufferedSerial/BufferedSerial.hpp ****             // printf("- Serial init\n");
  31:Lib/BufferedSerial/BufferedSerial.hpp ****       }
  32:Lib/BufferedSerial/BufferedSerial.hpp **** 
  33:Lib/BufferedSerial/BufferedSerial.hpp ****       bool available() {
  34:Lib/BufferedSerial/BufferedSerial.hpp ****             uint16_t rxTop = _rxBufSize - _huart->hdmarx->Instance->NDTR;
  35:Lib/BufferedSerial/BufferedSerial.hpp ****             return rxTop != rxBtm;
  36:Lib/BufferedSerial/BufferedSerial.hpp ****       }
  37:Lib/BufferedSerial/BufferedSerial.hpp **** 
  38:Lib/BufferedSerial/BufferedSerial.hpp ****       uint8_t read() {
  32              		.loc 2 38 15 view -0
  33              		.cfi_startproc
  34              		@ args = 0, pretend = 0, frame = 0
  35              		@ frame_needed = 0, uses_anonymous_args = 0
  36              		@ link register save eliminated.
  37              		.loc 2 38 15 is_stmt 0 view .LVU1
  38 0000 0246     		mov	r2, r0
  39:Lib/BufferedSerial/BufferedSerial.hpp ****             uint16_t rxTop = _rxBufSize - _huart->hdmarx->Instance->NDTR;
  39              		.loc 2 39 13 is_stmt 1 view .LVU2
  40              		.loc 2 39 30 is_stmt 0 view .LVU3
  41 0002 B0F80CC0 		ldrh	ip, [r0, #12]
  42              		.loc 2 39 43 view .LVU4
  43 0006 0368     		ldr	r3, [r0]
  44              		.loc 2 39 51 view .LVU5
  45 0008 DB6B     		ldr	r3, [r3, #60]
  46              		.loc 2 39 59 view .LVU6
  47 000a 1B68     		ldr	r3, [r3]
  48              		.loc 2 39 69 view .LVU7
  49 000c 5B68     		ldr	r3, [r3, #4]
  50              		.loc 2 39 41 view .LVU8
  51 000e 9BB2     		uxth	r3, r3
  52              		.loc 2 39 69 view .LVU9
  53 0010 ACEB0303 		sub	r3, ip, r3
  54 0014 9BB2     		uxth	r3, r3
  55              	.LVL1:
  40:Lib/BufferedSerial/BufferedSerial.hpp ****             if (rxTop == rxBtm) {
  56              		.loc 2 40 13 is_stmt 1 view .LVU10
  57              		.loc 2 40 26 is_stmt 0 view .LVU11
  58 0016 4189     		ldrh	r1, [r0, #10]
  59              		.loc 2 40 13 view .LVU12
  60 0018 9942     		cmp	r1, r3
  61 001a 08D0     		beq	.L3
  41:Lib/BufferedSerial/BufferedSerial.hpp ****                   return 0;
  42:Lib/BufferedSerial/BufferedSerial.hpp ****             }
  43:Lib/BufferedSerial/BufferedSerial.hpp ****             uint8_t data = _rxBuf[rxBtm];
  62              		.loc 2 43 13 is_stmt 1 view .LVU13
  63              		.loc 2 43 28 is_stmt 0 view .LVU14
  64 001c 4368     		ldr	r3, [r0, #4]
  65              	.LVL2:
  66              		.loc 2 43 21 view .LVU15
  67 001e 585C     		ldrb	r0, [r3, r1]	@ zero_extendqisi2
  68              	.LVL3:
  44:Lib/BufferedSerial/BufferedSerial.hpp ****             rxBtm = (rxBtm + 1) % _rxBufSize;
  69              		.loc 2 44 13 is_stmt 1 view .LVU16
  70              		.loc 2 44 28 is_stmt 0 view .LVU17
  71 0020 0131     		adds	r1, r1, #1
ARM GAS  /var/folders/5c/srt4fy4j1pd641bjfx75k5000000gn/T//cc9rejNC.s 			page 3


  72              		.loc 2 44 33 view .LVU18
  73 0022 91FBFCF3 		sdiv	r3, r1, ip
  74 0026 0CFB1311 		mls	r1, ip, r3, r1
  75              		.loc 2 44 19 view .LVU19
  76 002a 5181     		strh	r1, [r2, #10]	@ movhi
  45:Lib/BufferedSerial/BufferedSerial.hpp ****             // printf("top:%d btm:%d NDTR:%d data:%d\n", rxTop, rxBtm, _huart->hdmarx->Instance->ND
  46:Lib/BufferedSerial/BufferedSerial.hpp ****             return data;
  77              		.loc 2 46 13 is_stmt 1 view .LVU20
  78              		.loc 2 46 20 is_stmt 0 view .LVU21
  79 002c 7047     		bx	lr
  80              	.LVL4:
  81              	.L3:
  41:Lib/BufferedSerial/BufferedSerial.hpp ****             }
  82              		.loc 2 41 26 view .LVU22
  83 002e 0020     		movs	r0, #0
  84              	.LVL5:
  47:Lib/BufferedSerial/BufferedSerial.hpp ****       }
  85              		.loc 2 47 7 view .LVU23
  86 0030 7047     		bx	lr
  87              		.cfi_endproc
  88              	.LFE245:
  89              		.cantunwind
  90              		.fnend
  92              		.section	.text._ZN12PwmSingleOut4initEv,"axG",%progbits,_ZN12PwmSingleOut4initEv,comdat
  93              		.align	1
  94              		.weak	_ZN12PwmSingleOut4initEv
  95              		.syntax unified
  96              		.thumb
  97              		.thumb_func
  99              	_ZN12PwmSingleOut4initEv:
 100              		.fnstart
 101              	.LVL6:
 102              	.LFB265:
 103              		.file 3 "Lib/PWMSingle/PWMSingle.hpp"
   1:Lib/PWMSingle/PWMSingle.hpp **** #ifndef __PWMSINGLE__
   2:Lib/PWMSingle/PWMSingle.hpp **** #define __PWMSINGLE__
   3:Lib/PWMSingle/PWMSingle.hpp **** 
   4:Lib/PWMSingle/PWMSingle.hpp **** #include "MyMath.hpp"
   5:Lib/PWMSingle/PWMSingle.hpp **** #include "tim.h"
   6:Lib/PWMSingle/PWMSingle.hpp **** 
   7:Lib/PWMSingle/PWMSingle.hpp **** #ifdef __cplusplus
   8:Lib/PWMSingle/PWMSingle.hpp **** extern "C" {
   9:Lib/PWMSingle/PWMSingle.hpp **** 
  10:Lib/PWMSingle/PWMSingle.hpp **** class PwmSingleOut {
  11:Lib/PWMSingle/PWMSingle.hpp ****      public:
  12:Lib/PWMSingle/PWMSingle.hpp ****       PwmSingleOut(TIM_HandleTypeDef *htim, uint32_t channel)
  13:Lib/PWMSingle/PWMSingle.hpp ****           : _htim(htim), _channel(channel), _maxValue(_htim->Init.Period) {
  14:Lib/PWMSingle/PWMSingle.hpp ****       }
  15:Lib/PWMSingle/PWMSingle.hpp **** 
  16:Lib/PWMSingle/PWMSingle.hpp ****       void init() {
 104              		.loc 3 16 12 is_stmt 1 view -0
 105              		.cfi_startproc
 106              		@ args = 0, pretend = 0, frame = 0
 107              		@ frame_needed = 0, uses_anonymous_args = 0
 108              		.loc 3 16 12 is_stmt 0 view .LVU25
 109 0000 10B5     		push	{r4, lr}
 110              		.save {r4, lr}
ARM GAS  /var/folders/5c/srt4fy4j1pd641bjfx75k5000000gn/T//cc9rejNC.s 			page 4


 111              	.LCFI0:
 112              		.cfi_def_cfa_offset 8
 113              		.cfi_offset 4, -8
 114              		.cfi_offset 14, -4
 115 0002 0446     		mov	r4, r0
  17:Lib/PWMSingle/PWMSingle.hpp ****             HAL_TIM_PWM_Start(_htim, _channel);
 116              		.loc 3 17 13 is_stmt 1 view .LVU26
 117              		.loc 3 17 30 is_stmt 0 view .LVU27
 118 0004 4168     		ldr	r1, [r0, #4]
 119 0006 0068     		ldr	r0, [r0]
 120              	.LVL7:
 121              		.loc 3 17 30 view .LVU28
 122 0008 FFF7FEFF 		bl	HAL_TIM_PWM_Start
 123              	.LVL8:
  18:Lib/PWMSingle/PWMSingle.hpp ****             _maxValue = _htim->Init.Period;
 124              		.loc 3 18 13 is_stmt 1 view .LVU29
 125              		.loc 3 18 25 is_stmt 0 view .LVU30
 126 000c 2368     		ldr	r3, [r4]
 127              		.loc 3 18 37 view .LVU31
 128 000e DB68     		ldr	r3, [r3, #12]
 129              		.loc 3 18 23 view .LVU32
 130 0010 A360     		str	r3, [r4, #8]
  19:Lib/PWMSingle/PWMSingle.hpp ****       }
 131              		.loc 3 19 7 view .LVU33
 132 0012 10BD     		pop	{r4, pc}
 133              		.loc 3 19 7 view .LVU34
 134              		.cfi_endproc
 135              	.LFE265:
 136              		.fnend
 138              		.section	.text._ZN5RobotC2Ev,"ax",%progbits
 139              		.align	1
 140              		.global	_ZN5RobotC2Ev
 141              		.syntax unified
 142              		.thumb
 143              		.thumb_func
 145              	_ZN5RobotC2Ev:
 146              		.fnstart
 147              	.LVL9:
 148              	.LFB271:
   1:src/unit/robot/robot.cpp **** #include "robot.hpp"
   2:src/unit/robot/robot.cpp **** 
   3:src/unit/robot/robot.cpp **** uint16_t adc_get_val[3];
   4:src/unit/robot/robot.cpp **** 
   5:src/unit/robot/robot.cpp **** Robot::Robot() {
 149              		.loc 1 5 1 is_stmt 1 view -0
 150              		.cfi_startproc
 151              		@ args = 0, pretend = 0, frame = 0
 152              		@ frame_needed = 0, uses_anonymous_args = 0
 153              		.loc 1 5 1 is_stmt 0 view .LVU36
 154 0000 F0B5     		push	{r4, r5, r6, r7, lr}
 155              		.save {r4, r5, r6, r7, lr}
 156              	.LCFI1:
 157              		.cfi_def_cfa_offset 20
 158              		.cfi_offset 4, -20
 159              		.cfi_offset 5, -16
 160              		.cfi_offset 6, -12
 161              		.cfi_offset 7, -8
ARM GAS  /var/folders/5c/srt4fy4j1pd641bjfx75k5000000gn/T//cc9rejNC.s 			page 5


 162              		.cfi_offset 14, -4
 163              		.pad #36
 164 0002 89B0     		sub	sp, sp, #36
 165              	.LCFI2:
 166              		.cfi_def_cfa_offset 56
 167 0004 0446     		mov	r4, r0
 168              	.LVL10:
 169              	.LBB78:
 170              	.LBB79:
 171              	.LBI79:
 172              		.file 4 "Lib/DigitalInOut/DigitalInOut.hpp"
   1:Lib/DigitalInOut/DigitalInOut.hpp **** #ifndef __DigitalInOut__
   2:Lib/DigitalInOut/DigitalInOut.hpp **** #define __DigitalInOut__
   3:Lib/DigitalInOut/DigitalInOut.hpp **** 
   4:Lib/DigitalInOut/DigitalInOut.hpp **** #include "main.h"
   5:Lib/DigitalInOut/DigitalInOut.hpp **** 
   6:Lib/DigitalInOut/DigitalInOut.hpp **** #ifdef __cplusplus
   7:Lib/DigitalInOut/DigitalInOut.hpp **** 
   8:Lib/DigitalInOut/DigitalInOut.hpp **** extern "C" {
   9:Lib/DigitalInOut/DigitalInOut.hpp **** 
  10:Lib/DigitalInOut/DigitalInOut.hpp **** class DigitalOut {
  11:Lib/DigitalInOut/DigitalInOut.hpp ****   public:
  12:Lib/DigitalInOut/DigitalInOut.hpp ****     DigitalOut(GPIO_TypeDef *port, uint16_t pin) : port(port), pin(pin) {
 173              		.loc 4 12 5 is_stmt 1 view .LVU37
 174              	.LBB80:
 175              		.loc 4 12 52 is_stmt 0 view .LVU38
 176 0006 7448     		ldr	r0, .L8
 177              	.LVL11:
 178              		.loc 4 12 52 view .LVU39
 179 0008 2063     		str	r0, [r4, #48]
 180              		.loc 4 12 64 view .LVU40
 181 000a 2021     		movs	r1, #32
 182 000c A186     		strh	r1, [r4, #52]	@ movhi
  13:Lib/DigitalInOut/DigitalInOut.hpp ****         HAL_GPIO_WritePin(port, pin, GPIO_PIN_RESET);
 183              		.loc 4 13 9 is_stmt 1 view .LVU41
 184              		.loc 4 13 26 is_stmt 0 view .LVU42
 185 000e 0022     		movs	r2, #0
 186 0010 FFF7FEFF 		bl	HAL_GPIO_WritePin
 187              	.LVL12:
 188              		.loc 4 13 26 view .LVU43
 189              	.LBE80:
 190              	.LBE79:
 191              	.LBB81:
 192              	.LBI81:
  12:Lib/PWMSingle/PWMSingle.hpp ****           : _htim(htim), _channel(channel), _maxValue(_htim->Init.Period) {
 193              		.loc 3 12 7 is_stmt 1 view .LVU44
 194              	.LBB82:
  13:Lib/PWMSingle/PWMSingle.hpp ****       }
 195              		.loc 3 13 13 is_stmt 0 view .LVU45
 196 0014 714B     		ldr	r3, .L8+4
 197 0016 A363     		str	r3, [r4, #56]
  13:Lib/PWMSingle/PWMSingle.hpp ****       }
 198              		.loc 3 13 26 view .LVU46
 199 0018 0025     		movs	r5, #0
 200 001a E563     		str	r5, [r4, #60]
  13:Lib/PWMSingle/PWMSingle.hpp ****       }
 201              		.loc 3 13 67 view .LVU47
ARM GAS  /var/folders/5c/srt4fy4j1pd641bjfx75k5000000gn/T//cc9rejNC.s 			page 6


 202 001c DB68     		ldr	r3, [r3, #12]
  13:Lib/PWMSingle/PWMSingle.hpp ****       }
 203              		.loc 3 13 45 view .LVU48
 204 001e 2364     		str	r3, [r4, #64]
 205              	.LVL13:
  13:Lib/PWMSingle/PWMSingle.hpp ****       }
 206              		.loc 3 13 45 view .LVU49
 207              	.LBE82:
 208              	.LBE81:
 209              	.LBB83:
 210              	.LBI83:
  12:Lib/PWMSingle/PWMSingle.hpp ****           : _htim(htim), _channel(channel), _maxValue(_htim->Init.Period) {
 211              		.loc 3 12 7 is_stmt 1 view .LVU50
 212              	.LBB84:
  13:Lib/PWMSingle/PWMSingle.hpp ****       }
 213              		.loc 3 13 13 is_stmt 0 view .LVU51
 214 0020 6F4B     		ldr	r3, .L8+8
 215 0022 A364     		str	r3, [r4, #72]
  13:Lib/PWMSingle/PWMSingle.hpp ****       }
 216              		.loc 3 13 26 view .LVU52
 217 0024 0420     		movs	r0, #4
 218 0026 E064     		str	r0, [r4, #76]
  13:Lib/PWMSingle/PWMSingle.hpp ****       }
 219              		.loc 3 13 67 view .LVU53
 220 0028 DA68     		ldr	r2, [r3, #12]
  13:Lib/PWMSingle/PWMSingle.hpp ****       }
 221              		.loc 3 13 45 view .LVU54
 222 002a 2265     		str	r2, [r4, #80]
 223              	.LVL14:
  13:Lib/PWMSingle/PWMSingle.hpp ****       }
 224              		.loc 3 13 45 view .LVU55
 225              	.LBE84:
 226              	.LBE83:
 227              	.LBB85:
 228              	.LBI85:
  12:Lib/PWMSingle/PWMSingle.hpp ****           : _htim(htim), _channel(channel), _maxValue(_htim->Init.Period) {
 229              		.loc 3 12 7 is_stmt 1 view .LVU56
 230              	.LBB86:
  13:Lib/PWMSingle/PWMSingle.hpp ****       }
 231              		.loc 3 13 13 is_stmt 0 view .LVU57
 232 002c A365     		str	r3, [r4, #88]
  13:Lib/PWMSingle/PWMSingle.hpp ****       }
 233              		.loc 3 13 26 view .LVU58
 234 002e E565     		str	r5, [r4, #92]
  13:Lib/PWMSingle/PWMSingle.hpp ****       }
 235              		.loc 3 13 45 view .LVU59
 236 0030 2266     		str	r2, [r4, #96]
 237              	.LVL15:
  13:Lib/PWMSingle/PWMSingle.hpp ****       }
 238              		.loc 3 13 45 view .LVU60
 239              	.LBE86:
 240              	.LBE85:
 241              	.LBB87:
 242              	.LBI87:
  12:Lib/PWMSingle/PWMSingle.hpp ****           : _htim(htim), _channel(channel), _maxValue(_htim->Init.Period) {
 243              		.loc 3 12 7 is_stmt 1 view .LVU61
 244              	.LBB88:
ARM GAS  /var/folders/5c/srt4fy4j1pd641bjfx75k5000000gn/T//cc9rejNC.s 			page 7


  13:Lib/PWMSingle/PWMSingle.hpp ****       }
 245              		.loc 3 13 13 is_stmt 0 view .LVU62
 246 0032 6C4B     		ldr	r3, .L8+12
 247 0034 A366     		str	r3, [r4, #104]
  13:Lib/PWMSingle/PWMSingle.hpp ****       }
 248              		.loc 3 13 26 view .LVU63
 249 0036 4FF0080C 		mov	ip, #8
 250 003a C4F86CC0 		str	ip, [r4, #108]
  13:Lib/PWMSingle/PWMSingle.hpp ****       }
 251              		.loc 3 13 67 view .LVU64
 252 003e D968     		ldr	r1, [r3, #12]
  13:Lib/PWMSingle/PWMSingle.hpp ****       }
 253              		.loc 3 13 45 view .LVU65
 254 0040 2167     		str	r1, [r4, #112]
 255              	.LVL16:
  13:Lib/PWMSingle/PWMSingle.hpp ****       }
 256              		.loc 3 13 45 view .LVU66
 257              	.LBE88:
 258              	.LBE87:
 259              	.LBB89:
 260              	.LBI89:
  12:Lib/PWMSingle/PWMSingle.hpp ****           : _htim(htim), _channel(channel), _maxValue(_htim->Init.Period) {
 261              		.loc 3 12 7 is_stmt 1 view .LVU67
 262              	.LBB90:
  13:Lib/PWMSingle/PWMSingle.hpp ****       }
 263              		.loc 3 13 13 is_stmt 0 view .LVU68
 264 0042 A367     		str	r3, [r4, #120]
  13:Lib/PWMSingle/PWMSingle.hpp ****       }
 265              		.loc 3 13 26 view .LVU69
 266 0044 0C27     		movs	r7, #12
 267 0046 E767     		str	r7, [r4, #124]
  13:Lib/PWMSingle/PWMSingle.hpp ****       }
 268              		.loc 3 13 45 view .LVU70
 269 0048 C4F88010 		str	r1, [r4, #128]
 270              	.LVL17:
  13:Lib/PWMSingle/PWMSingle.hpp ****       }
 271              		.loc 3 13 45 view .LVU71
 272              	.LBE90:
 273              	.LBE89:
 274              	.LBB91:
 275              	.LBI91:
  12:Lib/PWMSingle/PWMSingle.hpp ****           : _htim(htim), _channel(channel), _maxValue(_htim->Init.Period) {
 276              		.loc 3 12 7 is_stmt 1 view .LVU72
 277              	.LBB92:
  13:Lib/PWMSingle/PWMSingle.hpp ****       }
 278              		.loc 3 13 13 is_stmt 0 view .LVU73
 279 004c 664A     		ldr	r2, .L8+16
 280 004e C4F88820 		str	r2, [r4, #136]
  13:Lib/PWMSingle/PWMSingle.hpp ****       }
 281              		.loc 3 13 26 view .LVU74
 282 0052 C4F88C00 		str	r0, [r4, #140]
  13:Lib/PWMSingle/PWMSingle.hpp ****       }
 283              		.loc 3 13 67 view .LVU75
 284 0056 D668     		ldr	r6, [r2, #12]
  13:Lib/PWMSingle/PWMSingle.hpp ****       }
 285              		.loc 3 13 45 view .LVU76
 286 0058 C4F89060 		str	r6, [r4, #144]
ARM GAS  /var/folders/5c/srt4fy4j1pd641bjfx75k5000000gn/T//cc9rejNC.s 			page 8


 287              	.LVL18:
  13:Lib/PWMSingle/PWMSingle.hpp ****       }
 288              		.loc 3 13 45 view .LVU77
 289              	.LBE92:
 290              	.LBE91:
 291              	.LBB93:
 292              	.LBI93:
  12:Lib/PWMSingle/PWMSingle.hpp ****           : _htim(htim), _channel(channel), _maxValue(_htim->Init.Period) {
 293              		.loc 3 12 7 is_stmt 1 view .LVU78
 294              	.LBB94:
  13:Lib/PWMSingle/PWMSingle.hpp ****       }
 295              		.loc 3 13 13 is_stmt 0 view .LVU79
 296 005c C4F89830 		str	r3, [r4, #152]
  13:Lib/PWMSingle/PWMSingle.hpp ****       }
 297              		.loc 3 13 26 view .LVU80
 298 0060 C4F89C00 		str	r0, [r4, #156]
  13:Lib/PWMSingle/PWMSingle.hpp ****       }
 299              		.loc 3 13 45 view .LVU81
 300 0064 C4F8A010 		str	r1, [r4, #160]
 301              	.LVL19:
  13:Lib/PWMSingle/PWMSingle.hpp ****       }
 302              		.loc 3 13 45 view .LVU82
 303              	.LBE94:
 304              	.LBE93:
 305              	.LBB95:
 306              	.LBI95:
  12:Lib/PWMSingle/PWMSingle.hpp ****           : _htim(htim), _channel(channel), _maxValue(_htim->Init.Period) {
 307              		.loc 3 12 7 is_stmt 1 view .LVU83
 308              	.LBB96:
  13:Lib/PWMSingle/PWMSingle.hpp ****       }
 309              		.loc 3 13 13 is_stmt 0 view .LVU84
 310 0068 C4F8A820 		str	r2, [r4, #168]
  13:Lib/PWMSingle/PWMSingle.hpp ****       }
 311              		.loc 3 13 26 view .LVU85
 312 006c C4F8AC50 		str	r5, [r4, #172]
  13:Lib/PWMSingle/PWMSingle.hpp ****       }
 313              		.loc 3 13 45 view .LVU86
 314 0070 C4F8B060 		str	r6, [r4, #176]
 315              	.LVL20:
  13:Lib/PWMSingle/PWMSingle.hpp ****       }
 316              		.loc 3 13 45 view .LVU87
 317              	.LBE96:
 318              	.LBE95:
 319              	.LBB97:
 320              	.LBI97:
  12:Lib/PWMSingle/PWMSingle.hpp ****           : _htim(htim), _channel(channel), _maxValue(_htim->Init.Period) {
 321              		.loc 3 12 7 is_stmt 1 view .LVU88
 322              	.LBB98:
  13:Lib/PWMSingle/PWMSingle.hpp ****       }
 323              		.loc 3 13 13 is_stmt 0 view .LVU89
 324 0074 C4F8B820 		str	r2, [r4, #184]
  13:Lib/PWMSingle/PWMSingle.hpp ****       }
 325              		.loc 3 13 26 view .LVU90
 326 0078 C4F8BCC0 		str	ip, [r4, #188]
  13:Lib/PWMSingle/PWMSingle.hpp ****       }
 327              		.loc 3 13 45 view .LVU91
 328 007c C4F8C060 		str	r6, [r4, #192]
ARM GAS  /var/folders/5c/srt4fy4j1pd641bjfx75k5000000gn/T//cc9rejNC.s 			page 9


 329              	.LVL21:
  13:Lib/PWMSingle/PWMSingle.hpp ****       }
 330              		.loc 3 13 45 view .LVU92
 331              	.LBE98:
 332              	.LBE97:
 333              	.LBB99:
 334              	.LBI99:
  12:Lib/PWMSingle/PWMSingle.hpp ****           : _htim(htim), _channel(channel), _maxValue(_htim->Init.Period) {
 335              		.loc 3 12 7 is_stmt 1 view .LVU93
 336              	.LBB100:
  13:Lib/PWMSingle/PWMSingle.hpp ****       }
 337              		.loc 3 13 13 is_stmt 0 view .LVU94
 338 0080 5A4A     		ldr	r2, .L8+20
 339 0082 C4F8C820 		str	r2, [r4, #200]
  13:Lib/PWMSingle/PWMSingle.hpp ****       }
 340              		.loc 3 13 26 view .LVU95
 341 0086 C4F8CC50 		str	r5, [r4, #204]
  13:Lib/PWMSingle/PWMSingle.hpp ****       }
 342              		.loc 3 13 67 view .LVU96
 343 008a D668     		ldr	r6, [r2, #12]
  13:Lib/PWMSingle/PWMSingle.hpp ****       }
 344              		.loc 3 13 45 view .LVU97
 345 008c C4F8D060 		str	r6, [r4, #208]
 346              	.LVL22:
  13:Lib/PWMSingle/PWMSingle.hpp ****       }
 347              		.loc 3 13 45 view .LVU98
 348              	.LBE100:
 349              	.LBE99:
 350              	.LBB101:
 351              	.LBI101:
  12:Lib/PWMSingle/PWMSingle.hpp ****           : _htim(htim), _channel(channel), _maxValue(_htim->Init.Period) {
 352              		.loc 3 12 7 is_stmt 1 view .LVU99
 353              	.LBB102:
  13:Lib/PWMSingle/PWMSingle.hpp ****       }
 354              		.loc 3 13 13 is_stmt 0 view .LVU100
 355 0090 C4F8D820 		str	r2, [r4, #216]
  13:Lib/PWMSingle/PWMSingle.hpp ****       }
 356              		.loc 3 13 26 view .LVU101
 357 0094 C4F8DC00 		str	r0, [r4, #220]
  13:Lib/PWMSingle/PWMSingle.hpp ****       }
 358              		.loc 3 13 45 view .LVU102
 359 0098 C4F8E060 		str	r6, [r4, #224]
 360              	.LVL23:
  13:Lib/PWMSingle/PWMSingle.hpp ****       }
 361              		.loc 3 13 45 view .LVU103
 362              	.LBE102:
 363              	.LBE101:
 364              	.LBB103:
 365              	.LBI103:
  12:Lib/PWMSingle/PWMSingle.hpp ****           : _htim(htim), _channel(channel), _maxValue(_htim->Init.Period) {
 366              		.loc 3 12 7 is_stmt 1 view .LVU104
 367              	.LBB104:
  13:Lib/PWMSingle/PWMSingle.hpp ****       }
 368              		.loc 3 13 13 is_stmt 0 view .LVU105
 369 009c C4F8E830 		str	r3, [r4, #232]
  13:Lib/PWMSingle/PWMSingle.hpp ****       }
 370              		.loc 3 13 26 view .LVU106
ARM GAS  /var/folders/5c/srt4fy4j1pd641bjfx75k5000000gn/T//cc9rejNC.s 			page 10


 371 00a0 C4F8EC50 		str	r5, [r4, #236]
  13:Lib/PWMSingle/PWMSingle.hpp ****       }
 372              		.loc 3 13 45 view .LVU107
 373 00a4 C4F8F010 		str	r1, [r4, #240]
 374              	.LVL24:
  13:Lib/PWMSingle/PWMSingle.hpp ****       }
 375              		.loc 3 13 45 view .LVU108
 376              	.LBE104:
 377              	.LBE103:
 378              	.LBB105:
 379              	.LBI105:
  12:Lib/PWMSingle/PWMSingle.hpp ****           : _htim(htim), _channel(channel), _maxValue(_htim->Init.Period) {
 380              		.loc 3 12 7 is_stmt 1 view .LVU109
 381              	.LBB106:
  13:Lib/PWMSingle/PWMSingle.hpp ****       }
 382              		.loc 3 13 13 is_stmt 0 view .LVU110
 383 00a8 C4F8F820 		str	r2, [r4, #248]
  13:Lib/PWMSingle/PWMSingle.hpp ****       }
 384              		.loc 3 13 26 view .LVU111
 385 00ac C4F8FC70 		str	r7, [r4, #252]
  13:Lib/PWMSingle/PWMSingle.hpp ****       }
 386              		.loc 3 13 45 view .LVU112
 387 00b0 C4F80061 		str	r6, [r4, #256]
 388              	.LVL25:
  13:Lib/PWMSingle/PWMSingle.hpp ****       }
 389              		.loc 3 13 45 view .LVU113
 390              	.LBE106:
 391              	.LBE105:
 392              	.LBB107:
 393              	.LBI107:
  12:Lib/DigitalInOut/DigitalInOut.hpp ****         HAL_GPIO_WritePin(port, pin, GPIO_PIN_RESET);
 394              		.loc 4 12 5 is_stmt 1 view .LVU114
 395              	.LBB108:
  12:Lib/DigitalInOut/DigitalInOut.hpp ****         HAL_GPIO_WritePin(port, pin, GPIO_PIN_RESET);
 396              		.loc 4 12 52 is_stmt 0 view .LVU115
 397 00b4 4E4E     		ldr	r6, .L8+24
 398 00b6 C4F80861 		str	r6, [r4, #264]
  12:Lib/DigitalInOut/DigitalInOut.hpp ****         HAL_GPIO_WritePin(port, pin, GPIO_PIN_RESET);
 399              		.loc 4 12 64 view .LVU116
 400 00ba 0121     		movs	r1, #1
 401 00bc A4F80C11 		strh	r1, [r4, #268]	@ movhi
 402              		.loc 4 13 9 is_stmt 1 view .LVU117
 403              		.loc 4 13 26 is_stmt 0 view .LVU118
 404 00c0 2A46     		mov	r2, r5
 405 00c2 3046     		mov	r0, r6
 406 00c4 FFF7FEFF 		bl	HAL_GPIO_WritePin
 407              	.LVL26:
 408              		.loc 4 13 26 view .LVU119
 409              	.LBE108:
 410              	.LBE107:
 411              	.LBB109:
 412              	.LBI109:
  12:Lib/DigitalInOut/DigitalInOut.hpp ****         HAL_GPIO_WritePin(port, pin, GPIO_PIN_RESET);
 413              		.loc 4 12 5 is_stmt 1 view .LVU120
 414              	.LBB110:
  12:Lib/DigitalInOut/DigitalInOut.hpp ****         HAL_GPIO_WritePin(port, pin, GPIO_PIN_RESET);
 415              		.loc 4 12 52 is_stmt 0 view .LVU121
ARM GAS  /var/folders/5c/srt4fy4j1pd641bjfx75k5000000gn/T//cc9rejNC.s 			page 11


 416 00c8 C4F81061 		str	r6, [r4, #272]
  12:Lib/DigitalInOut/DigitalInOut.hpp ****         HAL_GPIO_WritePin(port, pin, GPIO_PIN_RESET);
 417              		.loc 4 12 64 view .LVU122
 418 00cc 0221     		movs	r1, #2
 419 00ce A4F81411 		strh	r1, [r4, #276]	@ movhi
 420              		.loc 4 13 9 is_stmt 1 view .LVU123
 421              		.loc 4 13 26 is_stmt 0 view .LVU124
 422 00d2 2A46     		mov	r2, r5
 423 00d4 3046     		mov	r0, r6
 424 00d6 FFF7FEFF 		bl	HAL_GPIO_WritePin
 425              	.LVL27:
 426              		.loc 4 13 26 view .LVU125
 427              	.LBE110:
 428              	.LBE109:
 429              		.loc 1 5 14 view .LVU126
 430 00da 231D     		adds	r3, r4, #4
 431 00dc 0693     		str	r3, [sp, #24]
 432 00de 04F12803 		add	r3, r4, #40
 433 00e2 0593     		str	r3, [sp, #20]
 434 00e4 04F1B803 		add	r3, r4, #184
 435 00e8 0493     		str	r3, [sp, #16]
 436 00ea 04F1A803 		add	r3, r4, #168
 437 00ee 0393     		str	r3, [sp, #12]
 438 00f0 04F19803 		add	r3, r4, #152
 439 00f4 0293     		str	r3, [sp, #8]
 440 00f6 04F18803 		add	r3, r4, #136
 441 00fa 0193     		str	r3, [sp, #4]
 442 00fc 04F17803 		add	r3, r4, #120
 443 0100 0093     		str	r3, [sp]
 444 0102 04F16803 		add	r3, r4, #104
 445 0106 04F15802 		add	r2, r4, #88
 446 010a 04F14801 		add	r1, r4, #72
 447 010e 04F58C70 		add	r0, r4, #280
 448 0112 FFF7FEFF 		bl	_ZN10MotorDriveC1EP12PwmSingleOutS1_S1_S1_S1_S1_S1_S1_PsPh
 449              	.LVL28:
 450 0116 04F1D802 		add	r2, r4, #216
 451 011a 04F1C801 		add	r1, r4, #200
 452 011e 04F6A810 		addw	r0, r4, #2472
 453 0122 FFF7FEFF 		bl	_ZN13DribblerDriveC1EP12PwmSingleOutS1_
 454              	.LVL29:
 455 0126 04F1F802 		add	r2, r4, #248
 456 012a 04F1E801 		add	r1, r4, #232
 457 012e 04F53560 		add	r0, r4, #2896
 458 0132 FFF7FEFF 		bl	_ZN13DribblerDriveC1EP12PwmSingleOutS1_
 459              	.LVL30:
 460 0136 04F58872 		add	r2, r4, #272
 461 013a 04F58471 		add	r1, r4, #264
 462 013e 04F6F840 		addw	r0, r4, #3320
 463 0142 FFF7FEFF 		bl	_ZN6KickerC1EP10DigitalOutS1_
 464              	.LVL31:
 465              	.LBB111:
 466              	.LBI111:
  19:Lib/BufferedSerial/BufferedSerial.hpp ****           : _huart(huart),
 467              		.loc 2 19 7 is_stmt 1 view .LVU127
 468              	.LBB112:
  20:Lib/BufferedSerial/BufferedSerial.hpp ****             _rxBuf(new uint8_t[rxBufSize]),
 469              		.loc 2 20 13 is_stmt 0 view .LVU128
ARM GAS  /var/folders/5c/srt4fy4j1pd641bjfx75k5000000gn/T//cc9rejNC.s 			page 12


 470 0146 2B4B     		ldr	r3, .L8+28
 471 0148 C4F80C3D 		str	r3, [r4, #3340]
  21:Lib/BufferedSerial/BufferedSerial.hpp ****             rxTop(0),
 472              		.loc 2 21 41 view .LVU129
 473 014c 8020     		movs	r0, #128
 474 014e FFF7FEFF 		bl	_Znaj
 475              	.LVL32:
  21:Lib/BufferedSerial/BufferedSerial.hpp ****             rxTop(0),
 476              		.loc 2 21 13 view .LVU130
 477 0152 C4F8100D 		str	r0, [r4, #3344]
  22:Lib/BufferedSerial/BufferedSerial.hpp ****             rxBtm(0),
 478              		.loc 2 22 13 view .LVU131
 479 0156 A4F8145D 		strh	r5, [r4, #3348]	@ movhi
  23:Lib/BufferedSerial/BufferedSerial.hpp ****             _rxBufSize(rxBufSize),
 480              		.loc 2 23 13 view .LVU132
 481 015a A4F8165D 		strh	r5, [r4, #3350]	@ movhi
  24:Lib/BufferedSerial/BufferedSerial.hpp ****             _useDMA(false) {
 482              		.loc 2 24 13 view .LVU133
 483 015e 8023     		movs	r3, #128
 484 0160 A4F8183D 		strh	r3, [r4, #3352]	@ movhi
  25:Lib/BufferedSerial/BufferedSerial.hpp ****       }
 485              		.loc 2 25 13 view .LVU134
 486 0164 84F81A5D 		strb	r5, [r4, #3354]
 487              	.LVL33:
  25:Lib/BufferedSerial/BufferedSerial.hpp ****       }
 488              		.loc 2 25 13 view .LVU135
 489              	.LBE112:
 490              	.LBE111:
 491              	.LBB113:
 492              	.LBI113:
  19:Lib/BufferedSerial/BufferedSerial.hpp ****           : _huart(huart),
 493              		.loc 2 19 7 is_stmt 1 view .LVU136
 494              	.LBB114:
  20:Lib/BufferedSerial/BufferedSerial.hpp ****             _rxBuf(new uint8_t[rxBufSize]),
 495              		.loc 2 20 13 is_stmt 0 view .LVU137
 496 0168 234B     		ldr	r3, .L8+32
 497 016a C4F81C3D 		str	r3, [r4, #3356]
  21:Lib/BufferedSerial/BufferedSerial.hpp ****             rxTop(0),
 498              		.loc 2 21 41 view .LVU138
 499 016e 4FF48070 		mov	r0, #256
 500 0172 FFF7FEFF 		bl	_Znaj
 501              	.LVL34:
  21:Lib/BufferedSerial/BufferedSerial.hpp ****             rxTop(0),
 502              		.loc 2 21 13 view .LVU139
 503 0176 C4F8200D 		str	r0, [r4, #3360]
  22:Lib/BufferedSerial/BufferedSerial.hpp ****             rxBtm(0),
 504              		.loc 2 22 13 view .LVU140
 505 017a A4F8245D 		strh	r5, [r4, #3364]	@ movhi
  23:Lib/BufferedSerial/BufferedSerial.hpp ****             _rxBufSize(rxBufSize),
 506              		.loc 2 23 13 view .LVU141
 507 017e A4F8265D 		strh	r5, [r4, #3366]	@ movhi
  24:Lib/BufferedSerial/BufferedSerial.hpp ****             _useDMA(false) {
 508              		.loc 2 24 13 view .LVU142
 509 0182 4FF48076 		mov	r6, #256
 510 0186 A4F8286D 		strh	r6, [r4, #3368]	@ movhi
  25:Lib/BufferedSerial/BufferedSerial.hpp ****       }
 511              		.loc 2 25 13 view .LVU143
ARM GAS  /var/folders/5c/srt4fy4j1pd641bjfx75k5000000gn/T//cc9rejNC.s 			page 13


 512 018a 84F82A5D 		strb	r5, [r4, #3370]
 513              	.LVL35:
  25:Lib/BufferedSerial/BufferedSerial.hpp ****       }
 514              		.loc 2 25 13 view .LVU144
 515              	.LBE114:
 516              	.LBE113:
 517              	.LBB115:
 518              	.LBI115:
  19:Lib/BufferedSerial/BufferedSerial.hpp ****           : _huart(huart),
 519              		.loc 2 19 7 is_stmt 1 view .LVU145
 520              	.LBB116:
  20:Lib/BufferedSerial/BufferedSerial.hpp ****             _rxBuf(new uint8_t[rxBufSize]),
 521              		.loc 2 20 13 is_stmt 0 view .LVU146
 522 018e 1B4B     		ldr	r3, .L8+36
 523 0190 C4F82C3D 		str	r3, [r4, #3372]
  21:Lib/BufferedSerial/BufferedSerial.hpp ****             rxTop(0),
 524              		.loc 2 21 41 view .LVU147
 525 0194 3046     		mov	r0, r6
 526 0196 FFF7FEFF 		bl	_Znaj
 527              	.LVL36:
  21:Lib/BufferedSerial/BufferedSerial.hpp ****             rxTop(0),
 528              		.loc 2 21 13 view .LVU148
 529 019a C4F8300D 		str	r0, [r4, #3376]
  22:Lib/BufferedSerial/BufferedSerial.hpp ****             rxBtm(0),
 530              		.loc 2 22 13 view .LVU149
 531 019e A4F8345D 		strh	r5, [r4, #3380]	@ movhi
  23:Lib/BufferedSerial/BufferedSerial.hpp ****             _rxBufSize(rxBufSize),
 532              		.loc 2 23 13 view .LVU150
 533 01a2 A4F8365D 		strh	r5, [r4, #3382]	@ movhi
  24:Lib/BufferedSerial/BufferedSerial.hpp ****             _useDMA(false) {
 534              		.loc 2 24 13 view .LVU151
 535 01a6 A4F8386D 		strh	r6, [r4, #3384]	@ movhi
  25:Lib/BufferedSerial/BufferedSerial.hpp ****       }
 536              		.loc 2 25 13 view .LVU152
 537 01aa 84F83A5D 		strb	r5, [r4, #3386]
 538              	.LVL37:
  25:Lib/BufferedSerial/BufferedSerial.hpp ****       }
 539              		.loc 2 25 13 view .LVU153
 540              	.LBE116:
 541              	.LBE115:
 542              		.loc 1 5 14 view .LVU154
 543 01ae 04F63C50 		addw	r0, r4, #3388
 544 01b2 FFF7FEFF 		bl	_ZN5TimerC1Ev
 545              	.LVL38:
 546 01b6 04F55460 		add	r0, r4, #3392
 547 01ba FFF7FEFF 		bl	_ZN5TimerC1Ev
 548              	.LVL39:
   6:src/unit/robot/robot.cpp ****       catch_front.SetLength(10);
 549              		.loc 1 6 7 is_stmt 1 view .LVU155
 550              		.loc 1 6 28 is_stmt 0 view .LVU156
 551 01be 0A21     		movs	r1, #10
 552 01c0 04F64850 		addw	r0, r4, #3400
 553 01c4 FFF7FEFF 		bl	_ZN9MovingAve9SetLengthEh
 554              	.LVL40:
   7:src/unit/robot/robot.cpp ****       catch_back.SetLength(10);
 555              		.loc 1 7 7 is_stmt 1 view .LVU157
 556              		.loc 1 7 27 is_stmt 0 view .LVU158
ARM GAS  /var/folders/5c/srt4fy4j1pd641bjfx75k5000000gn/T//cc9rejNC.s 			page 14


 557 01c8 0A21     		movs	r1, #10
 558 01ca 04F6E860 		addw	r0, r4, #3816
 559 01ce FFF7FEFF 		bl	_ZN9MovingAve9SetLengthEh
 560              	.LVL41:
 561              	.LBE78:
   8:src/unit/robot/robot.cpp **** }
 562              		.loc 1 8 1 view .LVU159
 563 01d2 2046     		mov	r0, r4
 564 01d4 09B0     		add	sp, sp, #36
 565              	.LCFI3:
 566              		.cfi_def_cfa_offset 20
 567              		@ sp needed
 568 01d6 F0BD     		pop	{r4, r5, r6, r7, pc}
 569              	.LVL42:
 570              	.L9:
 571              		.loc 1 8 1 view .LVU160
 572              		.align	2
 573              	.L8:
 574 01d8 00000240 		.word	1073872896
 575 01dc 00000000 		.word	htim13
 576 01e0 00000000 		.word	htim12
 577 01e4 00000000 		.word	htim2
 578 01e8 00000000 		.word	htim3
 579 01ec 00000000 		.word	htim4
 580 01f0 00080240 		.word	1073874944
 581 01f4 00000000 		.word	huart1
 582 01f8 00000000 		.word	huart2
 583 01fc 00000000 		.word	huart3
 584              		.cfi_endproc
 585              	.LFE271:
 586              		.fnend
 588              		.global	_ZN5RobotC1Ev
 589              		.thumb_set _ZN5RobotC1Ev,_ZN5RobotC2Ev
 590              		.section	.text._ZN5Robot12HardwareInitEv,"ax",%progbits
 591              		.align	1
 592              		.global	_ZN5Robot12HardwareInitEv
 593              		.syntax unified
 594              		.thumb
 595              		.thumb_func
 597              	_ZN5Robot12HardwareInitEv:
 598              		.fnstart
 599              	.LVL43:
 600              	.LFB273:
   9:src/unit/robot/robot.cpp **** 
  10:src/unit/robot/robot.cpp **** void Robot::HardwareInit() {
 601              		.loc 1 10 28 is_stmt 1 view -0
 602              		.cfi_startproc
 603              		@ args = 0, pretend = 0, frame = 0
 604              		@ frame_needed = 0, uses_anonymous_args = 0
 605              		.loc 1 10 28 is_stmt 0 view .LVU162
 606 0000 38B5     		push	{r3, r4, r5, lr}
 607              		.save {r3, r4, r5, lr}
 608              	.LCFI4:
 609              		.cfi_def_cfa_offset 16
 610              		.cfi_offset 3, -16
 611              		.cfi_offset 4, -12
 612              		.cfi_offset 5, -8
ARM GAS  /var/folders/5c/srt4fy4j1pd641bjfx75k5000000gn/T//cc9rejNC.s 			page 15


 613              		.cfi_offset 14, -4
 614 0002 0446     		mov	r4, r0
  11:src/unit/robot/robot.cpp ****       HAL_ADC_Start(&hadc1);
 615              		.loc 1 11 7 is_stmt 1 view .LVU163
 616              		.loc 1 11 20 is_stmt 0 view .LVU164
 617 0004 3B4D     		ldr	r5, .L14
 618 0006 2846     		mov	r0, r5
 619              	.LVL44:
 620              		.loc 1 11 20 view .LVU165
 621 0008 FFF7FEFF 		bl	HAL_ADC_Start
 622              	.LVL45:
  12:src/unit/robot/robot.cpp ****       HAL_ADC_Start_DMA(&hadc1, (uint32_t *)&adc_get_val, 3);
 623              		.loc 1 12 7 is_stmt 1 view .LVU166
 624              		.loc 1 12 24 is_stmt 0 view .LVU167
 625 000c 0322     		movs	r2, #3
 626 000e 3A49     		ldr	r1, .L14+4
 627 0010 2846     		mov	r0, r5
 628 0012 FFF7FEFF 		bl	HAL_ADC_Start_DMA
 629              	.LVL46:
  13:src/unit/robot/robot.cpp ****       for (uint8_t i = 0; i < 3; i++) {
 630              		.loc 1 13 7 is_stmt 1 view .LVU168
 631              	.LBB117:
 632              		.loc 1 13 20 is_stmt 0 view .LVU169
 633 0016 0022     		movs	r2, #0
 634              		.loc 1 13 7 view .LVU170
 635 0018 06E0     		b	.L11
 636              	.LVL47:
 637              	.L12:
  14:src/unit/robot/robot.cpp ****             while (!(adc_get_val[i] > 0));
 638              		.loc 1 14 20 is_stmt 1 discriminator 1 view .LVU171
 639              		.loc 1 14 35 is_stmt 0 discriminator 1 view .LVU172
 640 001a 374B     		ldr	r3, .L14+4
 641 001c 33F81230 		ldrh	r3, [r3, r2, lsl #1]
 642              		.loc 1 14 20 discriminator 1 view .LVU173
 643 0020 002B     		cmp	r3, #0
 644 0022 FAD0     		beq	.L12
  13:src/unit/robot/robot.cpp ****       for (uint8_t i = 0; i < 3; i++) {
 645              		.loc 1 13 7 is_stmt 1 discriminator 2 view .LVU174
 646 0024 0132     		adds	r2, r2, #1
 647              	.LVL48:
  13:src/unit/robot/robot.cpp ****       for (uint8_t i = 0; i < 3; i++) {
 648              		.loc 1 13 7 is_stmt 0 discriminator 2 view .LVU175
 649 0026 D2B2     		uxtb	r2, r2
 650              	.LVL49:
 651              	.L11:
  13:src/unit/robot/robot.cpp ****       for (uint8_t i = 0; i < 3; i++) {
 652              		.loc 1 13 29 is_stmt 1 discriminator 1 view .LVU176
 653 0028 022A     		cmp	r2, #2
 654 002a F6D9     		bls	.L12
 655              	.LBE117:
  15:src/unit/robot/robot.cpp ****       }
  16:src/unit/robot/robot.cpp **** 
  17:src/unit/robot/robot.cpp ****       // 諸々の初期化
  18:src/unit/robot/robot.cpp ****       serial1.init();
 656              		.loc 1 18 7 view .LVU177
 657              	.LVL50:
 658              	.LBB118:
ARM GAS  /var/folders/5c/srt4fy4j1pd641bjfx75k5000000gn/T//cc9rejNC.s 			page 16


 659              	.LBI118:
  27:Lib/BufferedSerial/BufferedSerial.hpp ****             _useDMA = dma;
 660              		.loc 2 27 12 view .LVU178
 661              	.LBB119:
  28:Lib/BufferedSerial/BufferedSerial.hpp ****             HAL_UART_Receive_DMA(_huart, _rxBuf, _rxBufSize);
 662              		.loc 2 28 13 view .LVU179
  28:Lib/BufferedSerial/BufferedSerial.hpp ****             HAL_UART_Receive_DMA(_huart, _rxBuf, _rxBufSize);
 663              		.loc 2 28 21 is_stmt 0 view .LVU180
 664 002c 0025     		movs	r5, #0
 665 002e 84F81A5D 		strb	r5, [r4, #3354]
  29:Lib/BufferedSerial/BufferedSerial.hpp ****             // printf("- Serial init\n");
 666              		.loc 2 29 13 is_stmt 1 view .LVU181
  29:Lib/BufferedSerial/BufferedSerial.hpp ****             // printf("- Serial init\n");
 667              		.loc 2 29 33 is_stmt 0 view .LVU182
 668 0032 B4F8182D 		ldrh	r2, [r4, #3352]
 669              	.LVL51:
  29:Lib/BufferedSerial/BufferedSerial.hpp ****             // printf("- Serial init\n");
 670              		.loc 2 29 33 view .LVU183
 671 0036 D4F8101D 		ldr	r1, [r4, #3344]
 672 003a D4F80C0D 		ldr	r0, [r4, #3340]
 673 003e FFF7FEFF 		bl	HAL_UART_Receive_DMA
 674              	.LVL52:
  29:Lib/BufferedSerial/BufferedSerial.hpp ****             // printf("- Serial init\n");
 675              		.loc 2 29 33 view .LVU184
 676              	.LBE119:
 677              	.LBE118:
  19:src/unit/robot/robot.cpp ****       serial2.init();
 678              		.loc 1 19 7 is_stmt 1 view .LVU185
 679              	.LBB120:
 680              	.LBI120:
  27:Lib/BufferedSerial/BufferedSerial.hpp ****             _useDMA = dma;
 681              		.loc 2 27 12 view .LVU186
 682              	.LBB121:
  28:Lib/BufferedSerial/BufferedSerial.hpp ****             HAL_UART_Receive_DMA(_huart, _rxBuf, _rxBufSize);
 683              		.loc 2 28 13 view .LVU187
  28:Lib/BufferedSerial/BufferedSerial.hpp ****             HAL_UART_Receive_DMA(_huart, _rxBuf, _rxBufSize);
 684              		.loc 2 28 21 is_stmt 0 view .LVU188
 685 0042 84F82A5D 		strb	r5, [r4, #3370]
  29:Lib/BufferedSerial/BufferedSerial.hpp ****             // printf("- Serial init\n");
 686              		.loc 2 29 13 is_stmt 1 view .LVU189
  29:Lib/BufferedSerial/BufferedSerial.hpp ****             // printf("- Serial init\n");
 687              		.loc 2 29 33 is_stmt 0 view .LVU190
 688 0046 B4F8282D 		ldrh	r2, [r4, #3368]
 689 004a D4F8201D 		ldr	r1, [r4, #3360]
 690 004e D4F81C0D 		ldr	r0, [r4, #3356]
 691 0052 FFF7FEFF 		bl	HAL_UART_Receive_DMA
 692              	.LVL53:
  29:Lib/BufferedSerial/BufferedSerial.hpp ****             // printf("- Serial init\n");
 693              		.loc 2 29 33 view .LVU191
 694              	.LBE121:
 695              	.LBE120:
  20:src/unit/robot/robot.cpp ****       serial3.init();
 696              		.loc 1 20 7 is_stmt 1 view .LVU192
 697              	.LBB122:
 698              	.LBI122:
  27:Lib/BufferedSerial/BufferedSerial.hpp ****             _useDMA = dma;
 699              		.loc 2 27 12 view .LVU193
ARM GAS  /var/folders/5c/srt4fy4j1pd641bjfx75k5000000gn/T//cc9rejNC.s 			page 17


 700              	.LBB123:
  28:Lib/BufferedSerial/BufferedSerial.hpp ****             HAL_UART_Receive_DMA(_huart, _rxBuf, _rxBufSize);
 701              		.loc 2 28 13 view .LVU194
  28:Lib/BufferedSerial/BufferedSerial.hpp ****             HAL_UART_Receive_DMA(_huart, _rxBuf, _rxBufSize);
 702              		.loc 2 28 21 is_stmt 0 view .LVU195
 703 0056 84F83A5D 		strb	r5, [r4, #3386]
  29:Lib/BufferedSerial/BufferedSerial.hpp ****             // printf("- Serial init\n");
 704              		.loc 2 29 13 is_stmt 1 view .LVU196
  29:Lib/BufferedSerial/BufferedSerial.hpp ****             // printf("- Serial init\n");
 705              		.loc 2 29 33 is_stmt 0 view .LVU197
 706 005a B4F8382D 		ldrh	r2, [r4, #3384]
 707 005e D4F8301D 		ldr	r1, [r4, #3376]
 708 0062 D4F82C0D 		ldr	r0, [r4, #3372]
 709 0066 FFF7FEFF 		bl	HAL_UART_Receive_DMA
 710              	.LVL54:
  29:Lib/BufferedSerial/BufferedSerial.hpp ****             // printf("- Serial init\n");
 711              		.loc 2 29 33 view .LVU198
 712              	.LBE123:
 713              	.LBE122:
  21:src/unit/robot/robot.cpp ****       ledh.init();
 714              		.loc 1 21 7 is_stmt 1 view .LVU199
 715              		.loc 1 21 16 is_stmt 0 view .LVU200
 716 006a 04F13800 		add	r0, r4, #56
 717 006e FFF7FEFF 		bl	_ZN12PwmSingleOut4initEv
 718              	.LVL55:
  22:src/unit/robot/robot.cpp ****       motor1a.init();
 719              		.loc 1 22 7 is_stmt 1 view .LVU201
 720              		.loc 1 22 19 is_stmt 0 view .LVU202
 721 0072 04F14800 		add	r0, r4, #72
 722 0076 FFF7FEFF 		bl	_ZN12PwmSingleOut4initEv
 723              	.LVL56:
  23:src/unit/robot/robot.cpp ****       motor1b.init();
 724              		.loc 1 23 7 is_stmt 1 view .LVU203
 725              		.loc 1 23 19 is_stmt 0 view .LVU204
 726 007a 04F15800 		add	r0, r4, #88
 727 007e FFF7FEFF 		bl	_ZN12PwmSingleOut4initEv
 728              	.LVL57:
  24:src/unit/robot/robot.cpp ****       motor2a.init();
 729              		.loc 1 24 7 is_stmt 1 view .LVU205
 730              		.loc 1 24 19 is_stmt 0 view .LVU206
 731 0082 04F16800 		add	r0, r4, #104
 732 0086 FFF7FEFF 		bl	_ZN12PwmSingleOut4initEv
 733              	.LVL58:
  25:src/unit/robot/robot.cpp ****       motor2b.init();
 734              		.loc 1 25 7 is_stmt 1 view .LVU207
 735              		.loc 1 25 19 is_stmt 0 view .LVU208
 736 008a 04F17800 		add	r0, r4, #120
 737 008e FFF7FEFF 		bl	_ZN12PwmSingleOut4initEv
 738              	.LVL59:
  26:src/unit/robot/robot.cpp ****       motor3a.init();
 739              		.loc 1 26 7 is_stmt 1 view .LVU209
 740              		.loc 1 26 19 is_stmt 0 view .LVU210
 741 0092 04F18800 		add	r0, r4, #136
 742 0096 FFF7FEFF 		bl	_ZN12PwmSingleOut4initEv
 743              	.LVL60:
  27:src/unit/robot/robot.cpp ****       motor3b.init();
 744              		.loc 1 27 7 is_stmt 1 view .LVU211
ARM GAS  /var/folders/5c/srt4fy4j1pd641bjfx75k5000000gn/T//cc9rejNC.s 			page 18


 745              		.loc 1 27 19 is_stmt 0 view .LVU212
 746 009a 04F19800 		add	r0, r4, #152
 747 009e FFF7FEFF 		bl	_ZN12PwmSingleOut4initEv
 748              	.LVL61:
  28:src/unit/robot/robot.cpp ****       motor4a.init();
 749              		.loc 1 28 7 is_stmt 1 view .LVU213
 750              		.loc 1 28 19 is_stmt 0 view .LVU214
 751 00a2 04F1A800 		add	r0, r4, #168
 752 00a6 FFF7FEFF 		bl	_ZN12PwmSingleOut4initEv
 753              	.LVL62:
  29:src/unit/robot/robot.cpp ****       motor4b.init();
 754              		.loc 1 29 7 is_stmt 1 view .LVU215
 755              		.loc 1 29 19 is_stmt 0 view .LVU216
 756 00aa 04F1B800 		add	r0, r4, #184
 757 00ae FFF7FEFF 		bl	_ZN12PwmSingleOut4initEv
 758              	.LVL63:
  30:src/unit/robot/robot.cpp ****       dribbler_front_a.init();
 759              		.loc 1 30 7 is_stmt 1 view .LVU217
 760              		.loc 1 30 28 is_stmt 0 view .LVU218
 761 00b2 04F1C800 		add	r0, r4, #200
 762 00b6 FFF7FEFF 		bl	_ZN12PwmSingleOut4initEv
 763              	.LVL64:
  31:src/unit/robot/robot.cpp ****       dribbler_front_b.init();
 764              		.loc 1 31 7 is_stmt 1 view .LVU219
 765              		.loc 1 31 28 is_stmt 0 view .LVU220
 766 00ba 04F1D800 		add	r0, r4, #216
 767 00be FFF7FEFF 		bl	_ZN12PwmSingleOut4initEv
 768              	.LVL65:
  32:src/unit/robot/robot.cpp ****       dribbler_back_a.init();
 769              		.loc 1 32 7 is_stmt 1 view .LVU221
 770              		.loc 1 32 27 is_stmt 0 view .LVU222
 771 00c2 04F1E800 		add	r0, r4, #232
 772 00c6 FFF7FEFF 		bl	_ZN12PwmSingleOut4initEv
 773              	.LVL66:
  33:src/unit/robot/robot.cpp ****       dribbler_back_b.init();
 774              		.loc 1 33 7 is_stmt 1 view .LVU223
 775              		.loc 1 33 27 is_stmt 0 view .LVU224
 776 00ca 04F1F800 		add	r0, r4, #248
 777 00ce FFF7FEFF 		bl	_ZN12PwmSingleOut4initEv
 778              	.LVL67:
  34:src/unit/robot/robot.cpp **** 
  35:src/unit/robot/robot.cpp ****       // 接続確認
  36:src/unit/robot/robot.cpp ****       motor.CheckConnection();
 779              		.loc 1 36 7 is_stmt 1 view .LVU225
 780              		.loc 1 36 28 is_stmt 0 view .LVU226
 781 00d2 04F58C70 		add	r0, r4, #280
 782 00d6 FFF7FEFF 		bl	_ZN10MotorDrive15CheckConnectionEv
 783              	.LVL68:
  37:src/unit/robot/robot.cpp ****       HAL_Delay(200);
 784              		.loc 1 37 7 is_stmt 1 view .LVU227
 785              		.loc 1 37 16 is_stmt 0 view .LVU228
 786 00da C820     		movs	r0, #200
 787 00dc FFF7FEFF 		bl	HAL_Delay
 788              	.LVL69:
  38:src/unit/robot/robot.cpp ****       dribbler_front.CheckConnection();
 789              		.loc 1 38 7 is_stmt 1 view .LVU229
 790              		.loc 1 38 37 is_stmt 0 view .LVU230
ARM GAS  /var/folders/5c/srt4fy4j1pd641bjfx75k5000000gn/T//cc9rejNC.s 			page 19


 791 00e0 04F6A810 		addw	r0, r4, #2472
 792 00e4 FFF7FEFF 		bl	_ZN13DribblerDrive15CheckConnectionEv
 793              	.LVL70:
  39:src/unit/robot/robot.cpp ****       dribbler_back.CheckConnection();
 794              		.loc 1 39 7 is_stmt 1 view .LVU231
 795              		.loc 1 39 36 is_stmt 0 view .LVU232
 796 00e8 04F53560 		add	r0, r4, #2896
 797 00ec FFF7FEFF 		bl	_ZN13DribblerDrive15CheckConnectionEv
 798              	.LVL71:
  40:src/unit/robot/robot.cpp **** }
 799              		.loc 1 40 1 view .LVU233
 800 00f0 38BD     		pop	{r3, r4, r5, pc}
 801              	.LVL72:
 802              	.L15:
 803              		.loc 1 40 1 view .LVU234
 804 00f2 00BF     		.align	2
 805              	.L14:
 806 00f4 00000000 		.word	hadc1
 807 00f8 00000000 		.word	adc_get_val
 808              		.cfi_endproc
 809              	.LFE273:
 810              		.fnend
 812              		.global	__aeabi_d2uiz
 813              		.section	.text._ZN5Robot10GetSensorsEv,"ax",%progbits
 814              		.align	1
 815              		.global	_ZN5Robot10GetSensorsEv
 816              		.syntax unified
 817              		.thumb
 818              		.thumb_func
 820              	_ZN5Robot10GetSensorsEv:
 821              		.fnstart
 822              	.LVL73:
 823              	.LFB274:
  41:src/unit/robot/robot.cpp **** 
  42:src/unit/robot/robot.cpp **** void Robot::GetSensors() {
 824              		.loc 1 42 26 is_stmt 1 view -0
 825              		.cfi_startproc
 826              		@ args = 0, pretend = 0, frame = 0
 827              		@ frame_needed = 0, uses_anonymous_args = 0
 828              		.loc 1 42 26 is_stmt 0 view .LVU236
 829 0000 F8B5     		push	{r3, r4, r5, r6, r7, lr}
 830              		.save {r3, r4, r5, r6, r7, lr}
 831              	.LCFI5:
 832              		.cfi_def_cfa_offset 24
 833              		.cfi_offset 3, -24
 834              		.cfi_offset 4, -20
 835              		.cfi_offset 5, -16
 836              		.cfi_offset 6, -12
 837              		.cfi_offset 7, -8
 838              		.cfi_offset 14, -4
 839 0002 0446     		mov	r4, r0
  43:src/unit/robot/robot.cpp ****       const float voltage_conversion = 0.01298828125;
 840              		.loc 1 43 7 is_stmt 1 view .LVU237
 841              	.LVL74:
  44:src/unit/robot/robot.cpp ****       info.voltage = adc_get_val[0] * voltage_conversion;
 842              		.loc 1 44 7 view .LVU238
 843              		.loc 1 44 35 is_stmt 0 view .LVU239
ARM GAS  /var/folders/5c/srt4fy4j1pd641bjfx75k5000000gn/T//cc9rejNC.s 			page 20


 844 0004 204D     		ldr	r5, .L18
 845 0006 2B88     		ldrh	r3, [r5]
 846 0008 07EE903A 		vmov	s15, r3	@ int
 847              		.loc 1 44 37 view .LVU240
 848 000c F8EEE77A 		vcvt.f32.s32	s15, s15
 849 0010 9FED1E7A 		vldr.32	s14, .L18+4
 850 0014 67EE877A 		vmul.f32	s15, s15, s14
 851              		.loc 1 44 20 view .LVU241
 852 0018 C0ED007A 		vstr.32	s15, [r0]
  45:src/unit/robot/robot.cpp **** 
  46:src/unit/robot/robot.cpp ****       catch_front.Compute(adc_get_val[1]);
 853              		.loc 1 46 7 is_stmt 1 view .LVU242
 854              		.loc 1 46 26 is_stmt 0 view .LVU243
 855 001c 00F64857 		addw	r7, r0, #3400
 856              		.loc 1 46 40 view .LVU244
 857 0020 6B88     		ldrh	r3, [r5, #2]
 858 0022 00EE103A 		vmov	s0, r3	@ int
 859              		.loc 1 46 26 view .LVU245
 860 0026 B8EE400A 		vcvt.f32.u32	s0, s0
 861 002a 3846     		mov	r0, r7
 862              	.LVL75:
 863              		.loc 1 46 26 view .LVU246
 864 002c FFF7FEFF 		bl	_ZN9MovingAve7ComputeEf
 865              	.LVL76:
  47:src/unit/robot/robot.cpp ****       catch_back.Compute(adc_get_val[2]);
 866              		.loc 1 47 7 is_stmt 1 view .LVU247
 867              		.loc 1 47 25 is_stmt 0 view .LVU248
 868 0030 04F6E866 		addw	r6, r4, #3816
 869              		.loc 1 47 39 view .LVU249
 870 0034 AB88     		ldrh	r3, [r5, #4]
 871 0036 00EE103A 		vmov	s0, r3	@ int
 872              		.loc 1 47 25 view .LVU250
 873 003a B8EE400A 		vcvt.f32.u32	s0, s0
 874 003e 3046     		mov	r0, r6
 875 0040 FFF7FEFF 		bl	_ZN9MovingAve7ComputeEf
 876              	.LVL77:
  48:src/unit/robot/robot.cpp ****       info.Catch.front_val = catch_front.Get();
 877              		.loc 1 48 7 is_stmt 1 view .LVU251
 878              		.loc 1 48 45 is_stmt 0 view .LVU252
 879 0044 3846     		mov	r0, r7
 880 0046 FFF7FEFF 		bl	_ZN9MovingAve3GetEv
 881              	.LVL78:
 882 004a 51EC100B 		vmov	r0, r1, d0
 883              		.loc 1 48 28 view .LVU253
 884 004e FFF7FEFF 		bl	__aeabi_d2uiz
 885              	.LVL79:
 886 0052 2084     		strh	r0, [r4, #32]	@ movhi
  49:src/unit/robot/robot.cpp ****       info.Catch.back_val = catch_back.Get();
 887              		.loc 1 49 7 is_stmt 1 view .LVU254
 888              		.loc 1 49 43 is_stmt 0 view .LVU255
 889 0054 3046     		mov	r0, r6
 890 0056 FFF7FEFF 		bl	_ZN9MovingAve3GetEv
 891              	.LVL80:
 892 005a 51EC100B 		vmov	r0, r1, d0
 893              		.loc 1 49 27 view .LVU256
 894 005e FFF7FEFF 		bl	__aeabi_d2uiz
 895              	.LVL81:
ARM GAS  /var/folders/5c/srt4fy4j1pd641bjfx75k5000000gn/T//cc9rejNC.s 			page 21


 896 0062 80B2     		uxth	r0, r0
 897 0064 A084     		strh	r0, [r4, #36]	@ movhi
  50:src/unit/robot/robot.cpp **** 
  51:src/unit/robot/robot.cpp ****       info.Catch.is_front = info.Catch.front_val < CATCH_FRONT_TH ? 1 : 0;
 898              		.loc 1 51 7 is_stmt 1 view .LVU257
 899              		.loc 1 51 40 is_stmt 0 view .LVU258
 900 0066 238C     		ldrh	r3, [r4, #32]
 901              		.loc 1 51 67 view .LVU259
 902 0068 40F2F312 		movw	r2, #499
 903 006c 9342     		cmp	r3, r2
 904 006e 8CBF     		ite	hi
 905 0070 0023     		movhi	r3, #0
 906 0072 0123     		movls	r3, #1
 907              		.loc 1 51 27 view .LVU260
 908 0074 84F82230 		strb	r3, [r4, #34]
  52:src/unit/robot/robot.cpp ****       info.Catch.is_back = info.Catch.back_val < CATCH_BACK_TH ? 1 : 0;
 909              		.loc 1 52 7 is_stmt 1 view .LVU261
 910              		.loc 1 52 64 is_stmt 0 view .LVU262
 911 0078 9042     		cmp	r0, r2
 912 007a 8CBF     		ite	hi
 913 007c 0020     		movhi	r0, #0
 914 007e 0120     		movls	r0, #1
 915              		.loc 1 52 26 view .LVU263
 916 0080 84F82600 		strb	r0, [r4, #38]
  53:src/unit/robot/robot.cpp **** }
 917              		.loc 1 53 1 view .LVU264
 918 0084 F8BD     		pop	{r3, r4, r5, r6, r7, pc}
 919              	.LVL82:
 920              	.L19:
 921              		.loc 1 53 1 view .LVU265
 922 0086 00BF     		.align	2
 923              	.L18:
 924 0088 00000000 		.word	adc_get_val
 925 008c CDCC543C 		.word	1012190413
 926              		.cfi_endproc
 927              	.LFE274:
 928              		.fnend
 930              		.global	__aeabi_i2d
 931              		.global	__aeabi_dmul
 932              		.global	__aeabi_dsub
 933              		.global	__aeabi_d2iz
 934              		.section	.text._ZN5Robot7ImuUartEv,"ax",%progbits
 935              		.align	1
 936              		.global	_ZN5Robot7ImuUartEv
 937              		.syntax unified
 938              		.thumb
 939              		.thumb_func
 941              	_ZN5Robot7ImuUartEv:
 942              		.fnstart
 943              	.LVL83:
 944              	.LFB275:
  54:src/unit/robot/robot.cpp **** 
  55:src/unit/robot/robot.cpp **** void Robot::ImuUart() {
 945              		.loc 1 55 23 is_stmt 1 view -0
 946              		.cfi_startproc
 947              		@ args = 0, pretend = 0, frame = 0
 948              		@ frame_needed = 0, uses_anonymous_args = 0
ARM GAS  /var/folders/5c/srt4fy4j1pd641bjfx75k5000000gn/T//cc9rejNC.s 			page 22


 949              		.loc 1 55 23 is_stmt 0 view .LVU267
 950 0000 38B5     		push	{r3, r4, r5, lr}
 951              	.LCFI6:
 952              		.cfi_def_cfa_offset 16
 953              		.cfi_offset 3, -16
 954              		.cfi_offset 4, -12
 955              		.cfi_offset 5, -8
 956              		.cfi_offset 14, -4
 957 0002 0446     		mov	r4, r0
  56:src/unit/robot/robot.cpp ****       while (serial1.available()) {
 958              		.loc 1 56 7 is_stmt 1 view .LVU268
 959 0004 0BE0     		b	.L21
 960              	.LVL84:
 961              	.L31:
 962              	.LBB124:
  57:src/unit/robot/robot.cpp ****             static const uint8_t HEADER = 0xFF;  // ヘッダ
  58:src/unit/robot/robot.cpp ****             static const uint8_t FOOTER = 0xAA;  // ヘッダ
  59:src/unit/robot/robot.cpp ****             static const uint8_t dataSize = 6;   // データのサイズ
  60:src/unit/robot/robot.cpp ****             static uint8_t index = 0;            // 受信したデータのインデックスカ
  61:src/unit/robot/robot.cpp ****             static uint8_t recv_data[dataSize];  // 受信したデータ
  62:src/unit/robot/robot.cpp ****             static uint8_t recv_byte;
  63:src/unit/robot/robot.cpp **** 
  64:src/unit/robot/robot.cpp ****             recv_byte = serial1.read();
  65:src/unit/robot/robot.cpp ****             if (index == 0) {
  66:src/unit/robot/robot.cpp ****                   if (recv_byte == HEADER) {
  67:src/unit/robot/robot.cpp ****                         index++;
 963              		.loc 1 67 25 view .LVU269
 964              		.loc 1 67 30 is_stmt 0 view .LVU270
 965 0006 0133     		adds	r3, r3, #1
 966 0008 354A     		ldr	r2, .L33+8
 967 000a 1370     		strb	r3, [r2]
 968 000c 07E0     		b	.L21
 969              	.L22:
  68:src/unit/robot/robot.cpp ****                   } else {
  69:src/unit/robot/robot.cpp ****                         index = 0;
  70:src/unit/robot/robot.cpp ****                   }
  71:src/unit/robot/robot.cpp ****             } else if (index == (dataSize + 1)) {
 970              		.loc 1 71 20 is_stmt 1 view .LVU271
 971 000e 072B     		cmp	r3, #7
 972 0010 23D0     		beq	.L29
  72:src/unit/robot/robot.cpp ****                   if (recv_byte == FOOTER) {
  73:src/unit/robot/robot.cpp ****                         info.Imu.yaw = ((((uint16_t)recv_data[0] << 8) & 0xFF00) | ((int16_t)recv_d
  74:src/unit/robot/robot.cpp ****                         info.Imu.pitch = ((((uint16_t)recv_data[2] << 8) & 0xFF00) | ((int16_t)recv
  75:src/unit/robot/robot.cpp ****                         info.Imu.roll = ((((uint16_t)recv_data[4] << 8) & 0xFF00) | ((int16_t)recv_
  76:src/unit/robot/robot.cpp ****                   }
  77:src/unit/robot/robot.cpp ****                   index = 0;
  78:src/unit/robot/robot.cpp ****             } else {
  79:src/unit/robot/robot.cpp ****                   recv_data[index - 1] = recv_byte;
 973              		.loc 1 79 19 view .LVU272
 974              		.loc 1 79 35 is_stmt 0 view .LVU273
 975 0012 5A1E     		subs	r2, r3, #1
 976              		.loc 1 79 40 view .LVU274
 977 0014 3349     		ldr	r1, .L33+12
 978 0016 8854     		strb	r0, [r1, r2]
  80:src/unit/robot/robot.cpp ****                   index++;
 979              		.loc 1 80 19 is_stmt 1 view .LVU275
 980              		.loc 1 80 24 is_stmt 0 view .LVU276
ARM GAS  /var/folders/5c/srt4fy4j1pd641bjfx75k5000000gn/T//cc9rejNC.s 			page 23


 981 0018 0133     		adds	r3, r3, #1
 982 001a 314A     		ldr	r2, .L33+8
 983 001c 1370     		strb	r3, [r2]
 984              	.L21:
 985              		.loc 1 80 24 view .LVU277
 986              	.LBE124:
  56:src/unit/robot/robot.cpp ****             static const uint8_t HEADER = 0xFF;  // ヘッダ
 987              		.loc 1 56 31 is_stmt 1 view .LVU278
 988              	.LVL85:
 989              	.LBB125:
 990              	.LBI125:
  33:Lib/BufferedSerial/BufferedSerial.hpp ****             uint16_t rxTop = _rxBufSize - _huart->hdmarx->Instance->NDTR;
 991              		.loc 2 33 12 view .LVU279
 992              	.LBB126:
  34:Lib/BufferedSerial/BufferedSerial.hpp ****             return rxTop != rxBtm;
 993              		.loc 2 34 13 view .LVU280
  34:Lib/BufferedSerial/BufferedSerial.hpp ****             return rxTop != rxBtm;
 994              		.loc 2 34 30 is_stmt 0 view .LVU281
 995 001e B4F8183D 		ldrh	r3, [r4, #3352]
  34:Lib/BufferedSerial/BufferedSerial.hpp ****             return rxTop != rxBtm;
 996              		.loc 2 34 43 view .LVU282
 997 0022 D4F80C2D 		ldr	r2, [r4, #3340]
  34:Lib/BufferedSerial/BufferedSerial.hpp ****             return rxTop != rxBtm;
 998              		.loc 2 34 51 view .LVU283
 999 0026 D26B     		ldr	r2, [r2, #60]
  34:Lib/BufferedSerial/BufferedSerial.hpp ****             return rxTop != rxBtm;
 1000              		.loc 2 34 59 view .LVU284
 1001 0028 1268     		ldr	r2, [r2]
  34:Lib/BufferedSerial/BufferedSerial.hpp ****             return rxTop != rxBtm;
 1002              		.loc 2 34 69 view .LVU285
 1003 002a 5268     		ldr	r2, [r2, #4]
  34:Lib/BufferedSerial/BufferedSerial.hpp ****             return rxTop != rxBtm;
 1004              		.loc 2 34 41 view .LVU286
 1005 002c 92B2     		uxth	r2, r2
  34:Lib/BufferedSerial/BufferedSerial.hpp ****             return rxTop != rxBtm;
 1006              		.loc 2 34 69 view .LVU287
 1007 002e 9B1A     		subs	r3, r3, r2
 1008 0030 9BB2     		uxth	r3, r3
 1009              	.LVL86:
  35:Lib/BufferedSerial/BufferedSerial.hpp ****       }
 1010              		.loc 2 35 13 is_stmt 1 view .LVU288
  35:Lib/BufferedSerial/BufferedSerial.hpp ****       }
 1011              		.loc 2 35 29 is_stmt 0 view .LVU289
 1012 0032 B4F8162D 		ldrh	r2, [r4, #3350]
 1013              	.LVL87:
  35:Lib/BufferedSerial/BufferedSerial.hpp ****       }
 1014              		.loc 2 35 29 view .LVU290
 1015              	.LBE126:
 1016              	.LBE125:
  56:src/unit/robot/robot.cpp ****             static const uint8_t HEADER = 0xFF;  // ヘッダ
 1017              		.loc 1 56 31 view .LVU291
 1018 0036 9342     		cmp	r3, r2
 1019 0038 4DD0     		beq	.L30
 1020              	.LBB127:
  57:src/unit/robot/robot.cpp ****             static const uint8_t FOOTER = 0xAA;  // ヘッダ
 1021              		.loc 1 57 13 is_stmt 1 view .LVU292
  58:src/unit/robot/robot.cpp ****             static const uint8_t dataSize = 6;   // データのサイズ
ARM GAS  /var/folders/5c/srt4fy4j1pd641bjfx75k5000000gn/T//cc9rejNC.s 			page 24


 1022              		.loc 1 58 13 view .LVU293
  59:src/unit/robot/robot.cpp ****             static uint8_t index = 0;            // 受信したデータのインデックスカ
 1023              		.loc 1 59 13 view .LVU294
  60:src/unit/robot/robot.cpp ****             static uint8_t recv_data[dataSize];  // 受信したデータ
 1024              		.loc 1 60 13 view .LVU295
  61:src/unit/robot/robot.cpp ****             static uint8_t recv_byte;
 1025              		.loc 1 61 13 view .LVU296
  62:src/unit/robot/robot.cpp **** 
 1026              		.loc 1 62 13 view .LVU297
  64:src/unit/robot/robot.cpp ****             if (index == 0) {
 1027              		.loc 1 64 13 view .LVU298
  64:src/unit/robot/robot.cpp ****             if (index == 0) {
 1028              		.loc 1 64 37 is_stmt 0 view .LVU299
 1029 003a 04F60C50 		addw	r0, r4, #3340
 1030 003e FFF7FEFF 		bl	_ZN14BufferedSerial4readEv
 1031              	.LVL88:
  64:src/unit/robot/robot.cpp ****             if (index == 0) {
 1032              		.loc 1 64 23 view .LVU300
 1033 0042 294B     		ldr	r3, .L33+16
 1034 0044 1870     		strb	r0, [r3]
  65:src/unit/robot/robot.cpp ****                   if (recv_byte == HEADER) {
 1035              		.loc 1 65 13 is_stmt 1 view .LVU301
  65:src/unit/robot/robot.cpp ****                   if (recv_byte == HEADER) {
 1036              		.loc 1 65 23 is_stmt 0 view .LVU302
 1037 0046 264B     		ldr	r3, .L33+8
 1038 0048 1B78     		ldrb	r3, [r3]	@ zero_extendqisi2
  65:src/unit/robot/robot.cpp ****                   if (recv_byte == HEADER) {
 1039              		.loc 1 65 13 view .LVU303
 1040 004a 002B     		cmp	r3, #0
 1041 004c DFD1     		bne	.L22
  66:src/unit/robot/robot.cpp ****                         index++;
 1042              		.loc 1 66 19 is_stmt 1 view .LVU304
 1043 004e FF28     		cmp	r0, #255
 1044 0050 D9D0     		beq	.L31
  69:src/unit/robot/robot.cpp ****                   }
 1045              		.loc 1 69 25 view .LVU305
  69:src/unit/robot/robot.cpp ****                   }
 1046              		.loc 1 69 31 is_stmt 0 view .LVU306
 1047 0052 234B     		ldr	r3, .L33+8
 1048 0054 0022     		movs	r2, #0
 1049 0056 1A70     		strb	r2, [r3]
 1050 0058 E1E7     		b	.L21
 1051              	.L29:
  72:src/unit/robot/robot.cpp ****                         info.Imu.yaw = ((((uint16_t)recv_data[0] << 8) & 0xFF00) | ((int16_t)recv_d
 1052              		.loc 1 72 19 is_stmt 1 view .LVU307
 1053 005a AA28     		cmp	r0, #170
 1054 005c 03D0     		beq	.L32
 1055              	.L26:
  77:src/unit/robot/robot.cpp ****             } else {
 1056              		.loc 1 77 19 view .LVU308
  77:src/unit/robot/robot.cpp ****             } else {
 1057              		.loc 1 77 25 is_stmt 0 view .LVU309
 1058 005e 204B     		ldr	r3, .L33+8
 1059 0060 0022     		movs	r2, #0
 1060 0062 1A70     		strb	r2, [r3]
 1061 0064 DBE7     		b	.L21
 1062              	.L32:
ARM GAS  /var/folders/5c/srt4fy4j1pd641bjfx75k5000000gn/T//cc9rejNC.s 			page 25


  73:src/unit/robot/robot.cpp ****                         info.Imu.pitch = ((((uint16_t)recv_data[2] << 8) & 0xFF00) | ((int16_t)recv
 1063              		.loc 1 73 25 is_stmt 1 view .LVU310
  73:src/unit/robot/robot.cpp ****                         info.Imu.pitch = ((((uint16_t)recv_data[2] << 8) & 0xFF00) | ((int16_t)recv
 1064              		.loc 1 73 64 is_stmt 0 view .LVU311
 1065 0066 1F4D     		ldr	r5, .L33+12
 1066 0068 2878     		ldrb	r0, [r5]	@ zero_extendqisi2
  73:src/unit/robot/robot.cpp ****                         info.Imu.pitch = ((((uint16_t)recv_data[2] << 8) & 0xFF00) | ((int16_t)recv
 1067              		.loc 1 73 105 view .LVU312
 1068 006a 6B78     		ldrb	r3, [r5, #1]	@ zero_extendqisi2
  73:src/unit/robot/robot.cpp ****                         info.Imu.pitch = ((((uint16_t)recv_data[2] << 8) & 0xFF00) | ((int16_t)recv
 1069              		.loc 1 73 118 view .LVU313
 1070 006c 43EA0020 		orr	r0, r3, r0, lsl #8
 1071 0070 FFF7FEFF 		bl	__aeabi_i2d
 1072              	.LVL89:
 1073 0074 18A3     		adr	r3, .L33
 1074 0076 D3E90023 		ldrd	r2, [r3]
 1075 007a FFF7FEFF 		bl	__aeabi_dmul
 1076              	.LVL90:
  73:src/unit/robot/robot.cpp ****                         info.Imu.pitch = ((((uint16_t)recv_data[2] << 8) & 0xFF00) | ((int16_t)recv
 1077              		.loc 1 73 124 view .LVU314
 1078 007e 0022     		movs	r2, #0
 1079 0080 1A4B     		ldr	r3, .L33+20
 1080 0082 FFF7FEFF 		bl	__aeabi_dsub
 1081              	.LVL91:
  73:src/unit/robot/robot.cpp ****                         info.Imu.pitch = ((((uint16_t)recv_data[2] << 8) & 0xFF00) | ((int16_t)recv
 1082              		.loc 1 73 38 view .LVU315
 1083 0086 FFF7FEFF 		bl	__aeabi_d2iz
 1084              	.LVL92:
 1085 008a 2085     		strh	r0, [r4, #40]	@ movhi
  74:src/unit/robot/robot.cpp ****                         info.Imu.roll = ((((uint16_t)recv_data[4] << 8) & 0xFF00) | ((int16_t)recv_
 1086              		.loc 1 74 25 is_stmt 1 view .LVU316
  74:src/unit/robot/robot.cpp ****                         info.Imu.roll = ((((uint16_t)recv_data[4] << 8) & 0xFF00) | ((int16_t)recv_
 1087              		.loc 1 74 66 is_stmt 0 view .LVU317
 1088 008c A878     		ldrb	r0, [r5, #2]	@ zero_extendqisi2
  74:src/unit/robot/robot.cpp ****                         info.Imu.roll = ((((uint16_t)recv_data[4] << 8) & 0xFF00) | ((int16_t)recv_
 1089              		.loc 1 74 107 view .LVU318
 1090 008e EB78     		ldrb	r3, [r5, #3]	@ zero_extendqisi2
  74:src/unit/robot/robot.cpp ****                         info.Imu.roll = ((((uint16_t)recv_data[4] << 8) & 0xFF00) | ((int16_t)recv_
 1091              		.loc 1 74 120 view .LVU319
 1092 0090 43EA0020 		orr	r0, r3, r0, lsl #8
 1093 0094 FFF7FEFF 		bl	__aeabi_i2d
 1094              	.LVL93:
 1095 0098 0FA3     		adr	r3, .L33
 1096 009a D3E90023 		ldrd	r2, [r3]
 1097 009e FFF7FEFF 		bl	__aeabi_dmul
 1098              	.LVL94:
  74:src/unit/robot/robot.cpp ****                         info.Imu.roll = ((((uint16_t)recv_data[4] << 8) & 0xFF00) | ((int16_t)recv_
 1099              		.loc 1 74 126 view .LVU320
 1100 00a2 0022     		movs	r2, #0
 1101 00a4 114B     		ldr	r3, .L33+20
 1102 00a6 FFF7FEFF 		bl	__aeabi_dsub
 1103              	.LVL95:
  74:src/unit/robot/robot.cpp ****                         info.Imu.roll = ((((uint16_t)recv_data[4] << 8) & 0xFF00) | ((int16_t)recv_
 1104              		.loc 1 74 40 view .LVU321
 1105 00aa FFF7FEFF 		bl	__aeabi_d2iz
 1106              	.LVL96:
 1107 00ae 6085     		strh	r0, [r4, #42]	@ movhi
ARM GAS  /var/folders/5c/srt4fy4j1pd641bjfx75k5000000gn/T//cc9rejNC.s 			page 26


  75:src/unit/robot/robot.cpp ****                   }
 1108              		.loc 1 75 25 is_stmt 1 view .LVU322
  75:src/unit/robot/robot.cpp ****                   }
 1109              		.loc 1 75 65 is_stmt 0 view .LVU323
 1110 00b0 2879     		ldrb	r0, [r5, #4]	@ zero_extendqisi2
  75:src/unit/robot/robot.cpp ****                   }
 1111              		.loc 1 75 106 view .LVU324
 1112 00b2 6B79     		ldrb	r3, [r5, #5]	@ zero_extendqisi2
  75:src/unit/robot/robot.cpp ****                   }
 1113              		.loc 1 75 119 view .LVU325
 1114 00b4 43EA0020 		orr	r0, r3, r0, lsl #8
 1115 00b8 FFF7FEFF 		bl	__aeabi_i2d
 1116              	.LVL97:
 1117 00bc 06A3     		adr	r3, .L33
 1118 00be D3E90023 		ldrd	r2, [r3]
 1119 00c2 FFF7FEFF 		bl	__aeabi_dmul
 1120              	.LVL98:
  75:src/unit/robot/robot.cpp ****                   }
 1121              		.loc 1 75 125 view .LVU326
 1122 00c6 0022     		movs	r2, #0
 1123 00c8 084B     		ldr	r3, .L33+20
 1124 00ca FFF7FEFF 		bl	__aeabi_dsub
 1125              	.LVL99:
  75:src/unit/robot/robot.cpp ****                   }
 1126              		.loc 1 75 39 view .LVU327
 1127 00ce FFF7FEFF 		bl	__aeabi_d2iz
 1128              	.LVL100:
 1129 00d2 A085     		strh	r0, [r4, #44]	@ movhi
 1130 00d4 C3E7     		b	.L26
 1131              	.L30:
  75:src/unit/robot/robot.cpp ****                   }
 1132              		.loc 1 75 39 view .LVU328
 1133              	.LBE127:
  81:src/unit/robot/robot.cpp ****             }
  82:src/unit/robot/robot.cpp ****       }
  83:src/unit/robot/robot.cpp **** }
 1134              		.loc 1 83 1 view .LVU329
 1135 00d6 38BD     		pop	{r3, r4, r5, pc}
 1136              	.LVL101:
 1137              	.L34:
 1138              		.loc 1 83 1 view .LVU330
 1139              		.align	3
 1140              	.L33:
 1141 00d8 9A999999 		.word	-1717986918
 1142 00dc 9999B93F 		.word	1069128089
 1143 00e0 00000000 		.word	_ZZN5Robot7ImuUartEvE5index
 1144 00e4 00000000 		.word	_ZZN5Robot7ImuUartEvE9recv_data
 1145 00e8 00000000 		.word	_ZZN5Robot7ImuUartEvE9recv_byte
 1146 00ec 00806640 		.word	1080459264
 1147              		.cfi_endproc
 1148              	.LFE275:
 1149              		.cantunwind
 1150              		.fnend
 1152              		.section	.text._ZN5Robot8LineUartEv,"ax",%progbits
 1153              		.align	1
 1154              		.global	_ZN5Robot8LineUartEv
 1155              		.syntax unified
ARM GAS  /var/folders/5c/srt4fy4j1pd641bjfx75k5000000gn/T//cc9rejNC.s 			page 27


 1156              		.thumb
 1157              		.thumb_func
 1159              	_ZN5Robot8LineUartEv:
 1160              		.fnstart
 1161              	.LVL102:
 1162              	.LFB276:
  84:src/unit/robot/robot.cpp **** 
  85:src/unit/robot/robot.cpp **** void Robot::LineUart() {
 1163              		.loc 1 85 24 is_stmt 1 view -0
 1164              		.cfi_startproc
 1165              		@ args = 0, pretend = 0, frame = 8
 1166              		@ frame_needed = 0, uses_anonymous_args = 0
 1167              		.loc 1 85 24 is_stmt 0 view .LVU332
 1168 0000 30B5     		push	{r4, r5, lr}
 1169              		.save {r4, r5, lr}
 1170              	.LCFI7:
 1171              		.cfi_def_cfa_offset 12
 1172              		.cfi_offset 4, -12
 1173              		.cfi_offset 5, -8
 1174              		.cfi_offset 14, -4
 1175              		.pad #12
 1176 0002 83B0     		sub	sp, sp, #12
 1177              	.LCFI8:
 1178              		.cfi_def_cfa_offset 24
 1179 0004 0446     		mov	r4, r0
  86:src/unit/robot/robot.cpp ****       while (serial2.available()) {
 1180              		.loc 1 86 7 is_stmt 1 view .LVU333
 1181 0006 0BE0     		b	.L36
 1182              	.LVL103:
 1183              	.L47:
 1184              	.LBB128:
  87:src/unit/robot/robot.cpp ****             static const uint8_t HEADER = 0xFF;   // ヘッダ
  88:src/unit/robot/robot.cpp ****             static const uint8_t FOOTER = 0xAA;   // ヘッダ
  89:src/unit/robot/robot.cpp ****             static const uint8_t data_size = 6;   // データのサイズ
  90:src/unit/robot/robot.cpp ****             static uint8_t index = 0;             // 受信したデータのインデックスカ
  91:src/unit/robot/robot.cpp ****             static uint8_t recv_data[data_size];  // 受信したデータ
  92:src/unit/robot/robot.cpp ****             static uint8_t recv_byte;
  93:src/unit/robot/robot.cpp **** 
  94:src/unit/robot/robot.cpp ****             recv_byte = serial2.read();
  95:src/unit/robot/robot.cpp ****             if (index == 0) {
  96:src/unit/robot/robot.cpp ****                   if (recv_byte == HEADER) {
  97:src/unit/robot/robot.cpp ****                         index++;
 1185              		.loc 1 97 25 view .LVU334
 1186              		.loc 1 97 30 is_stmt 0 view .LVU335
 1187 0008 0133     		adds	r3, r3, #1
 1188 000a 334A     		ldr	r2, .L50
 1189 000c 1370     		strb	r3, [r2]
 1190 000e 07E0     		b	.L36
 1191              	.L37:
  98:src/unit/robot/robot.cpp ****                   } else {
  99:src/unit/robot/robot.cpp ****                         index = 0;
 100:src/unit/robot/robot.cpp ****                   }
 101:src/unit/robot/robot.cpp ****             } else if (index == (data_size + 1)) {
 1192              		.loc 1 101 20 is_stmt 1 view .LVU336
 1193 0010 072B     		cmp	r3, #7
 1194 0012 23D0     		beq	.L45
 102:src/unit/robot/robot.cpp ****                   if (recv_byte == FOOTER) {
ARM GAS  /var/folders/5c/srt4fy4j1pd641bjfx75k5000000gn/T//cc9rejNC.s 			page 28


 103:src/unit/robot/robot.cpp ****                         info.motor_rps[0] = recv_data[0];
 104:src/unit/robot/robot.cpp ****                         info.motor_rps[1] = recv_data[1];
 105:src/unit/robot/robot.cpp ****                         info.motor_rps[2] = recv_data[2];
 106:src/unit/robot/robot.cpp ****                         info.motor_rps[3] = recv_data[3];
 107:src/unit/robot/robot.cpp ****                         info.Line.interval = recv_data[4] >> 4;
 108:src/unit/robot/robot.cpp ****                         info.Line.is_on_line = (recv_data[4] >> 3) & 1;
 109:src/unit/robot/robot.cpp ****                         info.Line.is_half_out = (recv_data[4] >> 2) & 1;
 110:src/unit/robot/robot.cpp ****                         info.Line.is_leftside = (recv_data[4] >> 1) & 1;
 111:src/unit/robot/robot.cpp ****                         info.Line.is_rightside = recv_data[4] & 1;
 112:src/unit/robot/robot.cpp ****                         info.Line.dir = recv_data[5] * 2 - 180;
 113:src/unit/robot/robot.cpp ****                   }
 114:src/unit/robot/robot.cpp ****                   index = 0;
 115:src/unit/robot/robot.cpp ****             } else {
 116:src/unit/robot/robot.cpp ****                   recv_data[index - 1] = recv_byte;
 1195              		.loc 1 116 19 view .LVU337
 1196              		.loc 1 116 35 is_stmt 0 view .LVU338
 1197 0014 5A1E     		subs	r2, r3, #1
 1198              		.loc 1 116 40 view .LVU339
 1199 0016 3149     		ldr	r1, .L50+4
 1200 0018 8854     		strb	r0, [r1, r2]
 117:src/unit/robot/robot.cpp ****                   index++;
 1201              		.loc 1 117 19 is_stmt 1 view .LVU340
 1202              		.loc 1 117 24 is_stmt 0 view .LVU341
 1203 001a 0133     		adds	r3, r3, #1
 1204 001c 2E4A     		ldr	r2, .L50
 1205 001e 1370     		strb	r3, [r2]
 1206              	.L36:
 1207              		.loc 1 117 24 view .LVU342
 1208              	.LBE128:
  86:src/unit/robot/robot.cpp ****             static const uint8_t HEADER = 0xFF;   // ヘッダ
 1209              		.loc 1 86 31 is_stmt 1 view .LVU343
 1210              	.LVL104:
 1211              	.LBB129:
 1212              	.LBI129:
  33:Lib/BufferedSerial/BufferedSerial.hpp ****             uint16_t rxTop = _rxBufSize - _huart->hdmarx->Instance->NDTR;
 1213              		.loc 2 33 12 view .LVU344
 1214              	.LBB130:
  34:Lib/BufferedSerial/BufferedSerial.hpp ****             return rxTop != rxBtm;
 1215              		.loc 2 34 13 view .LVU345
  34:Lib/BufferedSerial/BufferedSerial.hpp ****             return rxTop != rxBtm;
 1216              		.loc 2 34 30 is_stmt 0 view .LVU346
 1217 0020 B4F8283D 		ldrh	r3, [r4, #3368]
  34:Lib/BufferedSerial/BufferedSerial.hpp ****             return rxTop != rxBtm;
 1218              		.loc 2 34 43 view .LVU347
 1219 0024 D4F81C2D 		ldr	r2, [r4, #3356]
  34:Lib/BufferedSerial/BufferedSerial.hpp ****             return rxTop != rxBtm;
 1220              		.loc 2 34 51 view .LVU348
 1221 0028 D26B     		ldr	r2, [r2, #60]
  34:Lib/BufferedSerial/BufferedSerial.hpp ****             return rxTop != rxBtm;
 1222              		.loc 2 34 59 view .LVU349
 1223 002a 1268     		ldr	r2, [r2]
  34:Lib/BufferedSerial/BufferedSerial.hpp ****             return rxTop != rxBtm;
 1224              		.loc 2 34 69 view .LVU350
 1225 002c 5268     		ldr	r2, [r2, #4]
  34:Lib/BufferedSerial/BufferedSerial.hpp ****             return rxTop != rxBtm;
 1226              		.loc 2 34 41 view .LVU351
 1227 002e 92B2     		uxth	r2, r2
ARM GAS  /var/folders/5c/srt4fy4j1pd641bjfx75k5000000gn/T//cc9rejNC.s 			page 29


  34:Lib/BufferedSerial/BufferedSerial.hpp ****             return rxTop != rxBtm;
 1228              		.loc 2 34 69 view .LVU352
 1229 0030 9B1A     		subs	r3, r3, r2
 1230 0032 9BB2     		uxth	r3, r3
 1231              	.LVL105:
  35:Lib/BufferedSerial/BufferedSerial.hpp ****       }
 1232              		.loc 2 35 13 is_stmt 1 view .LVU353
  35:Lib/BufferedSerial/BufferedSerial.hpp ****       }
 1233              		.loc 2 35 29 is_stmt 0 view .LVU354
 1234 0034 B4F8262D 		ldrh	r2, [r4, #3366]
 1235              	.LVL106:
  35:Lib/BufferedSerial/BufferedSerial.hpp ****       }
 1236              		.loc 2 35 29 view .LVU355
 1237              	.LBE130:
 1238              	.LBE129:
  86:src/unit/robot/robot.cpp ****             static const uint8_t HEADER = 0xFF;   // ヘッダ
 1239              		.loc 1 86 31 view .LVU356
 1240 0038 9342     		cmp	r3, r2
 1241 003a 32D0     		beq	.L46
 1242              	.LBB131:
  87:src/unit/robot/robot.cpp ****             static const uint8_t FOOTER = 0xAA;   // ヘッダ
 1243              		.loc 1 87 13 is_stmt 1 view .LVU357
  88:src/unit/robot/robot.cpp ****             static const uint8_t data_size = 6;   // データのサイズ
 1244              		.loc 1 88 13 view .LVU358
  89:src/unit/robot/robot.cpp ****             static uint8_t index = 0;             // 受信したデータのインデックスカ
 1245              		.loc 1 89 13 view .LVU359
  90:src/unit/robot/robot.cpp ****             static uint8_t recv_data[data_size];  // 受信したデータ
 1246              		.loc 1 90 13 view .LVU360
  91:src/unit/robot/robot.cpp ****             static uint8_t recv_byte;
 1247              		.loc 1 91 13 view .LVU361
  92:src/unit/robot/robot.cpp **** 
 1248              		.loc 1 92 13 view .LVU362
  94:src/unit/robot/robot.cpp ****             if (index == 0) {
 1249              		.loc 1 94 13 view .LVU363
  94:src/unit/robot/robot.cpp ****             if (index == 0) {
 1250              		.loc 1 94 37 is_stmt 0 view .LVU364
 1251 003c 04F61C50 		addw	r0, r4, #3356
 1252 0040 FFF7FEFF 		bl	_ZN14BufferedSerial4readEv
 1253              	.LVL107:
  94:src/unit/robot/robot.cpp ****             if (index == 0) {
 1254              		.loc 1 94 23 view .LVU365
 1255 0044 264B     		ldr	r3, .L50+8
 1256 0046 1870     		strb	r0, [r3]
  95:src/unit/robot/robot.cpp ****                   if (recv_byte == HEADER) {
 1257              		.loc 1 95 13 is_stmt 1 view .LVU366
  95:src/unit/robot/robot.cpp ****                   if (recv_byte == HEADER) {
 1258              		.loc 1 95 23 is_stmt 0 view .LVU367
 1259 0048 234B     		ldr	r3, .L50
 1260 004a 1B78     		ldrb	r3, [r3]	@ zero_extendqisi2
  95:src/unit/robot/robot.cpp ****                   if (recv_byte == HEADER) {
 1261              		.loc 1 95 13 view .LVU368
 1262 004c 002B     		cmp	r3, #0
 1263 004e DFD1     		bne	.L37
  96:src/unit/robot/robot.cpp ****                         index++;
 1264              		.loc 1 96 19 is_stmt 1 view .LVU369
 1265 0050 FF28     		cmp	r0, #255
 1266 0052 D9D0     		beq	.L47
ARM GAS  /var/folders/5c/srt4fy4j1pd641bjfx75k5000000gn/T//cc9rejNC.s 			page 30


  99:src/unit/robot/robot.cpp ****                   }
 1267              		.loc 1 99 25 view .LVU370
  99:src/unit/robot/robot.cpp ****                   }
 1268              		.loc 1 99 31 is_stmt 0 view .LVU371
 1269 0054 204B     		ldr	r3, .L50
 1270 0056 0022     		movs	r2, #0
 1271 0058 1A70     		strb	r2, [r3]
 1272 005a E1E7     		b	.L36
 1273              	.L45:
 102:src/unit/robot/robot.cpp ****                         info.motor_rps[0] = recv_data[0];
 1274              		.loc 1 102 19 is_stmt 1 view .LVU372
 1275 005c AA28     		cmp	r0, #170
 1276 005e 03D0     		beq	.L48
 1277              	.L41:
 114:src/unit/robot/robot.cpp ****             } else {
 1278              		.loc 1 114 19 view .LVU373
 114:src/unit/robot/robot.cpp ****             } else {
 1279              		.loc 1 114 25 is_stmt 0 view .LVU374
 1280 0060 1D4B     		ldr	r3, .L50
 1281 0062 0022     		movs	r2, #0
 1282 0064 1A70     		strb	r2, [r3]
 1283 0066 DBE7     		b	.L36
 1284              	.L48:
 103:src/unit/robot/robot.cpp ****                         info.motor_rps[1] = recv_data[1];
 1285              		.loc 1 103 25 is_stmt 1 view .LVU375
 103:src/unit/robot/robot.cpp ****                         info.motor_rps[1] = recv_data[1];
 1286              		.loc 1 103 56 is_stmt 0 view .LVU376
 1287 0068 1C4A     		ldr	r2, .L50+4
 1288 006a 1378     		ldrb	r3, [r2]	@ zero_extendqisi2
 103:src/unit/robot/robot.cpp ****                         info.motor_rps[1] = recv_data[1];
 1289              		.loc 1 103 43 view .LVU377
 1290 006c 2371     		strb	r3, [r4, #4]
 104:src/unit/robot/robot.cpp ****                         info.motor_rps[2] = recv_data[2];
 1291              		.loc 1 104 25 is_stmt 1 view .LVU378
 104:src/unit/robot/robot.cpp ****                         info.motor_rps[2] = recv_data[2];
 1292              		.loc 1 104 56 is_stmt 0 view .LVU379
 1293 006e 5378     		ldrb	r3, [r2, #1]	@ zero_extendqisi2
 104:src/unit/robot/robot.cpp ****                         info.motor_rps[2] = recv_data[2];
 1294              		.loc 1 104 43 view .LVU380
 1295 0070 6371     		strb	r3, [r4, #5]
 105:src/unit/robot/robot.cpp ****                         info.motor_rps[3] = recv_data[3];
 1296              		.loc 1 105 25 is_stmt 1 view .LVU381
 105:src/unit/robot/robot.cpp ****                         info.motor_rps[3] = recv_data[3];
 1297              		.loc 1 105 56 is_stmt 0 view .LVU382
 1298 0072 9378     		ldrb	r3, [r2, #2]	@ zero_extendqisi2
 105:src/unit/robot/robot.cpp ****                         info.motor_rps[3] = recv_data[3];
 1299              		.loc 1 105 43 view .LVU383
 1300 0074 A371     		strb	r3, [r4, #6]
 106:src/unit/robot/robot.cpp ****                         info.Line.interval = recv_data[4] >> 4;
 1301              		.loc 1 106 25 is_stmt 1 view .LVU384
 106:src/unit/robot/robot.cpp ****                         info.Line.interval = recv_data[4] >> 4;
 1302              		.loc 1 106 56 is_stmt 0 view .LVU385
 1303 0076 D378     		ldrb	r3, [r2, #3]	@ zero_extendqisi2
 106:src/unit/robot/robot.cpp ****                         info.Line.interval = recv_data[4] >> 4;
 1304              		.loc 1 106 43 view .LVU386
 1305 0078 E371     		strb	r3, [r4, #7]
 107:src/unit/robot/robot.cpp ****                         info.Line.is_on_line = (recv_data[4] >> 3) & 1;
ARM GAS  /var/folders/5c/srt4fy4j1pd641bjfx75k5000000gn/T//cc9rejNC.s 			page 31


 1306              		.loc 1 107 25 is_stmt 1 view .LVU387
 107:src/unit/robot/robot.cpp ****                         info.Line.is_on_line = (recv_data[4] >> 3) & 1;
 1307              		.loc 1 107 57 is_stmt 0 view .LVU388
 1308 007a 1379     		ldrb	r3, [r2, #4]	@ zero_extendqisi2
 107:src/unit/robot/robot.cpp ****                         info.Line.is_on_line = (recv_data[4] >> 3) & 1;
 1309              		.loc 1 107 59 view .LVU389
 1310 007c 1909     		lsrs	r1, r3, #4
 107:src/unit/robot/robot.cpp ****                         info.Line.is_on_line = (recv_data[4] >> 3) & 1;
 1311              		.loc 1 107 44 view .LVU390
 1312 007e 2175     		strb	r1, [r4, #20]
 108:src/unit/robot/robot.cpp ****                         info.Line.is_half_out = (recv_data[4] >> 2) & 1;
 1313              		.loc 1 108 25 is_stmt 1 view .LVU391
 108:src/unit/robot/robot.cpp ****                         info.Line.is_half_out = (recv_data[4] >> 2) & 1;
 1314              		.loc 1 108 68 is_stmt 0 view .LVU392
 1315 0080 C3F3C001 		ubfx	r1, r3, #3, #1
 108:src/unit/robot/robot.cpp ****                         info.Line.is_half_out = (recv_data[4] >> 2) & 1;
 1316              		.loc 1 108 46 view .LVU393
 1317 0084 6175     		strb	r1, [r4, #21]
 109:src/unit/robot/robot.cpp ****                         info.Line.is_leftside = (recv_data[4] >> 1) & 1;
 1318              		.loc 1 109 25 is_stmt 1 view .LVU394
 109:src/unit/robot/robot.cpp ****                         info.Line.is_leftside = (recv_data[4] >> 1) & 1;
 1319              		.loc 1 109 69 is_stmt 0 view .LVU395
 1320 0086 C3F38001 		ubfx	r1, r3, #2, #1
 109:src/unit/robot/robot.cpp ****                         info.Line.is_leftside = (recv_data[4] >> 1) & 1;
 1321              		.loc 1 109 47 view .LVU396
 1322 008a A175     		strb	r1, [r4, #22]
 110:src/unit/robot/robot.cpp ****                         info.Line.is_rightside = recv_data[4] & 1;
 1323              		.loc 1 110 25 is_stmt 1 view .LVU397
 110:src/unit/robot/robot.cpp ****                         info.Line.is_rightside = recv_data[4] & 1;
 1324              		.loc 1 110 69 is_stmt 0 view .LVU398
 1325 008c C3F34001 		ubfx	r1, r3, #1, #1
 110:src/unit/robot/robot.cpp ****                         info.Line.is_rightside = recv_data[4] & 1;
 1326              		.loc 1 110 47 view .LVU399
 1327 0090 E175     		strb	r1, [r4, #23]
 111:src/unit/robot/robot.cpp ****                         info.Line.dir = recv_data[5] * 2 - 180;
 1328              		.loc 1 111 25 is_stmt 1 view .LVU400
 111:src/unit/robot/robot.cpp ****                         info.Line.dir = recv_data[5] * 2 - 180;
 1329              		.loc 1 111 63 is_stmt 0 view .LVU401
 1330 0092 03F00103 		and	r3, r3, #1
 111:src/unit/robot/robot.cpp ****                         info.Line.dir = recv_data[5] * 2 - 180;
 1331              		.loc 1 111 48 view .LVU402
 1332 0096 2376     		strb	r3, [r4, #24]
 112:src/unit/robot/robot.cpp ****                   }
 1333              		.loc 1 112 25 is_stmt 1 view .LVU403
 112:src/unit/robot/robot.cpp ****                   }
 1334              		.loc 1 112 52 is_stmt 0 view .LVU404
 1335 0098 5379     		ldrb	r3, [r2, #5]	@ zero_extendqisi2
 112:src/unit/robot/robot.cpp ****                   }
 1336              		.loc 1 112 58 view .LVU405
 1337 009a 5A3B     		subs	r3, r3, #90
 112:src/unit/robot/robot.cpp ****                   }
 1338              		.loc 1 112 39 view .LVU406
 1339 009c 5B00     		lsls	r3, r3, #1
 1340 009e 6383     		strh	r3, [r4, #26]	@ movhi
 1341 00a0 DEE7     		b	.L41
 1342              	.L46:
 112:src/unit/robot/robot.cpp ****                   }
ARM GAS  /var/folders/5c/srt4fy4j1pd641bjfx75k5000000gn/T//cc9rejNC.s 			page 32


 1343              		.loc 1 112 39 view .LVU407
 1344              	.LBE131:
 118:src/unit/robot/robot.cpp ****             }
 119:src/unit/robot/robot.cpp ****       }
 120:src/unit/robot/robot.cpp **** 
 121:src/unit/robot/robot.cpp ****       if (line_send_interval_timer.read_us() >= LINE_SEND_PERIOD_US) {
 1345              		.loc 1 121 7 is_stmt 1 view .LVU408
 1346              		.loc 1 121 43 is_stmt 0 view .LVU409
 1347 00a2 04F63C55 		addw	r5, r4, #3388
 1348 00a6 2846     		mov	r0, r5
 1349 00a8 FFF7FEFF 		bl	_ZN5Timer7read_usEv
 1350              	.LVL108:
 1351              		.loc 1 121 7 view .LVU410
 1352 00ac 42F20F73 		movw	r3, #9999
 1353 00b0 9842     		cmp	r0, r3
 1354 00b2 01D8     		bhi	.L49
 1355              	.L35:
 122:src/unit/robot/robot.cpp ****             serial2.write(info.Line.on_led);
 123:src/unit/robot/robot.cpp ****             line_send_interval_timer.reset();
 124:src/unit/robot/robot.cpp ****       }
 125:src/unit/robot/robot.cpp **** }
 1356              		.loc 1 125 1 view .LVU411
 1357 00b4 03B0     		add	sp, sp, #12
 1358              	.LCFI9:
 1359              		.cfi_remember_state
 1360              		.cfi_def_cfa_offset 12
 1361              		@ sp needed
 1362 00b6 30BD     		pop	{r4, r5, pc}
 1363              	.LVL109:
 1364              	.L49:
 1365              	.LCFI10:
 1366              		.cfi_restore_state
 122:src/unit/robot/robot.cpp ****             serial2.write(info.Line.on_led);
 1367              		.loc 1 122 13 is_stmt 1 view .LVU412
 122:src/unit/robot/robot.cpp ****             serial2.write(info.Line.on_led);
 1368              		.loc 1 122 37 is_stmt 0 view .LVU413
 1369 00b8 A37F     		ldrb	r3, [r4, #30]	@ zero_extendqisi2
 1370              	.LVL110:
 122:src/unit/robot/robot.cpp ****             serial2.write(info.Line.on_led);
 1371              		.loc 1 122 37 view .LVU414
 1372 00ba 8DF80730 		strb	r3, [sp, #7]
 1373              	.LVL111:
 1374              	.LBB132:
 1375              	.LBI132:
  48:Lib/BufferedSerial/BufferedSerial.hpp **** 
  49:Lib/BufferedSerial/BufferedSerial.hpp ****       void write(uint8_t data) {
 1376              		.loc 2 49 12 is_stmt 1 view .LVU415
 1377              	.LBB133:
  50:Lib/BufferedSerial/BufferedSerial.hpp ****             HAL_UART_Transmit(_huart, &data, 1, 100);
 1378              		.loc 2 50 13 view .LVU416
 1379              		.loc 2 50 30 is_stmt 0 view .LVU417
 1380 00be 6423     		movs	r3, #100
 1381              	.LVL112:
 1382              		.loc 2 50 30 view .LVU418
 1383 00c0 0122     		movs	r2, #1
 1384 00c2 0DF10701 		add	r1, sp, #7
 1385              	.LVL113:
ARM GAS  /var/folders/5c/srt4fy4j1pd641bjfx75k5000000gn/T//cc9rejNC.s 			page 33


 1386              		.loc 2 50 30 view .LVU419
 1387 00c6 D4F81C0D 		ldr	r0, [r4, #3356]
 1388 00ca FFF7FEFF 		bl	HAL_UART_Transmit
 1389              	.LVL114:
 1390              		.loc 2 50 30 view .LVU420
 1391              	.LBE133:
 1392              	.LBE132:
 123:src/unit/robot/robot.cpp ****       }
 1393              		.loc 1 123 13 is_stmt 1 view .LVU421
 123:src/unit/robot/robot.cpp ****       }
 1394              		.loc 1 123 43 is_stmt 0 view .LVU422
 1395 00ce 2846     		mov	r0, r5
 1396 00d0 FFF7FEFF 		bl	_ZN5Timer5resetEv
 1397              	.LVL115:
 1398              		.loc 1 125 1 view .LVU423
 1399 00d4 EEE7     		b	.L35
 1400              	.L51:
 1401 00d6 00BF     		.align	2
 1402              	.L50:
 1403 00d8 00000000 		.word	_ZZN5Robot8LineUartEvE5index
 1404 00dc 00000000 		.word	_ZZN5Robot8LineUartEvE9recv_data
 1405 00e0 00000000 		.word	_ZZN5Robot8LineUartEvE9recv_byte
 1406              		.cfi_endproc
 1407              	.LFE276:
 1408              		.fnend
 1410              		.global	__aeabi_d2f
 1411              		.section	.text._ZN5Robot6UiUartEv,"ax",%progbits
 1412              		.align	1
 1413              		.global	_ZN5Robot6UiUartEv
 1414              		.syntax unified
 1415              		.thumb
 1416              		.thumb_func
 1418              	_ZN5Robot6UiUartEv:
 1419              		.fnstart
 1420              	.LVL116:
 1421              	.LFB277:
 126:src/unit/robot/robot.cpp **** 
 127:src/unit/robot/robot.cpp **** void Robot::UiUart() {
 1422              		.loc 1 127 22 is_stmt 1 view -0
 1423              		.cfi_startproc
 1424              		@ args = 0, pretend = 0, frame = 0
 1425              		@ frame_needed = 0, uses_anonymous_args = 0
 1426              		.loc 1 127 22 is_stmt 0 view .LVU425
 1427 0000 38B5     		push	{r3, r4, r5, lr}
 1428              		.save {r3, r4, r5, lr}
 1429              	.LCFI11:
 1430              		.cfi_def_cfa_offset 16
 1431              		.cfi_offset 3, -16
 1432              		.cfi_offset 4, -12
 1433              		.cfi_offset 5, -8
 1434              		.cfi_offset 14, -4
 1435 0002 0446     		mov	r4, r0
 128:src/unit/robot/robot.cpp ****       static int8_t item;
 1436              		.loc 1 128 7 is_stmt 1 view .LVU426
 129:src/unit/robot/robot.cpp ****       static uint8_t sub_item;
 1437              		.loc 1 129 7 view .LVU427
 130:src/unit/robot/robot.cpp ****       static bool set_yaw_zero;
ARM GAS  /var/folders/5c/srt4fy4j1pd641bjfx75k5000000gn/T//cc9rejNC.s 			page 34


 1438              		.loc 1 130 7 view .LVU428
 131:src/unit/robot/robot.cpp ****       static uint8_t dribbler_sig;
 1439              		.loc 1 131 7 view .LVU429
 132:src/unit/robot/robot.cpp ****       while (serial3.available()) {
 1440              		.loc 1 132 7 view .LVU430
 1441 0004 0BE0     		b	.L53
 1442              	.LVL117:
 1443              	.L74:
 1444              	.LBB134:
 133:src/unit/robot/robot.cpp ****             static const uint8_t HEADER = 0xFF;   // ヘッダ
 134:src/unit/robot/robot.cpp ****             static const uint8_t FOOTER = 0xAA;   // ヘッダ
 135:src/unit/robot/robot.cpp ****             static const uint8_t data_size = 5;   // データのサイズ
 136:src/unit/robot/robot.cpp ****             static uint8_t index = 0;             // 受信したデータのインデックスカ
 137:src/unit/robot/robot.cpp ****             static uint8_t recv_data[data_size];  // 受信したデータ
 138:src/unit/robot/robot.cpp ****             static uint8_t recv_byte;
 139:src/unit/robot/robot.cpp **** 
 140:src/unit/robot/robot.cpp ****             recv_byte = serial3.read();
 141:src/unit/robot/robot.cpp ****             if (index == 0) {
 142:src/unit/robot/robot.cpp ****                   if (recv_byte == HEADER) {
 143:src/unit/robot/robot.cpp ****                         index++;
 1445              		.loc 1 143 25 view .LVU431
 1446              		.loc 1 143 30 is_stmt 0 view .LVU432
 1447 0006 0133     		adds	r3, r3, #1
 1448 0008 574A     		ldr	r2, .L78+8
 1449 000a 1370     		strb	r3, [r2]
 1450 000c 07E0     		b	.L53
 1451              	.L54:
 144:src/unit/robot/robot.cpp ****                   } else {
 145:src/unit/robot/robot.cpp ****                         index = 0;
 146:src/unit/robot/robot.cpp ****                   }
 147:src/unit/robot/robot.cpp ****             } else if (index == (data_size + 1)) {
 1452              		.loc 1 147 20 is_stmt 1 view .LVU433
 1453 000e 062B     		cmp	r3, #6
 1454 0010 23D0     		beq	.L72
 148:src/unit/robot/robot.cpp ****                   if (recv_byte == FOOTER) {
 149:src/unit/robot/robot.cpp ****                         item = recv_data[0] - 127;
 150:src/unit/robot/robot.cpp ****                         sub_item = recv_data[1] >> 4;
 151:src/unit/robot/robot.cpp ****                         sub_item = recv_data[1] & 0b00001111;
 152:src/unit/robot/robot.cpp ****                         set_yaw_zero = recv_data[2] >> 4;
 153:src/unit/robot/robot.cpp ****                         dribbler_sig = recv_data[2] & 0b00001111;
 154:src/unit/robot/robot.cpp ****                         info.moving_speed = recv_data[3] * 0.01;
 155:src/unit/robot/robot.cpp ****                         info.line_moving_speed = recv_data[4] * 0.01;
 156:src/unit/robot/robot.cpp ****                   }
 157:src/unit/robot/robot.cpp ****                   index = 0;
 158:src/unit/robot/robot.cpp ****             } else {
 159:src/unit/robot/robot.cpp ****                   recv_data[index - 1] = recv_byte;
 1455              		.loc 1 159 19 view .LVU434
 1456              		.loc 1 159 35 is_stmt 0 view .LVU435
 1457 0012 5A1E     		subs	r2, r3, #1
 1458              		.loc 1 159 40 view .LVU436
 1459 0014 5549     		ldr	r1, .L78+12
 1460 0016 8854     		strb	r0, [r1, r2]
 160:src/unit/robot/robot.cpp ****                   index++;
 1461              		.loc 1 160 19 is_stmt 1 view .LVU437
 1462              		.loc 1 160 24 is_stmt 0 view .LVU438
 1463 0018 0133     		adds	r3, r3, #1
 1464 001a 534A     		ldr	r2, .L78+8
ARM GAS  /var/folders/5c/srt4fy4j1pd641bjfx75k5000000gn/T//cc9rejNC.s 			page 35


 1465 001c 1370     		strb	r3, [r2]
 1466              	.L53:
 1467              		.loc 1 160 24 view .LVU439
 1468              	.LBE134:
 132:src/unit/robot/robot.cpp ****             static const uint8_t HEADER = 0xFF;   // ヘッダ
 1469              		.loc 1 132 31 is_stmt 1 view .LVU440
 1470              	.LVL118:
 1471              	.LBB135:
 1472              	.LBI135:
  33:Lib/BufferedSerial/BufferedSerial.hpp ****             uint16_t rxTop = _rxBufSize - _huart->hdmarx->Instance->NDTR;
 1473              		.loc 2 33 12 view .LVU441
 1474              	.LBB136:
  34:Lib/BufferedSerial/BufferedSerial.hpp ****             return rxTop != rxBtm;
 1475              		.loc 2 34 13 view .LVU442
  34:Lib/BufferedSerial/BufferedSerial.hpp ****             return rxTop != rxBtm;
 1476              		.loc 2 34 30 is_stmt 0 view .LVU443
 1477 001e B4F8383D 		ldrh	r3, [r4, #3384]
  34:Lib/BufferedSerial/BufferedSerial.hpp ****             return rxTop != rxBtm;
 1478              		.loc 2 34 43 view .LVU444
 1479 0022 D4F82C2D 		ldr	r2, [r4, #3372]
  34:Lib/BufferedSerial/BufferedSerial.hpp ****             return rxTop != rxBtm;
 1480              		.loc 2 34 51 view .LVU445
 1481 0026 D26B     		ldr	r2, [r2, #60]
  34:Lib/BufferedSerial/BufferedSerial.hpp ****             return rxTop != rxBtm;
 1482              		.loc 2 34 59 view .LVU446
 1483 0028 1268     		ldr	r2, [r2]
  34:Lib/BufferedSerial/BufferedSerial.hpp ****             return rxTop != rxBtm;
 1484              		.loc 2 34 69 view .LVU447
 1485 002a 5268     		ldr	r2, [r2, #4]
  34:Lib/BufferedSerial/BufferedSerial.hpp ****             return rxTop != rxBtm;
 1486              		.loc 2 34 41 view .LVU448
 1487 002c 92B2     		uxth	r2, r2
  34:Lib/BufferedSerial/BufferedSerial.hpp ****             return rxTop != rxBtm;
 1488              		.loc 2 34 69 view .LVU449
 1489 002e 9B1A     		subs	r3, r3, r2
 1490 0030 9BB2     		uxth	r3, r3
 1491              	.LVL119:
  35:Lib/BufferedSerial/BufferedSerial.hpp ****       }
 1492              		.loc 2 35 13 is_stmt 1 view .LVU450
  35:Lib/BufferedSerial/BufferedSerial.hpp ****       }
 1493              		.loc 2 35 29 is_stmt 0 view .LVU451
 1494 0032 B4F8362D 		ldrh	r2, [r4, #3382]
 1495              	.LVL120:
  35:Lib/BufferedSerial/BufferedSerial.hpp ****       }
 1496              		.loc 2 35 29 view .LVU452
 1497              	.LBE136:
 1498              	.LBE135:
 132:src/unit/robot/robot.cpp ****             static const uint8_t HEADER = 0xFF;   // ヘッダ
 1499              		.loc 1 132 31 view .LVU453
 1500 0036 9342     		cmp	r3, r2
 1501 0038 43D0     		beq	.L73
 1502              	.LBB137:
 133:src/unit/robot/robot.cpp ****             static const uint8_t FOOTER = 0xAA;   // ヘッダ
 1503              		.loc 1 133 13 is_stmt 1 view .LVU454
 134:src/unit/robot/robot.cpp ****             static const uint8_t data_size = 5;   // データのサイズ
 1504              		.loc 1 134 13 view .LVU455
 135:src/unit/robot/robot.cpp ****             static uint8_t index = 0;             // 受信したデータのインデックスカ
ARM GAS  /var/folders/5c/srt4fy4j1pd641bjfx75k5000000gn/T//cc9rejNC.s 			page 36


 1505              		.loc 1 135 13 view .LVU456
 136:src/unit/robot/robot.cpp ****             static uint8_t recv_data[data_size];  // 受信したデータ
 1506              		.loc 1 136 13 view .LVU457
 137:src/unit/robot/robot.cpp ****             static uint8_t recv_byte;
 1507              		.loc 1 137 13 view .LVU458
 138:src/unit/robot/robot.cpp **** 
 1508              		.loc 1 138 13 view .LVU459
 140:src/unit/robot/robot.cpp ****             if (index == 0) {
 1509              		.loc 1 140 13 view .LVU460
 140:src/unit/robot/robot.cpp ****             if (index == 0) {
 1510              		.loc 1 140 37 is_stmt 0 view .LVU461
 1511 003a 04F62C50 		addw	r0, r4, #3372
 1512 003e FFF7FEFF 		bl	_ZN14BufferedSerial4readEv
 1513              	.LVL121:
 140:src/unit/robot/robot.cpp ****             if (index == 0) {
 1514              		.loc 1 140 23 view .LVU462
 1515 0042 4B4B     		ldr	r3, .L78+16
 1516 0044 1870     		strb	r0, [r3]
 141:src/unit/robot/robot.cpp ****                   if (recv_byte == HEADER) {
 1517              		.loc 1 141 13 is_stmt 1 view .LVU463
 141:src/unit/robot/robot.cpp ****                   if (recv_byte == HEADER) {
 1518              		.loc 1 141 23 is_stmt 0 view .LVU464
 1519 0046 484B     		ldr	r3, .L78+8
 1520 0048 1B78     		ldrb	r3, [r3]	@ zero_extendqisi2
 141:src/unit/robot/robot.cpp ****                   if (recv_byte == HEADER) {
 1521              		.loc 1 141 13 view .LVU465
 1522 004a 002B     		cmp	r3, #0
 1523 004c DFD1     		bne	.L54
 142:src/unit/robot/robot.cpp ****                         index++;
 1524              		.loc 1 142 19 is_stmt 1 view .LVU466
 1525 004e FF28     		cmp	r0, #255
 1526 0050 D9D0     		beq	.L74
 145:src/unit/robot/robot.cpp ****                   }
 1527              		.loc 1 145 25 view .LVU467
 145:src/unit/robot/robot.cpp ****                   }
 1528              		.loc 1 145 31 is_stmt 0 view .LVU468
 1529 0052 454B     		ldr	r3, .L78+8
 1530 0054 0022     		movs	r2, #0
 1531 0056 1A70     		strb	r2, [r3]
 1532 0058 E1E7     		b	.L53
 1533              	.L72:
 148:src/unit/robot/robot.cpp ****                         item = recv_data[0] - 127;
 1534              		.loc 1 148 19 is_stmt 1 view .LVU469
 1535 005a AA28     		cmp	r0, #170
 1536 005c 03D0     		beq	.L75
 1537              	.L58:
 157:src/unit/robot/robot.cpp ****             } else {
 1538              		.loc 1 157 19 view .LVU470
 157:src/unit/robot/robot.cpp ****             } else {
 1539              		.loc 1 157 25 is_stmt 0 view .LVU471
 1540 005e 424B     		ldr	r3, .L78+8
 1541 0060 0022     		movs	r2, #0
 1542 0062 1A70     		strb	r2, [r3]
 1543 0064 DBE7     		b	.L53
 1544              	.L75:
 149:src/unit/robot/robot.cpp ****                         sub_item = recv_data[1] >> 4;
 1545              		.loc 1 149 25 is_stmt 1 view .LVU472
ARM GAS  /var/folders/5c/srt4fy4j1pd641bjfx75k5000000gn/T//cc9rejNC.s 			page 37


 149:src/unit/robot/robot.cpp ****                         sub_item = recv_data[1] >> 4;
 1546              		.loc 1 149 43 is_stmt 0 view .LVU473
 1547 0066 414D     		ldr	r5, .L78+12
 1548 0068 2B78     		ldrb	r3, [r5]	@ zero_extendqisi2
 149:src/unit/robot/robot.cpp ****                         sub_item = recv_data[1] >> 4;
 1549              		.loc 1 149 45 view .LVU474
 1550 006a 7F3B     		subs	r3, r3, #127
 149:src/unit/robot/robot.cpp ****                         sub_item = recv_data[1] >> 4;
 1551              		.loc 1 149 30 view .LVU475
 1552 006c 414A     		ldr	r2, .L78+20
 1553 006e 1370     		strb	r3, [r2]
 150:src/unit/robot/robot.cpp ****                         sub_item = recv_data[1] & 0b00001111;
 1554              		.loc 1 150 25 is_stmt 1 view .LVU476
 150:src/unit/robot/robot.cpp ****                         sub_item = recv_data[1] & 0b00001111;
 1555              		.loc 1 150 47 is_stmt 0 view .LVU477
 1556 0070 6B78     		ldrb	r3, [r5, #1]	@ zero_extendqisi2
 150:src/unit/robot/robot.cpp ****                         sub_item = recv_data[1] & 0b00001111;
 1557              		.loc 1 150 49 view .LVU478
 1558 0072 1909     		lsrs	r1, r3, #4
 150:src/unit/robot/robot.cpp ****                         sub_item = recv_data[1] & 0b00001111;
 1559              		.loc 1 150 34 view .LVU479
 1560 0074 404A     		ldr	r2, .L78+24
 1561 0076 1170     		strb	r1, [r2]
 151:src/unit/robot/robot.cpp ****                         set_yaw_zero = recv_data[2] >> 4;
 1562              		.loc 1 151 25 is_stmt 1 view .LVU480
 151:src/unit/robot/robot.cpp ****                         set_yaw_zero = recv_data[2] >> 4;
 1563              		.loc 1 151 49 is_stmt 0 view .LVU481
 1564 0078 03F00F03 		and	r3, r3, #15
 151:src/unit/robot/robot.cpp ****                         set_yaw_zero = recv_data[2] >> 4;
 1565              		.loc 1 151 34 view .LVU482
 1566 007c 1370     		strb	r3, [r2]
 152:src/unit/robot/robot.cpp ****                         dribbler_sig = recv_data[2] & 0b00001111;
 1567              		.loc 1 152 25 is_stmt 1 view .LVU483
 152:src/unit/robot/robot.cpp ****                         dribbler_sig = recv_data[2] & 0b00001111;
 1568              		.loc 1 152 51 is_stmt 0 view .LVU484
 1569 007e AB78     		ldrb	r3, [r5, #2]	@ zero_extendqisi2
 152:src/unit/robot/robot.cpp ****                         dribbler_sig = recv_data[2] & 0b00001111;
 1570              		.loc 1 152 53 view .LVU485
 1571 0080 1A09     		lsrs	r2, r3, #4
 1572 0082 14BF     		ite	ne
 1573 0084 0121     		movne	r1, #1
 1574 0086 0021     		moveq	r1, #0
 152:src/unit/robot/robot.cpp ****                         dribbler_sig = recv_data[2] & 0b00001111;
 1575              		.loc 1 152 38 view .LVU486
 1576 0088 3C4A     		ldr	r2, .L78+28
 1577 008a 1170     		strb	r1, [r2]
 153:src/unit/robot/robot.cpp ****                         info.moving_speed = recv_data[3] * 0.01;
 1578              		.loc 1 153 25 is_stmt 1 view .LVU487
 153:src/unit/robot/robot.cpp ****                         info.moving_speed = recv_data[3] * 0.01;
 1579              		.loc 1 153 53 is_stmt 0 view .LVU488
 1580 008c 03F00F03 		and	r3, r3, #15
 153:src/unit/robot/robot.cpp ****                         info.moving_speed = recv_data[3] * 0.01;
 1581              		.loc 1 153 38 view .LVU489
 1582 0090 3B4A     		ldr	r2, .L78+32
 1583 0092 1370     		strb	r3, [r2]
 154:src/unit/robot/robot.cpp ****                         info.line_moving_speed = recv_data[4] * 0.01;
 1584              		.loc 1 154 25 is_stmt 1 view .LVU490
ARM GAS  /var/folders/5c/srt4fy4j1pd641bjfx75k5000000gn/T//cc9rejNC.s 			page 38


 154:src/unit/robot/robot.cpp ****                         info.line_moving_speed = recv_data[4] * 0.01;
 1585              		.loc 1 154 58 is_stmt 0 view .LVU491
 1586 0094 E878     		ldrb	r0, [r5, #3]	@ zero_extendqisi2
 1587 0096 FFF7FEFF 		bl	__aeabi_i2d
 1588              	.LVL122:
 1589 009a 31A3     		adr	r3, .L78
 1590 009c D3E90023 		ldrd	r2, [r3]
 1591 00a0 FFF7FEFF 		bl	__aeabi_dmul
 1592              	.LVL123:
 1593 00a4 FFF7FEFF 		bl	__aeabi_d2f
 1594              	.LVL124:
 154:src/unit/robot/robot.cpp ****                         info.line_moving_speed = recv_data[4] * 0.01;
 1595              		.loc 1 154 43 view .LVU492
 1596 00a8 E060     		str	r0, [r4, #12]	@ float
 155:src/unit/robot/robot.cpp ****                   }
 1597              		.loc 1 155 25 is_stmt 1 view .LVU493
 155:src/unit/robot/robot.cpp ****                   }
 1598              		.loc 1 155 63 is_stmt 0 view .LVU494
 1599 00aa 2879     		ldrb	r0, [r5, #4]	@ zero_extendqisi2
 1600 00ac FFF7FEFF 		bl	__aeabi_i2d
 1601              	.LVL125:
 1602 00b0 2BA3     		adr	r3, .L78
 1603 00b2 D3E90023 		ldrd	r2, [r3]
 1604 00b6 FFF7FEFF 		bl	__aeabi_dmul
 1605              	.LVL126:
 1606 00ba FFF7FEFF 		bl	__aeabi_d2f
 1607              	.LVL127:
 155:src/unit/robot/robot.cpp ****                   }
 1608              		.loc 1 155 48 view .LVU495
 1609 00be 2061     		str	r0, [r4, #16]	@ float
 1610 00c0 CDE7     		b	.L58
 1611              	.L73:
 155:src/unit/robot/robot.cpp ****                   }
 1612              		.loc 1 155 48 view .LVU496
 1613              	.LBE137:
 161:src/unit/robot/robot.cpp ****             }
 162:src/unit/robot/robot.cpp ****       }
 163:src/unit/robot/robot.cpp **** 
 164:src/unit/robot/robot.cpp ****       if (dribbler_sig == 0) {
 1614              		.loc 1 164 7 is_stmt 1 view .LVU497
 1615              		.loc 1 164 24 is_stmt 0 view .LVU498
 1616 00c2 2F4B     		ldr	r3, .L78+32
 1617 00c4 1B78     		ldrb	r3, [r3]	@ zero_extendqisi2
 1618              		.loc 1 164 7 view .LVU499
 1619 00c6 33B1     		cbz	r3, .L76
 165:src/unit/robot/robot.cpp ****             dribbler_front.Hold(0);
 166:src/unit/robot/robot.cpp ****             dribbler_back.Hold(0);
 167:src/unit/robot/robot.cpp ****       } else if (dribbler_sig == 1) {
 1620              		.loc 1 167 14 is_stmt 1 view .LVU500
 1621 00c8 013B     		subs	r3, r3, #1
 1622 00ca 032B     		cmp	r3, #3
 1623 00cc 0DD8     		bhi	.L61
 1624 00ce DFE803F0 		tbb	[pc, r3]
 1625              	.L63:
 1626 00d2 15       		.byte	(.L66-.L63)/2
 1627 00d3 24       		.byte	(.L65-.L63)/2
 1628 00d4 2B       		.byte	(.L64-.L63)/2
ARM GAS  /var/folders/5c/srt4fy4j1pd641bjfx75k5000000gn/T//cc9rejNC.s 			page 39


 1629 00d5 3A       		.byte	(.L62-.L63)/2
 1630              		.p2align 1
 1631              	.L76:
 165:src/unit/robot/robot.cpp ****             dribbler_front.Hold(0);
 1632              		.loc 1 165 13 view .LVU501
 165:src/unit/robot/robot.cpp ****             dribbler_front.Hold(0);
 1633              		.loc 1 165 32 is_stmt 0 view .LVU502
 1634 00d6 0021     		movs	r1, #0
 1635 00d8 04F6A810 		addw	r0, r4, #2472
 1636 00dc FFF7FEFF 		bl	_ZN13DribblerDrive4HoldEh
 1637              	.LVL128:
 166:src/unit/robot/robot.cpp ****       } else if (dribbler_sig == 1) {
 1638              		.loc 1 166 13 is_stmt 1 view .LVU503
 166:src/unit/robot/robot.cpp ****       } else if (dribbler_sig == 1) {
 1639              		.loc 1 166 31 is_stmt 0 view .LVU504
 1640 00e0 0021     		movs	r1, #0
 1641 00e2 04F53560 		add	r0, r4, #2896
 1642 00e6 FFF7FEFF 		bl	_ZN13DribblerDrive4HoldEh
 1643              	.LVL129:
 1644              	.L61:
 168:src/unit/robot/robot.cpp ****             if (info.Catch.is_front) {
 169:src/unit/robot/robot.cpp ****                   dribbler_front.Hold(HOLD_MAX_POWER);
 170:src/unit/robot/robot.cpp ****             } else {
 171:src/unit/robot/robot.cpp ****                   dribbler_front.Hold(HOLD_WAIT_POWER);
 172:src/unit/robot/robot.cpp ****             }
 173:src/unit/robot/robot.cpp ****       } else if (dribbler_sig == 2) {
 174:src/unit/robot/robot.cpp ****             kicker.Kick();
 175:src/unit/robot/robot.cpp ****       } else if (dribbler_sig == 3) {
 176:src/unit/robot/robot.cpp ****             if (info.Catch.is_back) {
 177:src/unit/robot/robot.cpp ****                   dribbler_back.Hold(HOLD_MAX_POWER);
 178:src/unit/robot/robot.cpp ****             } else {
 179:src/unit/robot/robot.cpp ****                   dribbler_back.Hold(HOLD_WAIT_POWER);
 180:src/unit/robot/robot.cpp ****             }
 181:src/unit/robot/robot.cpp ****       } else if (dribbler_sig == 4) {
 182:src/unit/robot/robot.cpp ****             dribbler_back.Hold(0);
 183:src/unit/robot/robot.cpp ****       }
 184:src/unit/robot/robot.cpp **** 
 185:src/unit/robot/robot.cpp ****       if (ui_send_interval_timer.read_us() >= UI_SEND_PERIOD_US) {
 1645              		.loc 1 185 7 is_stmt 1 view .LVU505
 1646              		.loc 1 185 41 is_stmt 0 view .LVU506
 1647 00ea 04F55464 		add	r4, r4, #3392
 1648              	.LVL130:
 1649              		.loc 1 185 41 view .LVU507
 1650 00ee 2046     		mov	r0, r4
 1651 00f0 FFF7FEFF 		bl	_ZN5Timer7read_usEv
 1652              	.LVL131:
 1653              		.loc 1 185 7 view .LVU508
 1654 00f4 B0F5FA6F 		cmp	r0, #2000
 1655 00f8 2BD2     		bcs	.L77
 1656              	.L52:
 186:src/unit/robot/robot.cpp ****             ui_send_interval_timer.reset();
 187:src/unit/robot/robot.cpp ****       }
 188:src/unit/robot/robot.cpp **** }...
 1657              		.loc 1 188 1 view .LVU509
 1658 00fa 38BD     		pop	{r3, r4, r5, pc}
 1659              	.LVL132:
 1660              	.L66:
ARM GAS  /var/folders/5c/srt4fy4j1pd641bjfx75k5000000gn/T//cc9rejNC.s 			page 40


 168:src/unit/robot/robot.cpp ****             if (info.Catch.is_front) {
 1661              		.loc 1 168 13 is_stmt 1 view .LVU510
 168:src/unit/robot/robot.cpp ****             if (info.Catch.is_front) {
 1662              		.loc 1 168 28 is_stmt 0 view .LVU511
 1663 00fc 94F82230 		ldrb	r3, [r4, #34]	@ zero_extendqisi2
 168:src/unit/robot/robot.cpp ****             if (info.Catch.is_front) {
 1664              		.loc 1 168 13 view .LVU512
 1665 0100 2BB1     		cbz	r3, .L67
 169:src/unit/robot/robot.cpp ****                   dribbler_front.Hold(HOLD_MAX_POWER);
 1666              		.loc 1 169 19 is_stmt 1 view .LVU513
 169:src/unit/robot/robot.cpp ****                   dribbler_front.Hold(HOLD_MAX_POWER);
 1667              		.loc 1 169 38 is_stmt 0 view .LVU514
 1668 0102 6421     		movs	r1, #100
 1669 0104 04F6A810 		addw	r0, r4, #2472
 1670 0108 FFF7FEFF 		bl	_ZN13DribblerDrive4HoldEh
 1671              	.LVL133:
 1672 010c EDE7     		b	.L61
 1673              	.L67:
 171:src/unit/robot/robot.cpp ****                   dribbler_front.Hold(HOLD_WAIT_POWER);
 1674              		.loc 1 171 19 is_stmt 1 view .LVU515
 171:src/unit/robot/robot.cpp ****                   dribbler_front.Hold(HOLD_WAIT_POWER);
 1675              		.loc 1 171 38 is_stmt 0 view .LVU516
 1676 010e 3221     		movs	r1, #50
 1677 0110 04F6A810 		addw	r0, r4, #2472
 1678 0114 FFF7FEFF 		bl	_ZN13DribblerDrive4HoldEh
 1679              	.LVL134:
 1680 0118 E7E7     		b	.L61
 1681              	.L65:
 174:src/unit/robot/robot.cpp ****             kicker.Kick();
 1682              		.loc 1 174 13 is_stmt 1 view .LVU517
 174:src/unit/robot/robot.cpp ****             kicker.Kick();
 1683              		.loc 1 174 24 is_stmt 0 view .LVU518
 1684 011a B7EE000A 		vmov.f32	s0, #1.0e+0
 1685 011e 04F6F840 		addw	r0, r4, #3320
 1686 0122 FFF7FEFF 		bl	_ZN6Kicker4KickEf
 1687              	.LVL135:
 1688 0126 E0E7     		b	.L61
 1689              	.L64:
 176:src/unit/robot/robot.cpp ****             if (info.Catch.is_back) {
 1690              		.loc 1 176 13 is_stmt 1 view .LVU519
 176:src/unit/robot/robot.cpp ****             if (info.Catch.is_back) {
 1691              		.loc 1 176 28 is_stmt 0 view .LVU520
 1692 0128 94F82630 		ldrb	r3, [r4, #38]	@ zero_extendqisi2
 176:src/unit/robot/robot.cpp ****             if (info.Catch.is_back) {
 1693              		.loc 1 176 13 view .LVU521
 1694 012c 2BB1     		cbz	r3, .L68
 177:src/unit/robot/robot.cpp ****                   dribbler_back.Hold(HOLD_MAX_POWER);
 1695              		.loc 1 177 19 is_stmt 1 view .LVU522
 177:src/unit/robot/robot.cpp ****                   dribbler_back.Hold(HOLD_MAX_POWER);
 1696              		.loc 1 177 37 is_stmt 0 view .LVU523
 1697 012e 6421     		movs	r1, #100
 1698 0130 04F53560 		add	r0, r4, #2896
 1699 0134 FFF7FEFF 		bl	_ZN13DribblerDrive4HoldEh
 1700              	.LVL136:
 1701 0138 D7E7     		b	.L61
 1702              	.L68:
 179:src/unit/robot/robot.cpp ****                   dribbler_back.Hold(HOLD_WAIT_POWER);
ARM GAS  /var/folders/5c/srt4fy4j1pd641bjfx75k5000000gn/T//cc9rejNC.s 			page 41


 1703              		.loc 1 179 19 is_stmt 1 view .LVU524
 179:src/unit/robot/robot.cpp ****                   dribbler_back.Hold(HOLD_WAIT_POWER);
 1704              		.loc 1 179 37 is_stmt 0 view .LVU525
 1705 013a 3221     		movs	r1, #50
 1706 013c 04F53560 		add	r0, r4, #2896
 1707 0140 FFF7FEFF 		bl	_ZN13DribblerDrive4HoldEh
 1708              	.LVL137:
 1709 0144 D1E7     		b	.L61
 1710              	.L62:
 182:src/unit/robot/robot.cpp ****             dribbler_back.Hold(0);
 1711              		.loc 1 182 13 is_stmt 1 view .LVU526
 182:src/unit/robot/robot.cpp ****             dribbler_back.Hold(0);
 1712              		.loc 1 182 31 is_stmt 0 view .LVU527
 1713 0146 0021     		movs	r1, #0
 1714 0148 04F53560 		add	r0, r4, #2896
 1715 014c FFF7FEFF 		bl	_ZN13DribblerDrive4HoldEh
 1716              	.LVL138:
 1717 0150 CBE7     		b	.L61
 1718              	.LVL139:
 1719              	.L77:
 186:src/unit/robot/robot.cpp ****             ui_send_interval_timer.reset();
 1720              		.loc 1 186 13 is_stmt 1 view .LVU528
 186:src/unit/robot/robot.cpp ****             ui_send_interval_timer.reset();
 1721              		.loc 1 186 41 is_stmt 0 view .LVU529
 1722 0152 2046     		mov	r0, r4
 1723 0154 FFF7FEFF 		bl	_ZN5Timer5resetEv
 1724              	.LVL140:
 1725              		.loc 1 188 1 view .LVU530
 1726 0158 CFE7     		b	.L52
 1727              	.L79:
 1728 015a 00BFAFF3 		.align	3
 1728      0080
 1729              	.L78:
 1730 0160 7B14AE47 		.word	1202590843
 1731 0164 E17A843F 		.word	1065646817
 1732 0168 00000000 		.word	_ZZN5Robot6UiUartEvE5index
 1733 016c 00000000 		.word	_ZZN5Robot6UiUartEvE9recv_data
 1734 0170 00000000 		.word	_ZZN5Robot6UiUartEvE9recv_byte
 1735 0174 00000000 		.word	_ZZN5Robot6UiUartEvE4item
 1736 0178 00000000 		.word	_ZZN5Robot6UiUartEvE8sub_item
 1737 017c 00000000 		.word	_ZZN5Robot6UiUartEvE12set_yaw_zero
 1738 0180 00000000 		.word	_ZZN5Robot6UiUartEvE12dribbler_sig
 1739              		.cfi_endproc
 1740              	.LFE277:
 1741              		.fnend
 1743              		.section	.bss._ZZN5Robot6UiUartEvE9recv_byte,"aw",%nobits
 1746              	_ZZN5Robot6UiUartEvE9recv_byte:
 1747 0000 00       		.space	1
 1748              		.section	.bss._ZZN5Robot6UiUartEvE9recv_data,"aw",%nobits
 1749              		.align	2
 1752              	_ZZN5Robot6UiUartEvE9recv_data:
 1753 0000 00000000 		.space	5
 1753      00
 1754              		.section	.bss._ZZN5Robot6UiUartEvE5index,"aw",%nobits
 1757              	_ZZN5Robot6UiUartEvE5index:
 1758 0000 00       		.space	1
 1759              		.section	.bss._ZZN5Robot6UiUartEvE12dribbler_sig,"aw",%nobits
ARM GAS  /var/folders/5c/srt4fy4j1pd641bjfx75k5000000gn/T//cc9rejNC.s 			page 42


 1762              	_ZZN5Robot6UiUartEvE12dribbler_sig:
 1763 0000 00       		.space	1
 1764              		.section	.bss._ZZN5Robot6UiUartEvE12set_yaw_zero,"aw",%nobits
 1767              	_ZZN5Robot6UiUartEvE12set_yaw_zero:
 1768 0000 00       		.space	1
 1769              		.section	.bss._ZZN5Robot6UiUartEvE8sub_item,"aw",%nobits
 1772              	_ZZN5Robot6UiUartEvE8sub_item:
 1773 0000 00       		.space	1
 1774              		.section	.bss._ZZN5Robot6UiUartEvE4item,"aw",%nobits
 1777              	_ZZN5Robot6UiUartEvE4item:
 1778 0000 00       		.space	1
 1779              		.section	.bss._ZZN5Robot8LineUartEvE9recv_byte,"aw",%nobits
 1782              	_ZZN5Robot8LineUartEvE9recv_byte:
 1783 0000 00       		.space	1
 1784              		.section	.bss._ZZN5Robot8LineUartEvE9recv_data,"aw",%nobits
 1785              		.align	2
 1788              	_ZZN5Robot8LineUartEvE9recv_data:
 1789 0000 00000000 		.space	6
 1789      0000
 1790              		.section	.bss._ZZN5Robot8LineUartEvE5index,"aw",%nobits
 1793              	_ZZN5Robot8LineUartEvE5index:
 1794 0000 00       		.space	1
 1795              		.section	.bss._ZZN5Robot7ImuUartEvE9recv_byte,"aw",%nobits
 1798              	_ZZN5Robot7ImuUartEvE9recv_byte:
 1799 0000 00       		.space	1
 1800              		.section	.bss._ZZN5Robot7ImuUartEvE9recv_data,"aw",%nobits
 1801              		.align	2
 1804              	_ZZN5Robot7ImuUartEvE9recv_data:
 1805 0000 00000000 		.space	6
 1805      0000
 1806              		.section	.bss._ZZN5Robot7ImuUartEvE5index,"aw",%nobits
 1809              	_ZZN5Robot7ImuUartEvE5index:
 1810 0000 00       		.space	1
 1811              		.global	adc_get_val
 1812              		.section	.bss.adc_get_val,"aw",%nobits
 1813              		.align	2
 1816              	adc_get_val:
 1817 0000 00000000 		.space	6
 1817      0000
 1818              		.text
 1819              	.Letext0:
 1820              		.file 5 "/opt/ST/STM32CubeCLT_1.16.0/GNU-tools-for-STM32/arm-none-eabi/include/machine/_default_ty
 1821              		.file 6 "/opt/ST/STM32CubeCLT_1.16.0/GNU-tools-for-STM32/lib/gcc/arm-none-eabi/12.3.1/include/stdd
 1822              		.file 7 "/opt/ST/STM32CubeCLT_1.16.0/GNU-tools-for-STM32/arm-none-eabi/include/sys/_types.h"
 1823              		.file 8 "/opt/ST/STM32CubeCLT_1.16.0/GNU-tools-for-STM32/arm-none-eabi/include/sys/reent.h"
 1824              		.file 9 "/opt/ST/STM32CubeCLT_1.16.0/GNU-tools-for-STM32/arm-none-eabi/include/sys/lock.h"
 1825              		.file 10 "/opt/ST/STM32CubeCLT_1.16.0/GNU-tools-for-STM32/arm-none-eabi/include/stdio.h"
 1826              		.file 11 "/opt/ST/STM32CubeCLT_1.16.0/GNU-tools-for-STM32/arm-none-eabi/include/sys/_stdint.h"
 1827              		.file 12 "Drivers/CMSIS/Device/ST/STM32F4xx/Include/stm32f446xx.h"
 1828              		.file 13 "Drivers/CMSIS/Device/ST/STM32F4xx/Include/stm32f4xx.h"
 1829              		.file 14 "Drivers/STM32F4xx_HAL_Driver/Inc/stm32f4xx_hal_def.h"
 1830              		.file 15 "Drivers/STM32F4xx_HAL_Driver/Inc/stm32f4xx_hal_gpio.h"
 1831              		.file 16 "Drivers/STM32F4xx_HAL_Driver/Inc/stm32f4xx_hal_dma.h"
 1832              		.file 17 "Drivers/STM32F4xx_HAL_Driver/Inc/stm32f4xx_hal_adc.h"
 1833              		.file 18 "Drivers/STM32F4xx_HAL_Driver/Inc/stm32f4xx_hal_tim.h"
 1834              		.file 19 "Drivers/STM32F4xx_HAL_Driver/Inc/stm32f4xx_hal_uart.h"
 1835              		.file 20 "Drivers/STM32F4xx_HAL_Driver/Inc/stm32f4xx_hal.h"
ARM GAS  /var/folders/5c/srt4fy4j1pd641bjfx75k5000000gn/T//cc9rejNC.s 			page 43


 1836              		.file 21 "Core/Inc/usart.h"
 1837              		.file 22 "Lib/MovingAve/MovingAve.hpp"
 1838              		.file 23 "/opt/ST/STM32CubeCLT_1.16.0/GNU-tools-for-STM32/arm-none-eabi/include/c++/12.3.1/cstdio"
 1839              		.file 24 "/opt/ST/STM32CubeCLT_1.16.0/GNU-tools-for-STM32/arm-none-eabi/include/c++/12.3.1/arm-non
 1840              		.file 25 "Core/Inc/tim.h"
 1841              		.file 26 "Lib/Timer/Timer.hpp"
 1842              		.file 27 "Core/Inc/adc.h"
 1843              		.file 28 "src/unit/dribbler_drive/dribbler_drive.hpp"
 1844              		.file 29 "src/unit/kicker/kicker.hpp"
 1845              		.file 30 "Lib/pid/pid.hpp"
 1846              		.file 31 "src/unit/motor_drive/motor_drive.hpp"
 1847              		.file 32 "src/unit/robot/robot.hpp"
ARM GAS  /var/folders/5c/srt4fy4j1pd641bjfx75k5000000gn/T//cc9rejNC.s 			page 44


DEFINED SYMBOLS
                            *ABS*:00000000 robot.cpp
/var/folders/5c/srt4fy4j1pd641bjfx75k5000000gn/T//cc9rejNC.s:21     .text._ZN14BufferedSerial4readEv:00000000 $t
/var/folders/5c/srt4fy4j1pd641bjfx75k5000000gn/T//cc9rejNC.s:27     .text._ZN14BufferedSerial4readEv:00000000 _ZN14BufferedSerial4readEv
.ARM.exidx.text._ZN14BufferedSerial4readEv:00000000 $d
/var/folders/5c/srt4fy4j1pd641bjfx75k5000000gn/T//cc9rejNC.s:93     .text._ZN12PwmSingleOut4initEv:00000000 $t
/var/folders/5c/srt4fy4j1pd641bjfx75k5000000gn/T//cc9rejNC.s:99     .text._ZN12PwmSingleOut4initEv:00000000 _ZN12PwmSingleOut4initEv
.ARM.exidx.text._ZN12PwmSingleOut4initEv:00000000 $d
/var/folders/5c/srt4fy4j1pd641bjfx75k5000000gn/T//cc9rejNC.s:139    .text._ZN5RobotC2Ev:00000000 $t
/var/folders/5c/srt4fy4j1pd641bjfx75k5000000gn/T//cc9rejNC.s:145    .text._ZN5RobotC2Ev:00000000 _ZN5RobotC2Ev
/var/folders/5c/srt4fy4j1pd641bjfx75k5000000gn/T//cc9rejNC.s:574    .text._ZN5RobotC2Ev:000001d8 $d
    .ARM.exidx.text._ZN5RobotC2Ev:00000000 $d
/var/folders/5c/srt4fy4j1pd641bjfx75k5000000gn/T//cc9rejNC.s:145    .text._ZN5RobotC2Ev:00000000 _ZN5RobotC1Ev
/var/folders/5c/srt4fy4j1pd641bjfx75k5000000gn/T//cc9rejNC.s:591    .text._ZN5Robot12HardwareInitEv:00000000 $t
/var/folders/5c/srt4fy4j1pd641bjfx75k5000000gn/T//cc9rejNC.s:597    .text._ZN5Robot12HardwareInitEv:00000000 _ZN5Robot12HardwareInitEv
/var/folders/5c/srt4fy4j1pd641bjfx75k5000000gn/T//cc9rejNC.s:806    .text._ZN5Robot12HardwareInitEv:000000f4 $d
/var/folders/5c/srt4fy4j1pd641bjfx75k5000000gn/T//cc9rejNC.s:1816   .bss.adc_get_val:00000000 adc_get_val
.ARM.exidx.text._ZN5Robot12HardwareInitEv:00000000 $d
/var/folders/5c/srt4fy4j1pd641bjfx75k5000000gn/T//cc9rejNC.s:814    .text._ZN5Robot10GetSensorsEv:00000000 $t
/var/folders/5c/srt4fy4j1pd641bjfx75k5000000gn/T//cc9rejNC.s:820    .text._ZN5Robot10GetSensorsEv:00000000 _ZN5Robot10GetSensorsEv
/var/folders/5c/srt4fy4j1pd641bjfx75k5000000gn/T//cc9rejNC.s:924    .text._ZN5Robot10GetSensorsEv:00000088 $d
.ARM.exidx.text._ZN5Robot10GetSensorsEv:00000000 $d
/var/folders/5c/srt4fy4j1pd641bjfx75k5000000gn/T//cc9rejNC.s:935    .text._ZN5Robot7ImuUartEv:00000000 $t
/var/folders/5c/srt4fy4j1pd641bjfx75k5000000gn/T//cc9rejNC.s:941    .text._ZN5Robot7ImuUartEv:00000000 _ZN5Robot7ImuUartEv
/var/folders/5c/srt4fy4j1pd641bjfx75k5000000gn/T//cc9rejNC.s:1141   .text._ZN5Robot7ImuUartEv:000000d8 $d
/var/folders/5c/srt4fy4j1pd641bjfx75k5000000gn/T//cc9rejNC.s:1809   .bss._ZZN5Robot7ImuUartEvE5index:00000000 _ZZN5Robot7ImuUartEvE5index
/var/folders/5c/srt4fy4j1pd641bjfx75k5000000gn/T//cc9rejNC.s:1804   .bss._ZZN5Robot7ImuUartEvE9recv_data:00000000 _ZZN5Robot7ImuUartEvE9recv_data
/var/folders/5c/srt4fy4j1pd641bjfx75k5000000gn/T//cc9rejNC.s:1798   .bss._ZZN5Robot7ImuUartEvE9recv_byte:00000000 _ZZN5Robot7ImuUartEvE9recv_byte
.ARM.exidx.text._ZN5Robot7ImuUartEv:00000000 $d
/var/folders/5c/srt4fy4j1pd641bjfx75k5000000gn/T//cc9rejNC.s:1153   .text._ZN5Robot8LineUartEv:00000000 $t
/var/folders/5c/srt4fy4j1pd641bjfx75k5000000gn/T//cc9rejNC.s:1159   .text._ZN5Robot8LineUartEv:00000000 _ZN5Robot8LineUartEv
/var/folders/5c/srt4fy4j1pd641bjfx75k5000000gn/T//cc9rejNC.s:1403   .text._ZN5Robot8LineUartEv:000000d8 $d
/var/folders/5c/srt4fy4j1pd641bjfx75k5000000gn/T//cc9rejNC.s:1793   .bss._ZZN5Robot8LineUartEvE5index:00000000 _ZZN5Robot8LineUartEvE5index
/var/folders/5c/srt4fy4j1pd641bjfx75k5000000gn/T//cc9rejNC.s:1788   .bss._ZZN5Robot8LineUartEvE9recv_data:00000000 _ZZN5Robot8LineUartEvE9recv_data
/var/folders/5c/srt4fy4j1pd641bjfx75k5000000gn/T//cc9rejNC.s:1782   .bss._ZZN5Robot8LineUartEvE9recv_byte:00000000 _ZZN5Robot8LineUartEvE9recv_byte
.ARM.exidx.text._ZN5Robot8LineUartEv:00000000 $d
/var/folders/5c/srt4fy4j1pd641bjfx75k5000000gn/T//cc9rejNC.s:1412   .text._ZN5Robot6UiUartEv:00000000 $t
/var/folders/5c/srt4fy4j1pd641bjfx75k5000000gn/T//cc9rejNC.s:1418   .text._ZN5Robot6UiUartEv:00000000 _ZN5Robot6UiUartEv
/var/folders/5c/srt4fy4j1pd641bjfx75k5000000gn/T//cc9rejNC.s:1626   .text._ZN5Robot6UiUartEv:000000d2 $d
/var/folders/5c/srt4fy4j1pd641bjfx75k5000000gn/T//cc9rejNC.s:1630   .text._ZN5Robot6UiUartEv:000000d6 $t
/var/folders/5c/srt4fy4j1pd641bjfx75k5000000gn/T//cc9rejNC.s:1730   .text._ZN5Robot6UiUartEv:00000160 $d
/var/folders/5c/srt4fy4j1pd641bjfx75k5000000gn/T//cc9rejNC.s:1757   .bss._ZZN5Robot6UiUartEvE5index:00000000 _ZZN5Robot6UiUartEvE5index
/var/folders/5c/srt4fy4j1pd641bjfx75k5000000gn/T//cc9rejNC.s:1752   .bss._ZZN5Robot6UiUartEvE9recv_data:00000000 _ZZN5Robot6UiUartEvE9recv_data
/var/folders/5c/srt4fy4j1pd641bjfx75k5000000gn/T//cc9rejNC.s:1746   .bss._ZZN5Robot6UiUartEvE9recv_byte:00000000 _ZZN5Robot6UiUartEvE9recv_byte
/var/folders/5c/srt4fy4j1pd641bjfx75k5000000gn/T//cc9rejNC.s:1777   .bss._ZZN5Robot6UiUartEvE4item:00000000 _ZZN5Robot6UiUartEvE4item
/var/folders/5c/srt4fy4j1pd641bjfx75k5000000gn/T//cc9rejNC.s:1772   .bss._ZZN5Robot6UiUartEvE8sub_item:00000000 _ZZN5Robot6UiUartEvE8sub_item
/var/folders/5c/srt4fy4j1pd641bjfx75k5000000gn/T//cc9rejNC.s:1767   .bss._ZZN5Robot6UiUartEvE12set_yaw_zero:00000000 _ZZN5Robot6UiUartEvE12set_yaw_zero
/var/folders/5c/srt4fy4j1pd641bjfx75k5000000gn/T//cc9rejNC.s:1762   .bss._ZZN5Robot6UiUartEvE12dribbler_sig:00000000 _ZZN5Robot6UiUartEvE12dribbler_sig
.ARM.exidx.text._ZN5Robot6UiUartEv:00000000 $d
/var/folders/5c/srt4fy4j1pd641bjfx75k5000000gn/T//cc9rejNC.s:1747   .bss._ZZN5Robot6UiUartEvE9recv_byte:00000000 $d
/var/folders/5c/srt4fy4j1pd641bjfx75k5000000gn/T//cc9rejNC.s:1749   .bss._ZZN5Robot6UiUartEvE9recv_data:00000000 $d
/var/folders/5c/srt4fy4j1pd641bjfx75k5000000gn/T//cc9rejNC.s:1758   .bss._ZZN5Robot6UiUartEvE5index:00000000 $d
/var/folders/5c/srt4fy4j1pd641bjfx75k5000000gn/T//cc9rejNC.s:1763   .bss._ZZN5Robot6UiUartEvE12dribbler_sig:00000000 $d
/var/folders/5c/srt4fy4j1pd641bjfx75k5000000gn/T//cc9rejNC.s:1768   .bss._ZZN5Robot6UiUartEvE12set_yaw_zero:00000000 $d
/var/folders/5c/srt4fy4j1pd641bjfx75k5000000gn/T//cc9rejNC.s:1773   .bss._ZZN5Robot6UiUartEvE8sub_item:00000000 $d
/var/folders/5c/srt4fy4j1pd641bjfx75k5000000gn/T//cc9rejNC.s:1778   .bss._ZZN5Robot6UiUartEvE4item:00000000 $d
/var/folders/5c/srt4fy4j1pd641bjfx75k5000000gn/T//cc9rejNC.s:1783   .bss._ZZN5Robot8LineUartEvE9recv_byte:00000000 $d
ARM GAS  /var/folders/5c/srt4fy4j1pd641bjfx75k5000000gn/T//cc9rejNC.s 			page 45


/var/folders/5c/srt4fy4j1pd641bjfx75k5000000gn/T//cc9rejNC.s:1785   .bss._ZZN5Robot8LineUartEvE9recv_data:00000000 $d
/var/folders/5c/srt4fy4j1pd641bjfx75k5000000gn/T//cc9rejNC.s:1794   .bss._ZZN5Robot8LineUartEvE5index:00000000 $d
/var/folders/5c/srt4fy4j1pd641bjfx75k5000000gn/T//cc9rejNC.s:1799   .bss._ZZN5Robot7ImuUartEvE9recv_byte:00000000 $d
/var/folders/5c/srt4fy4j1pd641bjfx75k5000000gn/T//cc9rejNC.s:1801   .bss._ZZN5Robot7ImuUartEvE9recv_data:00000000 $d
/var/folders/5c/srt4fy4j1pd641bjfx75k5000000gn/T//cc9rejNC.s:1810   .bss._ZZN5Robot7ImuUartEvE5index:00000000 $d
/var/folders/5c/srt4fy4j1pd641bjfx75k5000000gn/T//cc9rejNC.s:1813   .bss.adc_get_val:00000000 $d

UNDEFINED SYMBOLS
HAL_TIM_PWM_Start
__aeabi_unwind_cpp_pr0
HAL_GPIO_WritePin
_ZN10MotorDriveC1EP12PwmSingleOutS1_S1_S1_S1_S1_S1_S1_PsPh
_ZN13DribblerDriveC1EP12PwmSingleOutS1_
_ZN6KickerC1EP10DigitalOutS1_
_Znaj
_ZN5TimerC1Ev
_ZN9MovingAve9SetLengthEh
htim13
htim12
htim2
htim3
htim4
huart1
huart2
huart3
HAL_ADC_Start
HAL_ADC_Start_DMA
HAL_UART_Receive_DMA
_ZN10MotorDrive15CheckConnectionEv
HAL_Delay
_ZN13DribblerDrive15CheckConnectionEv
hadc1
__aeabi_d2uiz
_ZN9MovingAve7ComputeEf
_ZN9MovingAve3GetEv
__aeabi_i2d
__aeabi_dmul
__aeabi_dsub
__aeabi_d2iz
_ZN5Timer7read_usEv
HAL_UART_Transmit
_ZN5Timer5resetEv
__aeabi_d2f
_ZN13DribblerDrive4HoldEh
_ZN6Kicker4KickEf
