ARM GAS  /var/folders/5c/srt4fy4j1pd641bjfx75k5000000gn/T//cc7uTrbQ.s 			page 1


   1              		.cpu cortex-m4
   2              		.arch armv7e-m
   3              		.fpu fpv4-sp-d16
   4              		.eabi_attribute 27, 1
   5              		.eabi_attribute 28, 1
   6              		.eabi_attribute 20, 1
   7              		.eabi_attribute 21, 1
   8              		.eabi_attribute 23, 3
   9              		.eabi_attribute 24, 1
  10              		.eabi_attribute 25, 1
  11              		.eabi_attribute 26, 1
  12              		.eabi_attribute 30, 1
  13              		.eabi_attribute 34, 1
  14              		.eabi_attribute 18, 4
  15              		.file	"robot.cpp"
  16              		.text
  17              	.Ltext0:
  18              		.cfi_sections	.debug_frame
  19              		.file 1 "src/unit/robot/robot.cpp"
  20              		.section	.text._ZN14BufferedSerial4readEv,"axG",%progbits,_ZN14BufferedSerial4readEv,comdat
  21              		.align	1
  22              		.weak	_ZN14BufferedSerial4readEv
  23              		.syntax unified
  24              		.thumb
  25              		.thumb_func
  27              	_ZN14BufferedSerial4readEv:
  28              		.fnstart
  29              	.LVL0:
  30              	.LFB245:
  31              		.file 2 "Lib/BufferedSerial/BufferedSerial.hpp"
   1:Lib/BufferedSerial/BufferedSerial.hpp **** #ifndef __BUFFERED_SERIAL__
   2:Lib/BufferedSerial/BufferedSerial.hpp **** #define __BUFFERED_SERIAL__
   3:Lib/BufferedSerial/BufferedSerial.hpp **** 
   4:Lib/BufferedSerial/BufferedSerial.hpp **** #include <stdio.h>
   5:Lib/BufferedSerial/BufferedSerial.hpp **** 
   6:Lib/BufferedSerial/BufferedSerial.hpp **** #include "usart.h"
   7:Lib/BufferedSerial/BufferedSerial.hpp **** 
   8:Lib/BufferedSerial/BufferedSerial.hpp **** #ifdef __cplusplus
   9:Lib/BufferedSerial/BufferedSerial.hpp **** 
  10:Lib/BufferedSerial/BufferedSerial.hpp **** /*
  11:Lib/BufferedSerial/BufferedSerial.hpp ****  Init„ÅÆÈ†ÜÁï™„ÇíDMA„ÅåÂÖà„Å´„Å™„Çã„Çà„ÅÜ„Å´„Åô„Çã
  12:Lib/BufferedSerial/BufferedSerial.hpp ****  - MX_DMA_Init();
  13:Lib/BufferedSerial/BufferedSerial.hpp ****  - MX_USART2_UART_Init();
  14:Lib/BufferedSerial/BufferedSerial.hpp ****  - DMA„ÅØCircular„É¢„Éº„Éâ„Å´„Åô„Çã
  15:Lib/BufferedSerial/BufferedSerial.hpp **** */
  16:Lib/BufferedSerial/BufferedSerial.hpp **** 
  17:Lib/BufferedSerial/BufferedSerial.hpp **** class BufferedSerial {
  18:Lib/BufferedSerial/BufferedSerial.hpp ****      public:
  19:Lib/BufferedSerial/BufferedSerial.hpp ****       BufferedSerial(UART_HandleTypeDef *huart, uint16_t rxBufSize)
  20:Lib/BufferedSerial/BufferedSerial.hpp ****           : _huart(huart),
  21:Lib/BufferedSerial/BufferedSerial.hpp ****             _rxBuf(new uint8_t[rxBufSize]),
  22:Lib/BufferedSerial/BufferedSerial.hpp ****             rxTop(0),
  23:Lib/BufferedSerial/BufferedSerial.hpp ****             rxBtm(0),
  24:Lib/BufferedSerial/BufferedSerial.hpp ****             _rxBufSize(rxBufSize),
  25:Lib/BufferedSerial/BufferedSerial.hpp ****             _useDMA(false) {
  26:Lib/BufferedSerial/BufferedSerial.hpp ****       }
  27:Lib/BufferedSerial/BufferedSerial.hpp ****       void init(bool dma = false) {
ARM GAS  /var/folders/5c/srt4fy4j1pd641bjfx75k5000000gn/T//cc7uTrbQ.s 			page 2


  28:Lib/BufferedSerial/BufferedSerial.hpp ****             _useDMA = dma;
  29:Lib/BufferedSerial/BufferedSerial.hpp ****             HAL_UART_Receive_DMA(_huart, _rxBuf, _rxBufSize);
  30:Lib/BufferedSerial/BufferedSerial.hpp ****             // printf("- Serial init\n");
  31:Lib/BufferedSerial/BufferedSerial.hpp ****       }
  32:Lib/BufferedSerial/BufferedSerial.hpp **** 
  33:Lib/BufferedSerial/BufferedSerial.hpp ****       bool available() {
  34:Lib/BufferedSerial/BufferedSerial.hpp ****             uint16_t rxTop = _rxBufSize - _huart->hdmarx->Instance->NDTR;
  35:Lib/BufferedSerial/BufferedSerial.hpp ****             return rxTop != rxBtm;
  36:Lib/BufferedSerial/BufferedSerial.hpp ****       }
  37:Lib/BufferedSerial/BufferedSerial.hpp **** 
  38:Lib/BufferedSerial/BufferedSerial.hpp ****       uint8_t read() {
  32              		.loc 2 38 15 view -0
  33              		.cfi_startproc
  34              		@ args = 0, pretend = 0, frame = 0
  35              		@ frame_needed = 0, uses_anonymous_args = 0
  36              		@ link register save eliminated.
  37              		.loc 2 38 15 is_stmt 0 view .LVU1
  38 0000 0246     		mov	r2, r0
  39:Lib/BufferedSerial/BufferedSerial.hpp ****             uint16_t rxTop = _rxBufSize - _huart->hdmarx->Instance->NDTR;
  39              		.loc 2 39 13 is_stmt 1 view .LVU2
  40              		.loc 2 39 30 is_stmt 0 view .LVU3
  41 0002 B0F80CC0 		ldrh	ip, [r0, #12]
  42              		.loc 2 39 43 view .LVU4
  43 0006 0368     		ldr	r3, [r0]
  44              		.loc 2 39 51 view .LVU5
  45 0008 DB6B     		ldr	r3, [r3, #60]
  46              		.loc 2 39 59 view .LVU6
  47 000a 1B68     		ldr	r3, [r3]
  48              		.loc 2 39 69 view .LVU7
  49 000c 5B68     		ldr	r3, [r3, #4]
  50              		.loc 2 39 41 view .LVU8
  51 000e 9BB2     		uxth	r3, r3
  52              		.loc 2 39 69 view .LVU9
  53 0010 ACEB0303 		sub	r3, ip, r3
  54 0014 9BB2     		uxth	r3, r3
  55              	.LVL1:
  40:Lib/BufferedSerial/BufferedSerial.hpp ****             if (rxTop == rxBtm) {
  56              		.loc 2 40 13 is_stmt 1 view .LVU10
  57              		.loc 2 40 26 is_stmt 0 view .LVU11
  58 0016 4189     		ldrh	r1, [r0, #10]
  59              		.loc 2 40 13 view .LVU12
  60 0018 9942     		cmp	r1, r3
  61 001a 08D0     		beq	.L3
  41:Lib/BufferedSerial/BufferedSerial.hpp ****                   return 0;
  42:Lib/BufferedSerial/BufferedSerial.hpp ****             }
  43:Lib/BufferedSerial/BufferedSerial.hpp ****             uint8_t data = _rxBuf[rxBtm];
  62              		.loc 2 43 13 is_stmt 1 view .LVU13
  63              		.loc 2 43 28 is_stmt 0 view .LVU14
  64 001c 4368     		ldr	r3, [r0, #4]
  65              	.LVL2:
  66              		.loc 2 43 21 view .LVU15
  67 001e 585C     		ldrb	r0, [r3, r1]	@ zero_extendqisi2
  68              	.LVL3:
  44:Lib/BufferedSerial/BufferedSerial.hpp ****             rxBtm = (rxBtm + 1) % _rxBufSize;
  69              		.loc 2 44 13 is_stmt 1 view .LVU16
  70              		.loc 2 44 28 is_stmt 0 view .LVU17
  71 0020 0131     		adds	r1, r1, #1
ARM GAS  /var/folders/5c/srt4fy4j1pd641bjfx75k5000000gn/T//cc7uTrbQ.s 			page 3


  72              		.loc 2 44 33 view .LVU18
  73 0022 91FBFCF3 		sdiv	r3, r1, ip
  74 0026 0CFB1311 		mls	r1, ip, r3, r1
  75              		.loc 2 44 19 view .LVU19
  76 002a 5181     		strh	r1, [r2, #10]	@ movhi
  45:Lib/BufferedSerial/BufferedSerial.hpp ****             // printf("top:%d btm:%d NDTR:%d data:%d\n", rxTop, rxBtm, _huart->hdmarx->Instance->ND
  46:Lib/BufferedSerial/BufferedSerial.hpp ****             return data;
  77              		.loc 2 46 13 is_stmt 1 view .LVU20
  78              		.loc 2 46 20 is_stmt 0 view .LVU21
  79 002c 7047     		bx	lr
  80              	.LVL4:
  81              	.L3:
  41:Lib/BufferedSerial/BufferedSerial.hpp ****             }
  82              		.loc 2 41 26 view .LVU22
  83 002e 0020     		movs	r0, #0
  84              	.LVL5:
  47:Lib/BufferedSerial/BufferedSerial.hpp ****       }
  85              		.loc 2 47 7 view .LVU23
  86 0030 7047     		bx	lr
  87              		.cfi_endproc
  88              	.LFE245:
  89              		.cantunwind
  90              		.fnend
  92              		.section	.text._ZN12PwmSingleOut4initEv,"axG",%progbits,_ZN12PwmSingleOut4initEv,comdat
  93              		.align	1
  94              		.weak	_ZN12PwmSingleOut4initEv
  95              		.syntax unified
  96              		.thumb
  97              		.thumb_func
  99              	_ZN12PwmSingleOut4initEv:
 100              		.fnstart
 101              	.LVL6:
 102              	.LFB265:
 103              		.file 3 "Lib/PWMSingle/PWMSingle.hpp"
   1:Lib/PWMSingle/PWMSingle.hpp **** #ifndef __PWMSINGLE__
   2:Lib/PWMSingle/PWMSingle.hpp **** #define __PWMSINGLE__
   3:Lib/PWMSingle/PWMSingle.hpp **** 
   4:Lib/PWMSingle/PWMSingle.hpp **** #include "MyMath.hpp"
   5:Lib/PWMSingle/PWMSingle.hpp **** #include "tim.h"
   6:Lib/PWMSingle/PWMSingle.hpp **** 
   7:Lib/PWMSingle/PWMSingle.hpp **** #ifdef __cplusplus
   8:Lib/PWMSingle/PWMSingle.hpp **** extern "C" {
   9:Lib/PWMSingle/PWMSingle.hpp **** 
  10:Lib/PWMSingle/PWMSingle.hpp **** class PwmSingleOut {
  11:Lib/PWMSingle/PWMSingle.hpp ****      public:
  12:Lib/PWMSingle/PWMSingle.hpp ****       PwmSingleOut(TIM_HandleTypeDef *htim, uint32_t channel)
  13:Lib/PWMSingle/PWMSingle.hpp ****           : _htim(htim), _channel(channel), _maxValue(_htim->Init.Period) {
  14:Lib/PWMSingle/PWMSingle.hpp ****       }
  15:Lib/PWMSingle/PWMSingle.hpp **** 
  16:Lib/PWMSingle/PWMSingle.hpp ****       void init() {
 104              		.loc 3 16 12 is_stmt 1 view -0
 105              		.cfi_startproc
 106              		@ args = 0, pretend = 0, frame = 0
 107              		@ frame_needed = 0, uses_anonymous_args = 0
 108              		.loc 3 16 12 is_stmt 0 view .LVU25
 109 0000 10B5     		push	{r4, lr}
 110              		.save {r4, lr}
ARM GAS  /var/folders/5c/srt4fy4j1pd641bjfx75k5000000gn/T//cc7uTrbQ.s 			page 4


 111              	.LCFI0:
 112              		.cfi_def_cfa_offset 8
 113              		.cfi_offset 4, -8
 114              		.cfi_offset 14, -4
 115 0002 0446     		mov	r4, r0
  17:Lib/PWMSingle/PWMSingle.hpp ****             HAL_TIM_PWM_Start(_htim, _channel);
 116              		.loc 3 17 13 is_stmt 1 view .LVU26
 117              		.loc 3 17 30 is_stmt 0 view .LVU27
 118 0004 4168     		ldr	r1, [r0, #4]
 119 0006 0068     		ldr	r0, [r0]
 120              	.LVL7:
 121              		.loc 3 17 30 view .LVU28
 122 0008 FFF7FEFF 		bl	HAL_TIM_PWM_Start
 123              	.LVL8:
  18:Lib/PWMSingle/PWMSingle.hpp ****             _maxValue = _htim->Init.Period;
 124              		.loc 3 18 13 is_stmt 1 view .LVU29
 125              		.loc 3 18 25 is_stmt 0 view .LVU30
 126 000c 2368     		ldr	r3, [r4]
 127              		.loc 3 18 37 view .LVU31
 128 000e DB68     		ldr	r3, [r3, #12]
 129              		.loc 3 18 23 view .LVU32
 130 0010 A360     		str	r3, [r4, #8]
  19:Lib/PWMSingle/PWMSingle.hpp ****       }
 131              		.loc 3 19 7 view .LVU33
 132 0012 10BD     		pop	{r4, pc}
 133              		.loc 3 19 7 view .LVU34
 134              		.cfi_endproc
 135              	.LFE265:
 136              		.fnend
 138              		.section	.text._ZN5RobotC2Ev,"ax",%progbits
 139              		.align	1
 140              		.global	_ZN5RobotC2Ev
 141              		.syntax unified
 142              		.thumb
 143              		.thumb_func
 145              	_ZN5RobotC2Ev:
 146              		.fnstart
 147              	.LVL9:
 148              	.LFB271:
   1:src/unit/robot/robot.cpp **** #include "robot.hpp"
   2:src/unit/robot/robot.cpp **** 
   3:src/unit/robot/robot.cpp **** uint16_t adc_get_val[2];
   4:src/unit/robot/robot.cpp **** 
   5:src/unit/robot/robot.cpp **** int debug;
   6:src/unit/robot/robot.cpp **** 
   7:src/unit/robot/robot.cpp **** Robot::Robot() {
 149              		.loc 1 7 1 is_stmt 1 view -0
 150              		.cfi_startproc
 151              		@ args = 0, pretend = 0, frame = 0
 152              		@ frame_needed = 0, uses_anonymous_args = 0
 153              		.loc 1 7 1 is_stmt 0 view .LVU36
 154 0000 F0B5     		push	{r4, r5, r6, r7, lr}
 155              		.save {r4, r5, r6, r7, lr}
 156              	.LCFI1:
 157              		.cfi_def_cfa_offset 20
 158              		.cfi_offset 4, -20
 159              		.cfi_offset 5, -16
ARM GAS  /var/folders/5c/srt4fy4j1pd641bjfx75k5000000gn/T//cc7uTrbQ.s 			page 5


 160              		.cfi_offset 6, -12
 161              		.cfi_offset 7, -8
 162              		.cfi_offset 14, -4
 163              		.pad #28
 164 0002 87B0     		sub	sp, sp, #28
 165              	.LCFI2:
 166              		.cfi_def_cfa_offset 48
 167 0004 0446     		mov	r4, r0
 168              	.LVL10:
 169              	.LBB52:
 170              	.LBB53:
 171              	.LBI53:
 172              		.file 4 "Lib/DigitalInOut/DigitalInOut.hpp"
   1:Lib/DigitalInOut/DigitalInOut.hpp **** #ifndef __DigitalInOut__
   2:Lib/DigitalInOut/DigitalInOut.hpp **** #define __DigitalInOut__
   3:Lib/DigitalInOut/DigitalInOut.hpp **** 
   4:Lib/DigitalInOut/DigitalInOut.hpp **** #include "main.h"
   5:Lib/DigitalInOut/DigitalInOut.hpp **** 
   6:Lib/DigitalInOut/DigitalInOut.hpp **** #ifdef __cplusplus
   7:Lib/DigitalInOut/DigitalInOut.hpp **** 
   8:Lib/DigitalInOut/DigitalInOut.hpp **** extern "C" {
   9:Lib/DigitalInOut/DigitalInOut.hpp **** 
  10:Lib/DigitalInOut/DigitalInOut.hpp **** class DigitalOut {
  11:Lib/DigitalInOut/DigitalInOut.hpp ****   public:
  12:Lib/DigitalInOut/DigitalInOut.hpp ****     DigitalOut(GPIO_TypeDef *port, uint16_t pin) : port(port), pin(pin) {
 173              		.loc 4 12 5 is_stmt 1 view .LVU37
 174              	.LBB54:
 175              		.loc 4 12 52 is_stmt 0 view .LVU38
 176 0006 4848     		ldr	r0, .L8
 177              	.LVL11:
 178              		.loc 4 12 52 view .LVU39
 179 0008 A060     		str	r0, [r4, #8]
 180              		.loc 4 12 64 view .LVU40
 181 000a 2021     		movs	r1, #32
 182 000c A181     		strh	r1, [r4, #12]	@ movhi
  13:Lib/DigitalInOut/DigitalInOut.hpp ****         HAL_GPIO_WritePin(port, pin, GPIO_PIN_RESET);
 183              		.loc 4 13 9 is_stmt 1 view .LVU41
 184              		.loc 4 13 26 is_stmt 0 view .LVU42
 185 000e 0022     		movs	r2, #0
 186 0010 FFF7FEFF 		bl	HAL_GPIO_WritePin
 187              	.LVL12:
 188              		.loc 4 13 26 view .LVU43
 189              	.LBE54:
 190              	.LBE53:
 191              	.LBB55:
 192              	.LBI55:
  12:Lib/PWMSingle/PWMSingle.hpp ****           : _htim(htim), _channel(channel), _maxValue(_htim->Init.Period) {
 193              		.loc 3 12 7 is_stmt 1 view .LVU44
 194              	.LBB56:
  13:Lib/PWMSingle/PWMSingle.hpp ****       }
 195              		.loc 3 13 13 is_stmt 0 view .LVU45
 196 0014 454B     		ldr	r3, .L8+4
 197 0016 2361     		str	r3, [r4, #16]
  13:Lib/PWMSingle/PWMSingle.hpp ****       }
 198              		.loc 3 13 26 view .LVU46
 199 0018 0025     		movs	r5, #0
 200 001a 6561     		str	r5, [r4, #20]
ARM GAS  /var/folders/5c/srt4fy4j1pd641bjfx75k5000000gn/T//cc7uTrbQ.s 			page 6


  13:Lib/PWMSingle/PWMSingle.hpp ****       }
 201              		.loc 3 13 67 view .LVU47
 202 001c DB68     		ldr	r3, [r3, #12]
  13:Lib/PWMSingle/PWMSingle.hpp ****       }
 203              		.loc 3 13 45 view .LVU48
 204 001e A361     		str	r3, [r4, #24]
 205              	.LVL13:
  13:Lib/PWMSingle/PWMSingle.hpp ****       }
 206              		.loc 3 13 45 view .LVU49
 207              	.LBE56:
 208              	.LBE55:
 209              	.LBB57:
 210              	.LBI57:
  12:Lib/PWMSingle/PWMSingle.hpp ****           : _htim(htim), _channel(channel), _maxValue(_htim->Init.Period) {
 211              		.loc 3 12 7 is_stmt 1 view .LVU50
 212              	.LBB58:
  13:Lib/PWMSingle/PWMSingle.hpp ****       }
 213              		.loc 3 13 13 is_stmt 0 view .LVU51
 214 0020 434B     		ldr	r3, .L8+8
 215 0022 2362     		str	r3, [r4, #32]
  13:Lib/PWMSingle/PWMSingle.hpp ****       }
 216              		.loc 3 13 26 view .LVU52
 217 0024 0420     		movs	r0, #4
 218 0026 6062     		str	r0, [r4, #36]
  13:Lib/PWMSingle/PWMSingle.hpp ****       }
 219              		.loc 3 13 67 view .LVU53
 220 0028 DA68     		ldr	r2, [r3, #12]
  13:Lib/PWMSingle/PWMSingle.hpp ****       }
 221              		.loc 3 13 45 view .LVU54
 222 002a A262     		str	r2, [r4, #40]
 223              	.LVL14:
  13:Lib/PWMSingle/PWMSingle.hpp ****       }
 224              		.loc 3 13 45 view .LVU55
 225              	.LBE58:
 226              	.LBE57:
 227              	.LBB59:
 228              	.LBI59:
  12:Lib/PWMSingle/PWMSingle.hpp ****           : _htim(htim), _channel(channel), _maxValue(_htim->Init.Period) {
 229              		.loc 3 12 7 is_stmt 1 view .LVU56
 230              	.LBB60:
  13:Lib/PWMSingle/PWMSingle.hpp ****       }
 231              		.loc 3 13 13 is_stmt 0 view .LVU57
 232 002c 2363     		str	r3, [r4, #48]
  13:Lib/PWMSingle/PWMSingle.hpp ****       }
 233              		.loc 3 13 26 view .LVU58
 234 002e 6563     		str	r5, [r4, #52]
  13:Lib/PWMSingle/PWMSingle.hpp ****       }
 235              		.loc 3 13 45 view .LVU59
 236 0030 A263     		str	r2, [r4, #56]
 237              	.LVL15:
  13:Lib/PWMSingle/PWMSingle.hpp ****       }
 238              		.loc 3 13 45 view .LVU60
 239              	.LBE60:
 240              	.LBE59:
 241              	.LBB61:
 242              	.LBI61:
  12:Lib/PWMSingle/PWMSingle.hpp ****           : _htim(htim), _channel(channel), _maxValue(_htim->Init.Period) {
ARM GAS  /var/folders/5c/srt4fy4j1pd641bjfx75k5000000gn/T//cc7uTrbQ.s 			page 7


 243              		.loc 3 12 7 is_stmt 1 view .LVU61
 244              	.LBB62:
  13:Lib/PWMSingle/PWMSingle.hpp ****       }
 245              		.loc 3 13 13 is_stmt 0 view .LVU62
 246 0032 404B     		ldr	r3, .L8+12
 247 0034 2364     		str	r3, [r4, #64]
  13:Lib/PWMSingle/PWMSingle.hpp ****       }
 248              		.loc 3 13 26 view .LVU63
 249 0036 4FF0080C 		mov	ip, #8
 250 003a C4F844C0 		str	ip, [r4, #68]
  13:Lib/PWMSingle/PWMSingle.hpp ****       }
 251              		.loc 3 13 67 view .LVU64
 252 003e D968     		ldr	r1, [r3, #12]
  13:Lib/PWMSingle/PWMSingle.hpp ****       }
 253              		.loc 3 13 45 view .LVU65
 254 0040 A164     		str	r1, [r4, #72]
 255              	.LVL16:
  13:Lib/PWMSingle/PWMSingle.hpp ****       }
 256              		.loc 3 13 45 view .LVU66
 257              	.LBE62:
 258              	.LBE61:
 259              	.LBB63:
 260              	.LBI63:
  12:Lib/PWMSingle/PWMSingle.hpp ****           : _htim(htim), _channel(channel), _maxValue(_htim->Init.Period) {
 261              		.loc 3 12 7 is_stmt 1 view .LVU67
 262              	.LBB64:
  13:Lib/PWMSingle/PWMSingle.hpp ****       }
 263              		.loc 3 13 13 is_stmt 0 view .LVU68
 264 0042 2365     		str	r3, [r4, #80]
  13:Lib/PWMSingle/PWMSingle.hpp ****       }
 265              		.loc 3 13 26 view .LVU69
 266 0044 0C27     		movs	r7, #12
 267 0046 6765     		str	r7, [r4, #84]
  13:Lib/PWMSingle/PWMSingle.hpp ****       }
 268              		.loc 3 13 45 view .LVU70
 269 0048 A165     		str	r1, [r4, #88]
 270              	.LVL17:
  13:Lib/PWMSingle/PWMSingle.hpp ****       }
 271              		.loc 3 13 45 view .LVU71
 272              	.LBE64:
 273              	.LBE63:
 274              	.LBB65:
 275              	.LBI65:
  12:Lib/PWMSingle/PWMSingle.hpp ****           : _htim(htim), _channel(channel), _maxValue(_htim->Init.Period) {
 276              		.loc 3 12 7 is_stmt 1 view .LVU72
 277              	.LBB66:
  13:Lib/PWMSingle/PWMSingle.hpp ****       }
 278              		.loc 3 13 13 is_stmt 0 view .LVU73
 279 004a 3B4A     		ldr	r2, .L8+16
 280 004c 2266     		str	r2, [r4, #96]
  13:Lib/PWMSingle/PWMSingle.hpp ****       }
 281              		.loc 3 13 26 view .LVU74
 282 004e 6066     		str	r0, [r4, #100]
  13:Lib/PWMSingle/PWMSingle.hpp ****       }
 283              		.loc 3 13 67 view .LVU75
 284 0050 D668     		ldr	r6, [r2, #12]
  13:Lib/PWMSingle/PWMSingle.hpp ****       }
ARM GAS  /var/folders/5c/srt4fy4j1pd641bjfx75k5000000gn/T//cc7uTrbQ.s 			page 8


 285              		.loc 3 13 45 view .LVU76
 286 0052 A666     		str	r6, [r4, #104]
 287              	.LVL18:
  13:Lib/PWMSingle/PWMSingle.hpp ****       }
 288              		.loc 3 13 45 view .LVU77
 289              	.LBE66:
 290              	.LBE65:
 291              	.LBB67:
 292              	.LBI67:
  12:Lib/PWMSingle/PWMSingle.hpp ****           : _htim(htim), _channel(channel), _maxValue(_htim->Init.Period) {
 293              		.loc 3 12 7 is_stmt 1 view .LVU78
 294              	.LBB68:
  13:Lib/PWMSingle/PWMSingle.hpp ****       }
 295              		.loc 3 13 13 is_stmt 0 view .LVU79
 296 0054 2367     		str	r3, [r4, #112]
  13:Lib/PWMSingle/PWMSingle.hpp ****       }
 297              		.loc 3 13 26 view .LVU80
 298 0056 6067     		str	r0, [r4, #116]
  13:Lib/PWMSingle/PWMSingle.hpp ****       }
 299              		.loc 3 13 45 view .LVU81
 300 0058 A167     		str	r1, [r4, #120]
 301              	.LVL19:
  13:Lib/PWMSingle/PWMSingle.hpp ****       }
 302              		.loc 3 13 45 view .LVU82
 303              	.LBE68:
 304              	.LBE67:
 305              	.LBB69:
 306              	.LBI69:
  12:Lib/PWMSingle/PWMSingle.hpp ****           : _htim(htim), _channel(channel), _maxValue(_htim->Init.Period) {
 307              		.loc 3 12 7 is_stmt 1 view .LVU83
 308              	.LBB70:
  13:Lib/PWMSingle/PWMSingle.hpp ****       }
 309              		.loc 3 13 13 is_stmt 0 view .LVU84
 310 005a C4F88020 		str	r2, [r4, #128]
  13:Lib/PWMSingle/PWMSingle.hpp ****       }
 311              		.loc 3 13 26 view .LVU85
 312 005e C4F88450 		str	r5, [r4, #132]
  13:Lib/PWMSingle/PWMSingle.hpp ****       }
 313              		.loc 3 13 45 view .LVU86
 314 0062 C4F88860 		str	r6, [r4, #136]
 315              	.LVL20:
  13:Lib/PWMSingle/PWMSingle.hpp ****       }
 316              		.loc 3 13 45 view .LVU87
 317              	.LBE70:
 318              	.LBE69:
 319              	.LBB71:
 320              	.LBI71:
  12:Lib/PWMSingle/PWMSingle.hpp ****           : _htim(htim), _channel(channel), _maxValue(_htim->Init.Period) {
 321              		.loc 3 12 7 is_stmt 1 view .LVU88
 322              	.LBB72:
  13:Lib/PWMSingle/PWMSingle.hpp ****       }
 323              		.loc 3 13 13 is_stmt 0 view .LVU89
 324 0066 C4F89020 		str	r2, [r4, #144]
  13:Lib/PWMSingle/PWMSingle.hpp ****       }
 325              		.loc 3 13 26 view .LVU90
 326 006a C4F894C0 		str	ip, [r4, #148]
  13:Lib/PWMSingle/PWMSingle.hpp ****       }
ARM GAS  /var/folders/5c/srt4fy4j1pd641bjfx75k5000000gn/T//cc7uTrbQ.s 			page 9


 327              		.loc 3 13 45 view .LVU91
 328 006e C4F89860 		str	r6, [r4, #152]
 329              	.LVL21:
  13:Lib/PWMSingle/PWMSingle.hpp ****       }
 330              		.loc 3 13 45 view .LVU92
 331              	.LBE72:
 332              	.LBE71:
 333              	.LBB73:
 334              	.LBI73:
  12:Lib/PWMSingle/PWMSingle.hpp ****           : _htim(htim), _channel(channel), _maxValue(_htim->Init.Period) {
 335              		.loc 3 12 7 is_stmt 1 view .LVU93
 336              	.LBB74:
  13:Lib/PWMSingle/PWMSingle.hpp ****       }
 337              		.loc 3 13 13 is_stmt 0 view .LVU94
 338 0072 324A     		ldr	r2, .L8+20
 339 0074 C4F8A020 		str	r2, [r4, #160]
  13:Lib/PWMSingle/PWMSingle.hpp ****       }
 340              		.loc 3 13 26 view .LVU95
 341 0078 C4F8A450 		str	r5, [r4, #164]
  13:Lib/PWMSingle/PWMSingle.hpp ****       }
 342              		.loc 3 13 67 view .LVU96
 343 007c D668     		ldr	r6, [r2, #12]
  13:Lib/PWMSingle/PWMSingle.hpp ****       }
 344              		.loc 3 13 45 view .LVU97
 345 007e C4F8A860 		str	r6, [r4, #168]
 346              	.LVL22:
  13:Lib/PWMSingle/PWMSingle.hpp ****       }
 347              		.loc 3 13 45 view .LVU98
 348              	.LBE74:
 349              	.LBE73:
 350              	.LBB75:
 351              	.LBI75:
  12:Lib/PWMSingle/PWMSingle.hpp ****           : _htim(htim), _channel(channel), _maxValue(_htim->Init.Period) {
 352              		.loc 3 12 7 is_stmt 1 view .LVU99
 353              	.LBB76:
  13:Lib/PWMSingle/PWMSingle.hpp ****       }
 354              		.loc 3 13 13 is_stmt 0 view .LVU100
 355 0082 C4F8B020 		str	r2, [r4, #176]
  13:Lib/PWMSingle/PWMSingle.hpp ****       }
 356              		.loc 3 13 26 view .LVU101
 357 0086 C4F8B400 		str	r0, [r4, #180]
  13:Lib/PWMSingle/PWMSingle.hpp ****       }
 358              		.loc 3 13 45 view .LVU102
 359 008a C4F8B860 		str	r6, [r4, #184]
 360              	.LVL23:
  13:Lib/PWMSingle/PWMSingle.hpp ****       }
 361              		.loc 3 13 45 view .LVU103
 362              	.LBE76:
 363              	.LBE75:
 364              	.LBB77:
 365              	.LBI77:
  12:Lib/PWMSingle/PWMSingle.hpp ****           : _htim(htim), _channel(channel), _maxValue(_htim->Init.Period) {
 366              		.loc 3 12 7 is_stmt 1 view .LVU104
 367              	.LBB78:
  13:Lib/PWMSingle/PWMSingle.hpp ****       }
 368              		.loc 3 13 13 is_stmt 0 view .LVU105
 369 008e C4F8C030 		str	r3, [r4, #192]
ARM GAS  /var/folders/5c/srt4fy4j1pd641bjfx75k5000000gn/T//cc7uTrbQ.s 			page 10


  13:Lib/PWMSingle/PWMSingle.hpp ****       }
 370              		.loc 3 13 26 view .LVU106
 371 0092 C4F8C450 		str	r5, [r4, #196]
  13:Lib/PWMSingle/PWMSingle.hpp ****       }
 372              		.loc 3 13 45 view .LVU107
 373 0096 C4F8C810 		str	r1, [r4, #200]
 374              	.LVL24:
  13:Lib/PWMSingle/PWMSingle.hpp ****       }
 375              		.loc 3 13 45 view .LVU108
 376              	.LBE78:
 377              	.LBE77:
 378              	.LBB79:
 379              	.LBI79:
  12:Lib/PWMSingle/PWMSingle.hpp ****           : _htim(htim), _channel(channel), _maxValue(_htim->Init.Period) {
 380              		.loc 3 12 7 is_stmt 1 view .LVU109
 381              	.LBB80:
  13:Lib/PWMSingle/PWMSingle.hpp ****       }
 382              		.loc 3 13 13 is_stmt 0 view .LVU110
 383 009a C4F8D020 		str	r2, [r4, #208]
  13:Lib/PWMSingle/PWMSingle.hpp ****       }
 384              		.loc 3 13 26 view .LVU111
 385 009e C4F8D470 		str	r7, [r4, #212]
  13:Lib/PWMSingle/PWMSingle.hpp ****       }
 386              		.loc 3 13 45 view .LVU112
 387 00a2 C4F8D860 		str	r6, [r4, #216]
 388              	.LVL25:
  13:Lib/PWMSingle/PWMSingle.hpp ****       }
 389              		.loc 3 13 45 view .LVU113
 390              	.LBE80:
 391              	.LBE79:
 392              		.loc 1 7 14 view .LVU114
 393 00a6 0594     		str	r4, [sp, #20]
 394 00a8 04F19003 		add	r3, r4, #144
 395 00ac 0493     		str	r3, [sp, #16]
 396 00ae 04F18003 		add	r3, r4, #128
 397 00b2 0393     		str	r3, [sp, #12]
 398 00b4 04F17003 		add	r3, r4, #112
 399 00b8 0293     		str	r3, [sp, #8]
 400 00ba 04F16003 		add	r3, r4, #96
 401 00be 0193     		str	r3, [sp, #4]
 402 00c0 04F15003 		add	r3, r4, #80
 403 00c4 0093     		str	r3, [sp]
 404 00c6 04F14003 		add	r3, r4, #64
 405 00ca 04F13002 		add	r2, r4, #48
 406 00ce 04F12001 		add	r1, r4, #32
 407 00d2 04F1E000 		add	r0, r4, #224
 408 00d6 FFF7FEFF 		bl	_ZN10MotorDriveC1EP12PwmSingleOutS1_S1_S1_S1_S1_S1_S1_Ps
 409              	.LVL26:
 410 00da 04F1B002 		add	r2, r4, #176
 411 00de 04F1A001 		add	r1, r4, #160
 412 00e2 04F6D850 		addw	r0, r4, #3544
 413 00e6 FFF7FEFF 		bl	_ZN13DribblerDriveC1EP12PwmSingleOutS1_
 414              	.LVL27:
 415 00ea 04F1D002 		add	r2, r4, #208
 416 00ee 04F1C001 		add	r1, r4, #192
 417 00f2 04F58850 		add	r0, r4, #4352
 418 00f6 0830     		adds	r0, r0, #8
ARM GAS  /var/folders/5c/srt4fy4j1pd641bjfx75k5000000gn/T//cc7uTrbQ.s 			page 11


 419 00f8 FFF7FEFF 		bl	_ZN13DribblerDriveC1EP12PwmSingleOutS1_
 420              	.LVL28:
 421              	.LBB81:
 422              	.LBI81:
  19:Lib/BufferedSerial/BufferedSerial.hpp ****           : _huart(huart),
 423              		.loc 2 19 7 is_stmt 1 view .LVU115
 424              	.LBB82:
  20:Lib/BufferedSerial/BufferedSerial.hpp ****             _rxBuf(new uint8_t[rxBufSize]),
 425              		.loc 2 20 13 is_stmt 0 view .LVU116
 426 00fc 04F58056 		add	r6, r4, #4096
 427 0100 0F4B     		ldr	r3, .L8+24
 428 0102 C6F83834 		str	r3, [r6, #1080]
  21:Lib/BufferedSerial/BufferedSerial.hpp ****             rxTop(0),
 429              		.loc 2 21 41 view .LVU117
 430 0106 8020     		movs	r0, #128
 431 0108 FFF7FEFF 		bl	_Znaj
 432              	.LVL29:
  21:Lib/BufferedSerial/BufferedSerial.hpp ****             rxTop(0),
 433              		.loc 2 21 13 view .LVU118
 434 010c C6F83C04 		str	r0, [r6, #1084]
  22:Lib/BufferedSerial/BufferedSerial.hpp ****             rxBtm(0),
 435              		.loc 2 22 13 view .LVU119
 436 0110 A6F84054 		strh	r5, [r6, #1088]	@ movhi
  23:Lib/BufferedSerial/BufferedSerial.hpp ****             _rxBufSize(rxBufSize),
 437              		.loc 2 23 13 view .LVU120
 438 0114 A6F84254 		strh	r5, [r6, #1090]	@ movhi
  24:Lib/BufferedSerial/BufferedSerial.hpp ****             _useDMA(false) {
 439              		.loc 2 24 13 view .LVU121
 440 0118 8023     		movs	r3, #128
 441 011a A6F84434 		strh	r3, [r6, #1092]	@ movhi
  25:Lib/BufferedSerial/BufferedSerial.hpp ****       }
 442              		.loc 2 25 13 view .LVU122
 443 011e 86F84654 		strb	r5, [r6, #1094]
 444              	.LVL30:
  25:Lib/BufferedSerial/BufferedSerial.hpp ****       }
 445              		.loc 2 25 13 view .LVU123
 446              	.LBE82:
 447              	.LBE81:
 448              	.LBE52:
   8:src/unit/robot/robot.cpp **** }
 449              		.loc 1 8 1 view .LVU124
 450 0122 2046     		mov	r0, r4
 451 0124 07B0     		add	sp, sp, #28
 452              	.LCFI3:
 453              		.cfi_def_cfa_offset 20
 454              		@ sp needed
 455 0126 F0BD     		pop	{r4, r5, r6, r7, pc}
 456              	.LVL31:
 457              	.L9:
 458              		.loc 1 8 1 view .LVU125
 459              		.align	2
 460              	.L8:
 461 0128 00000240 		.word	1073872896
 462 012c 00000000 		.word	htim13
 463 0130 00000000 		.word	htim12
 464 0134 00000000 		.word	htim2
 465 0138 00000000 		.word	htim3
ARM GAS  /var/folders/5c/srt4fy4j1pd641bjfx75k5000000gn/T//cc7uTrbQ.s 			page 12


 466 013c 00000000 		.word	htim4
 467 0140 00000000 		.word	huart1
 468              		.cfi_endproc
 469              	.LFE271:
 470              		.fnend
 472              		.global	_ZN5RobotC1Ev
 473              		.thumb_set _ZN5RobotC1Ev,_ZN5RobotC2Ev
 474              		.section	.text._ZN5Robot12HardwareInitEv,"ax",%progbits
 475              		.align	1
 476              		.global	_ZN5Robot12HardwareInitEv
 477              		.syntax unified
 478              		.thumb
 479              		.thumb_func
 481              	_ZN5Robot12HardwareInitEv:
 482              		.fnstart
 483              	.LVL32:
 484              	.LFB273:
   9:src/unit/robot/robot.cpp **** 
  10:src/unit/robot/robot.cpp **** void Robot::HardwareInit() {
 485              		.loc 1 10 28 is_stmt 1 view -0
 486              		.cfi_startproc
 487              		@ args = 0, pretend = 0, frame = 0
 488              		@ frame_needed = 0, uses_anonymous_args = 0
 489              		.loc 1 10 28 is_stmt 0 view .LVU127
 490 0000 10B5     		push	{r4, lr}
 491              		.save {r4, lr}
 492              	.LCFI4:
 493              		.cfi_def_cfa_offset 8
 494              		.cfi_offset 4, -8
 495              		.cfi_offset 14, -4
 496 0002 0446     		mov	r4, r0
  11:src/unit/robot/robot.cpp ****       // HAL_ADC_Start(&hadc1);
  12:src/unit/robot/robot.cpp ****       // HAL_ADC_Start_DMA(&hadc1, (uint32_t *)&adc_get_val, 14);
  13:src/unit/robot/robot.cpp ****       // for (uint8_t i = 0; i < LINE_QTY; i++) {
  14:src/unit/robot/robot.cpp ****       //       while (!(adc_get_val[i] > 0));
  15:src/unit/robot/robot.cpp ****       // }
  16:src/unit/robot/robot.cpp **** 
  17:src/unit/robot/robot.cpp ****       // Ë´∏„ÄÖ„ÅÆÂàùÊúüÂåñ
  18:src/unit/robot/robot.cpp ****       serial1.init();
 497              		.loc 1 18 7 is_stmt 1 view .LVU128
 498              	.LVL33:
 499              	.LBB83:
 500              	.LBI83:
  27:Lib/BufferedSerial/BufferedSerial.hpp ****             _useDMA = dma;
 501              		.loc 2 27 12 view .LVU129
 502              	.LBB84:
  28:Lib/BufferedSerial/BufferedSerial.hpp ****             HAL_UART_Receive_DMA(_huart, _rxBuf, _rxBufSize);
 503              		.loc 2 28 13 view .LVU130
  28:Lib/BufferedSerial/BufferedSerial.hpp ****             HAL_UART_Receive_DMA(_huart, _rxBuf, _rxBufSize);
 504              		.loc 2 28 21 is_stmt 0 view .LVU131
 505 0004 00F58053 		add	r3, r0, #4096
 506 0008 0022     		movs	r2, #0
 507 000a 83F84624 		strb	r2, [r3, #1094]
  29:Lib/BufferedSerial/BufferedSerial.hpp ****             // printf("- Serial init\n");
 508              		.loc 2 29 13 is_stmt 1 view .LVU132
  29:Lib/BufferedSerial/BufferedSerial.hpp ****             // printf("- Serial init\n");
 509              		.loc 2 29 33 is_stmt 0 view .LVU133
ARM GAS  /var/folders/5c/srt4fy4j1pd641bjfx75k5000000gn/T//cc7uTrbQ.s 			page 13


 510 000e B3F84424 		ldrh	r2, [r3, #1092]
 511 0012 D3F83C14 		ldr	r1, [r3, #1084]
 512 0016 D3F83804 		ldr	r0, [r3, #1080]
 513              	.LVL34:
  29:Lib/BufferedSerial/BufferedSerial.hpp ****             // printf("- Serial init\n");
 514              		.loc 2 29 33 view .LVU134
 515 001a FFF7FEFF 		bl	HAL_UART_Receive_DMA
 516              	.LVL35:
  29:Lib/BufferedSerial/BufferedSerial.hpp ****             // printf("- Serial init\n");
 517              		.loc 2 29 33 view .LVU135
 518              	.LBE84:
 519              	.LBE83:
  19:src/unit/robot/robot.cpp ****       ledh.init();
 520              		.loc 1 19 7 is_stmt 1 view .LVU136
 521              		.loc 1 19 16 is_stmt 0 view .LVU137
 522 001e 04F11000 		add	r0, r4, #16
 523 0022 FFF7FEFF 		bl	_ZN12PwmSingleOut4initEv
 524              	.LVL36:
  20:src/unit/robot/robot.cpp ****       motor1a.init();
 525              		.loc 1 20 7 is_stmt 1 view .LVU138
 526              		.loc 1 20 19 is_stmt 0 view .LVU139
 527 0026 04F12000 		add	r0, r4, #32
 528 002a FFF7FEFF 		bl	_ZN12PwmSingleOut4initEv
 529              	.LVL37:
  21:src/unit/robot/robot.cpp ****       motor1b.init();
 530              		.loc 1 21 7 is_stmt 1 view .LVU140
 531              		.loc 1 21 19 is_stmt 0 view .LVU141
 532 002e 04F13000 		add	r0, r4, #48
 533 0032 FFF7FEFF 		bl	_ZN12PwmSingleOut4initEv
 534              	.LVL38:
  22:src/unit/robot/robot.cpp ****       motor2a.init();
 535              		.loc 1 22 7 is_stmt 1 view .LVU142
 536              		.loc 1 22 19 is_stmt 0 view .LVU143
 537 0036 04F14000 		add	r0, r4, #64
 538 003a FFF7FEFF 		bl	_ZN12PwmSingleOut4initEv
 539              	.LVL39:
  23:src/unit/robot/robot.cpp ****       motor2b.init();
 540              		.loc 1 23 7 is_stmt 1 view .LVU144
 541              		.loc 1 23 19 is_stmt 0 view .LVU145
 542 003e 04F15000 		add	r0, r4, #80
 543 0042 FFF7FEFF 		bl	_ZN12PwmSingleOut4initEv
 544              	.LVL40:
  24:src/unit/robot/robot.cpp ****       motor3a.init();
 545              		.loc 1 24 7 is_stmt 1 view .LVU146
 546              		.loc 1 24 19 is_stmt 0 view .LVU147
 547 0046 04F16000 		add	r0, r4, #96
 548 004a FFF7FEFF 		bl	_ZN12PwmSingleOut4initEv
 549              	.LVL41:
  25:src/unit/robot/robot.cpp ****       motor3b.init();
 550              		.loc 1 25 7 is_stmt 1 view .LVU148
 551              		.loc 1 25 19 is_stmt 0 view .LVU149
 552 004e 04F17000 		add	r0, r4, #112
 553 0052 FFF7FEFF 		bl	_ZN12PwmSingleOut4initEv
 554              	.LVL42:
  26:src/unit/robot/robot.cpp ****       motor4a.init();
 555              		.loc 1 26 7 is_stmt 1 view .LVU150
 556              		.loc 1 26 19 is_stmt 0 view .LVU151
ARM GAS  /var/folders/5c/srt4fy4j1pd641bjfx75k5000000gn/T//cc7uTrbQ.s 			page 14


 557 0056 04F18000 		add	r0, r4, #128
 558 005a FFF7FEFF 		bl	_ZN12PwmSingleOut4initEv
 559              	.LVL43:
  27:src/unit/robot/robot.cpp ****       motor4b.init();
 560              		.loc 1 27 7 is_stmt 1 view .LVU152
 561              		.loc 1 27 19 is_stmt 0 view .LVU153
 562 005e 04F19000 		add	r0, r4, #144
 563 0062 FFF7FEFF 		bl	_ZN12PwmSingleOut4initEv
 564              	.LVL44:
  28:src/unit/robot/robot.cpp ****       dribbler_front_a.init();
 565              		.loc 1 28 7 is_stmt 1 view .LVU154
 566              		.loc 1 28 28 is_stmt 0 view .LVU155
 567 0066 04F1A000 		add	r0, r4, #160
 568 006a FFF7FEFF 		bl	_ZN12PwmSingleOut4initEv
 569              	.LVL45:
  29:src/unit/robot/robot.cpp ****       dribbler_front_b.init();
 570              		.loc 1 29 7 is_stmt 1 view .LVU156
 571              		.loc 1 29 28 is_stmt 0 view .LVU157
 572 006e 04F1B000 		add	r0, r4, #176
 573 0072 FFF7FEFF 		bl	_ZN12PwmSingleOut4initEv
 574              	.LVL46:
  30:src/unit/robot/robot.cpp ****       dribbler_back_a.init();
 575              		.loc 1 30 7 is_stmt 1 view .LVU158
 576              		.loc 1 30 27 is_stmt 0 view .LVU159
 577 0076 04F1C000 		add	r0, r4, #192
 578 007a FFF7FEFF 		bl	_ZN12PwmSingleOut4initEv
 579              	.LVL47:
  31:src/unit/robot/robot.cpp ****       dribbler_back_b.init();
 580              		.loc 1 31 7 is_stmt 1 view .LVU160
 581              		.loc 1 31 27 is_stmt 0 view .LVU161
 582 007e 04F1D000 		add	r0, r4, #208
 583 0082 FFF7FEFF 		bl	_ZN12PwmSingleOut4initEv
 584              	.LVL48:
  32:src/unit/robot/robot.cpp **** 
  33:src/unit/robot/robot.cpp ****       // Êé•Á∂öÁ¢∫Ë™ç
  34:src/unit/robot/robot.cpp ****       motor.CheckConnection();
 585              		.loc 1 34 7 is_stmt 1 view .LVU162
 586              		.loc 1 34 28 is_stmt 0 view .LVU163
 587 0086 04F1E000 		add	r0, r4, #224
 588 008a FFF7FEFF 		bl	_ZN10MotorDrive15CheckConnectionEv
 589              	.LVL49:
  35:src/unit/robot/robot.cpp ****       HAL_Delay(200);
 590              		.loc 1 35 7 is_stmt 1 view .LVU164
 591              		.loc 1 35 16 is_stmt 0 view .LVU165
 592 008e C820     		movs	r0, #200
 593 0090 FFF7FEFF 		bl	HAL_Delay
 594              	.LVL50:
  36:src/unit/robot/robot.cpp ****       dribbler_front.CheckConnection();
 595              		.loc 1 36 7 is_stmt 1 view .LVU166
 596              		.loc 1 36 37 is_stmt 0 view .LVU167
 597 0094 04F6D850 		addw	r0, r4, #3544
 598 0098 FFF7FEFF 		bl	_ZN13DribblerDrive15CheckConnectionEv
 599              	.LVL51:
  37:src/unit/robot/robot.cpp ****       dribbler_back.CheckConnection();
 600              		.loc 1 37 7 is_stmt 1 view .LVU168
 601              		.loc 1 37 36 is_stmt 0 view .LVU169
 602 009c 04F58850 		add	r0, r4, #4352
ARM GAS  /var/folders/5c/srt4fy4j1pd641bjfx75k5000000gn/T//cc7uTrbQ.s 			page 15


 603 00a0 0830     		adds	r0, r0, #8
 604 00a2 FFF7FEFF 		bl	_ZN13DribblerDrive15CheckConnectionEv
 605              	.LVL52:
  38:src/unit/robot/robot.cpp **** }
 606              		.loc 1 38 1 view .LVU170
 607 00a6 10BD     		pop	{r4, pc}
 608              		.loc 1 38 1 view .LVU171
 609              		.cfi_endproc
 610              	.LFE273:
 611              		.fnend
 613              		.section	.text._ZN5Robot10GetSensorsEv,"ax",%progbits
 614              		.align	1
 615              		.global	_ZN5Robot10GetSensorsEv
 616              		.syntax unified
 617              		.thumb
 618              		.thumb_func
 620              	_ZN5Robot10GetSensorsEv:
 621              		.fnstart
 622              	.LVL53:
 623              	.LFB274:
  39:src/unit/robot/robot.cpp **** 
  40:src/unit/robot/robot.cpp **** void Robot::GetSensors() {
 624              		.loc 1 40 26 is_stmt 1 view -0
 625              		.cfi_startproc
 626              		@ args = 0, pretend = 0, frame = 0
 627              		@ frame_needed = 0, uses_anonymous_args = 0
 628              		@ link register save eliminated.
  41:src/unit/robot/robot.cpp **** }
 629              		.loc 1 41 1 is_stmt 0 view .LVU173
 630 0000 7047     		bx	lr
 631              		.cfi_endproc
 632              	.LFE274:
 633              		.cantunwind
 634              		.fnend
 636              		.global	__aeabi_i2d
 637              		.global	__aeabi_dmul
 638              		.global	__aeabi_dsub
 639              		.global	__aeabi_d2iz
 640              		.section	.text._ZN5Robot11RecvImuUartEv,"ax",%progbits
 641              		.align	1
 642              		.global	_ZN5Robot11RecvImuUartEv
 643              		.syntax unified
 644              		.thumb
 645              		.thumb_func
 647              	_ZN5Robot11RecvImuUartEv:
 648              		.fnstart
 649              	.LVL54:
 650              	.LFB275:
  42:src/unit/robot/robot.cpp **** 
  43:src/unit/robot/robot.cpp **** void Robot::RecvImuUart() {
 651              		.loc 1 43 27 is_stmt 1 view -0
 652              		.cfi_startproc
 653              		@ args = 0, pretend = 0, frame = 0
 654              		@ frame_needed = 0, uses_anonymous_args = 0
 655              		.loc 1 43 27 is_stmt 0 view .LVU175
 656 0000 38B5     		push	{r3, r4, r5, lr}
 657              	.LCFI5:
ARM GAS  /var/folders/5c/srt4fy4j1pd641bjfx75k5000000gn/T//cc7uTrbQ.s 			page 16


 658              		.cfi_def_cfa_offset 16
 659              		.cfi_offset 3, -16
 660              		.cfi_offset 4, -12
 661              		.cfi_offset 5, -8
 662              		.cfi_offset 14, -4
 663 0002 0446     		mov	r4, r0
  44:src/unit/robot/robot.cpp ****       static const uint8_t HEADER = 0xFF;  // „Éò„ÉÉ„ÉÄ
 664              		.loc 1 44 7 is_stmt 1 view .LVU176
  45:src/unit/robot/robot.cpp ****       static const uint8_t FOOTER = 0xAA;  // „Éò„ÉÉ„ÉÄ
 665              		.loc 1 45 7 view .LVU177
  46:src/unit/robot/robot.cpp ****       static const uint8_t dataSize = 6;   // „Éá„Éº„Çø„ÅÆ„Çµ„Ç§„Ç∫
 666              		.loc 1 46 7 view .LVU178
  47:src/unit/robot/robot.cpp ****       static uint8_t index = 0;            // Âèó‰ø°„Åó„Åü„Éá„Éº„Çø„ÅÆ„Ç§„É≥„Éá„ÉÉ„ÇØ„Çπ„Ç´„Ç¶„É≥„Ç
 667              		.loc 1 47 7 view .LVU179
  48:src/unit/robot/robot.cpp ****       static uint8_t recv_data[dataSize];  // Âèó‰ø°„Åó„Åü„Éá„Éº„Çø
 668              		.loc 1 48 7 view .LVU180
  49:src/unit/robot/robot.cpp ****       static uint8_t recv_byte;
 669              		.loc 1 49 7 view .LVU181
  50:src/unit/robot/robot.cpp **** 
  51:src/unit/robot/robot.cpp ****       while (serial1.available()) {
 670              		.loc 1 51 7 view .LVU182
 671 0004 07E0     		b	.L14
 672              	.LVL55:
 673              	.L15:
  52:src/unit/robot/robot.cpp ****             recv_byte = serial1.read();
  53:src/unit/robot/robot.cpp ****             if (index == 0) {
  54:src/unit/robot/robot.cpp ****                   if (recv_byte = HEADER) {
  55:src/unit/robot/robot.cpp ****                         index++;
  56:src/unit/robot/robot.cpp ****                   } else {
  57:src/unit/robot/robot.cpp ****                         index = 0;
  58:src/unit/robot/robot.cpp ****                   }
  59:src/unit/robot/robot.cpp ****             } else if (index == (dataSize + 1)) {
 674              		.loc 1 59 20 view .LVU183
 675 0006 072B     		cmp	r3, #7
 676 0008 27D0     		beq	.L21
  60:src/unit/robot/robot.cpp ****                   if (recv_byte == FOOTER) {
  61:src/unit/robot/robot.cpp ****                         info.Imu.yaw = ((((uint16_t)recv_data[0] << 8) & 0xFF00) | ((int16_t)recv_d
  62:src/unit/robot/robot.cpp ****                         info.Imu.pitch = ((((uint16_t)recv_data[2] << 8) & 0xFF00) | ((int16_t)recv
  63:src/unit/robot/robot.cpp ****                         info.Imu.roll = ((((uint16_t)recv_data[4] << 8) & 0xFF00) | ((int16_t)recv_
  64:src/unit/robot/robot.cpp ****                   }
  65:src/unit/robot/robot.cpp ****                   index = 0;
  66:src/unit/robot/robot.cpp ****             } else {
  67:src/unit/robot/robot.cpp ****                   recv_data[index - 1] = recv_byte;
 677              		.loc 1 67 19 view .LVU184
 678              		.loc 1 67 35 is_stmt 0 view .LVU185
 679 000a 5A1E     		subs	r2, r3, #1
 680              		.loc 1 67 40 view .LVU186
 681 000c 3449     		ldr	r1, .L24+8
 682 000e 8854     		strb	r0, [r1, r2]
  68:src/unit/robot/robot.cpp ****                   index++;
 683              		.loc 1 68 19 is_stmt 1 view .LVU187
 684              		.loc 1 68 24 is_stmt 0 view .LVU188
 685 0010 0133     		adds	r3, r3, #1
 686 0012 344A     		ldr	r2, .L24+12
 687 0014 1370     		strb	r3, [r2]
 688              	.L14:
  51:src/unit/robot/robot.cpp ****             recv_byte = serial1.read();
ARM GAS  /var/folders/5c/srt4fy4j1pd641bjfx75k5000000gn/T//cc7uTrbQ.s 			page 17


 689              		.loc 1 51 31 is_stmt 1 view .LVU189
 690              	.LVL56:
 691              	.LBB85:
 692              	.LBI85:
  33:Lib/BufferedSerial/BufferedSerial.hpp ****             uint16_t rxTop = _rxBufSize - _huart->hdmarx->Instance->NDTR;
 693              		.loc 2 33 12 view .LVU190
 694              	.LBB86:
  34:Lib/BufferedSerial/BufferedSerial.hpp ****             return rxTop != rxBtm;
 695              		.loc 2 34 13 view .LVU191
  34:Lib/BufferedSerial/BufferedSerial.hpp ****             return rxTop != rxBtm;
 696              		.loc 2 34 30 is_stmt 0 view .LVU192
 697 0016 04F58052 		add	r2, r4, #4096
 698 001a B2F84434 		ldrh	r3, [r2, #1092]
  34:Lib/BufferedSerial/BufferedSerial.hpp ****             return rxTop != rxBtm;
 699              		.loc 2 34 43 view .LVU193
 700 001e D2F83814 		ldr	r1, [r2, #1080]
  34:Lib/BufferedSerial/BufferedSerial.hpp ****             return rxTop != rxBtm;
 701              		.loc 2 34 51 view .LVU194
 702 0022 C96B     		ldr	r1, [r1, #60]
  34:Lib/BufferedSerial/BufferedSerial.hpp ****             return rxTop != rxBtm;
 703              		.loc 2 34 59 view .LVU195
 704 0024 0968     		ldr	r1, [r1]
  34:Lib/BufferedSerial/BufferedSerial.hpp ****             return rxTop != rxBtm;
 705              		.loc 2 34 69 view .LVU196
 706 0026 4968     		ldr	r1, [r1, #4]
  34:Lib/BufferedSerial/BufferedSerial.hpp ****             return rxTop != rxBtm;
 707              		.loc 2 34 41 view .LVU197
 708 0028 89B2     		uxth	r1, r1
  34:Lib/BufferedSerial/BufferedSerial.hpp ****             return rxTop != rxBtm;
 709              		.loc 2 34 69 view .LVU198
 710 002a 5B1A     		subs	r3, r3, r1
 711 002c 9BB2     		uxth	r3, r3
 712              	.LVL57:
  35:Lib/BufferedSerial/BufferedSerial.hpp ****       }
 713              		.loc 2 35 13 is_stmt 1 view .LVU199
  35:Lib/BufferedSerial/BufferedSerial.hpp ****       }
 714              		.loc 2 35 29 is_stmt 0 view .LVU200
 715 002e B2F84224 		ldrh	r2, [r2, #1090]
 716              	.LVL58:
  35:Lib/BufferedSerial/BufferedSerial.hpp ****       }
 717              		.loc 2 35 29 view .LVU201
 718              	.LBE86:
 719              	.LBE85:
  51:src/unit/robot/robot.cpp ****             recv_byte = serial1.read();
 720              		.loc 1 51 31 view .LVU202
 721 0032 9342     		cmp	r3, r2
 722 0034 4FD0     		beq	.L22
  52:src/unit/robot/robot.cpp ****             if (index == 0) {
 723              		.loc 1 52 13 is_stmt 1 view .LVU203
  52:src/unit/robot/robot.cpp ****             if (index == 0) {
 724              		.loc 1 52 37 is_stmt 0 view .LVU204
 725 0036 04F5A150 		add	r0, r4, #5152
 726 003a 1830     		adds	r0, r0, #24
 727 003c FFF7FEFF 		bl	_ZN14BufferedSerial4readEv
 728              	.LVL59:
  52:src/unit/robot/robot.cpp ****             if (index == 0) {
 729              		.loc 1 52 23 view .LVU205
ARM GAS  /var/folders/5c/srt4fy4j1pd641bjfx75k5000000gn/T//cc7uTrbQ.s 			page 18


 730 0040 294B     		ldr	r3, .L24+16
 731 0042 1870     		strb	r0, [r3]
  53:src/unit/robot/robot.cpp ****                   if (recv_byte = HEADER) {
 732              		.loc 1 53 13 is_stmt 1 view .LVU206
  53:src/unit/robot/robot.cpp ****                   if (recv_byte = HEADER) {
 733              		.loc 1 53 23 is_stmt 0 view .LVU207
 734 0044 274B     		ldr	r3, .L24+12
 735 0046 1B78     		ldrb	r3, [r3]	@ zero_extendqisi2
  53:src/unit/robot/robot.cpp ****                   if (recv_byte = HEADER) {
 736              		.loc 1 53 13 view .LVU208
 737 0048 002B     		cmp	r3, #0
 738 004a DCD1     		bne	.L15
  54:src/unit/robot/robot.cpp ****                         index++;
 739              		.loc 1 54 19 is_stmt 1 view .LVU209
  54:src/unit/robot/robot.cpp ****                         index++;
 740              		.loc 1 54 33 is_stmt 0 view .LVU210
 741 004c 264A     		ldr	r2, .L24+16
 742 004e FF21     		movs	r1, #255
 743 0050 1170     		strb	r1, [r2]
  55:src/unit/robot/robot.cpp ****                   } else {
 744              		.loc 1 55 25 is_stmt 1 view .LVU211
  55:src/unit/robot/robot.cpp ****                   } else {
 745              		.loc 1 55 30 is_stmt 0 view .LVU212
 746 0052 0133     		adds	r3, r3, #1
 747 0054 234A     		ldr	r2, .L24+12
 748 0056 1370     		strb	r3, [r2]
 749 0058 DDE7     		b	.L14
 750              	.L21:
  60:src/unit/robot/robot.cpp ****                         info.Imu.yaw = ((((uint16_t)recv_data[0] << 8) & 0xFF00) | ((int16_t)recv_d
 751              		.loc 1 60 19 is_stmt 1 view .LVU213
 752 005a AA28     		cmp	r0, #170
 753 005c 03D0     		beq	.L23
 754              	.L18:
  65:src/unit/robot/robot.cpp ****             } else {
 755              		.loc 1 65 19 view .LVU214
  65:src/unit/robot/robot.cpp ****             } else {
 756              		.loc 1 65 25 is_stmt 0 view .LVU215
 757 005e 214B     		ldr	r3, .L24+12
 758 0060 0022     		movs	r2, #0
 759 0062 1A70     		strb	r2, [r3]
 760 0064 D7E7     		b	.L14
 761              	.L23:
  61:src/unit/robot/robot.cpp ****                         info.Imu.pitch = ((((uint16_t)recv_data[2] << 8) & 0xFF00) | ((int16_t)recv
 762              		.loc 1 61 25 is_stmt 1 view .LVU216
  61:src/unit/robot/robot.cpp ****                         info.Imu.pitch = ((((uint16_t)recv_data[2] << 8) & 0xFF00) | ((int16_t)recv
 763              		.loc 1 61 64 is_stmt 0 view .LVU217
 764 0066 1E4D     		ldr	r5, .L24+8
 765 0068 2878     		ldrb	r0, [r5]	@ zero_extendqisi2
  61:src/unit/robot/robot.cpp ****                         info.Imu.pitch = ((((uint16_t)recv_data[2] << 8) & 0xFF00) | ((int16_t)recv
 766              		.loc 1 61 105 view .LVU218
 767 006a 6B78     		ldrb	r3, [r5, #1]	@ zero_extendqisi2
  61:src/unit/robot/robot.cpp ****                         info.Imu.pitch = ((((uint16_t)recv_data[2] << 8) & 0xFF00) | ((int16_t)recv
 768              		.loc 1 61 118 view .LVU219
 769 006c 43EA0020 		orr	r0, r3, r0, lsl #8
 770 0070 FFF7FEFF 		bl	__aeabi_i2d
 771              	.LVL60:
 772 0074 18A3     		adr	r3, .L24
ARM GAS  /var/folders/5c/srt4fy4j1pd641bjfx75k5000000gn/T//cc7uTrbQ.s 			page 19


 773 0076 D3E90023 		ldrd	r2, [r3]
 774 007a FFF7FEFF 		bl	__aeabi_dmul
 775              	.LVL61:
  61:src/unit/robot/robot.cpp ****                         info.Imu.pitch = ((((uint16_t)recv_data[2] << 8) & 0xFF00) | ((int16_t)recv
 776              		.loc 1 61 124 view .LVU220
 777 007e 0022     		movs	r2, #0
 778 0080 1A4B     		ldr	r3, .L24+20
 779 0082 FFF7FEFF 		bl	__aeabi_dsub
 780              	.LVL62:
  61:src/unit/robot/robot.cpp ****                         info.Imu.pitch = ((((uint16_t)recv_data[2] << 8) & 0xFF00) | ((int16_t)recv
 781              		.loc 1 61 38 view .LVU221
 782 0086 FFF7FEFF 		bl	__aeabi_d2iz
 783              	.LVL63:
 784 008a 2080     		strh	r0, [r4]	@ movhi
  62:src/unit/robot/robot.cpp ****                         info.Imu.roll = ((((uint16_t)recv_data[4] << 8) & 0xFF00) | ((int16_t)recv_
 785              		.loc 1 62 25 is_stmt 1 view .LVU222
  62:src/unit/robot/robot.cpp ****                         info.Imu.roll = ((((uint16_t)recv_data[4] << 8) & 0xFF00) | ((int16_t)recv_
 786              		.loc 1 62 66 is_stmt 0 view .LVU223
 787 008c A878     		ldrb	r0, [r5, #2]	@ zero_extendqisi2
  62:src/unit/robot/robot.cpp ****                         info.Imu.roll = ((((uint16_t)recv_data[4] << 8) & 0xFF00) | ((int16_t)recv_
 788              		.loc 1 62 107 view .LVU224
 789 008e EB78     		ldrb	r3, [r5, #3]	@ zero_extendqisi2
  62:src/unit/robot/robot.cpp ****                         info.Imu.roll = ((((uint16_t)recv_data[4] << 8) & 0xFF00) | ((int16_t)recv_
 790              		.loc 1 62 120 view .LVU225
 791 0090 43EA0020 		orr	r0, r3, r0, lsl #8
 792 0094 FFF7FEFF 		bl	__aeabi_i2d
 793              	.LVL64:
 794 0098 0FA3     		adr	r3, .L24
 795 009a D3E90023 		ldrd	r2, [r3]
 796 009e FFF7FEFF 		bl	__aeabi_dmul
 797              	.LVL65:
  62:src/unit/robot/robot.cpp ****                         info.Imu.roll = ((((uint16_t)recv_data[4] << 8) & 0xFF00) | ((int16_t)recv_
 798              		.loc 1 62 126 view .LVU226
 799 00a2 0022     		movs	r2, #0
 800 00a4 114B     		ldr	r3, .L24+20
 801 00a6 FFF7FEFF 		bl	__aeabi_dsub
 802              	.LVL66:
  62:src/unit/robot/robot.cpp ****                         info.Imu.roll = ((((uint16_t)recv_data[4] << 8) & 0xFF00) | ((int16_t)recv_
 803              		.loc 1 62 40 view .LVU227
 804 00aa FFF7FEFF 		bl	__aeabi_d2iz
 805              	.LVL67:
 806 00ae 6080     		strh	r0, [r4, #2]	@ movhi
  63:src/unit/robot/robot.cpp ****                   }
 807              		.loc 1 63 25 is_stmt 1 view .LVU228
  63:src/unit/robot/robot.cpp ****                   }
 808              		.loc 1 63 65 is_stmt 0 view .LVU229
 809 00b0 2879     		ldrb	r0, [r5, #4]	@ zero_extendqisi2
  63:src/unit/robot/robot.cpp ****                   }
 810              		.loc 1 63 106 view .LVU230
 811 00b2 6B79     		ldrb	r3, [r5, #5]	@ zero_extendqisi2
  63:src/unit/robot/robot.cpp ****                   }
 812              		.loc 1 63 119 view .LVU231
 813 00b4 43EA0020 		orr	r0, r3, r0, lsl #8
 814 00b8 FFF7FEFF 		bl	__aeabi_i2d
 815              	.LVL68:
 816 00bc 06A3     		adr	r3, .L24
 817 00be D3E90023 		ldrd	r2, [r3]
ARM GAS  /var/folders/5c/srt4fy4j1pd641bjfx75k5000000gn/T//cc7uTrbQ.s 			page 20


 818 00c2 FFF7FEFF 		bl	__aeabi_dmul
 819              	.LVL69:
  63:src/unit/robot/robot.cpp ****                   }
 820              		.loc 1 63 125 view .LVU232
 821 00c6 0022     		movs	r2, #0
 822 00c8 084B     		ldr	r3, .L24+20
 823 00ca FFF7FEFF 		bl	__aeabi_dsub
 824              	.LVL70:
  63:src/unit/robot/robot.cpp ****                   }
 825              		.loc 1 63 39 view .LVU233
 826 00ce FFF7FEFF 		bl	__aeabi_d2iz
 827              	.LVL71:
 828 00d2 A080     		strh	r0, [r4, #4]	@ movhi
 829 00d4 C3E7     		b	.L18
 830              	.L22:
  69:src/unit/robot/robot.cpp ****             }
  70:src/unit/robot/robot.cpp ****       }
  71:src/unit/robot/robot.cpp **** }...
 831              		.loc 1 71 1 view .LVU234
 832 00d6 38BD     		pop	{r3, r4, r5, pc}
 833              	.LVL72:
 834              	.L25:
 835              		.loc 1 71 1 view .LVU235
 836              		.align	3
 837              	.L24:
 838 00d8 9A999999 		.word	-1717986918
 839 00dc 9999B93F 		.word	1069128089
 840 00e0 00000000 		.word	_ZZN5Robot11RecvImuUartEvE9recv_data
 841 00e4 00000000 		.word	_ZZN5Robot11RecvImuUartEvE5index
 842 00e8 00000000 		.word	_ZZN5Robot11RecvImuUartEvE9recv_byte
 843 00ec 00806640 		.word	1080459264
 844              		.cfi_endproc
 845              	.LFE275:
 846              		.cantunwind
 847              		.fnend
 849              		.section	.bss._ZZN5Robot11RecvImuUartEvE9recv_byte,"aw",%nobits
 852              	_ZZN5Robot11RecvImuUartEvE9recv_byte:
 853 0000 00       		.space	1
 854              		.section	.bss._ZZN5Robot11RecvImuUartEvE9recv_data,"aw",%nobits
 855              		.align	2
 858              	_ZZN5Robot11RecvImuUartEvE9recv_data:
 859 0000 00000000 		.space	6
 859      0000
 860              		.section	.bss._ZZN5Robot11RecvImuUartEvE5index,"aw",%nobits
 863              	_ZZN5Robot11RecvImuUartEvE5index:
 864 0000 00       		.space	1
 865              		.global	debug
 866              		.section	.bss.debug,"aw",%nobits
 867              		.align	2
 870              	debug:
 871 0000 00000000 		.space	4
 872              		.global	adc_get_val
 873              		.section	.bss.adc_get_val,"aw",%nobits
 874              		.align	2
 877              	adc_get_val:
 878 0000 00000000 		.space	4
 879              		.text
ARM GAS  /var/folders/5c/srt4fy4j1pd641bjfx75k5000000gn/T//cc7uTrbQ.s 			page 21


 880              	.Letext0:
 881              		.file 5 "/opt/ST/STM32CubeCLT_1.16.0/GNU-tools-for-STM32/arm-none-eabi/include/machine/_default_ty
 882              		.file 6 "/opt/ST/STM32CubeCLT_1.16.0/GNU-tools-for-STM32/lib/gcc/arm-none-eabi/12.3.1/include/stdd
 883              		.file 7 "/opt/ST/STM32CubeCLT_1.16.0/GNU-tools-for-STM32/arm-none-eabi/include/sys/_types.h"
 884              		.file 8 "/opt/ST/STM32CubeCLT_1.16.0/GNU-tools-for-STM32/arm-none-eabi/include/sys/reent.h"
 885              		.file 9 "/opt/ST/STM32CubeCLT_1.16.0/GNU-tools-for-STM32/arm-none-eabi/include/sys/lock.h"
 886              		.file 10 "/opt/ST/STM32CubeCLT_1.16.0/GNU-tools-for-STM32/arm-none-eabi/include/stdio.h"
 887              		.file 11 "/opt/ST/STM32CubeCLT_1.16.0/GNU-tools-for-STM32/arm-none-eabi/include/sys/_stdint.h"
 888              		.file 12 "Drivers/CMSIS/Device/ST/STM32F4xx/Include/stm32f446xx.h"
 889              		.file 13 "Drivers/CMSIS/Device/ST/STM32F4xx/Include/stm32f4xx.h"
 890              		.file 14 "Drivers/STM32F4xx_HAL_Driver/Inc/stm32f4xx_hal_def.h"
 891              		.file 15 "Drivers/STM32F4xx_HAL_Driver/Inc/stm32f4xx_hal_gpio.h"
 892              		.file 16 "Drivers/STM32F4xx_HAL_Driver/Inc/stm32f4xx_hal_dma.h"
 893              		.file 17 "Drivers/STM32F4xx_HAL_Driver/Inc/stm32f4xx_hal_tim.h"
 894              		.file 18 "Drivers/STM32F4xx_HAL_Driver/Inc/stm32f4xx_hal_uart.h"
 895              		.file 19 "Drivers/STM32F4xx_HAL_Driver/Inc/stm32f4xx_hal.h"
 896              		.file 20 "Lib/MovingAve/MovingAve.hpp"
 897              		.file 21 "/opt/ST/STM32CubeCLT_1.16.0/GNU-tools-for-STM32/arm-none-eabi/include/c++/12.3.1/cstdio"
 898              		.file 22 "/opt/ST/STM32CubeCLT_1.16.0/GNU-tools-for-STM32/arm-none-eabi/include/c++/12.3.1/arm-non
 899              		.file 23 "Core/Inc/usart.h"
 900              		.file 24 "Core/Inc/tim.h"
 901              		.file 25 "Lib/Timer/Timer.hpp"
 902              		.file 26 "src/unit/dribbler_drive/dribbler_drive.hpp"
 903              		.file 27 "Lib/pid/pid.hpp"
 904              		.file 28 "src/unit/motor_drive/motor_drive.hpp"
 905              		.file 29 "src/unit/robot/robot.hpp"
ARM GAS  /var/folders/5c/srt4fy4j1pd641bjfx75k5000000gn/T//cc7uTrbQ.s 			page 22


DEFINED SYMBOLS
                            *ABS*:00000000 robot.cpp
/var/folders/5c/srt4fy4j1pd641bjfx75k5000000gn/T//cc7uTrbQ.s:21     .text._ZN14BufferedSerial4readEv:00000000 $t
/var/folders/5c/srt4fy4j1pd641bjfx75k5000000gn/T//cc7uTrbQ.s:27     .text._ZN14BufferedSerial4readEv:00000000 _ZN14BufferedSerial4readEv
.ARM.exidx.text._ZN14BufferedSerial4readEv:00000000 $d
/var/folders/5c/srt4fy4j1pd641bjfx75k5000000gn/T//cc7uTrbQ.s:93     .text._ZN12PwmSingleOut4initEv:00000000 $t
/var/folders/5c/srt4fy4j1pd641bjfx75k5000000gn/T//cc7uTrbQ.s:99     .text._ZN12PwmSingleOut4initEv:00000000 _ZN12PwmSingleOut4initEv
.ARM.exidx.text._ZN12PwmSingleOut4initEv:00000000 $d
/var/folders/5c/srt4fy4j1pd641bjfx75k5000000gn/T//cc7uTrbQ.s:139    .text._ZN5RobotC2Ev:00000000 $t
/var/folders/5c/srt4fy4j1pd641bjfx75k5000000gn/T//cc7uTrbQ.s:145    .text._ZN5RobotC2Ev:00000000 _ZN5RobotC2Ev
/var/folders/5c/srt4fy4j1pd641bjfx75k5000000gn/T//cc7uTrbQ.s:461    .text._ZN5RobotC2Ev:00000128 $d
    .ARM.exidx.text._ZN5RobotC2Ev:00000000 $d
/var/folders/5c/srt4fy4j1pd641bjfx75k5000000gn/T//cc7uTrbQ.s:145    .text._ZN5RobotC2Ev:00000000 _ZN5RobotC1Ev
/var/folders/5c/srt4fy4j1pd641bjfx75k5000000gn/T//cc7uTrbQ.s:475    .text._ZN5Robot12HardwareInitEv:00000000 $t
/var/folders/5c/srt4fy4j1pd641bjfx75k5000000gn/T//cc7uTrbQ.s:481    .text._ZN5Robot12HardwareInitEv:00000000 _ZN5Robot12HardwareInitEv
.ARM.exidx.text._ZN5Robot12HardwareInitEv:00000000 $d
/var/folders/5c/srt4fy4j1pd641bjfx75k5000000gn/T//cc7uTrbQ.s:614    .text._ZN5Robot10GetSensorsEv:00000000 $t
/var/folders/5c/srt4fy4j1pd641bjfx75k5000000gn/T//cc7uTrbQ.s:620    .text._ZN5Robot10GetSensorsEv:00000000 _ZN5Robot10GetSensorsEv
.ARM.exidx.text._ZN5Robot10GetSensorsEv:00000000 $d
/var/folders/5c/srt4fy4j1pd641bjfx75k5000000gn/T//cc7uTrbQ.s:641    .text._ZN5Robot11RecvImuUartEv:00000000 $t
/var/folders/5c/srt4fy4j1pd641bjfx75k5000000gn/T//cc7uTrbQ.s:647    .text._ZN5Robot11RecvImuUartEv:00000000 _ZN5Robot11RecvImuUartEv
/var/folders/5c/srt4fy4j1pd641bjfx75k5000000gn/T//cc7uTrbQ.s:838    .text._ZN5Robot11RecvImuUartEv:000000d8 $d
/var/folders/5c/srt4fy4j1pd641bjfx75k5000000gn/T//cc7uTrbQ.s:858    .bss._ZZN5Robot11RecvImuUartEvE9recv_data:00000000 _ZZN5Robot11RecvImuUartEvE9recv_data
/var/folders/5c/srt4fy4j1pd641bjfx75k5000000gn/T//cc7uTrbQ.s:863    .bss._ZZN5Robot11RecvImuUartEvE5index:00000000 _ZZN5Robot11RecvImuUartEvE5index
/var/folders/5c/srt4fy4j1pd641bjfx75k5000000gn/T//cc7uTrbQ.s:852    .bss._ZZN5Robot11RecvImuUartEvE9recv_byte:00000000 _ZZN5Robot11RecvImuUartEvE9recv_byte
.ARM.exidx.text._ZN5Robot11RecvImuUartEv:00000000 $d
/var/folders/5c/srt4fy4j1pd641bjfx75k5000000gn/T//cc7uTrbQ.s:853    .bss._ZZN5Robot11RecvImuUartEvE9recv_byte:00000000 $d
/var/folders/5c/srt4fy4j1pd641bjfx75k5000000gn/T//cc7uTrbQ.s:855    .bss._ZZN5Robot11RecvImuUartEvE9recv_data:00000000 $d
/var/folders/5c/srt4fy4j1pd641bjfx75k5000000gn/T//cc7uTrbQ.s:864    .bss._ZZN5Robot11RecvImuUartEvE5index:00000000 $d
/var/folders/5c/srt4fy4j1pd641bjfx75k5000000gn/T//cc7uTrbQ.s:870    .bss.debug:00000000 debug
/var/folders/5c/srt4fy4j1pd641bjfx75k5000000gn/T//cc7uTrbQ.s:867    .bss.debug:00000000 $d
/var/folders/5c/srt4fy4j1pd641bjfx75k5000000gn/T//cc7uTrbQ.s:877    .bss.adc_get_val:00000000 adc_get_val
/var/folders/5c/srt4fy4j1pd641bjfx75k5000000gn/T//cc7uTrbQ.s:874    .bss.adc_get_val:00000000 $d

UNDEFINED SYMBOLS
HAL_TIM_PWM_Start
__aeabi_unwind_cpp_pr0
HAL_GPIO_WritePin
_ZN10MotorDriveC1EP12PwmSingleOutS1_S1_S1_S1_S1_S1_S1_Ps
_ZN13DribblerDriveC1EP12PwmSingleOutS1_
_Znaj
htim13
htim12
htim2
htim3
htim4
huart1
HAL_UART_Receive_DMA
_ZN10MotorDrive15CheckConnectionEv
HAL_Delay
_ZN13DribblerDrive15CheckConnectionEv
__aeabi_i2d
__aeabi_dmul
__aeabi_dsub
__aeabi_d2iz
