ARM GAS  /var/folders/5c/srt4fy4j1pd641bjfx75k5000000gn/T//ccEdFyvV.s 			page 1


   1              		.cpu cortex-m4
   2              		.arch armv7e-m
   3              		.fpu fpv4-sp-d16
   4              		.eabi_attribute 27, 1
   5              		.eabi_attribute 28, 1
   6              		.eabi_attribute 20, 1
   7              		.eabi_attribute 21, 1
   8              		.eabi_attribute 23, 3
   9              		.eabi_attribute 24, 1
  10              		.eabi_attribute 25, 1
  11              		.eabi_attribute 26, 1
  12              		.eabi_attribute 30, 1
  13              		.eabi_attribute 34, 1
  14              		.eabi_attribute 18, 4
  15              		.file	"app.cpp"
  16              		.text
  17              	.Ltext0:
  18              		.cfi_sections	.debug_frame
  19              		.file 1 "src/app/app.cpp"
  20              		.section	.text._Z41__static_initialization_and_destruction_0ii,"ax",%progbits
  21              		.align	1
  22              		.syntax unified
  23              		.thumb
  24              		.thumb_func
  26              	_Z41__static_initialization_and_destruction_0ii:
  27              		.fnstart
  28              	.LVL0:
  29              	.LFB264:
   1:src/app/app.cpp **** #include "app.h"
   2:src/app/app.cpp **** 
   3:src/app/app.cpp **** #include "Timer.hpp"
   4:src/app/app.cpp **** #include "config.h"
   5:src/app/app.cpp **** #include "hardware.hpp"
   6:src/app/app.cpp **** 
   7:src/app/app.cpp **** Hardware hardware;
   8:src/app/app.cpp **** Timer process_timer;
   9:src/app/app.cpp **** 
  10:src/app/app.cpp **** uint16_t process_time_;  // us
  11:src/app/app.cpp **** 
  12:src/app/app.cpp **** // cortex-debug
  13:src/app/app.cpp **** int process_freq;
  14:src/app/app.cpp **** int encoder[4];
  15:src/app/app.cpp **** 
  16:src/app/app.cpp **** int16_t dir;
  17:src/app/app.cpp **** uint8_t max_interval;
  18:src/app/app.cpp **** bool is_half_out;
  19:src/app/app.cpp **** bool is_on_line;
  20:src/app/app.cpp **** bool is_leftside_white;
  21:src/app/app.cpp **** bool is_rightside_white;
  22:src/app/app.cpp **** 
  23:src/app/app.cpp **** void setup() {
  24:src/app/app.cpp ****       hardware.Init();
  25:src/app/app.cpp ****       hardware.line.SetTh();
  26:src/app/app.cpp **** }
  27:src/app/app.cpp **** 
  28:src/app/app.cpp **** void main_app() {
  29:src/app/app.cpp ****       while (1) {
ARM GAS  /var/folders/5c/srt4fy4j1pd641bjfx75k5000000gn/T//ccEdFyvV.s 			page 2


  30:src/app/app.cpp ****             process_timer.reset();
  31:src/app/app.cpp ****             hardware.GetSensors();
  32:src/app/app.cpp ****             hardware.encoder.Read();
  33:src/app/app.cpp ****             hardware.MainUart();
  34:src/app/app.cpp ****             if (hardware.info.Line.do_read == 1) {
  35:src/app/app.cpp ****                   hardware.line.OnLed();
  36:src/app/app.cpp ****                   hardware.line.Read();
  37:src/app/app.cpp ****                   hardware.line.Compute();
  38:src/app/app.cpp ****             } else {
  39:src/app/app.cpp ****                   hardware.line.OffLed();
  40:src/app/app.cpp ****             }
  41:src/app/app.cpp **** 
  42:src/app/app.cpp ****             // cortex-debug
  43:src/app/app.cpp ****             encoder[0] = hardware.info.Encoder.rps[0];
  44:src/app/app.cpp ****             encoder[1] = hardware.info.Encoder.rps[1];
  45:src/app/app.cpp ****             encoder[2] = hardware.info.Encoder.rps[2];
  46:src/app/app.cpp ****             encoder[3] = hardware.info.Encoder.rps[3];
  47:src/app/app.cpp **** 
  48:src/app/app.cpp ****             dir = hardware.info.Line.dir;
  49:src/app/app.cpp ****             is_half_out = hardware.info.Line.is_half_out;
  50:src/app/app.cpp ****             is_leftside_white = hardware.info.Line.is_leftside_white;
  51:src/app/app.cpp ****             is_rightside_white = hardware.info.Line.is_rightside_white;
  52:src/app/app.cpp ****             is_on_line = hardware.info.Line.is_on_line;
  53:src/app/app.cpp ****             max_interval = hardware.info.Line.max_interval;
  54:src/app/app.cpp **** 
  55:src/app/app.cpp ****             //  定周期処理
  56:src/app/app.cpp ****             process_time_ = process_timer.read_us();
  57:src/app/app.cpp ****             if (process_time_ < PERIOD_US) {
  58:src/app/app.cpp ****                   hardware.led1 = 1;
  59:src/app/app.cpp ****                   while (process_timer.read_us() < PERIOD_US);
  60:src/app/app.cpp ****                   hardware.led1 = 0;
  61:src/app/app.cpp ****             }
  62:src/app/app.cpp ****             process_freq = 1.0f / (process_timer.read_us() * 0.000001f);
  63:src/app/app.cpp ****       }
  64:src/app/app.cpp **** }
  30              		.loc 1 64 1 view -0
  31              		.cfi_startproc
  32              		@ args = 0, pretend = 0, frame = 0
  33              		@ frame_needed = 0, uses_anonymous_args = 0
  34              		.loc 1 64 1 is_stmt 0 view .LVU1
  35 0000 0128     		cmp	r0, #1
  36 0002 00D0     		beq	.L7
  37 0004 7047     		bx	lr
  38              	.L7:
  39              		.loc 1 64 1 discriminator 1 view .LVU2
  40 0006 08B5     		push	{r3, lr}
  41              	.LCFI0:
  42              		.cfi_def_cfa_offset 8
  43              		.cfi_offset 3, -8
  44              		.cfi_offset 14, -4
  45              		.loc 1 64 1 discriminator 1 view .LVU3
  46 0008 4FF6FF73 		movw	r3, #65535
  47 000c 9942     		cmp	r1, r3
  48 000e 00D0     		beq	.L8
  49              	.LVL1:
  50              	.L1:
  51              		.loc 1 64 1 view .LVU4
ARM GAS  /var/folders/5c/srt4fy4j1pd641bjfx75k5000000gn/T//ccEdFyvV.s 			page 3


  52 0010 08BD     		pop	{r3, pc}
  53              	.LVL2:
  54              	.L8:
   7:src/app/app.cpp **** Timer process_timer;
  55              		.loc 1 7 10 view .LVU5
  56 0012 0348     		ldr	r0, .L9
  57              	.LVL3:
   7:src/app/app.cpp **** Timer process_timer;
  58              		.loc 1 7 10 view .LVU6
  59 0014 FFF7FEFF 		bl	_ZN8HardwareC1Ev
  60              	.LVL4:
   8:src/app/app.cpp **** 
  61              		.loc 1 8 7 view .LVU7
  62 0018 0248     		ldr	r0, .L9+4
  63 001a FFF7FEFF 		bl	_ZN5TimerC1Ev
  64              	.LVL5:
  65              		.loc 1 64 1 view .LVU8
  66 001e F7E7     		b	.L1
  67              	.L10:
  68              		.align	2
  69              	.L9:
  70 0020 00000000 		.word	hardware
  71 0024 00000000 		.word	process_timer
  72              		.cfi_endproc
  73              	.LFE264:
  74              		.cantunwind
  75              		.fnend
  77              		.section	.text.setup,"ax",%progbits
  78              		.align	1
  79              		.global	setup
  80              		.syntax unified
  81              		.thumb
  82              		.thumb_func
  84              	setup:
  85              		.fnstart
  86              	.LFB262:
  23:src/app/app.cpp ****       hardware.Init();
  87              		.loc 1 23 14 is_stmt 1 view -0
  88              		.cfi_startproc
  89              		@ args = 0, pretend = 0, frame = 0
  90              		@ frame_needed = 0, uses_anonymous_args = 0
  91 0000 10B5     		push	{r4, lr}
  92              		.save {r4, lr}
  93              	.LCFI1:
  94              		.cfi_def_cfa_offset 8
  95              		.cfi_offset 4, -8
  96              		.cfi_offset 14, -4
  24:src/app/app.cpp ****       hardware.line.SetTh();
  97              		.loc 1 24 7 view .LVU10
  24:src/app/app.cpp ****       hardware.line.SetTh();
  98              		.loc 1 24 20 is_stmt 0 view .LVU11
  99 0002 044C     		ldr	r4, .L13
 100 0004 2046     		mov	r0, r4
 101 0006 FFF7FEFF 		bl	_ZN8Hardware4InitEv
 102              	.LVL6:
  25:src/app/app.cpp **** }
 103              		.loc 1 25 7 is_stmt 1 view .LVU12
ARM GAS  /var/folders/5c/srt4fy4j1pd641bjfx75k5000000gn/T//ccEdFyvV.s 			page 4


  25:src/app/app.cpp **** }
 104              		.loc 1 25 26 is_stmt 0 view .LVU13
 105 000a 04F6B850 		addw	r0, r4, #3512
 106 000e FFF7FEFF 		bl	_ZN4Line5SetThEv
 107              	.LVL7:
  26:src/app/app.cpp **** 
 108              		.loc 1 26 1 view .LVU14
 109 0012 10BD     		pop	{r4, pc}
 110              	.L14:
 111              		.align	2
 112              	.L13:
 113 0014 00000000 		.word	hardware
 114              		.cfi_endproc
 115              	.LFE262:
 116              		.fnend
 118              		.section	.text.main_app,"ax",%progbits
 119              		.align	1
 120              		.global	main_app
 121              		.syntax unified
 122              		.thumb
 123              		.thumb_func
 125              	main_app:
 126              		.fnstart
 127              	.LFB263:
  28:src/app/app.cpp ****       while (1) {
 128              		.loc 1 28 17 is_stmt 1 view -0
 129              		.cfi_startproc
 130              		@ args = 0, pretend = 0, frame = 0
 131              		@ frame_needed = 0, uses_anonymous_args = 0
 132 0000 10B5     		push	{r4, lr}
 133              		.save {r4, lr}
 134              	.LCFI2:
 135              		.cfi_def_cfa_offset 8
 136              		.cfi_offset 4, -8
 137              		.cfi_offset 14, -4
 138 0002 4CE0     		b	.L20
 139              	.L16:
  39:src/app/app.cpp ****             }
 140              		.loc 1 39 19 view .LVU16
  39:src/app/app.cpp ****             }
 141              		.loc 1 39 39 is_stmt 0 view .LVU17
 142 0004 3448     		ldr	r0, .L22
 143 0006 FFF7FEFF 		bl	_ZN4Line6OffLedEv
 144              	.LVL8:
 145              	.L17:
  43:src/app/app.cpp ****             encoder[1] = hardware.info.Encoder.rps[1];
 146              		.loc 1 43 13 is_stmt 1 view .LVU18
  43:src/app/app.cpp ****             encoder[1] = hardware.info.Encoder.rps[1];
 147              		.loc 1 43 53 is_stmt 0 view .LVU19
 148 000a 344B     		ldr	r3, .L22+4
 149 000c 1979     		ldrb	r1, [r3, #4]	@ zero_extendqisi2
  43:src/app/app.cpp ****             encoder[1] = hardware.info.Encoder.rps[1];
 150              		.loc 1 43 24 view .LVU20
 151 000e 344A     		ldr	r2, .L22+8
 152 0010 1160     		str	r1, [r2]
  44:src/app/app.cpp ****             encoder[2] = hardware.info.Encoder.rps[2];
 153              		.loc 1 44 13 is_stmt 1 view .LVU21
ARM GAS  /var/folders/5c/srt4fy4j1pd641bjfx75k5000000gn/T//ccEdFyvV.s 			page 5


  44:src/app/app.cpp ****             encoder[2] = hardware.info.Encoder.rps[2];
 154              		.loc 1 44 53 is_stmt 0 view .LVU22
 155 0012 5979     		ldrb	r1, [r3, #5]	@ zero_extendqisi2
  44:src/app/app.cpp ****             encoder[2] = hardware.info.Encoder.rps[2];
 156              		.loc 1 44 24 view .LVU23
 157 0014 5160     		str	r1, [r2, #4]
  45:src/app/app.cpp ****             encoder[3] = hardware.info.Encoder.rps[3];
 158              		.loc 1 45 13 is_stmt 1 view .LVU24
  45:src/app/app.cpp ****             encoder[3] = hardware.info.Encoder.rps[3];
 159              		.loc 1 45 53 is_stmt 0 view .LVU25
 160 0016 9979     		ldrb	r1, [r3, #6]	@ zero_extendqisi2
  45:src/app/app.cpp ****             encoder[3] = hardware.info.Encoder.rps[3];
 161              		.loc 1 45 24 view .LVU26
 162 0018 9160     		str	r1, [r2, #8]
  46:src/app/app.cpp **** 
 163              		.loc 1 46 13 is_stmt 1 view .LVU27
  46:src/app/app.cpp **** 
 164              		.loc 1 46 53 is_stmt 0 view .LVU28
 165 001a D979     		ldrb	r1, [r3, #7]	@ zero_extendqisi2
  46:src/app/app.cpp **** 
 166              		.loc 1 46 24 view .LVU29
 167 001c D160     		str	r1, [r2, #12]
  48:src/app/app.cpp ****             is_half_out = hardware.info.Line.is_half_out;
 168              		.loc 1 48 13 is_stmt 1 view .LVU30
  48:src/app/app.cpp ****             is_half_out = hardware.info.Line.is_half_out;
 169              		.loc 1 48 38 is_stmt 0 view .LVU31
 170 001e B3F91210 		ldrsh	r1, [r3, #18]
  48:src/app/app.cpp ****             is_half_out = hardware.info.Line.is_half_out;
 171              		.loc 1 48 17 view .LVU32
 172 0022 304A     		ldr	r2, .L22+12
 173 0024 1180     		strh	r1, [r2]	@ movhi
  49:src/app/app.cpp ****             is_leftside_white = hardware.info.Line.is_leftside_white;
 174              		.loc 1 49 13 is_stmt 1 view .LVU33
  49:src/app/app.cpp ****             is_leftside_white = hardware.info.Line.is_leftside_white;
 175              		.loc 1 49 46 is_stmt 0 view .LVU34
 176 0026 597D     		ldrb	r1, [r3, #21]	@ zero_extendqisi2
  49:src/app/app.cpp ****             is_leftside_white = hardware.info.Line.is_leftside_white;
 177              		.loc 1 49 25 view .LVU35
 178 0028 2F4A     		ldr	r2, .L22+16
 179 002a 1170     		strb	r1, [r2]
  50:src/app/app.cpp ****             is_rightside_white = hardware.info.Line.is_rightside_white;
 180              		.loc 1 50 13 is_stmt 1 view .LVU36
  50:src/app/app.cpp ****             is_rightside_white = hardware.info.Line.is_rightside_white;
 181              		.loc 1 50 52 is_stmt 0 view .LVU37
 182 002c D97D     		ldrb	r1, [r3, #23]	@ zero_extendqisi2
  50:src/app/app.cpp ****             is_rightside_white = hardware.info.Line.is_rightside_white;
 183              		.loc 1 50 31 view .LVU38
 184 002e 2F4A     		ldr	r2, .L22+20
 185 0030 1170     		strb	r1, [r2]
  51:src/app/app.cpp ****             is_on_line = hardware.info.Line.is_on_line;
 186              		.loc 1 51 13 is_stmt 1 view .LVU39
  51:src/app/app.cpp ****             is_on_line = hardware.info.Line.is_on_line;
 187              		.loc 1 51 53 is_stmt 0 view .LVU40
 188 0032 197E     		ldrb	r1, [r3, #24]	@ zero_extendqisi2
  51:src/app/app.cpp ****             is_on_line = hardware.info.Line.is_on_line;
 189              		.loc 1 51 32 view .LVU41
 190 0034 2E4A     		ldr	r2, .L22+24
ARM GAS  /var/folders/5c/srt4fy4j1pd641bjfx75k5000000gn/T//ccEdFyvV.s 			page 6


 191 0036 1170     		strb	r1, [r2]
  52:src/app/app.cpp ****             max_interval = hardware.info.Line.max_interval;
 192              		.loc 1 52 13 is_stmt 1 view .LVU42
  52:src/app/app.cpp ****             max_interval = hardware.info.Line.max_interval;
 193              		.loc 1 52 45 is_stmt 0 view .LVU43
 194 0038 997D     		ldrb	r1, [r3, #22]	@ zero_extendqisi2
  52:src/app/app.cpp ****             max_interval = hardware.info.Line.max_interval;
 195              		.loc 1 52 24 view .LVU44
 196 003a 2E4A     		ldr	r2, .L22+28
 197 003c 1170     		strb	r1, [r2]
  53:src/app/app.cpp **** 
 198              		.loc 1 53 13 is_stmt 1 view .LVU45
  53:src/app/app.cpp **** 
 199              		.loc 1 53 47 is_stmt 0 view .LVU46
 200 003e 1A7D     		ldrb	r2, [r3, #20]	@ zero_extendqisi2
  53:src/app/app.cpp **** 
 201              		.loc 1 53 26 view .LVU47
 202 0040 2D4B     		ldr	r3, .L22+32
 203 0042 1A70     		strb	r2, [r3]
  56:src/app/app.cpp ****             if (process_time_ < PERIOD_US) {
 204              		.loc 1 56 13 is_stmt 1 view .LVU48
  56:src/app/app.cpp ****             if (process_time_ < PERIOD_US) {
 205              		.loc 1 56 50 is_stmt 0 view .LVU49
 206 0044 2D48     		ldr	r0, .L22+36
 207 0046 FFF7FEFF 		bl	_ZN5Timer7read_usEv
 208              	.LVL9:
  56:src/app/app.cpp ****             if (process_time_ < PERIOD_US) {
 209              		.loc 1 56 27 view .LVU50
 210 004a 80B2     		uxth	r0, r0
 211 004c 2C4B     		ldr	r3, .L22+40
 212 004e 1880     		strh	r0, [r3]	@ movhi
  57:src/app/app.cpp ****                   hardware.led1 = 1;
 213              		.loc 1 57 13 is_stmt 1 view .LVU51
 214 0050 C728     		cmp	r0, #199
 215 0052 10D8     		bhi	.L18
  58:src/app/app.cpp ****                   while (process_timer.read_us() < PERIOD_US);
 216              		.loc 1 58 19 view .LVU52
 217              	.LVL10:
 218              	.LBB6:
 219              	.LBI6:
 220              		.file 2 "Lib/DigitalInOut/DigitalInOut.hpp"
   1:Lib/DigitalInOut/DigitalInOut.hpp **** #ifndef __DIGITALINOUT__
   2:Lib/DigitalInOut/DigitalInOut.hpp **** #define __DIGITALINOUT__
   3:Lib/DigitalInOut/DigitalInOut.hpp **** 
   4:Lib/DigitalInOut/DigitalInOut.hpp **** #include "main.h"
   5:Lib/DigitalInOut/DigitalInOut.hpp **** 
   6:Lib/DigitalInOut/DigitalInOut.hpp **** #ifdef __cplusplus
   7:Lib/DigitalInOut/DigitalInOut.hpp **** 
   8:Lib/DigitalInOut/DigitalInOut.hpp **** extern "C" {
   9:Lib/DigitalInOut/DigitalInOut.hpp **** 
  10:Lib/DigitalInOut/DigitalInOut.hpp **** class DigitalOut {
  11:Lib/DigitalInOut/DigitalInOut.hpp ****      public:
  12:Lib/DigitalInOut/DigitalInOut.hpp ****       DigitalOut(GPIO_TypeDef *port, uint16_t pin) : port(port), pin(pin) {
  13:Lib/DigitalInOut/DigitalInOut.hpp ****             HAL_GPIO_WritePin(port, pin, GPIO_PIN_RESET);
  14:Lib/DigitalInOut/DigitalInOut.hpp ****       }
  15:Lib/DigitalInOut/DigitalInOut.hpp ****       void write(bool value) {
  16:Lib/DigitalInOut/DigitalInOut.hpp ****             HAL_GPIO_WritePin(port, pin, value ? GPIO_PIN_SET : GPIO_PIN_RESET);
ARM GAS  /var/folders/5c/srt4fy4j1pd641bjfx75k5000000gn/T//ccEdFyvV.s 			page 7


  17:Lib/DigitalInOut/DigitalInOut.hpp ****       }
  18:Lib/DigitalInOut/DigitalInOut.hpp **** 
  19:Lib/DigitalInOut/DigitalInOut.hpp ****       void operator=(bool value) {
 221              		.loc 2 19 12 view .LVU53
 222              	.LBB7:
  20:Lib/DigitalInOut/DigitalInOut.hpp ****             HAL_GPIO_WritePin(port, pin, value ? GPIO_PIN_SET : GPIO_PIN_RESET);
 223              		.loc 2 20 13 view .LVU54
 224              		.loc 2 20 30 is_stmt 0 view .LVU55
 225 0054 214B     		ldr	r3, .L22+4
 226 0056 0122     		movs	r2, #1
 227 0058 198C     		ldrh	r1, [r3, #32]
 228 005a D869     		ldr	r0, [r3, #28]
 229 005c FFF7FEFF 		bl	HAL_GPIO_WritePin
 230              	.LVL11:
 231              	.L19:
 232              		.loc 2 20 30 view .LVU56
 233              	.LBE7:
 234              	.LBE6:
  59:src/app/app.cpp ****                   hardware.led1 = 0;
 235              		.loc 1 59 50 is_stmt 1 discriminator 1 view .LVU57
  59:src/app/app.cpp ****                   hardware.led1 = 0;
 236              		.loc 1 59 47 is_stmt 0 discriminator 1 view .LVU58
 237 0060 2648     		ldr	r0, .L22+36
 238 0062 FFF7FEFF 		bl	_ZN5Timer7read_usEv
 239              	.LVL12:
  59:src/app/app.cpp ****                   hardware.led1 = 0;
 240              		.loc 1 59 50 discriminator 1 view .LVU59
 241 0066 C728     		cmp	r0, #199
 242 0068 FAD9     		bls	.L19
  60:src/app/app.cpp ****             }
 243              		.loc 1 60 19 is_stmt 1 view .LVU60
 244              	.LVL13:
 245              	.LBB8:
 246              	.LBI8:
  19:Lib/DigitalInOut/DigitalInOut.hpp ****             HAL_GPIO_WritePin(port, pin, value ? GPIO_PIN_SET : GPIO_PIN_RESET);
 247              		.loc 2 19 12 view .LVU61
 248              	.LBB9:
 249              		.loc 2 20 13 view .LVU62
 250              		.loc 2 20 30 is_stmt 0 view .LVU63
 251 006a 1C4B     		ldr	r3, .L22+4
 252 006c 0022     		movs	r2, #0
 253 006e 198C     		ldrh	r1, [r3, #32]
 254 0070 D869     		ldr	r0, [r3, #28]
 255 0072 FFF7FEFF 		bl	HAL_GPIO_WritePin
 256              	.LVL14:
 257              	.L18:
 258              		.loc 2 20 30 view .LVU64
 259              	.LBE9:
 260              	.LBE8:
  62:src/app/app.cpp ****       }
 261              		.loc 1 62 13 is_stmt 1 view .LVU65
  62:src/app/app.cpp ****       }
 262              		.loc 1 62 57 is_stmt 0 view .LVU66
 263 0076 2148     		ldr	r0, .L22+36
 264 0078 FFF7FEFF 		bl	_ZN5Timer7read_usEv
 265              	.LVL15:
 266 007c 07EE900A 		vmov	s15, r0	@ int
ARM GAS  /var/folders/5c/srt4fy4j1pd641bjfx75k5000000gn/T//ccEdFyvV.s 			page 8


  62:src/app/app.cpp ****       }
 267              		.loc 1 62 60 view .LVU67
 268 0080 F8EE677A 		vcvt.f32.u32	s15, s15
 269 0084 9FED1F7A 		vldr.32	s14, .L22+44
 270 0088 67EE877A 		vmul.f32	s15, s15, s14
  62:src/app/app.cpp ****       }
 271              		.loc 1 62 33 view .LVU68
 272 008c F7EE006A 		vmov.f32	s13, #1.0e+0
 273 0090 86EEA77A 		vdiv.f32	s14, s13, s15
  62:src/app/app.cpp ****       }
 274              		.loc 1 62 26 view .LVU69
 275 0094 BDEEC77A 		vcvt.s32.f32	s14, s14
 276 0098 1B4B     		ldr	r3, .L22+48
 277 009a 83ED007A 		vstr.32	s14, [r3]	@ int
  29:src/app/app.cpp ****             process_timer.reset();
 278              		.loc 1 29 7 is_stmt 1 view .LVU70
 279              	.L20:
  29:src/app/app.cpp ****             process_timer.reset();
 280              		.loc 1 29 7 view .LVU71
  30:src/app/app.cpp ****             hardware.GetSensors();
 281              		.loc 1 30 13 view .LVU72
  30:src/app/app.cpp ****             hardware.GetSensors();
 282              		.loc 1 30 32 is_stmt 0 view .LVU73
 283 009e 1748     		ldr	r0, .L22+36
 284 00a0 FFF7FEFF 		bl	_ZN5Timer5resetEv
 285              	.LVL16:
  31:src/app/app.cpp ****             hardware.encoder.Read();
 286              		.loc 1 31 13 is_stmt 1 view .LVU74
  31:src/app/app.cpp ****             hardware.encoder.Read();
 287              		.loc 1 31 32 is_stmt 0 view .LVU75
 288 00a4 0D4C     		ldr	r4, .L22+4
 289 00a6 2046     		mov	r0, r4
 290 00a8 FFF7FEFF 		bl	_ZN8Hardware10GetSensorsEv
 291              	.LVL17:
  32:src/app/app.cpp ****             hardware.MainUart();
 292              		.loc 1 32 13 is_stmt 1 view .LVU76
  32:src/app/app.cpp ****             hardware.MainUart();
 293              		.loc 1 32 34 is_stmt 0 view .LVU77
 294 00ac 04F18000 		add	r0, r4, #128
 295 00b0 FFF7FEFF 		bl	_ZN7Encoder4ReadEv
 296              	.LVL18:
  33:src/app/app.cpp ****             if (hardware.info.Line.do_read == 1) {
 297              		.loc 1 33 13 is_stmt 1 view .LVU78
  33:src/app/app.cpp ****             if (hardware.info.Line.do_read == 1) {
 298              		.loc 1 33 30 is_stmt 0 view .LVU79
 299 00b4 2046     		mov	r0, r4
 300 00b6 FFF7FEFF 		bl	_ZN8Hardware8MainUartEv
 301              	.LVL19:
  34:src/app/app.cpp ****                   hardware.line.OnLed();
 302              		.loc 1 34 13 is_stmt 1 view .LVU80
  34:src/app/app.cpp ****                   hardware.line.OnLed();
 303              		.loc 1 34 36 is_stmt 0 view .LVU81
 304 00ba 237C     		ldrb	r3, [r4, #16]	@ zero_extendqisi2
  34:src/app/app.cpp ****                   hardware.line.OnLed();
 305              		.loc 1 34 13 view .LVU82
 306 00bc 002B     		cmp	r3, #0
 307 00be A1D0     		beq	.L16
ARM GAS  /var/folders/5c/srt4fy4j1pd641bjfx75k5000000gn/T//ccEdFyvV.s 			page 9


  35:src/app/app.cpp ****                   hardware.line.Read();
 308              		.loc 1 35 19 is_stmt 1 view .LVU83
  35:src/app/app.cpp ****                   hardware.line.Read();
 309              		.loc 1 35 38 is_stmt 0 view .LVU84
 310 00c0 04F6B854 		addw	r4, r4, #3512
 311 00c4 2046     		mov	r0, r4
 312 00c6 FFF7FEFF 		bl	_ZN4Line5OnLedEv
 313              	.LVL20:
  36:src/app/app.cpp ****                   hardware.line.Compute();
 314              		.loc 1 36 19 is_stmt 1 view .LVU85
  36:src/app/app.cpp ****                   hardware.line.Compute();
 315              		.loc 1 36 37 is_stmt 0 view .LVU86
 316 00ca 2046     		mov	r0, r4
 317 00cc FFF7FEFF 		bl	_ZN4Line4ReadEv
 318              	.LVL21:
  37:src/app/app.cpp ****             } else {
 319              		.loc 1 37 19 is_stmt 1 view .LVU87
  37:src/app/app.cpp ****             } else {
 320              		.loc 1 37 40 is_stmt 0 view .LVU88
 321 00d0 2046     		mov	r0, r4
 322 00d2 FFF7FEFF 		bl	_ZN4Line7ComputeEv
 323              	.LVL22:
 324 00d6 98E7     		b	.L17
 325              	.L23:
 326              		.align	2
 327              	.L22:
 328 00d8 B80D0000 		.word	hardware+3512
 329 00dc 00000000 		.word	hardware
 330 00e0 00000000 		.word	encoder
 331 00e4 00000000 		.word	dir
 332 00e8 00000000 		.word	is_half_out
 333 00ec 00000000 		.word	is_leftside_white
 334 00f0 00000000 		.word	is_rightside_white
 335 00f4 00000000 		.word	is_on_line
 336 00f8 00000000 		.word	max_interval
 337 00fc 00000000 		.word	process_timer
 338 0100 00000000 		.word	process_time_
 339 0104 BD378635 		.word	897988541
 340 0108 00000000 		.word	process_freq
 341              		.cfi_endproc
 342              	.LFE263:
 343              		.fnend
 345              		.section	.text._GLOBAL__sub_I_hardware,"ax",%progbits
 346              		.align	1
 347              		.syntax unified
 348              		.thumb
 349              		.thumb_func
 351              	_GLOBAL__sub_I_hardware:
 352              		.fnstart
 353              	.LFB265:
 354              		.loc 1 64 1 is_stmt 1 view -0
 355              		.cfi_startproc
 356              		@ args = 0, pretend = 0, frame = 0
 357              		@ frame_needed = 0, uses_anonymous_args = 0
 358 0000 08B5     		push	{r3, lr}
 359              	.LCFI3:
 360              		.cfi_def_cfa_offset 8
ARM GAS  /var/folders/5c/srt4fy4j1pd641bjfx75k5000000gn/T//ccEdFyvV.s 			page 10


 361              		.cfi_offset 3, -8
 362              		.cfi_offset 14, -4
 363              		.loc 1 64 1 is_stmt 0 view .LVU90
 364 0002 4FF6FF71 		movw	r1, #65535
 365 0006 0120     		movs	r0, #1
 366 0008 FFF7FEFF 		bl	_Z41__static_initialization_and_destruction_0ii
 367              	.LVL23:
 368 000c 08BD     		pop	{r3, pc}
 369              		.cfi_endproc
 370              	.LFE265:
 371              		.cantunwind
 372              		.fnend
 374              		.section	.init_array,"aw",%init_array
 375              		.align	2
 376 0000 00000000 		.word	_GLOBAL__sub_I_hardware(target1)
 377              		.global	is_rightside_white
 378              		.section	.bss.is_rightside_white,"aw",%nobits
 381              	is_rightside_white:
 382 0000 00       		.space	1
 383              		.global	is_leftside_white
 384              		.section	.bss.is_leftside_white,"aw",%nobits
 387              	is_leftside_white:
 388 0000 00       		.space	1
 389              		.global	is_on_line
 390              		.section	.bss.is_on_line,"aw",%nobits
 393              	is_on_line:
 394 0000 00       		.space	1
 395              		.global	is_half_out
 396              		.section	.bss.is_half_out,"aw",%nobits
 399              	is_half_out:
 400 0000 00       		.space	1
 401              		.global	max_interval
 402              		.section	.bss.max_interval,"aw",%nobits
 405              	max_interval:
 406 0000 00       		.space	1
 407              		.global	dir
 408              		.section	.bss.dir,"aw",%nobits
 409              		.align	1
 412              	dir:
 413 0000 0000     		.space	2
 414              		.global	encoder
 415              		.section	.bss.encoder,"aw",%nobits
 416              		.align	2
 419              	encoder:
 420 0000 00000000 		.space	16
 420      00000000 
 420      00000000 
 420      00000000 
 421              		.global	process_freq
 422              		.section	.bss.process_freq,"aw",%nobits
 423              		.align	2
 426              	process_freq:
 427 0000 00000000 		.space	4
 428              		.global	process_time_
 429              		.section	.bss.process_time_,"aw",%nobits
 430              		.align	1
 433              	process_time_:
ARM GAS  /var/folders/5c/srt4fy4j1pd641bjfx75k5000000gn/T//ccEdFyvV.s 			page 11


 434 0000 0000     		.space	2
 435              		.global	process_timer
 436              		.section	.bss.process_timer,"aw",%nobits
 437              		.align	2
 440              	process_timer:
 441 0000 00000000 		.space	4
 442              		.global	hardware
 443              		.section	.bss.hardware,"aw",%nobits
 444              		.align	3
 447              	hardware:
 448 0000 00000000 		.space	3816
 448      00000000 
 448      00000000 
 448      00000000 
 448      00000000 
 449              		.text
 450              	.Letext0:
 451              		.file 3 "/opt/ST/STM32CubeCLT_1.16.0/GNU-tools-for-STM32/arm-none-eabi/include/machine/_default_ty
 452              		.file 4 "/opt/ST/STM32CubeCLT_1.16.0/GNU-tools-for-STM32/arm-none-eabi/include/sys/_stdint.h"
 453              		.file 5 "Drivers/CMSIS/Device/ST/STM32F4xx/Include/stm32f446xx.h"
 454              		.file 6 "Drivers/CMSIS/Device/ST/STM32F4xx/Include/stm32f4xx.h"
 455              		.file 7 "/opt/ST/STM32CubeCLT_1.16.0/GNU-tools-for-STM32/lib/gcc/arm-none-eabi/12.3.1/include/stdd
 456              		.file 8 "Drivers/STM32F4xx_HAL_Driver/Inc/stm32f4xx_hal_def.h"
 457              		.file 9 "Drivers/STM32F4xx_HAL_Driver/Inc/stm32f4xx_hal_gpio.h"
 458              		.file 10 "Drivers/STM32F4xx_HAL_Driver/Inc/stm32f4xx_hal_dma.h"
 459              		.file 11 "Drivers/STM32F4xx_HAL_Driver/Inc/stm32f4xx_hal_uart.h"
 460              		.file 12 "Drivers/STM32F4xx_HAL_Driver/Inc/stm32f4xx_hal.h"
 461              		.file 13 "Lib/Timer/Timer.hpp"
 462              		.file 14 "/opt/ST/STM32CubeCLT_1.16.0/GNU-tools-for-STM32/arm-none-eabi/include/sys/_types.h"
 463              		.file 15 "/opt/ST/STM32CubeCLT_1.16.0/GNU-tools-for-STM32/arm-none-eabi/include/sys/reent.h"
 464              		.file 16 "/opt/ST/STM32CubeCLT_1.16.0/GNU-tools-for-STM32/arm-none-eabi/include/sys/lock.h"
 465              		.file 17 "/opt/ST/STM32CubeCLT_1.16.0/GNU-tools-for-STM32/arm-none-eabi/include/stdio.h"
 466              		.file 18 "Lib/BufferedSerial/BufferedSerial.hpp"
 467              		.file 19 "/opt/ST/STM32CubeCLT_1.16.0/GNU-tools-for-STM32/arm-none-eabi/include/c++/12.3.1/cstdio"
 468              		.file 20 "/opt/ST/STM32CubeCLT_1.16.0/GNU-tools-for-STM32/arm-none-eabi/include/c++/12.3.1/arm-non
 469              		.file 21 "Lib/MovingAve/MovingAve.hpp"
 470              		.file 22 "src/unit/encoder/encoder.hpp"
 471              		.file 23 "src/unit/line/line.hpp"
 472              		.file 24 "src/unit/hardware/hardware.hpp"
ARM GAS  /var/folders/5c/srt4fy4j1pd641bjfx75k5000000gn/T//ccEdFyvV.s 			page 12

