ARM GAS  /var/folders/5c/srt4fy4j1pd641bjfx75k5000000gn/T//cc3m6Ari.s 			page 1


   1              		.cpu cortex-m4
   2              		.arch armv7e-m
   3              		.fpu fpv4-sp-d16
   4              		.eabi_attribute 27, 1
   5              		.eabi_attribute 28, 1
   6              		.eabi_attribute 20, 1
   7              		.eabi_attribute 21, 1
   8              		.eabi_attribute 23, 3
   9              		.eabi_attribute 24, 1
  10              		.eabi_attribute 25, 1
  11              		.eabi_attribute 26, 1
  12              		.eabi_attribute 30, 1
  13              		.eabi_attribute 34, 1
  14              		.eabi_attribute 18, 4
  15              		.file	"app.cpp"
  16              		.text
  17              	.Ltext0:
  18              		.cfi_sections	.debug_frame
  19              		.file 1 "src/app/app.cpp"
  20              		.section	.text._Z41__static_initialization_and_destruction_0ii,"ax",%progbits
  21              		.align	1
  22              		.syntax unified
  23              		.thumb
  24              		.thumb_func
  26              	_Z41__static_initialization_and_destruction_0ii:
  27              		.fnstart
  28              	.LVL0:
  29              	.LFB265:
   1:src/app/app.cpp **** #include "app.h"
   2:src/app/app.cpp **** 
   3:src/app/app.cpp **** #include "Timer.hpp"
   4:src/app/app.cpp **** #include "config.h"
   5:src/app/app.cpp **** #include "hardware.hpp"
   6:src/app/app.cpp **** 
   7:src/app/app.cpp **** Hardware hardware;
   8:src/app/app.cpp **** Timer process_timer;
   9:src/app/app.cpp **** 
  10:src/app/app.cpp **** uint16_t process_time_;  // us
  11:src/app/app.cpp **** 
  12:src/app/app.cpp **** // cortex-debug
  13:src/app/app.cpp **** int process_freq;
  14:src/app/app.cpp **** int encoder[4];
  15:src/app/app.cpp **** 
  16:src/app/app.cpp **** int16_t dir;
  17:src/app/app.cpp **** uint8_t max_interval;
  18:src/app/app.cpp **** bool is_half_out;
  19:src/app/app.cpp **** bool is_on_line;
  20:src/app/app.cpp **** bool is_leftside_white;
  21:src/app/app.cpp **** bool is_rightside_white;
  22:src/app/app.cpp **** 
  23:src/app/app.cpp **** void TimInterrupt5khz() {
  24:src/app/app.cpp ****       hardware.MainUart();
  25:src/app/app.cpp **** }
  26:src/app/app.cpp **** 
  27:src/app/app.cpp **** void setup() {
  28:src/app/app.cpp ****       hardware.Init();
  29:src/app/app.cpp ****       hardware.line.SetTh();
ARM GAS  /var/folders/5c/srt4fy4j1pd641bjfx75k5000000gn/T//cc3m6Ari.s 			page 2


  30:src/app/app.cpp **** }
  31:src/app/app.cpp **** 
  32:src/app/app.cpp **** void main_app() {
  33:src/app/app.cpp ****       while (1) {
  34:src/app/app.cpp ****             process_timer.reset();
  35:src/app/app.cpp ****             hardware.GetSensors();
  36:src/app/app.cpp ****             hardware.encoder.Read();
  37:src/app/app.cpp ****             if (hardware.info.Line.do_read == 1) {
  38:src/app/app.cpp ****                   hardware.line.OnLed();
  39:src/app/app.cpp ****                   hardware.line.Read();
  40:src/app/app.cpp ****                   hardware.line.Compute();
  41:src/app/app.cpp ****             } else {
  42:src/app/app.cpp ****                   hardware.line.OffLed();
  43:src/app/app.cpp ****             }
  44:src/app/app.cpp **** 
  45:src/app/app.cpp ****             // cortex-debug
  46:src/app/app.cpp ****             encoder[0] = hardware.info.Encoder.rps[0];
  47:src/app/app.cpp ****             encoder[1] = hardware.info.Encoder.rps[1];
  48:src/app/app.cpp ****             encoder[2] = hardware.info.Encoder.rps[2];
  49:src/app/app.cpp ****             encoder[3] = hardware.info.Encoder.rps[3];
  50:src/app/app.cpp **** 
  51:src/app/app.cpp ****             dir = hardware.info.Line.dir;
  52:src/app/app.cpp ****             is_half_out = hardware.info.Line.is_half_out;
  53:src/app/app.cpp ****             is_leftside_white = hardware.info.Line.is_leftside_white;
  54:src/app/app.cpp ****             is_rightside_white = hardware.info.Line.is_rightside_white;
  55:src/app/app.cpp ****             is_on_line = hardware.info.Line.is_on_line;
  56:src/app/app.cpp ****             max_interval = hardware.info.Line.max_interval;
  57:src/app/app.cpp **** 
  58:src/app/app.cpp ****             //  定周期処理
  59:src/app/app.cpp ****             process_time_ = process_timer.read_us();
  60:src/app/app.cpp ****             if (process_time_ < PERIOD_US) {
  61:src/app/app.cpp ****                   hardware.led1 = 1;
  62:src/app/app.cpp ****                   while (process_timer.read_us() < PERIOD_US);
  63:src/app/app.cpp ****                   hardware.led1 = 0;
  64:src/app/app.cpp ****             }
  65:src/app/app.cpp ****             process_freq = 1.0f / (process_timer.read_us() * 0.000001f);
  66:src/app/app.cpp ****       }
  67:src/app/app.cpp **** }
  30              		.loc 1 67 1 view -0
  31              		.cfi_startproc
  32              		@ args = 0, pretend = 0, frame = 0
  33              		@ frame_needed = 0, uses_anonymous_args = 0
  34              		.loc 1 67 1 is_stmt 0 view .LVU1
  35 0000 0128     		cmp	r0, #1
  36 0002 00D0     		beq	.L7
  37 0004 7047     		bx	lr
  38              	.L7:
  39              		.loc 1 67 1 discriminator 1 view .LVU2
  40 0006 08B5     		push	{r3, lr}
  41              	.LCFI0:
  42              		.cfi_def_cfa_offset 8
  43              		.cfi_offset 3, -8
  44              		.cfi_offset 14, -4
  45              		.loc 1 67 1 discriminator 1 view .LVU3
  46 0008 4FF6FF73 		movw	r3, #65535
  47 000c 9942     		cmp	r1, r3
  48 000e 00D0     		beq	.L8
ARM GAS  /var/folders/5c/srt4fy4j1pd641bjfx75k5000000gn/T//cc3m6Ari.s 			page 3


  49              	.LVL1:
  50              	.L1:
  51              		.loc 1 67 1 view .LVU4
  52 0010 08BD     		pop	{r3, pc}
  53              	.LVL2:
  54              	.L8:
   7:src/app/app.cpp **** Timer process_timer;
  55              		.loc 1 7 10 view .LVU5
  56 0012 0348     		ldr	r0, .L9
  57              	.LVL3:
   7:src/app/app.cpp **** Timer process_timer;
  58              		.loc 1 7 10 view .LVU6
  59 0014 FFF7FEFF 		bl	_ZN8HardwareC1Ev
  60              	.LVL4:
   8:src/app/app.cpp **** 
  61              		.loc 1 8 7 view .LVU7
  62 0018 0248     		ldr	r0, .L9+4
  63 001a FFF7FEFF 		bl	_ZN5TimerC1Ev
  64              	.LVL5:
  65              		.loc 1 67 1 view .LVU8
  66 001e F7E7     		b	.L1
  67              	.L10:
  68              		.align	2
  69              	.L9:
  70 0020 00000000 		.word	hardware
  71 0024 00000000 		.word	process_timer
  72              		.cfi_endproc
  73              	.LFE265:
  74              		.cantunwind
  75              		.fnend
  77              		.section	.text.TimInterrupt5khz,"ax",%progbits
  78              		.align	1
  79              		.global	TimInterrupt5khz
  80              		.syntax unified
  81              		.thumb
  82              		.thumb_func
  84              	TimInterrupt5khz:
  85              		.fnstart
  86              	.LFB262:
  23:src/app/app.cpp ****       hardware.MainUart();
  87              		.loc 1 23 25 is_stmt 1 view -0
  88              		.cfi_startproc
  89              		@ args = 0, pretend = 0, frame = 0
  90              		@ frame_needed = 0, uses_anonymous_args = 0
  91 0000 08B5     		push	{r3, lr}
  92              		.save {r3, lr}
  93              	.LCFI1:
  94              		.cfi_def_cfa_offset 8
  95              		.cfi_offset 3, -8
  96              		.cfi_offset 14, -4
  24:src/app/app.cpp **** }
  97              		.loc 1 24 7 view .LVU10
  24:src/app/app.cpp **** }
  98              		.loc 1 24 24 is_stmt 0 view .LVU11
  99 0002 0248     		ldr	r0, .L13
 100 0004 FFF7FEFF 		bl	_ZN8Hardware8MainUartEv
 101              	.LVL6:
ARM GAS  /var/folders/5c/srt4fy4j1pd641bjfx75k5000000gn/T//cc3m6Ari.s 			page 4


  25:src/app/app.cpp **** 
 102              		.loc 1 25 1 view .LVU12
 103 0008 08BD     		pop	{r3, pc}
 104              	.L14:
 105 000a 00BF     		.align	2
 106              	.L13:
 107 000c 00000000 		.word	hardware
 108              		.cfi_endproc
 109              	.LFE262:
 110              		.fnend
 112              		.section	.text.setup,"ax",%progbits
 113              		.align	1
 114              		.global	setup
 115              		.syntax unified
 116              		.thumb
 117              		.thumb_func
 119              	setup:
 120              		.fnstart
 121              	.LFB263:
  27:src/app/app.cpp ****       hardware.Init();
 122              		.loc 1 27 14 is_stmt 1 view -0
 123              		.cfi_startproc
 124              		@ args = 0, pretend = 0, frame = 0
 125              		@ frame_needed = 0, uses_anonymous_args = 0
 126 0000 10B5     		push	{r4, lr}
 127              		.save {r4, lr}
 128              	.LCFI2:
 129              		.cfi_def_cfa_offset 8
 130              		.cfi_offset 4, -8
 131              		.cfi_offset 14, -4
  28:src/app/app.cpp ****       hardware.line.SetTh();
 132              		.loc 1 28 7 view .LVU14
  28:src/app/app.cpp ****       hardware.line.SetTh();
 133              		.loc 1 28 20 is_stmt 0 view .LVU15
 134 0002 044C     		ldr	r4, .L17
 135 0004 2046     		mov	r0, r4
 136 0006 FFF7FEFF 		bl	_ZN8Hardware4InitEv
 137              	.LVL7:
  29:src/app/app.cpp **** }
 138              		.loc 1 29 7 is_stmt 1 view .LVU16
  29:src/app/app.cpp **** }
 139              		.loc 1 29 26 is_stmt 0 view .LVU17
 140 000a 04F6B850 		addw	r0, r4, #3512
 141 000e FFF7FEFF 		bl	_ZN4Line5SetThEv
 142              	.LVL8:
  30:src/app/app.cpp **** 
 143              		.loc 1 30 1 view .LVU18
 144 0012 10BD     		pop	{r4, pc}
 145              	.L18:
 146              		.align	2
 147              	.L17:
 148 0014 00000000 		.word	hardware
 149              		.cfi_endproc
 150              	.LFE263:
 151              		.fnend
 153              		.section	.text.main_app,"ax",%progbits
 154              		.align	1
ARM GAS  /var/folders/5c/srt4fy4j1pd641bjfx75k5000000gn/T//cc3m6Ari.s 			page 5


 155              		.global	main_app
 156              		.syntax unified
 157              		.thumb
 158              		.thumb_func
 160              	main_app:
 161              		.fnstart
 162              	.LFB264:
  32:src/app/app.cpp ****       while (1) {
 163              		.loc 1 32 17 is_stmt 1 view -0
 164              		.cfi_startproc
 165              		@ args = 0, pretend = 0, frame = 0
 166              		@ frame_needed = 0, uses_anonymous_args = 0
 167 0000 10B5     		push	{r4, lr}
 168              		.save {r4, lr}
 169              	.LCFI3:
 170              		.cfi_def_cfa_offset 8
 171              		.cfi_offset 4, -8
 172              		.cfi_offset 14, -4
 173 0002 4CE0     		b	.L24
 174              	.L20:
  42:src/app/app.cpp ****             }
 175              		.loc 1 42 19 view .LVU20
  42:src/app/app.cpp ****             }
 176              		.loc 1 42 39 is_stmt 0 view .LVU21
 177 0004 3348     		ldr	r0, .L26
 178 0006 FFF7FEFF 		bl	_ZN4Line6OffLedEv
 179              	.LVL9:
 180              	.L21:
  46:src/app/app.cpp ****             encoder[1] = hardware.info.Encoder.rps[1];
 181              		.loc 1 46 13 is_stmt 1 view .LVU22
  46:src/app/app.cpp ****             encoder[1] = hardware.info.Encoder.rps[1];
 182              		.loc 1 46 53 is_stmt 0 view .LVU23
 183 000a 334B     		ldr	r3, .L26+4
 184 000c 1979     		ldrb	r1, [r3, #4]	@ zero_extendqisi2
  46:src/app/app.cpp ****             encoder[1] = hardware.info.Encoder.rps[1];
 185              		.loc 1 46 24 view .LVU24
 186 000e 334A     		ldr	r2, .L26+8
 187 0010 1160     		str	r1, [r2]
  47:src/app/app.cpp ****             encoder[2] = hardware.info.Encoder.rps[2];
 188              		.loc 1 47 13 is_stmt 1 view .LVU25
  47:src/app/app.cpp ****             encoder[2] = hardware.info.Encoder.rps[2];
 189              		.loc 1 47 53 is_stmt 0 view .LVU26
 190 0012 5979     		ldrb	r1, [r3, #5]	@ zero_extendqisi2
  47:src/app/app.cpp ****             encoder[2] = hardware.info.Encoder.rps[2];
 191              		.loc 1 47 24 view .LVU27
 192 0014 5160     		str	r1, [r2, #4]
  48:src/app/app.cpp ****             encoder[3] = hardware.info.Encoder.rps[3];
 193              		.loc 1 48 13 is_stmt 1 view .LVU28
  48:src/app/app.cpp ****             encoder[3] = hardware.info.Encoder.rps[3];
 194              		.loc 1 48 53 is_stmt 0 view .LVU29
 195 0016 9979     		ldrb	r1, [r3, #6]	@ zero_extendqisi2
  48:src/app/app.cpp ****             encoder[3] = hardware.info.Encoder.rps[3];
 196              		.loc 1 48 24 view .LVU30
 197 0018 9160     		str	r1, [r2, #8]
  49:src/app/app.cpp **** 
 198              		.loc 1 49 13 is_stmt 1 view .LVU31
  49:src/app/app.cpp **** 
ARM GAS  /var/folders/5c/srt4fy4j1pd641bjfx75k5000000gn/T//cc3m6Ari.s 			page 6


 199              		.loc 1 49 53 is_stmt 0 view .LVU32
 200 001a D979     		ldrb	r1, [r3, #7]	@ zero_extendqisi2
  49:src/app/app.cpp **** 
 201              		.loc 1 49 24 view .LVU33
 202 001c D160     		str	r1, [r2, #12]
  51:src/app/app.cpp ****             is_half_out = hardware.info.Line.is_half_out;
 203              		.loc 1 51 13 is_stmt 1 view .LVU34
  51:src/app/app.cpp ****             is_half_out = hardware.info.Line.is_half_out;
 204              		.loc 1 51 38 is_stmt 0 view .LVU35
 205 001e B3F91210 		ldrsh	r1, [r3, #18]
  51:src/app/app.cpp ****             is_half_out = hardware.info.Line.is_half_out;
 206              		.loc 1 51 17 view .LVU36
 207 0022 2F4A     		ldr	r2, .L26+12
 208 0024 1180     		strh	r1, [r2]	@ movhi
  52:src/app/app.cpp ****             is_leftside_white = hardware.info.Line.is_leftside_white;
 209              		.loc 1 52 13 is_stmt 1 view .LVU37
  52:src/app/app.cpp ****             is_leftside_white = hardware.info.Line.is_leftside_white;
 210              		.loc 1 52 46 is_stmt 0 view .LVU38
 211 0026 597D     		ldrb	r1, [r3, #21]	@ zero_extendqisi2
  52:src/app/app.cpp ****             is_leftside_white = hardware.info.Line.is_leftside_white;
 212              		.loc 1 52 25 view .LVU39
 213 0028 2E4A     		ldr	r2, .L26+16
 214 002a 1170     		strb	r1, [r2]
  53:src/app/app.cpp ****             is_rightside_white = hardware.info.Line.is_rightside_white;
 215              		.loc 1 53 13 is_stmt 1 view .LVU40
  53:src/app/app.cpp ****             is_rightside_white = hardware.info.Line.is_rightside_white;
 216              		.loc 1 53 52 is_stmt 0 view .LVU41
 217 002c D97D     		ldrb	r1, [r3, #23]	@ zero_extendqisi2
  53:src/app/app.cpp ****             is_rightside_white = hardware.info.Line.is_rightside_white;
 218              		.loc 1 53 31 view .LVU42
 219 002e 2E4A     		ldr	r2, .L26+20
 220 0030 1170     		strb	r1, [r2]
  54:src/app/app.cpp ****             is_on_line = hardware.info.Line.is_on_line;
 221              		.loc 1 54 13 is_stmt 1 view .LVU43
  54:src/app/app.cpp ****             is_on_line = hardware.info.Line.is_on_line;
 222              		.loc 1 54 53 is_stmt 0 view .LVU44
 223 0032 197E     		ldrb	r1, [r3, #24]	@ zero_extendqisi2
  54:src/app/app.cpp ****             is_on_line = hardware.info.Line.is_on_line;
 224              		.loc 1 54 32 view .LVU45
 225 0034 2D4A     		ldr	r2, .L26+24
 226 0036 1170     		strb	r1, [r2]
  55:src/app/app.cpp ****             max_interval = hardware.info.Line.max_interval;
 227              		.loc 1 55 13 is_stmt 1 view .LVU46
  55:src/app/app.cpp ****             max_interval = hardware.info.Line.max_interval;
 228              		.loc 1 55 45 is_stmt 0 view .LVU47
 229 0038 997D     		ldrb	r1, [r3, #22]	@ zero_extendqisi2
  55:src/app/app.cpp ****             max_interval = hardware.info.Line.max_interval;
 230              		.loc 1 55 24 view .LVU48
 231 003a 2D4A     		ldr	r2, .L26+28
 232 003c 1170     		strb	r1, [r2]
  56:src/app/app.cpp **** 
 233              		.loc 1 56 13 is_stmt 1 view .LVU49
  56:src/app/app.cpp **** 
 234              		.loc 1 56 47 is_stmt 0 view .LVU50
 235 003e 1A7D     		ldrb	r2, [r3, #20]	@ zero_extendqisi2
  56:src/app/app.cpp **** 
 236              		.loc 1 56 26 view .LVU51
ARM GAS  /var/folders/5c/srt4fy4j1pd641bjfx75k5000000gn/T//cc3m6Ari.s 			page 7


 237 0040 2C4B     		ldr	r3, .L26+32
 238 0042 1A70     		strb	r2, [r3]
  59:src/app/app.cpp ****             if (process_time_ < PERIOD_US) {
 239              		.loc 1 59 13 is_stmt 1 view .LVU52
  59:src/app/app.cpp ****             if (process_time_ < PERIOD_US) {
 240              		.loc 1 59 50 is_stmt 0 view .LVU53
 241 0044 2C48     		ldr	r0, .L26+36
 242 0046 FFF7FEFF 		bl	_ZN5Timer7read_usEv
 243              	.LVL10:
  59:src/app/app.cpp ****             if (process_time_ < PERIOD_US) {
 244              		.loc 1 59 27 view .LVU54
 245 004a 80B2     		uxth	r0, r0
 246 004c 2B4B     		ldr	r3, .L26+40
 247 004e 1880     		strh	r0, [r3]	@ movhi
  60:src/app/app.cpp ****                   hardware.led1 = 1;
 248              		.loc 1 60 13 is_stmt 1 view .LVU55
 249 0050 6328     		cmp	r0, #99
 250 0052 10D8     		bhi	.L22
  61:src/app/app.cpp ****                   while (process_timer.read_us() < PERIOD_US);
 251              		.loc 1 61 19 view .LVU56
 252              	.LVL11:
 253              	.LBB6:
 254              	.LBI6:
 255              		.file 2 "Lib/DigitalInOut/DigitalInOut.hpp"
   1:Lib/DigitalInOut/DigitalInOut.hpp **** #ifndef __DIGITALINOUT__
   2:Lib/DigitalInOut/DigitalInOut.hpp **** #define __DIGITALINOUT__
   3:Lib/DigitalInOut/DigitalInOut.hpp **** 
   4:Lib/DigitalInOut/DigitalInOut.hpp **** #include "main.h"
   5:Lib/DigitalInOut/DigitalInOut.hpp **** 
   6:Lib/DigitalInOut/DigitalInOut.hpp **** #ifdef __cplusplus
   7:Lib/DigitalInOut/DigitalInOut.hpp **** 
   8:Lib/DigitalInOut/DigitalInOut.hpp **** extern "C" {
   9:Lib/DigitalInOut/DigitalInOut.hpp **** 
  10:Lib/DigitalInOut/DigitalInOut.hpp **** class DigitalOut {
  11:Lib/DigitalInOut/DigitalInOut.hpp ****      public:
  12:Lib/DigitalInOut/DigitalInOut.hpp ****       DigitalOut(GPIO_TypeDef *port, uint16_t pin) : port(port), pin(pin) {
  13:Lib/DigitalInOut/DigitalInOut.hpp ****             HAL_GPIO_WritePin(port, pin, GPIO_PIN_RESET);
  14:Lib/DigitalInOut/DigitalInOut.hpp ****       }
  15:Lib/DigitalInOut/DigitalInOut.hpp ****       void write(bool value) {
  16:Lib/DigitalInOut/DigitalInOut.hpp ****             HAL_GPIO_WritePin(port, pin, value ? GPIO_PIN_SET : GPIO_PIN_RESET);
  17:Lib/DigitalInOut/DigitalInOut.hpp ****       }
  18:Lib/DigitalInOut/DigitalInOut.hpp **** 
  19:Lib/DigitalInOut/DigitalInOut.hpp ****       void operator=(bool value) {
 256              		.loc 2 19 12 view .LVU57
 257              	.LBB7:
  20:Lib/DigitalInOut/DigitalInOut.hpp ****             HAL_GPIO_WritePin(port, pin, value ? GPIO_PIN_SET : GPIO_PIN_RESET);
 258              		.loc 2 20 13 view .LVU58
 259              		.loc 2 20 30 is_stmt 0 view .LVU59
 260 0054 204B     		ldr	r3, .L26+4
 261 0056 0122     		movs	r2, #1
 262 0058 198C     		ldrh	r1, [r3, #32]
 263 005a D869     		ldr	r0, [r3, #28]
 264 005c FFF7FEFF 		bl	HAL_GPIO_WritePin
 265              	.LVL12:
 266              	.L23:
 267              		.loc 2 20 30 view .LVU60
 268              	.LBE7:
ARM GAS  /var/folders/5c/srt4fy4j1pd641bjfx75k5000000gn/T//cc3m6Ari.s 			page 8


 269              	.LBE6:
  62:src/app/app.cpp ****                   hardware.led1 = 0;
 270              		.loc 1 62 50 is_stmt 1 discriminator 1 view .LVU61
  62:src/app/app.cpp ****                   hardware.led1 = 0;
 271              		.loc 1 62 47 is_stmt 0 discriminator 1 view .LVU62
 272 0060 2548     		ldr	r0, .L26+36
 273 0062 FFF7FEFF 		bl	_ZN5Timer7read_usEv
 274              	.LVL13:
  62:src/app/app.cpp ****                   hardware.led1 = 0;
 275              		.loc 1 62 50 discriminator 1 view .LVU63
 276 0066 6328     		cmp	r0, #99
 277 0068 FAD9     		bls	.L23
  63:src/app/app.cpp ****             }
 278              		.loc 1 63 19 is_stmt 1 view .LVU64
 279              	.LVL14:
 280              	.LBB8:
 281              	.LBI8:
  19:Lib/DigitalInOut/DigitalInOut.hpp ****             HAL_GPIO_WritePin(port, pin, value ? GPIO_PIN_SET : GPIO_PIN_RESET);
 282              		.loc 2 19 12 view .LVU65
 283              	.LBB9:
 284              		.loc 2 20 13 view .LVU66
 285              		.loc 2 20 30 is_stmt 0 view .LVU67
 286 006a 1B4B     		ldr	r3, .L26+4
 287 006c 0022     		movs	r2, #0
 288 006e 198C     		ldrh	r1, [r3, #32]
 289 0070 D869     		ldr	r0, [r3, #28]
 290 0072 FFF7FEFF 		bl	HAL_GPIO_WritePin
 291              	.LVL15:
 292              	.L22:
 293              		.loc 2 20 30 view .LVU68
 294              	.LBE9:
 295              	.LBE8:
  65:src/app/app.cpp ****       }
 296              		.loc 1 65 13 is_stmt 1 view .LVU69
  65:src/app/app.cpp ****       }
 297              		.loc 1 65 57 is_stmt 0 view .LVU70
 298 0076 2048     		ldr	r0, .L26+36
 299 0078 FFF7FEFF 		bl	_ZN5Timer7read_usEv
 300              	.LVL16:
 301 007c 07EE900A 		vmov	s15, r0	@ int
  65:src/app/app.cpp ****       }
 302              		.loc 1 65 60 view .LVU71
 303 0080 F8EE677A 		vcvt.f32.u32	s15, s15
 304 0084 9FED1E7A 		vldr.32	s14, .L26+44
 305 0088 67EE877A 		vmul.f32	s15, s15, s14
  65:src/app/app.cpp ****       }
 306              		.loc 1 65 33 view .LVU72
 307 008c F7EE006A 		vmov.f32	s13, #1.0e+0
 308 0090 86EEA77A 		vdiv.f32	s14, s13, s15
  65:src/app/app.cpp ****       }
 309              		.loc 1 65 26 view .LVU73
 310 0094 BDEEC77A 		vcvt.s32.f32	s14, s14
 311 0098 1A4B     		ldr	r3, .L26+48
 312 009a 83ED007A 		vstr.32	s14, [r3]	@ int
  33:src/app/app.cpp ****             process_timer.reset();
 313              		.loc 1 33 7 is_stmt 1 view .LVU74
 314              	.L24:
ARM GAS  /var/folders/5c/srt4fy4j1pd641bjfx75k5000000gn/T//cc3m6Ari.s 			page 9


  33:src/app/app.cpp ****             process_timer.reset();
 315              		.loc 1 33 7 view .LVU75
  34:src/app/app.cpp ****             hardware.GetSensors();
 316              		.loc 1 34 13 view .LVU76
  34:src/app/app.cpp ****             hardware.GetSensors();
 317              		.loc 1 34 32 is_stmt 0 view .LVU77
 318 009e 1648     		ldr	r0, .L26+36
 319 00a0 FFF7FEFF 		bl	_ZN5Timer5resetEv
 320              	.LVL17:
  35:src/app/app.cpp ****             hardware.encoder.Read();
 321              		.loc 1 35 13 is_stmt 1 view .LVU78
  35:src/app/app.cpp ****             hardware.encoder.Read();
 322              		.loc 1 35 32 is_stmt 0 view .LVU79
 323 00a4 0C4C     		ldr	r4, .L26+4
 324 00a6 2046     		mov	r0, r4
 325 00a8 FFF7FEFF 		bl	_ZN8Hardware10GetSensorsEv
 326              	.LVL18:
  36:src/app/app.cpp ****             if (hardware.info.Line.do_read == 1) {
 327              		.loc 1 36 13 is_stmt 1 view .LVU80
  36:src/app/app.cpp ****             if (hardware.info.Line.do_read == 1) {
 328              		.loc 1 36 34 is_stmt 0 view .LVU81
 329 00ac 04F18000 		add	r0, r4, #128
 330 00b0 FFF7FEFF 		bl	_ZN7Encoder4ReadEv
 331              	.LVL19:
  37:src/app/app.cpp ****                   hardware.line.OnLed();
 332              		.loc 1 37 13 is_stmt 1 view .LVU82
  37:src/app/app.cpp ****                   hardware.line.OnLed();
 333              		.loc 1 37 36 is_stmt 0 view .LVU83
 334 00b4 237C     		ldrb	r3, [r4, #16]	@ zero_extendqisi2
  37:src/app/app.cpp ****                   hardware.line.OnLed();
 335              		.loc 1 37 13 view .LVU84
 336 00b6 002B     		cmp	r3, #0
 337 00b8 A4D0     		beq	.L20
  38:src/app/app.cpp ****                   hardware.line.Read();
 338              		.loc 1 38 19 is_stmt 1 view .LVU85
  38:src/app/app.cpp ****                   hardware.line.Read();
 339              		.loc 1 38 38 is_stmt 0 view .LVU86
 340 00ba 04F6B854 		addw	r4, r4, #3512
 341 00be 2046     		mov	r0, r4
 342 00c0 FFF7FEFF 		bl	_ZN4Line5OnLedEv
 343              	.LVL20:
  39:src/app/app.cpp ****                   hardware.line.Compute();
 344              		.loc 1 39 19 is_stmt 1 view .LVU87
  39:src/app/app.cpp ****                   hardware.line.Compute();
 345              		.loc 1 39 37 is_stmt 0 view .LVU88
 346 00c4 2046     		mov	r0, r4
 347 00c6 FFF7FEFF 		bl	_ZN4Line4ReadEv
 348              	.LVL21:
  40:src/app/app.cpp ****             } else {
 349              		.loc 1 40 19 is_stmt 1 view .LVU89
  40:src/app/app.cpp ****             } else {
 350              		.loc 1 40 40 is_stmt 0 view .LVU90
 351 00ca 2046     		mov	r0, r4
 352 00cc FFF7FEFF 		bl	_ZN4Line7ComputeEv
 353              	.LVL22:
 354 00d0 9BE7     		b	.L21
 355              	.L27:
ARM GAS  /var/folders/5c/srt4fy4j1pd641bjfx75k5000000gn/T//cc3m6Ari.s 			page 10


 356 00d2 00BF     		.align	2
 357              	.L26:
 358 00d4 B80D0000 		.word	hardware+3512
 359 00d8 00000000 		.word	hardware
 360 00dc 00000000 		.word	encoder
 361 00e0 00000000 		.word	dir
 362 00e4 00000000 		.word	is_half_out
 363 00e8 00000000 		.word	is_leftside_white
 364 00ec 00000000 		.word	is_rightside_white
 365 00f0 00000000 		.word	is_on_line
 366 00f4 00000000 		.word	max_interval
 367 00f8 00000000 		.word	process_timer
 368 00fc 00000000 		.word	process_time_
 369 0100 BD378635 		.word	897988541
 370 0104 00000000 		.word	process_freq
 371              		.cfi_endproc
 372              	.LFE264:
 373              		.fnend
 375              		.section	.text._GLOBAL__sub_I_hardware,"ax",%progbits
 376              		.align	1
 377              		.syntax unified
 378              		.thumb
 379              		.thumb_func
 381              	_GLOBAL__sub_I_hardware:
 382              		.fnstart
 383              	.LFB266:
 384              		.loc 1 67 1 is_stmt 1 view -0
 385              		.cfi_startproc
 386              		@ args = 0, pretend = 0, frame = 0
 387              		@ frame_needed = 0, uses_anonymous_args = 0
 388 0000 08B5     		push	{r3, lr}
 389              	.LCFI4:
 390              		.cfi_def_cfa_offset 8
 391              		.cfi_offset 3, -8
 392              		.cfi_offset 14, -4
 393              		.loc 1 67 1 is_stmt 0 view .LVU92
 394 0002 4FF6FF71 		movw	r1, #65535
 395 0006 0120     		movs	r0, #1
 396 0008 FFF7FEFF 		bl	_Z41__static_initialization_and_destruction_0ii
 397              	.LVL23:
 398 000c 08BD     		pop	{r3, pc}
 399              		.cfi_endproc
 400              	.LFE266:
 401              		.cantunwind
 402              		.fnend
 404              		.section	.init_array,"aw",%init_array
 405              		.align	2
 406 0000 00000000 		.word	_GLOBAL__sub_I_hardware(target1)
 407              		.global	is_rightside_white
 408              		.section	.bss.is_rightside_white,"aw",%nobits
 411              	is_rightside_white:
 412 0000 00       		.space	1
 413              		.global	is_leftside_white
 414              		.section	.bss.is_leftside_white,"aw",%nobits
 417              	is_leftside_white:
 418 0000 00       		.space	1
 419              		.global	is_on_line
ARM GAS  /var/folders/5c/srt4fy4j1pd641bjfx75k5000000gn/T//cc3m6Ari.s 			page 11


 420              		.section	.bss.is_on_line,"aw",%nobits
 423              	is_on_line:
 424 0000 00       		.space	1
 425              		.global	is_half_out
 426              		.section	.bss.is_half_out,"aw",%nobits
 429              	is_half_out:
 430 0000 00       		.space	1
 431              		.global	max_interval
 432              		.section	.bss.max_interval,"aw",%nobits
 435              	max_interval:
 436 0000 00       		.space	1
 437              		.global	dir
 438              		.section	.bss.dir,"aw",%nobits
 439              		.align	1
 442              	dir:
 443 0000 0000     		.space	2
 444              		.global	encoder
 445              		.section	.bss.encoder,"aw",%nobits
 446              		.align	2
 449              	encoder:
 450 0000 00000000 		.space	16
 450      00000000 
 450      00000000 
 450      00000000 
 451              		.global	process_freq
 452              		.section	.bss.process_freq,"aw",%nobits
 453              		.align	2
 456              	process_freq:
 457 0000 00000000 		.space	4
 458              		.global	process_time_
 459              		.section	.bss.process_time_,"aw",%nobits
 460              		.align	1
 463              	process_time_:
 464 0000 0000     		.space	2
 465              		.global	process_timer
 466              		.section	.bss.process_timer,"aw",%nobits
 467              		.align	2
 470              	process_timer:
 471 0000 00000000 		.space	4
 472              		.global	hardware
 473              		.section	.bss.hardware,"aw",%nobits
 474              		.align	3
 477              	hardware:
 478 0000 00000000 		.space	3816
 478      00000000 
 478      00000000 
 478      00000000 
 478      00000000 
 479              		.text
 480              	.Letext0:
 481              		.file 3 "/opt/ST/STM32CubeCLT_1.16.0/GNU-tools-for-STM32/arm-none-eabi/include/machine/_default_ty
 482              		.file 4 "/opt/ST/STM32CubeCLT_1.16.0/GNU-tools-for-STM32/arm-none-eabi/include/sys/_stdint.h"
 483              		.file 5 "Drivers/CMSIS/Device/ST/STM32F4xx/Include/stm32f446xx.h"
 484              		.file 6 "Drivers/CMSIS/Device/ST/STM32F4xx/Include/stm32f4xx.h"
 485              		.file 7 "/opt/ST/STM32CubeCLT_1.16.0/GNU-tools-for-STM32/lib/gcc/arm-none-eabi/12.3.1/include/stdd
 486              		.file 8 "Drivers/STM32F4xx_HAL_Driver/Inc/stm32f4xx_hal_def.h"
 487              		.file 9 "Drivers/STM32F4xx_HAL_Driver/Inc/stm32f4xx_hal_gpio.h"
ARM GAS  /var/folders/5c/srt4fy4j1pd641bjfx75k5000000gn/T//cc3m6Ari.s 			page 12


 488              		.file 10 "Drivers/STM32F4xx_HAL_Driver/Inc/stm32f4xx_hal_dma.h"
 489              		.file 11 "Drivers/STM32F4xx_HAL_Driver/Inc/stm32f4xx_hal_uart.h"
 490              		.file 12 "Drivers/STM32F4xx_HAL_Driver/Inc/stm32f4xx_hal.h"
 491              		.file 13 "Lib/Timer/Timer.hpp"
 492              		.file 14 "/opt/ST/STM32CubeCLT_1.16.0/GNU-tools-for-STM32/arm-none-eabi/include/sys/_types.h"
 493              		.file 15 "/opt/ST/STM32CubeCLT_1.16.0/GNU-tools-for-STM32/arm-none-eabi/include/sys/reent.h"
 494              		.file 16 "/opt/ST/STM32CubeCLT_1.16.0/GNU-tools-for-STM32/arm-none-eabi/include/sys/lock.h"
 495              		.file 17 "/opt/ST/STM32CubeCLT_1.16.0/GNU-tools-for-STM32/arm-none-eabi/include/stdio.h"
 496              		.file 18 "Lib/BufferedSerial/BufferedSerial.hpp"
 497              		.file 19 "/opt/ST/STM32CubeCLT_1.16.0/GNU-tools-for-STM32/arm-none-eabi/include/c++/12.3.1/cstdio"
 498              		.file 20 "/opt/ST/STM32CubeCLT_1.16.0/GNU-tools-for-STM32/arm-none-eabi/include/c++/12.3.1/arm-non
 499              		.file 21 "Lib/MovingAve/MovingAve.hpp"
 500              		.file 22 "src/unit/encoder/encoder.hpp"
 501              		.file 23 "src/unit/line/line.hpp"
 502              		.file 24 "src/unit/hardware/hardware.hpp"
ARM GAS  /var/folders/5c/srt4fy4j1pd641bjfx75k5000000gn/T//cc3m6Ari.s 			page 13


DEFINED SYMBOLS
                            *ABS*:00000000 app.cpp
/var/folders/5c/srt4fy4j1pd641bjfx75k5000000gn/T//cc3m6Ari.s:21     .text._Z41__static_initialization_and_destruction_0ii:00000000 $t
/var/folders/5c/srt4fy4j1pd641bjfx75k5000000gn/T//cc3m6Ari.s:26     .text._Z41__static_initialization_and_destruction_0ii:00000000 _Z41__static_initialization_and_destruction_0ii
/var/folders/5c/srt4fy4j1pd641bjfx75k5000000gn/T//cc3m6Ari.s:70     .text._Z41__static_initialization_and_destruction_0ii:00000020 $d
/var/folders/5c/srt4fy4j1pd641bjfx75k5000000gn/T//cc3m6Ari.s:477    .bss.hardware:00000000 hardware
/var/folders/5c/srt4fy4j1pd641bjfx75k5000000gn/T//cc3m6Ari.s:470    .bss.process_timer:00000000 process_timer
.ARM.exidx.text._Z41__static_initialization_and_destruction_0ii:00000000 $d
/var/folders/5c/srt4fy4j1pd641bjfx75k5000000gn/T//cc3m6Ari.s:78     .text.TimInterrupt5khz:00000000 $t
/var/folders/5c/srt4fy4j1pd641bjfx75k5000000gn/T//cc3m6Ari.s:84     .text.TimInterrupt5khz:00000000 TimInterrupt5khz
/var/folders/5c/srt4fy4j1pd641bjfx75k5000000gn/T//cc3m6Ari.s:107    .text.TimInterrupt5khz:0000000c $d
 .ARM.extab.text.TimInterrupt5khz:00000000 $d
 .ARM.exidx.text.TimInterrupt5khz:00000000 $d
/var/folders/5c/srt4fy4j1pd641bjfx75k5000000gn/T//cc3m6Ari.s:113    .text.setup:00000000 $t
/var/folders/5c/srt4fy4j1pd641bjfx75k5000000gn/T//cc3m6Ari.s:119    .text.setup:00000000 setup
/var/folders/5c/srt4fy4j1pd641bjfx75k5000000gn/T//cc3m6Ari.s:148    .text.setup:00000014 $d
            .ARM.exidx.text.setup:00000000 $d
/var/folders/5c/srt4fy4j1pd641bjfx75k5000000gn/T//cc3m6Ari.s:154    .text.main_app:00000000 $t
/var/folders/5c/srt4fy4j1pd641bjfx75k5000000gn/T//cc3m6Ari.s:160    .text.main_app:00000000 main_app
/var/folders/5c/srt4fy4j1pd641bjfx75k5000000gn/T//cc3m6Ari.s:358    .text.main_app:000000d4 $d
/var/folders/5c/srt4fy4j1pd641bjfx75k5000000gn/T//cc3m6Ari.s:449    .bss.encoder:00000000 encoder
/var/folders/5c/srt4fy4j1pd641bjfx75k5000000gn/T//cc3m6Ari.s:442    .bss.dir:00000000 dir
/var/folders/5c/srt4fy4j1pd641bjfx75k5000000gn/T//cc3m6Ari.s:429    .bss.is_half_out:00000000 is_half_out
/var/folders/5c/srt4fy4j1pd641bjfx75k5000000gn/T//cc3m6Ari.s:417    .bss.is_leftside_white:00000000 is_leftside_white
/var/folders/5c/srt4fy4j1pd641bjfx75k5000000gn/T//cc3m6Ari.s:411    .bss.is_rightside_white:00000000 is_rightside_white
/var/folders/5c/srt4fy4j1pd641bjfx75k5000000gn/T//cc3m6Ari.s:423    .bss.is_on_line:00000000 is_on_line
/var/folders/5c/srt4fy4j1pd641bjfx75k5000000gn/T//cc3m6Ari.s:435    .bss.max_interval:00000000 max_interval
/var/folders/5c/srt4fy4j1pd641bjfx75k5000000gn/T//cc3m6Ari.s:463    .bss.process_time_:00000000 process_time_
/var/folders/5c/srt4fy4j1pd641bjfx75k5000000gn/T//cc3m6Ari.s:456    .bss.process_freq:00000000 process_freq
         .ARM.exidx.text.main_app:00000000 $d
/var/folders/5c/srt4fy4j1pd641bjfx75k5000000gn/T//cc3m6Ari.s:376    .text._GLOBAL__sub_I_hardware:00000000 $t
/var/folders/5c/srt4fy4j1pd641bjfx75k5000000gn/T//cc3m6Ari.s:381    .text._GLOBAL__sub_I_hardware:00000000 _GLOBAL__sub_I_hardware
.ARM.exidx.text._GLOBAL__sub_I_hardware:00000000 $d
/var/folders/5c/srt4fy4j1pd641bjfx75k5000000gn/T//cc3m6Ari.s:405    .init_array:00000000 $d
/var/folders/5c/srt4fy4j1pd641bjfx75k5000000gn/T//cc3m6Ari.s:412    .bss.is_rightside_white:00000000 $d
/var/folders/5c/srt4fy4j1pd641bjfx75k5000000gn/T//cc3m6Ari.s:418    .bss.is_leftside_white:00000000 $d
/var/folders/5c/srt4fy4j1pd641bjfx75k5000000gn/T//cc3m6Ari.s:424    .bss.is_on_line:00000000 $d
/var/folders/5c/srt4fy4j1pd641bjfx75k5000000gn/T//cc3m6Ari.s:430    .bss.is_half_out:00000000 $d
/var/folders/5c/srt4fy4j1pd641bjfx75k5000000gn/T//cc3m6Ari.s:436    .bss.max_interval:00000000 $d
/var/folders/5c/srt4fy4j1pd641bjfx75k5000000gn/T//cc3m6Ari.s:439    .bss.dir:00000000 $d
/var/folders/5c/srt4fy4j1pd641bjfx75k5000000gn/T//cc3m6Ari.s:446    .bss.encoder:00000000 $d
/var/folders/5c/srt4fy4j1pd641bjfx75k5000000gn/T//cc3m6Ari.s:453    .bss.process_freq:00000000 $d
/var/folders/5c/srt4fy4j1pd641bjfx75k5000000gn/T//cc3m6Ari.s:460    .bss.process_time_:00000000 $d
/var/folders/5c/srt4fy4j1pd641bjfx75k5000000gn/T//cc3m6Ari.s:467    .bss.process_timer:00000000 $d
/var/folders/5c/srt4fy4j1pd641bjfx75k5000000gn/T//cc3m6Ari.s:474    .bss.hardware:00000000 $d

UNDEFINED SYMBOLS
_ZN8HardwareC1Ev
_ZN5TimerC1Ev
_ZN8Hardware8MainUartEv
__aeabi_unwind_cpp_pr1
_ZN8Hardware4InitEv
_ZN4Line5SetThEv
__aeabi_unwind_cpp_pr0
_ZN4Line6OffLedEv
_ZN5Timer7read_usEv
HAL_GPIO_WritePin
ARM GAS  /var/folders/5c/srt4fy4j1pd641bjfx75k5000000gn/T//cc3m6Ari.s 			page 14


_ZN5Timer5resetEv
_ZN8Hardware10GetSensorsEv
_ZN7Encoder4ReadEv
_ZN4Line5OnLedEv
_ZN4Line4ReadEv
_ZN4Line7ComputeEv
