ARM GAS  /var/folders/5c/srt4fy4j1pd641bjfx75k5000000gn/T//cc6c2iiO.s 			page 1


   1              		.cpu cortex-m4
   2              		.arch armv7e-m
   3              		.fpu fpv4-sp-d16
   4              		.eabi_attribute 27, 1
   5              		.eabi_attribute 28, 1
   6              		.eabi_attribute 20, 1
   7              		.eabi_attribute 21, 1
   8              		.eabi_attribute 23, 3
   9              		.eabi_attribute 24, 1
  10              		.eabi_attribute 25, 1
  11              		.eabi_attribute 26, 1
  12              		.eabi_attribute 30, 1
  13              		.eabi_attribute 34, 1
  14              		.eabi_attribute 18, 4
  15              		.file	"app.cpp"
  16              		.text
  17              	.Ltext0:
  18              		.cfi_sections	.debug_frame
  19              		.file 1 "src/app/app.cpp"
  20              		.section	.text._Z41__static_initialization_and_destruction_0ii,"ax",%progbits
  21              		.align	1
  22              		.syntax unified
  23              		.thumb
  24              		.thumb_func
  26              	_Z41__static_initialization_and_destruction_0ii:
  27              		.fnstart
  28              	.LVL0:
  29              	.LFB264:
   1:src/app/app.cpp **** #include "app.h"
   2:src/app/app.cpp **** 
   3:src/app/app.cpp **** #include "Timer.hpp"
   4:src/app/app.cpp **** #include "config.h"
   5:src/app/app.cpp **** #include "hardware.hpp"
   6:src/app/app.cpp **** 
   7:src/app/app.cpp **** Hardware hardware;
   8:src/app/app.cpp **** Timer process_timer;
   9:src/app/app.cpp **** 
  10:src/app/app.cpp **** uint16_t process_time_;  // us
  11:src/app/app.cpp **** 
  12:src/app/app.cpp **** // cortex-debug
  13:src/app/app.cpp **** int process_freq;
  14:src/app/app.cpp **** int encoder[4];
  15:src/app/app.cpp **** 
  16:src/app/app.cpp **** void setup() {
  17:src/app/app.cpp ****       hardware.Init();
  18:src/app/app.cpp **** }
  19:src/app/app.cpp **** 
  20:src/app/app.cpp **** void main_app() {
  21:src/app/app.cpp ****       while (1) {
  22:src/app/app.cpp ****             process_timer.reset();
  23:src/app/app.cpp ****             hardware.MainUart();
  24:src/app/app.cpp ****             hardware.GetSensors();
  25:src/app/app.cpp ****             hardware.encoder.Read();
  26:src/app/app.cpp **** 
  27:src/app/app.cpp ****             // cortex-debug
  28:src/app/app.cpp ****             encoder[0] = hardware.info.Encoder.rps[0];
  29:src/app/app.cpp ****             encoder[1] = hardware.info.Encoder.rps[1];
ARM GAS  /var/folders/5c/srt4fy4j1pd641bjfx75k5000000gn/T//cc6c2iiO.s 			page 2


  30:src/app/app.cpp ****             encoder[2] = hardware.info.Encoder.rps[2];
  31:src/app/app.cpp ****             encoder[3] = hardware.info.Encoder.rps[3];
  32:src/app/app.cpp **** 
  33:src/app/app.cpp ****             //  定周期処理
  34:src/app/app.cpp ****             process_time_ = process_timer.read_us();
  35:src/app/app.cpp ****             if (process_time_ < PERIOD_US) {
  36:src/app/app.cpp ****                   while (process_timer.read_us() < PERIOD_US);
  37:src/app/app.cpp ****             }
  38:src/app/app.cpp ****             process_freq = 1.0f / (process_timer.read_us() * 0.000001f);
  39:src/app/app.cpp ****       }
  40:src/app/app.cpp **** }
  30              		.loc 1 40 1 view -0
  31              		.cfi_startproc
  32              		@ args = 0, pretend = 0, frame = 0
  33              		@ frame_needed = 0, uses_anonymous_args = 0
  34              		.loc 1 40 1 is_stmt 0 view .LVU1
  35 0000 0128     		cmp	r0, #1
  36 0002 00D0     		beq	.L7
  37 0004 7047     		bx	lr
  38              	.L7:
  39              		.loc 1 40 1 discriminator 1 view .LVU2
  40 0006 08B5     		push	{r3, lr}
  41              	.LCFI0:
  42              		.cfi_def_cfa_offset 8
  43              		.cfi_offset 3, -8
  44              		.cfi_offset 14, -4
  45              		.loc 1 40 1 discriminator 1 view .LVU3
  46 0008 4FF6FF73 		movw	r3, #65535
  47 000c 9942     		cmp	r1, r3
  48 000e 00D0     		beq	.L8
  49              	.LVL1:
  50              	.L1:
  51              		.loc 1 40 1 view .LVU4
  52 0010 08BD     		pop	{r3, pc}
  53              	.LVL2:
  54              	.L8:
   7:src/app/app.cpp **** Timer process_timer;
  55              		.loc 1 7 10 view .LVU5
  56 0012 0348     		ldr	r0, .L9
  57              	.LVL3:
   7:src/app/app.cpp **** Timer process_timer;
  58              		.loc 1 7 10 view .LVU6
  59 0014 FFF7FEFF 		bl	_ZN8HardwareC1Ev
  60              	.LVL4:
   8:src/app/app.cpp **** 
  61              		.loc 1 8 7 view .LVU7
  62 0018 0248     		ldr	r0, .L9+4
  63 001a FFF7FEFF 		bl	_ZN5TimerC1Ev
  64              	.LVL5:
  65              		.loc 1 40 1 view .LVU8
  66 001e F7E7     		b	.L1
  67              	.L10:
  68              		.align	2
  69              	.L9:
  70 0020 00000000 		.word	hardware
  71 0024 00000000 		.word	process_timer
  72              		.cfi_endproc
ARM GAS  /var/folders/5c/srt4fy4j1pd641bjfx75k5000000gn/T//cc6c2iiO.s 			page 3


  73              	.LFE264:
  74              		.cantunwind
  75              		.fnend
  77              		.section	.text.setup,"ax",%progbits
  78              		.align	1
  79              		.global	setup
  80              		.syntax unified
  81              		.thumb
  82              		.thumb_func
  84              	setup:
  85              		.fnstart
  86              	.LFB262:
  16:src/app/app.cpp ****       hardware.Init();
  87              		.loc 1 16 14 is_stmt 1 view -0
  88              		.cfi_startproc
  89              		@ args = 0, pretend = 0, frame = 0
  90              		@ frame_needed = 0, uses_anonymous_args = 0
  91 0000 08B5     		push	{r3, lr}
  92              		.save {r3, lr}
  93              	.LCFI1:
  94              		.cfi_def_cfa_offset 8
  95              		.cfi_offset 3, -8
  96              		.cfi_offset 14, -4
  17:src/app/app.cpp **** }
  97              		.loc 1 17 7 view .LVU10
  17:src/app/app.cpp **** }
  98              		.loc 1 17 20 is_stmt 0 view .LVU11
  99 0002 0248     		ldr	r0, .L13
 100 0004 FFF7FEFF 		bl	_ZN8Hardware4InitEv
 101              	.LVL6:
  18:src/app/app.cpp **** 
 102              		.loc 1 18 1 view .LVU12
 103 0008 08BD     		pop	{r3, pc}
 104              	.L14:
 105 000a 00BF     		.align	2
 106              	.L13:
 107 000c 00000000 		.word	hardware
 108              		.cfi_endproc
 109              	.LFE262:
 110              		.fnend
 112              		.section	.text.main_app,"ax",%progbits
 113              		.align	1
 114              		.global	main_app
 115              		.syntax unified
 116              		.thumb
 117              		.thumb_func
 119              	main_app:
 120              		.fnstart
 121              	.LFB263:
  20:src/app/app.cpp ****       while (1) {
 122              		.loc 1 20 17 is_stmt 1 view -0
 123              		.cfi_startproc
 124              		@ args = 0, pretend = 0, frame = 0
 125              		@ frame_needed = 0, uses_anonymous_args = 0
 126 0000 38B5     		push	{r3, r4, r5, lr}
 127              		.save {r3, r4, r5, lr}
 128              	.LCFI2:
ARM GAS  /var/folders/5c/srt4fy4j1pd641bjfx75k5000000gn/T//cc6c2iiO.s 			page 4


 129              		.cfi_def_cfa_offset 16
 130              		.cfi_offset 3, -16
 131              		.cfi_offset 4, -12
 132              		.cfi_offset 5, -8
 133              		.cfi_offset 14, -4
 134 0002 13E0     		b	.L18
 135              	.L16:
  38:src/app/app.cpp ****       }
 136              		.loc 1 38 13 view .LVU14
  38:src/app/app.cpp ****       }
 137              		.loc 1 38 57 is_stmt 0 view .LVU15
 138 0004 1C48     		ldr	r0, .L20
 139 0006 FFF7FEFF 		bl	_ZN5Timer7read_usEv
 140              	.LVL7:
 141 000a 07EE900A 		vmov	s15, r0	@ int
  38:src/app/app.cpp ****       }
 142              		.loc 1 38 60 view .LVU16
 143 000e F8EE677A 		vcvt.f32.u32	s15, s15
 144 0012 9FED1A7A 		vldr.32	s14, .L20+4
 145 0016 67EE877A 		vmul.f32	s15, s15, s14
  38:src/app/app.cpp ****       }
 146              		.loc 1 38 33 view .LVU17
 147 001a F7EE006A 		vmov.f32	s13, #1.0e+0
 148 001e 86EEA77A 		vdiv.f32	s14, s13, s15
  38:src/app/app.cpp ****       }
 149              		.loc 1 38 26 view .LVU18
 150 0022 BDEEC77A 		vcvt.s32.f32	s14, s14
 151 0026 164B     		ldr	r3, .L20+8
 152 0028 83ED007A 		vstr.32	s14, [r3]	@ int
  21:src/app/app.cpp ****             process_timer.reset();
 153              		.loc 1 21 7 is_stmt 1 view .LVU19
 154              	.L18:
  21:src/app/app.cpp ****             process_timer.reset();
 155              		.loc 1 21 7 view .LVU20
  22:src/app/app.cpp ****             hardware.MainUart();
 156              		.loc 1 22 13 view .LVU21
  22:src/app/app.cpp ****             hardware.MainUart();
 157              		.loc 1 22 32 is_stmt 0 view .LVU22
 158 002c 124D     		ldr	r5, .L20
 159 002e 2846     		mov	r0, r5
 160 0030 FFF7FEFF 		bl	_ZN5Timer5resetEv
 161              	.LVL8:
  23:src/app/app.cpp ****             hardware.GetSensors();
 162              		.loc 1 23 13 is_stmt 1 view .LVU23
  23:src/app/app.cpp ****             hardware.GetSensors();
 163              		.loc 1 23 30 is_stmt 0 view .LVU24
 164 0034 134C     		ldr	r4, .L20+12
 165 0036 2046     		mov	r0, r4
 166 0038 FFF7FEFF 		bl	_ZN8Hardware8MainUartEv
 167              	.LVL9:
  24:src/app/app.cpp ****             hardware.encoder.Read();
 168              		.loc 1 24 13 is_stmt 1 view .LVU25
  24:src/app/app.cpp ****             hardware.encoder.Read();
 169              		.loc 1 24 32 is_stmt 0 view .LVU26
 170 003c 2046     		mov	r0, r4
 171 003e FFF7FEFF 		bl	_ZN8Hardware10GetSensorsEv
 172              	.LVL10:
ARM GAS  /var/folders/5c/srt4fy4j1pd641bjfx75k5000000gn/T//cc6c2iiO.s 			page 5


  25:src/app/app.cpp **** 
 173              		.loc 1 25 13 is_stmt 1 view .LVU27
  25:src/app/app.cpp **** 
 174              		.loc 1 25 34 is_stmt 0 view .LVU28
 175 0042 04F17800 		add	r0, r4, #120
 176 0046 FFF7FEFF 		bl	_ZN7Encoder4ReadEv
 177              	.LVL11:
  28:src/app/app.cpp ****             encoder[1] = hardware.info.Encoder.rps[1];
 178              		.loc 1 28 13 is_stmt 1 view .LVU29
  28:src/app/app.cpp ****             encoder[1] = hardware.info.Encoder.rps[1];
 179              		.loc 1 28 53 is_stmt 0 view .LVU30
 180 004a 2279     		ldrb	r2, [r4, #4]	@ zero_extendqisi2
  28:src/app/app.cpp ****             encoder[1] = hardware.info.Encoder.rps[1];
 181              		.loc 1 28 24 view .LVU31
 182 004c 0E4B     		ldr	r3, .L20+16
 183 004e 1A60     		str	r2, [r3]
  29:src/app/app.cpp ****             encoder[2] = hardware.info.Encoder.rps[2];
 184              		.loc 1 29 13 is_stmt 1 view .LVU32
  29:src/app/app.cpp ****             encoder[2] = hardware.info.Encoder.rps[2];
 185              		.loc 1 29 53 is_stmt 0 view .LVU33
 186 0050 6279     		ldrb	r2, [r4, #5]	@ zero_extendqisi2
  29:src/app/app.cpp ****             encoder[2] = hardware.info.Encoder.rps[2];
 187              		.loc 1 29 24 view .LVU34
 188 0052 5A60     		str	r2, [r3, #4]
  30:src/app/app.cpp ****             encoder[3] = hardware.info.Encoder.rps[3];
 189              		.loc 1 30 13 is_stmt 1 view .LVU35
  30:src/app/app.cpp ****             encoder[3] = hardware.info.Encoder.rps[3];
 190              		.loc 1 30 53 is_stmt 0 view .LVU36
 191 0054 A279     		ldrb	r2, [r4, #6]	@ zero_extendqisi2
  30:src/app/app.cpp ****             encoder[3] = hardware.info.Encoder.rps[3];
 192              		.loc 1 30 24 view .LVU37
 193 0056 9A60     		str	r2, [r3, #8]
  31:src/app/app.cpp **** 
 194              		.loc 1 31 13 is_stmt 1 view .LVU38
  31:src/app/app.cpp **** 
 195              		.loc 1 31 53 is_stmt 0 view .LVU39
 196 0058 E279     		ldrb	r2, [r4, #7]	@ zero_extendqisi2
  31:src/app/app.cpp **** 
 197              		.loc 1 31 24 view .LVU40
 198 005a DA60     		str	r2, [r3, #12]
  34:src/app/app.cpp ****             if (process_time_ < PERIOD_US) {
 199              		.loc 1 34 13 is_stmt 1 view .LVU41
  34:src/app/app.cpp ****             if (process_time_ < PERIOD_US) {
 200              		.loc 1 34 50 is_stmt 0 view .LVU42
 201 005c 2846     		mov	r0, r5
 202 005e FFF7FEFF 		bl	_ZN5Timer7read_usEv
 203              	.LVL12:
  34:src/app/app.cpp ****             if (process_time_ < PERIOD_US) {
 204              		.loc 1 34 27 view .LVU43
 205 0062 80B2     		uxth	r0, r0
 206 0064 094B     		ldr	r3, .L20+20
 207 0066 1880     		strh	r0, [r3]	@ movhi
  35:src/app/app.cpp ****                   while (process_timer.read_us() < PERIOD_US);
 208              		.loc 1 35 13 is_stmt 1 view .LVU44
 209 0068 6328     		cmp	r0, #99
 210 006a CBD8     		bhi	.L16
 211              	.L17:
ARM GAS  /var/folders/5c/srt4fy4j1pd641bjfx75k5000000gn/T//cc6c2iiO.s 			page 6


  36:src/app/app.cpp ****             }
 212              		.loc 1 36 50 discriminator 1 view .LVU45
  36:src/app/app.cpp ****             }
 213              		.loc 1 36 47 is_stmt 0 discriminator 1 view .LVU46
 214 006c 0248     		ldr	r0, .L20
 215 006e FFF7FEFF 		bl	_ZN5Timer7read_usEv
 216              	.LVL13:
  36:src/app/app.cpp ****             }
 217              		.loc 1 36 50 discriminator 1 view .LVU47
 218 0072 6328     		cmp	r0, #99
 219 0074 FAD9     		bls	.L17
 220 0076 C5E7     		b	.L16
 221              	.L21:
 222              		.align	2
 223              	.L20:
 224 0078 00000000 		.word	process_timer
 225 007c BD378635 		.word	897988541
 226 0080 00000000 		.word	process_freq
 227 0084 00000000 		.word	hardware
 228 0088 00000000 		.word	encoder
 229 008c 00000000 		.word	process_time_
 230              		.cfi_endproc
 231              	.LFE263:
 232              		.fnend
 234              		.section	.text._GLOBAL__sub_I_hardware,"ax",%progbits
 235              		.align	1
 236              		.syntax unified
 237              		.thumb
 238              		.thumb_func
 240              	_GLOBAL__sub_I_hardware:
 241              		.fnstart
 242              	.LFB265:
 243              		.loc 1 40 1 is_stmt 1 view -0
 244              		.cfi_startproc
 245              		@ args = 0, pretend = 0, frame = 0
 246              		@ frame_needed = 0, uses_anonymous_args = 0
 247 0000 08B5     		push	{r3, lr}
 248              	.LCFI3:
 249              		.cfi_def_cfa_offset 8
 250              		.cfi_offset 3, -8
 251              		.cfi_offset 14, -4
 252              		.loc 1 40 1 is_stmt 0 view .LVU49
 253 0002 4FF6FF71 		movw	r1, #65535
 254 0006 0120     		movs	r0, #1
 255 0008 FFF7FEFF 		bl	_Z41__static_initialization_and_destruction_0ii
 256              	.LVL14:
 257 000c 08BD     		pop	{r3, pc}
 258              		.cfi_endproc
 259              	.LFE265:
 260              		.cantunwind
 261              		.fnend
 263              		.section	.init_array,"aw",%init_array
 264              		.align	2
 265 0000 00000000 		.word	_GLOBAL__sub_I_hardware(target1)
 266              		.global	encoder
 267              		.section	.bss.encoder,"aw",%nobits
 268              		.align	2
ARM GAS  /var/folders/5c/srt4fy4j1pd641bjfx75k5000000gn/T//cc6c2iiO.s 			page 7


 271              	encoder:
 272 0000 00000000 		.space	16
 272      00000000 
 272      00000000 
 272      00000000 
 273              		.global	process_freq
 274              		.section	.bss.process_freq,"aw",%nobits
 275              		.align	2
 278              	process_freq:
 279 0000 00000000 		.space	4
 280              		.global	process_time_
 281              		.section	.bss.process_time_,"aw",%nobits
 282              		.align	1
 285              	process_time_:
 286 0000 0000     		.space	2
 287              		.global	process_timer
 288              		.section	.bss.process_timer,"aw",%nobits
 289              		.align	2
 292              	process_timer:
 293 0000 00000000 		.space	4
 294              		.global	hardware
 295              		.section	.bss.hardware,"aw",%nobits
 296              		.align	3
 299              	hardware:
 300 0000 00000000 		.space	3504
 300      00000000 
 300      00000000 
 300      00000000 
 300      00000000 
 301              		.text
 302              	.Letext0:
 303              		.file 2 "/opt/ST/STM32CubeCLT_1.16.0/GNU-tools-for-STM32/arm-none-eabi/include/machine/_default_ty
 304              		.file 3 "/opt/ST/STM32CubeCLT_1.16.0/GNU-tools-for-STM32/arm-none-eabi/include/sys/_stdint.h"
 305              		.file 4 "Drivers/CMSIS/Device/ST/STM32F4xx/Include/stm32f446xx.h"
 306              		.file 5 "Drivers/CMSIS/Device/ST/STM32F4xx/Include/stm32f4xx.h"
 307              		.file 6 "/opt/ST/STM32CubeCLT_1.16.0/GNU-tools-for-STM32/lib/gcc/arm-none-eabi/12.3.1/include/stdd
 308              		.file 7 "Drivers/STM32F4xx_HAL_Driver/Inc/stm32f4xx_hal_def.h"
 309              		.file 8 "Drivers/STM32F4xx_HAL_Driver/Inc/stm32f4xx_hal_dma.h"
 310              		.file 9 "Drivers/STM32F4xx_HAL_Driver/Inc/stm32f4xx_hal_uart.h"
 311              		.file 10 "Drivers/STM32F4xx_HAL_Driver/Inc/stm32f4xx_hal.h"
 312              		.file 11 "Lib/Timer/Timer.hpp"
 313              		.file 12 "/opt/ST/STM32CubeCLT_1.16.0/GNU-tools-for-STM32/arm-none-eabi/include/sys/_types.h"
 314              		.file 13 "/opt/ST/STM32CubeCLT_1.16.0/GNU-tools-for-STM32/arm-none-eabi/include/sys/reent.h"
 315              		.file 14 "/opt/ST/STM32CubeCLT_1.16.0/GNU-tools-for-STM32/arm-none-eabi/include/sys/lock.h"
 316              		.file 15 "/opt/ST/STM32CubeCLT_1.16.0/GNU-tools-for-STM32/arm-none-eabi/include/stdio.h"
 317              		.file 16 "Lib/BufferedSerial/BufferedSerial.hpp"
 318              		.file 17 "Lib/DigitalInOut/DigitalInOut.hpp"
 319              		.file 18 "/opt/ST/STM32CubeCLT_1.16.0/GNU-tools-for-STM32/arm-none-eabi/include/c++/12.3.1/cstdio"
 320              		.file 19 "/opt/ST/STM32CubeCLT_1.16.0/GNU-tools-for-STM32/arm-none-eabi/include/c++/12.3.1/arm-non
 321              		.file 20 "Lib/MovingAve/MovingAve.hpp"
 322              		.file 21 "src/unit/encoder/encoder.hpp"
 323              		.file 22 "src/unit/hardware/hardware.hpp"
ARM GAS  /var/folders/5c/srt4fy4j1pd641bjfx75k5000000gn/T//cc6c2iiO.s 			page 8


DEFINED SYMBOLS
                            *ABS*:00000000 app.cpp
/var/folders/5c/srt4fy4j1pd641bjfx75k5000000gn/T//cc6c2iiO.s:21     .text._Z41__static_initialization_and_destruction_0ii:00000000 $t
/var/folders/5c/srt4fy4j1pd641bjfx75k5000000gn/T//cc6c2iiO.s:26     .text._Z41__static_initialization_and_destruction_0ii:00000000 _Z41__static_initialization_and_destruction_0ii
/var/folders/5c/srt4fy4j1pd641bjfx75k5000000gn/T//cc6c2iiO.s:70     .text._Z41__static_initialization_and_destruction_0ii:00000020 $d
/var/folders/5c/srt4fy4j1pd641bjfx75k5000000gn/T//cc6c2iiO.s:299    .bss.hardware:00000000 hardware
/var/folders/5c/srt4fy4j1pd641bjfx75k5000000gn/T//cc6c2iiO.s:292    .bss.process_timer:00000000 process_timer
.ARM.exidx.text._Z41__static_initialization_and_destruction_0ii:00000000 $d
/var/folders/5c/srt4fy4j1pd641bjfx75k5000000gn/T//cc6c2iiO.s:78     .text.setup:00000000 $t
/var/folders/5c/srt4fy4j1pd641bjfx75k5000000gn/T//cc6c2iiO.s:84     .text.setup:00000000 setup
/var/folders/5c/srt4fy4j1pd641bjfx75k5000000gn/T//cc6c2iiO.s:107    .text.setup:0000000c $d
            .ARM.extab.text.setup:00000000 $d
            .ARM.exidx.text.setup:00000000 $d
/var/folders/5c/srt4fy4j1pd641bjfx75k5000000gn/T//cc6c2iiO.s:113    .text.main_app:00000000 $t
/var/folders/5c/srt4fy4j1pd641bjfx75k5000000gn/T//cc6c2iiO.s:119    .text.main_app:00000000 main_app
/var/folders/5c/srt4fy4j1pd641bjfx75k5000000gn/T//cc6c2iiO.s:224    .text.main_app:00000078 $d
/var/folders/5c/srt4fy4j1pd641bjfx75k5000000gn/T//cc6c2iiO.s:278    .bss.process_freq:00000000 process_freq
/var/folders/5c/srt4fy4j1pd641bjfx75k5000000gn/T//cc6c2iiO.s:271    .bss.encoder:00000000 encoder
/var/folders/5c/srt4fy4j1pd641bjfx75k5000000gn/T//cc6c2iiO.s:285    .bss.process_time_:00000000 process_time_
         .ARM.exidx.text.main_app:00000000 $d
/var/folders/5c/srt4fy4j1pd641bjfx75k5000000gn/T//cc6c2iiO.s:235    .text._GLOBAL__sub_I_hardware:00000000 $t
/var/folders/5c/srt4fy4j1pd641bjfx75k5000000gn/T//cc6c2iiO.s:240    .text._GLOBAL__sub_I_hardware:00000000 _GLOBAL__sub_I_hardware
.ARM.exidx.text._GLOBAL__sub_I_hardware:00000000 $d
/var/folders/5c/srt4fy4j1pd641bjfx75k5000000gn/T//cc6c2iiO.s:264    .init_array:00000000 $d
/var/folders/5c/srt4fy4j1pd641bjfx75k5000000gn/T//cc6c2iiO.s:268    .bss.encoder:00000000 $d
/var/folders/5c/srt4fy4j1pd641bjfx75k5000000gn/T//cc6c2iiO.s:275    .bss.process_freq:00000000 $d
/var/folders/5c/srt4fy4j1pd641bjfx75k5000000gn/T//cc6c2iiO.s:282    .bss.process_time_:00000000 $d
/var/folders/5c/srt4fy4j1pd641bjfx75k5000000gn/T//cc6c2iiO.s:289    .bss.process_timer:00000000 $d
/var/folders/5c/srt4fy4j1pd641bjfx75k5000000gn/T//cc6c2iiO.s:296    .bss.hardware:00000000 $d

UNDEFINED SYMBOLS
_ZN8HardwareC1Ev
_ZN5TimerC1Ev
_ZN8Hardware4InitEv
__aeabi_unwind_cpp_pr1
_ZN5Timer7read_usEv
_ZN5Timer5resetEv
_ZN8Hardware8MainUartEv
_ZN8Hardware10GetSensorsEv
_ZN7Encoder4ReadEv
__aeabi_unwind_cpp_pr0
