ARM GAS  /var/folders/5c/srt4fy4j1pd641bjfx75k5000000gn/T//ccXBMqAg.s 			page 1


   1              		.cpu cortex-m4
   2              		.arch armv7e-m
   3              		.fpu fpv4-sp-d16
   4              		.eabi_attribute 27, 1
   5              		.eabi_attribute 28, 1
   6              		.eabi_attribute 20, 1
   7              		.eabi_attribute 21, 1
   8              		.eabi_attribute 23, 3
   9              		.eabi_attribute 24, 1
  10              		.eabi_attribute 25, 1
  11              		.eabi_attribute 26, 1
  12              		.eabi_attribute 30, 1
  13              		.eabi_attribute 34, 1
  14              		.eabi_attribute 18, 4
  15              		.file	"app.cpp"
  16              		.text
  17              	.Ltext0:
  18              		.cfi_sections	.debug_frame
  19              		.file 1 "src/app/app.cpp"
  20              		.section	.text._Z41__static_initialization_and_destruction_0ii,"ax",%progbits
  21              		.align	1
  22              		.syntax unified
  23              		.thumb
  24              		.thumb_func
  26              	_Z41__static_initialization_and_destruction_0ii:
  27              		.fnstart
  28              	.LVL0:
  29              	.LFB265:
   1:src/app/app.cpp **** #include "app.h"
   2:src/app/app.cpp **** 
   3:src/app/app.cpp **** #include "Timer.hpp"
   4:src/app/app.cpp **** #include "config.h"
   5:src/app/app.cpp **** #include "hardware.hpp"
   6:src/app/app.cpp **** 
   7:src/app/app.cpp **** Hardware hardware;
   8:src/app/app.cpp **** Timer process_timer;
   9:src/app/app.cpp **** 
  10:src/app/app.cpp **** uint16_t process_time_;  // us
  11:src/app/app.cpp **** 
  12:src/app/app.cpp **** // cortex-debug
  13:src/app/app.cpp **** int process_freq;
  14:src/app/app.cpp **** int encoder[4];
  15:src/app/app.cpp **** 
  16:src/app/app.cpp **** void TimInterrupt1khz() {
  17:src/app/app.cpp ****       static uint8_t i = 0;
  18:src/app/app.cpp ****       i++;
  19:src/app/app.cpp ****       if (i > 100) {
  20:src/app/app.cpp ****             hardware.led1 = 1 - hardware.led1;
  21:src/app/app.cpp ****             i = 0;
  22:src/app/app.cpp ****       }
  23:src/app/app.cpp ****       hardware.MainUart();
  24:src/app/app.cpp **** }
  25:src/app/app.cpp **** 
  26:src/app/app.cpp **** void setup() {
  27:src/app/app.cpp ****       hardware.Init();
  28:src/app/app.cpp **** }
  29:src/app/app.cpp **** 
ARM GAS  /var/folders/5c/srt4fy4j1pd641bjfx75k5000000gn/T//ccXBMqAg.s 			page 2


  30:src/app/app.cpp **** void main_app() {
  31:src/app/app.cpp ****       while (1) {
  32:src/app/app.cpp ****             process_timer.reset();
  33:src/app/app.cpp ****             hardware.GetSensors();
  34:src/app/app.cpp ****             hardware.encoder.Read();
  35:src/app/app.cpp **** 
  36:src/app/app.cpp ****             // cortex-debug
  37:src/app/app.cpp ****             encoder[0] = hardware.info.Encoder.rps[0];
  38:src/app/app.cpp ****             encoder[1] = hardware.info.Encoder.rps[1];
  39:src/app/app.cpp ****             encoder[2] = hardware.info.Encoder.rps[2];
  40:src/app/app.cpp ****             encoder[3] = hardware.info.Encoder.rps[3];
  41:src/app/app.cpp **** 
  42:src/app/app.cpp ****             //  定周期処理
  43:src/app/app.cpp ****             process_time_ = process_timer.read_us();
  44:src/app/app.cpp ****             if (process_time_ < PERIOD_US) {
  45:src/app/app.cpp ****                   while (process_timer.read_us() < PERIOD_US);
  46:src/app/app.cpp ****             }
  47:src/app/app.cpp ****             process_freq = 1.0f / (process_timer.read_us() * 0.000001f);
  48:src/app/app.cpp ****       }
  49:src/app/app.cpp **** }
  30              		.loc 1 49 1 view -0
  31              		.cfi_startproc
  32              		@ args = 0, pretend = 0, frame = 0
  33              		@ frame_needed = 0, uses_anonymous_args = 0
  34              		.loc 1 49 1 is_stmt 0 view .LVU1
  35 0000 0128     		cmp	r0, #1
  36 0002 00D0     		beq	.L7
  37 0004 7047     		bx	lr
  38              	.L7:
  39              		.loc 1 49 1 discriminator 1 view .LVU2
  40 0006 08B5     		push	{r3, lr}
  41              	.LCFI0:
  42              		.cfi_def_cfa_offset 8
  43              		.cfi_offset 3, -8
  44              		.cfi_offset 14, -4
  45              		.loc 1 49 1 discriminator 1 view .LVU3
  46 0008 4FF6FF73 		movw	r3, #65535
  47 000c 9942     		cmp	r1, r3
  48 000e 00D0     		beq	.L8
  49              	.LVL1:
  50              	.L1:
  51              		.loc 1 49 1 view .LVU4
  52 0010 08BD     		pop	{r3, pc}
  53              	.LVL2:
  54              	.L8:
   7:src/app/app.cpp **** Timer process_timer;
  55              		.loc 1 7 10 view .LVU5
  56 0012 0348     		ldr	r0, .L9
  57              	.LVL3:
   7:src/app/app.cpp **** Timer process_timer;
  58              		.loc 1 7 10 view .LVU6
  59 0014 FFF7FEFF 		bl	_ZN8HardwareC1Ev
  60              	.LVL4:
   8:src/app/app.cpp **** 
  61              		.loc 1 8 7 view .LVU7
  62 0018 0248     		ldr	r0, .L9+4
  63 001a FFF7FEFF 		bl	_ZN5TimerC1Ev
ARM GAS  /var/folders/5c/srt4fy4j1pd641bjfx75k5000000gn/T//ccXBMqAg.s 			page 3


  64              	.LVL5:
  65              		.loc 1 49 1 view .LVU8
  66 001e F7E7     		b	.L1
  67              	.L10:
  68              		.align	2
  69              	.L9:
  70 0020 00000000 		.word	hardware
  71 0024 00000000 		.word	process_timer
  72              		.cfi_endproc
  73              	.LFE265:
  74              		.cantunwind
  75              		.fnend
  77              		.section	.text._ZN10DigitalOutaSEb,"axG",%progbits,_ZN10DigitalOutaSEb,comdat
  78              		.align	1
  79              		.weak	_ZN10DigitalOutaSEb
  80              		.syntax unified
  81              		.thumb
  82              		.thumb_func
  84              	_ZN10DigitalOutaSEb:
  85              		.fnstart
  86              	.LVL6:
  87              	.LFB253:
  88              		.file 2 "Lib/DigitalInOut/DigitalInOut.hpp"
   1:Lib/DigitalInOut/DigitalInOut.hpp **** #ifndef __DIGITALINOUT__
   2:Lib/DigitalInOut/DigitalInOut.hpp **** #define __DIGITALINOUT__
   3:Lib/DigitalInOut/DigitalInOut.hpp **** 
   4:Lib/DigitalInOut/DigitalInOut.hpp **** #include "main.h"
   5:Lib/DigitalInOut/DigitalInOut.hpp **** 
   6:Lib/DigitalInOut/DigitalInOut.hpp **** #ifdef __cplusplus
   7:Lib/DigitalInOut/DigitalInOut.hpp **** 
   8:Lib/DigitalInOut/DigitalInOut.hpp **** extern "C" {
   9:Lib/DigitalInOut/DigitalInOut.hpp **** 
  10:Lib/DigitalInOut/DigitalInOut.hpp **** class DigitalOut {
  11:Lib/DigitalInOut/DigitalInOut.hpp ****      public:
  12:Lib/DigitalInOut/DigitalInOut.hpp ****       DigitalOut(GPIO_TypeDef *port, uint16_t pin) : port(port), pin(pin) {
  13:Lib/DigitalInOut/DigitalInOut.hpp ****             HAL_GPIO_WritePin(port, pin, GPIO_PIN_RESET);
  14:Lib/DigitalInOut/DigitalInOut.hpp ****       }
  15:Lib/DigitalInOut/DigitalInOut.hpp ****       void write(bool value) {
  16:Lib/DigitalInOut/DigitalInOut.hpp ****             HAL_GPIO_WritePin(port, pin, value ? GPIO_PIN_SET : GPIO_PIN_RESET);
  17:Lib/DigitalInOut/DigitalInOut.hpp ****       }
  18:Lib/DigitalInOut/DigitalInOut.hpp **** 
  19:Lib/DigitalInOut/DigitalInOut.hpp ****       void operator=(bool value) {
  89              		.loc 2 19 12 is_stmt 1 view -0
  90              		.cfi_startproc
  91              		@ args = 0, pretend = 0, frame = 0
  92              		@ frame_needed = 0, uses_anonymous_args = 0
  93              		.loc 2 19 12 is_stmt 0 view .LVU10
  94 0000 08B5     		push	{r3, lr}
  95              		.save {r3, lr}
  96              	.LCFI1:
  97              		.cfi_def_cfa_offset 8
  98              		.cfi_offset 3, -8
  99              		.cfi_offset 14, -4
 100 0002 0346     		mov	r3, r0
  20:Lib/DigitalInOut/DigitalInOut.hpp ****             HAL_GPIO_WritePin(port, pin, value ? GPIO_PIN_SET : GPIO_PIN_RESET);
 101              		.loc 2 20 13 is_stmt 1 view .LVU11
 102              		.loc 2 20 30 is_stmt 0 view .LVU12
ARM GAS  /var/folders/5c/srt4fy4j1pd641bjfx75k5000000gn/T//ccXBMqAg.s 			page 4


 103 0004 0068     		ldr	r0, [r0]
 104              	.LVL7:
 105              		.loc 2 20 30 view .LVU13
 106 0006 9B88     		ldrh	r3, [r3, #4]
 107              	.LVL8:
 108              		.loc 2 20 30 view .LVU14
 109 0008 21B1     		cbz	r1, .L13
 110 000a 0122     		movs	r2, #1
 111              	.L12:
 112              		.loc 2 20 30 discriminator 4 view .LVU15
 113 000c 1946     		mov	r1, r3
 114              	.LVL9:
 115              		.loc 2 20 30 discriminator 4 view .LVU16
 116 000e FFF7FEFF 		bl	HAL_GPIO_WritePin
 117              	.LVL10:
  21:Lib/DigitalInOut/DigitalInOut.hpp ****       }
 118              		.loc 2 21 7 discriminator 4 view .LVU17
 119 0012 08BD     		pop	{r3, pc}
 120              	.LVL11:
 121              	.L13:
  20:Lib/DigitalInOut/DigitalInOut.hpp ****             HAL_GPIO_WritePin(port, pin, value ? GPIO_PIN_SET : GPIO_PIN_RESET);
 122              		.loc 2 20 30 view .LVU18
 123 0014 0022     		movs	r2, #0
 124 0016 F9E7     		b	.L12
 125              		.cfi_endproc
 126              	.LFE253:
 127              		.fnend
 129              		.section	.text.TimInterrupt1khz,"ax",%progbits
 130              		.align	1
 131              		.global	TimInterrupt1khz
 132              		.syntax unified
 133              		.thumb
 134              		.thumb_func
 136              	TimInterrupt1khz:
 137              		.fnstart
 138              	.LFB262:
  16:src/app/app.cpp ****       static uint8_t i = 0;
 139              		.loc 1 16 25 is_stmt 1 view -0
 140              		.cfi_startproc
 141              		@ args = 0, pretend = 0, frame = 0
 142              		@ frame_needed = 0, uses_anonymous_args = 0
 143 0000 10B5     		push	{r4, lr}
 144              		.save {r4, lr}
 145              	.LCFI2:
 146              		.cfi_def_cfa_offset 8
 147              		.cfi_offset 4, -8
 148              		.cfi_offset 14, -4
  17:src/app/app.cpp ****       i++;
 149              		.loc 1 17 7 view .LVU20
  18:src/app/app.cpp ****       if (i > 100) {
 150              		.loc 1 18 7 view .LVU21
  18:src/app/app.cpp ****       if (i > 100) {
 151              		.loc 1 18 8 is_stmt 0 view .LVU22
 152 0002 0E4A     		ldr	r2, .L19
 153 0004 1378     		ldrb	r3, [r2]	@ zero_extendqisi2
 154 0006 0133     		adds	r3, r3, #1
 155 0008 DBB2     		uxtb	r3, r3
ARM GAS  /var/folders/5c/srt4fy4j1pd641bjfx75k5000000gn/T//ccXBMqAg.s 			page 5


 156 000a 1370     		strb	r3, [r2]
  19:src/app/app.cpp ****             hardware.led1 = 1 - hardware.led1;
 157              		.loc 1 19 7 is_stmt 1 view .LVU23
 158 000c 642B     		cmp	r3, #100
 159 000e 03D8     		bhi	.L18
 160              	.L16:
  23:src/app/app.cpp **** }
 161              		.loc 1 23 7 view .LVU24
  23:src/app/app.cpp **** }
 162              		.loc 1 23 24 is_stmt 0 view .LVU25
 163 0010 0B48     		ldr	r0, .L19+4
 164 0012 FFF7FEFF 		bl	_ZN8Hardware8MainUartEv
 165              	.LVL12:
  24:src/app/app.cpp **** 
 166              		.loc 1 24 1 view .LVU26
 167 0016 10BD     		pop	{r4, pc}
 168              	.L18:
  20:src/app/app.cpp ****             i = 0;
 169              		.loc 1 20 13 is_stmt 1 view .LVU27
 170              	.LVL13:
 171              	.LBB4:
 172              	.LBI4:
  22:Lib/DigitalInOut/DigitalInOut.hpp **** 
  23:Lib/DigitalInOut/DigitalInOut.hpp ****       operator bool() {
 173              		.loc 2 23 7 view .LVU28
 174              	.LBB5:
  24:Lib/DigitalInOut/DigitalInOut.hpp ****             return HAL_GPIO_ReadPin(port, pin) == GPIO_PIN_SET;
 175              		.loc 2 24 13 view .LVU29
 176              		.loc 2 24 36 is_stmt 0 view .LVU30
 177 0018 094B     		ldr	r3, .L19+4
 178 001a 1C46     		mov	r4, r3
 179 001c 198B     		ldrh	r1, [r3, #24]
 180 001e 54F8140F 		ldr	r0, [r4, #20]!
 181 0022 FFF7FEFF 		bl	HAL_GPIO_ReadPin
 182              	.LVL14:
 183              		.loc 2 24 36 view .LVU31
 184              	.LBE5:
 185              	.LBE4:
  20:src/app/app.cpp ****             i = 0;
 186              		.loc 1 20 27 view .LVU32
 187 0026 411E     		subs	r1, r0, #1
 188 0028 18BF     		it	ne
 189 002a 0121     		movne	r1, #1
 190 002c 2046     		mov	r0, r4
 191 002e FFF7FEFF 		bl	_ZN10DigitalOutaSEb
 192              	.LVL15:
  21:src/app/app.cpp ****       }
 193              		.loc 1 21 13 is_stmt 1 view .LVU33
  21:src/app/app.cpp ****       }
 194              		.loc 1 21 15 is_stmt 0 view .LVU34
 195 0032 024B     		ldr	r3, .L19
 196 0034 0022     		movs	r2, #0
 197 0036 1A70     		strb	r2, [r3]
 198 0038 EAE7     		b	.L16
 199              	.L20:
 200 003a 00BF     		.align	2
 201              	.L19:
ARM GAS  /var/folders/5c/srt4fy4j1pd641bjfx75k5000000gn/T//ccXBMqAg.s 			page 6


 202 003c 00000000 		.word	_ZZ16TimInterrupt1khzE1i
 203 0040 00000000 		.word	hardware
 204              		.cfi_endproc
 205              	.LFE262:
 206              		.fnend
 208              		.section	.text.setup,"ax",%progbits
 209              		.align	1
 210              		.global	setup
 211              		.syntax unified
 212              		.thumb
 213              		.thumb_func
 215              	setup:
 216              		.fnstart
 217              	.LFB263:
  26:src/app/app.cpp ****       hardware.Init();
 218              		.loc 1 26 14 is_stmt 1 view -0
 219              		.cfi_startproc
 220              		@ args = 0, pretend = 0, frame = 0
 221              		@ frame_needed = 0, uses_anonymous_args = 0
 222 0000 08B5     		push	{r3, lr}
 223              		.save {r3, lr}
 224              	.LCFI3:
 225              		.cfi_def_cfa_offset 8
 226              		.cfi_offset 3, -8
 227              		.cfi_offset 14, -4
  27:src/app/app.cpp **** }
 228              		.loc 1 27 7 view .LVU36
  27:src/app/app.cpp **** }
 229              		.loc 1 27 20 is_stmt 0 view .LVU37
 230 0002 0248     		ldr	r0, .L23
 231 0004 FFF7FEFF 		bl	_ZN8Hardware4InitEv
 232              	.LVL16:
  28:src/app/app.cpp **** 
 233              		.loc 1 28 1 view .LVU38
 234 0008 08BD     		pop	{r3, pc}
 235              	.L24:
 236 000a 00BF     		.align	2
 237              	.L23:
 238 000c 00000000 		.word	hardware
 239              		.cfi_endproc
 240              	.LFE263:
 241              		.fnend
 243              		.section	.text.main_app,"ax",%progbits
 244              		.align	1
 245              		.global	main_app
 246              		.syntax unified
 247              		.thumb
 248              		.thumb_func
 250              	main_app:
 251              		.fnstart
 252              	.LFB264:
  30:src/app/app.cpp ****       while (1) {
 253              		.loc 1 30 17 is_stmt 1 view -0
 254              		.cfi_startproc
 255              		@ args = 0, pretend = 0, frame = 0
 256              		@ frame_needed = 0, uses_anonymous_args = 0
 257 0000 38B5     		push	{r3, r4, r5, lr}
ARM GAS  /var/folders/5c/srt4fy4j1pd641bjfx75k5000000gn/T//ccXBMqAg.s 			page 7


 258              		.save {r3, r4, r5, lr}
 259              	.LCFI4:
 260              		.cfi_def_cfa_offset 16
 261              		.cfi_offset 3, -16
 262              		.cfi_offset 4, -12
 263              		.cfi_offset 5, -8
 264              		.cfi_offset 14, -4
 265 0002 13E0     		b	.L28
 266              	.L26:
  47:src/app/app.cpp ****       }
 267              		.loc 1 47 13 view .LVU40
  47:src/app/app.cpp ****       }
 268              		.loc 1 47 57 is_stmt 0 view .LVU41
 269 0004 1B48     		ldr	r0, .L30
 270 0006 FFF7FEFF 		bl	_ZN5Timer7read_usEv
 271              	.LVL17:
 272 000a 07EE900A 		vmov	s15, r0	@ int
  47:src/app/app.cpp ****       }
 273              		.loc 1 47 60 view .LVU42
 274 000e F8EE677A 		vcvt.f32.u32	s15, s15
 275 0012 9FED197A 		vldr.32	s14, .L30+4
 276 0016 67EE877A 		vmul.f32	s15, s15, s14
  47:src/app/app.cpp ****       }
 277              		.loc 1 47 33 view .LVU43
 278 001a F7EE006A 		vmov.f32	s13, #1.0e+0
 279 001e 86EEA77A 		vdiv.f32	s14, s13, s15
  47:src/app/app.cpp ****       }
 280              		.loc 1 47 26 view .LVU44
 281 0022 BDEEC77A 		vcvt.s32.f32	s14, s14
 282 0026 154B     		ldr	r3, .L30+8
 283 0028 83ED007A 		vstr.32	s14, [r3]	@ int
  31:src/app/app.cpp ****             process_timer.reset();
 284              		.loc 1 31 7 is_stmt 1 view .LVU45
 285              	.L28:
  31:src/app/app.cpp ****             process_timer.reset();
 286              		.loc 1 31 7 view .LVU46
  32:src/app/app.cpp ****             hardware.GetSensors();
 287              		.loc 1 32 13 view .LVU47
  32:src/app/app.cpp ****             hardware.GetSensors();
 288              		.loc 1 32 32 is_stmt 0 view .LVU48
 289 002c 114D     		ldr	r5, .L30
 290 002e 2846     		mov	r0, r5
 291 0030 FFF7FEFF 		bl	_ZN5Timer5resetEv
 292              	.LVL18:
  33:src/app/app.cpp ****             hardware.encoder.Read();
 293              		.loc 1 33 13 is_stmt 1 view .LVU49
  33:src/app/app.cpp ****             hardware.encoder.Read();
 294              		.loc 1 33 32 is_stmt 0 view .LVU50
 295 0034 124C     		ldr	r4, .L30+12
 296 0036 2046     		mov	r0, r4
 297 0038 FFF7FEFF 		bl	_ZN8Hardware10GetSensorsEv
 298              	.LVL19:
  34:src/app/app.cpp **** 
 299              		.loc 1 34 13 is_stmt 1 view .LVU51
  34:src/app/app.cpp **** 
 300              		.loc 1 34 34 is_stmt 0 view .LVU52
 301 003c 04F17800 		add	r0, r4, #120
ARM GAS  /var/folders/5c/srt4fy4j1pd641bjfx75k5000000gn/T//ccXBMqAg.s 			page 8


 302 0040 FFF7FEFF 		bl	_ZN7Encoder4ReadEv
 303              	.LVL20:
  37:src/app/app.cpp ****             encoder[1] = hardware.info.Encoder.rps[1];
 304              		.loc 1 37 13 is_stmt 1 view .LVU53
  37:src/app/app.cpp ****             encoder[1] = hardware.info.Encoder.rps[1];
 305              		.loc 1 37 53 is_stmt 0 view .LVU54
 306 0044 2279     		ldrb	r2, [r4, #4]	@ zero_extendqisi2
  37:src/app/app.cpp ****             encoder[1] = hardware.info.Encoder.rps[1];
 307              		.loc 1 37 24 view .LVU55
 308 0046 0F4B     		ldr	r3, .L30+16
 309 0048 1A60     		str	r2, [r3]
  38:src/app/app.cpp ****             encoder[2] = hardware.info.Encoder.rps[2];
 310              		.loc 1 38 13 is_stmt 1 view .LVU56
  38:src/app/app.cpp ****             encoder[2] = hardware.info.Encoder.rps[2];
 311              		.loc 1 38 53 is_stmt 0 view .LVU57
 312 004a 6279     		ldrb	r2, [r4, #5]	@ zero_extendqisi2
  38:src/app/app.cpp ****             encoder[2] = hardware.info.Encoder.rps[2];
 313              		.loc 1 38 24 view .LVU58
 314 004c 5A60     		str	r2, [r3, #4]
  39:src/app/app.cpp ****             encoder[3] = hardware.info.Encoder.rps[3];
 315              		.loc 1 39 13 is_stmt 1 view .LVU59
  39:src/app/app.cpp ****             encoder[3] = hardware.info.Encoder.rps[3];
 316              		.loc 1 39 53 is_stmt 0 view .LVU60
 317 004e A279     		ldrb	r2, [r4, #6]	@ zero_extendqisi2
  39:src/app/app.cpp ****             encoder[3] = hardware.info.Encoder.rps[3];
 318              		.loc 1 39 24 view .LVU61
 319 0050 9A60     		str	r2, [r3, #8]
  40:src/app/app.cpp **** 
 320              		.loc 1 40 13 is_stmt 1 view .LVU62
  40:src/app/app.cpp **** 
 321              		.loc 1 40 53 is_stmt 0 view .LVU63
 322 0052 E279     		ldrb	r2, [r4, #7]	@ zero_extendqisi2
  40:src/app/app.cpp **** 
 323              		.loc 1 40 24 view .LVU64
 324 0054 DA60     		str	r2, [r3, #12]
  43:src/app/app.cpp ****             if (process_time_ < PERIOD_US) {
 325              		.loc 1 43 13 is_stmt 1 view .LVU65
  43:src/app/app.cpp ****             if (process_time_ < PERIOD_US) {
 326              		.loc 1 43 50 is_stmt 0 view .LVU66
 327 0056 2846     		mov	r0, r5
 328 0058 FFF7FEFF 		bl	_ZN5Timer7read_usEv
 329              	.LVL21:
  43:src/app/app.cpp ****             if (process_time_ < PERIOD_US) {
 330              		.loc 1 43 27 view .LVU67
 331 005c 80B2     		uxth	r0, r0
 332 005e 0A4B     		ldr	r3, .L30+20
 333 0060 1880     		strh	r0, [r3]	@ movhi
  44:src/app/app.cpp ****                   while (process_timer.read_us() < PERIOD_US);
 334              		.loc 1 44 13 is_stmt 1 view .LVU68
 335 0062 6328     		cmp	r0, #99
 336 0064 CED8     		bhi	.L26
 337              	.L27:
  45:src/app/app.cpp ****             }
 338              		.loc 1 45 50 discriminator 1 view .LVU69
  45:src/app/app.cpp ****             }
 339              		.loc 1 45 47 is_stmt 0 discriminator 1 view .LVU70
 340 0066 0348     		ldr	r0, .L30
ARM GAS  /var/folders/5c/srt4fy4j1pd641bjfx75k5000000gn/T//ccXBMqAg.s 			page 9


 341 0068 FFF7FEFF 		bl	_ZN5Timer7read_usEv
 342              	.LVL22:
  45:src/app/app.cpp ****             }
 343              		.loc 1 45 50 discriminator 1 view .LVU71
 344 006c 6328     		cmp	r0, #99
 345 006e FAD9     		bls	.L27
 346 0070 C8E7     		b	.L26
 347              	.L31:
 348 0072 00BF     		.align	2
 349              	.L30:
 350 0074 00000000 		.word	process_timer
 351 0078 BD378635 		.word	897988541
 352 007c 00000000 		.word	process_freq
 353 0080 00000000 		.word	hardware
 354 0084 00000000 		.word	encoder
 355 0088 00000000 		.word	process_time_
 356              		.cfi_endproc
 357              	.LFE264:
 358              		.fnend
 360              		.section	.text._GLOBAL__sub_I_hardware,"ax",%progbits
 361              		.align	1
 362              		.syntax unified
 363              		.thumb
 364              		.thumb_func
 366              	_GLOBAL__sub_I_hardware:
 367              		.fnstart
 368              	.LFB266:
 369              		.loc 1 49 1 is_stmt 1 view -0
 370              		.cfi_startproc
 371              		@ args = 0, pretend = 0, frame = 0
 372              		@ frame_needed = 0, uses_anonymous_args = 0
 373 0000 08B5     		push	{r3, lr}
 374              	.LCFI5:
 375              		.cfi_def_cfa_offset 8
 376              		.cfi_offset 3, -8
 377              		.cfi_offset 14, -4
 378              		.loc 1 49 1 is_stmt 0 view .LVU73
 379 0002 4FF6FF71 		movw	r1, #65535
 380 0006 0120     		movs	r0, #1
 381 0008 FFF7FEFF 		bl	_Z41__static_initialization_and_destruction_0ii
 382              	.LVL23:
 383 000c 08BD     		pop	{r3, pc}
 384              		.cfi_endproc
 385              	.LFE266:
 386              		.cantunwind
 387              		.fnend
 389              		.section	.init_array,"aw",%init_array
 390              		.align	2
 391 0000 00000000 		.word	_GLOBAL__sub_I_hardware(target1)
 392              		.section	.bss._ZZ16TimInterrupt1khzE1i,"aw",%nobits
 395              	_ZZ16TimInterrupt1khzE1i:
 396 0000 00       		.space	1
 397              		.global	encoder
 398              		.section	.bss.encoder,"aw",%nobits
 399              		.align	2
 402              	encoder:
 403 0000 00000000 		.space	16
ARM GAS  /var/folders/5c/srt4fy4j1pd641bjfx75k5000000gn/T//ccXBMqAg.s 			page 10


 403      00000000 
 403      00000000 
 403      00000000 
 404              		.global	process_freq
 405              		.section	.bss.process_freq,"aw",%nobits
 406              		.align	2
 409              	process_freq:
 410 0000 00000000 		.space	4
 411              		.global	process_time_
 412              		.section	.bss.process_time_,"aw",%nobits
 413              		.align	1
 416              	process_time_:
 417 0000 0000     		.space	2
 418              		.global	process_timer
 419              		.section	.bss.process_timer,"aw",%nobits
 420              		.align	2
 423              	process_timer:
 424 0000 00000000 		.space	4
 425              		.global	hardware
 426              		.section	.bss.hardware,"aw",%nobits
 427              		.align	3
 430              	hardware:
 431 0000 00000000 		.space	3504
 431      00000000 
 431      00000000 
 431      00000000 
 431      00000000 
 432              		.text
 433              	.Letext0:
 434              		.file 3 "/opt/ST/STM32CubeCLT_1.16.0/GNU-tools-for-STM32/arm-none-eabi/include/machine/_default_ty
 435              		.file 4 "/opt/ST/STM32CubeCLT_1.16.0/GNU-tools-for-STM32/arm-none-eabi/include/sys/_stdint.h"
 436              		.file 5 "Drivers/CMSIS/Device/ST/STM32F4xx/Include/stm32f446xx.h"
 437              		.file 6 "Drivers/CMSIS/Device/ST/STM32F4xx/Include/stm32f4xx.h"
 438              		.file 7 "/opt/ST/STM32CubeCLT_1.16.0/GNU-tools-for-STM32/lib/gcc/arm-none-eabi/12.3.1/include/stdd
 439              		.file 8 "Drivers/STM32F4xx_HAL_Driver/Inc/stm32f4xx_hal_def.h"
 440              		.file 9 "Drivers/STM32F4xx_HAL_Driver/Inc/stm32f4xx_hal_gpio.h"
 441              		.file 10 "Drivers/STM32F4xx_HAL_Driver/Inc/stm32f4xx_hal_dma.h"
 442              		.file 11 "Drivers/STM32F4xx_HAL_Driver/Inc/stm32f4xx_hal_uart.h"
 443              		.file 12 "Drivers/STM32F4xx_HAL_Driver/Inc/stm32f4xx_hal.h"
 444              		.file 13 "Lib/Timer/Timer.hpp"
 445              		.file 14 "/opt/ST/STM32CubeCLT_1.16.0/GNU-tools-for-STM32/arm-none-eabi/include/sys/_types.h"
 446              		.file 15 "/opt/ST/STM32CubeCLT_1.16.0/GNU-tools-for-STM32/arm-none-eabi/include/sys/reent.h"
 447              		.file 16 "/opt/ST/STM32CubeCLT_1.16.0/GNU-tools-for-STM32/arm-none-eabi/include/sys/lock.h"
 448              		.file 17 "/opt/ST/STM32CubeCLT_1.16.0/GNU-tools-for-STM32/arm-none-eabi/include/stdio.h"
 449              		.file 18 "Lib/BufferedSerial/BufferedSerial.hpp"
 450              		.file 19 "/opt/ST/STM32CubeCLT_1.16.0/GNU-tools-for-STM32/arm-none-eabi/include/c++/12.3.1/cstdio"
 451              		.file 20 "/opt/ST/STM32CubeCLT_1.16.0/GNU-tools-for-STM32/arm-none-eabi/include/c++/12.3.1/arm-non
 452              		.file 21 "Lib/MovingAve/MovingAve.hpp"
 453              		.file 22 "src/unit/encoder/encoder.hpp"
 454              		.file 23 "src/unit/hardware/hardware.hpp"
ARM GAS  /var/folders/5c/srt4fy4j1pd641bjfx75k5000000gn/T//ccXBMqAg.s 			page 11


DEFINED SYMBOLS
                            *ABS*:00000000 app.cpp
/var/folders/5c/srt4fy4j1pd641bjfx75k5000000gn/T//ccXBMqAg.s:21     .text._Z41__static_initialization_and_destruction_0ii:00000000 $t
/var/folders/5c/srt4fy4j1pd641bjfx75k5000000gn/T//ccXBMqAg.s:26     .text._Z41__static_initialization_and_destruction_0ii:00000000 _Z41__static_initialization_and_destruction_0ii
/var/folders/5c/srt4fy4j1pd641bjfx75k5000000gn/T//ccXBMqAg.s:70     .text._Z41__static_initialization_and_destruction_0ii:00000020 $d
/var/folders/5c/srt4fy4j1pd641bjfx75k5000000gn/T//ccXBMqAg.s:430    .bss.hardware:00000000 hardware
/var/folders/5c/srt4fy4j1pd641bjfx75k5000000gn/T//ccXBMqAg.s:423    .bss.process_timer:00000000 process_timer
.ARM.exidx.text._Z41__static_initialization_and_destruction_0ii:00000000 $d
/var/folders/5c/srt4fy4j1pd641bjfx75k5000000gn/T//ccXBMqAg.s:78     .text._ZN10DigitalOutaSEb:00000000 $t
/var/folders/5c/srt4fy4j1pd641bjfx75k5000000gn/T//ccXBMqAg.s:84     .text._ZN10DigitalOutaSEb:00000000 _ZN10DigitalOutaSEb
.ARM.extab.text._ZN10DigitalOutaSEb:00000000 $d
.ARM.exidx.text._ZN10DigitalOutaSEb:00000000 $d
/var/folders/5c/srt4fy4j1pd641bjfx75k5000000gn/T//ccXBMqAg.s:130    .text.TimInterrupt1khz:00000000 $t
/var/folders/5c/srt4fy4j1pd641bjfx75k5000000gn/T//ccXBMqAg.s:136    .text.TimInterrupt1khz:00000000 TimInterrupt1khz
/var/folders/5c/srt4fy4j1pd641bjfx75k5000000gn/T//ccXBMqAg.s:202    .text.TimInterrupt1khz:0000003c $d
/var/folders/5c/srt4fy4j1pd641bjfx75k5000000gn/T//ccXBMqAg.s:395    .bss._ZZ16TimInterrupt1khzE1i:00000000 _ZZ16TimInterrupt1khzE1i
 .ARM.exidx.text.TimInterrupt1khz:00000000 $d
/var/folders/5c/srt4fy4j1pd641bjfx75k5000000gn/T//ccXBMqAg.s:209    .text.setup:00000000 $t
/var/folders/5c/srt4fy4j1pd641bjfx75k5000000gn/T//ccXBMqAg.s:215    .text.setup:00000000 setup
/var/folders/5c/srt4fy4j1pd641bjfx75k5000000gn/T//ccXBMqAg.s:238    .text.setup:0000000c $d
            .ARM.extab.text.setup:00000000 $d
            .ARM.exidx.text.setup:00000000 $d
/var/folders/5c/srt4fy4j1pd641bjfx75k5000000gn/T//ccXBMqAg.s:244    .text.main_app:00000000 $t
/var/folders/5c/srt4fy4j1pd641bjfx75k5000000gn/T//ccXBMqAg.s:250    .text.main_app:00000000 main_app
/var/folders/5c/srt4fy4j1pd641bjfx75k5000000gn/T//ccXBMqAg.s:350    .text.main_app:00000074 $d
/var/folders/5c/srt4fy4j1pd641bjfx75k5000000gn/T//ccXBMqAg.s:409    .bss.process_freq:00000000 process_freq
/var/folders/5c/srt4fy4j1pd641bjfx75k5000000gn/T//ccXBMqAg.s:402    .bss.encoder:00000000 encoder
/var/folders/5c/srt4fy4j1pd641bjfx75k5000000gn/T//ccXBMqAg.s:416    .bss.process_time_:00000000 process_time_
         .ARM.exidx.text.main_app:00000000 $d
/var/folders/5c/srt4fy4j1pd641bjfx75k5000000gn/T//ccXBMqAg.s:361    .text._GLOBAL__sub_I_hardware:00000000 $t
/var/folders/5c/srt4fy4j1pd641bjfx75k5000000gn/T//ccXBMqAg.s:366    .text._GLOBAL__sub_I_hardware:00000000 _GLOBAL__sub_I_hardware
.ARM.exidx.text._GLOBAL__sub_I_hardware:00000000 $d
/var/folders/5c/srt4fy4j1pd641bjfx75k5000000gn/T//ccXBMqAg.s:390    .init_array:00000000 $d
/var/folders/5c/srt4fy4j1pd641bjfx75k5000000gn/T//ccXBMqAg.s:396    .bss._ZZ16TimInterrupt1khzE1i:00000000 $d
/var/folders/5c/srt4fy4j1pd641bjfx75k5000000gn/T//ccXBMqAg.s:399    .bss.encoder:00000000 $d
/var/folders/5c/srt4fy4j1pd641bjfx75k5000000gn/T//ccXBMqAg.s:406    .bss.process_freq:00000000 $d
/var/folders/5c/srt4fy4j1pd641bjfx75k5000000gn/T//ccXBMqAg.s:413    .bss.process_time_:00000000 $d
/var/folders/5c/srt4fy4j1pd641bjfx75k5000000gn/T//ccXBMqAg.s:420    .bss.process_timer:00000000 $d
/var/folders/5c/srt4fy4j1pd641bjfx75k5000000gn/T//ccXBMqAg.s:427    .bss.hardware:00000000 $d

UNDEFINED SYMBOLS
_ZN8HardwareC1Ev
_ZN5TimerC1Ev
HAL_GPIO_WritePin
__aeabi_unwind_cpp_pr1
_ZN8Hardware8MainUartEv
HAL_GPIO_ReadPin
__aeabi_unwind_cpp_pr0
_ZN8Hardware4InitEv
_ZN5Timer7read_usEv
_ZN5Timer5resetEv
_ZN8Hardware10GetSensorsEv
_ZN7Encoder4ReadEv
