ARM GAS  /var/folders/5c/srt4fy4j1pd641bjfx75k5000000gn/T//ccQAUPth.s 			page 1


   1              		.cpu cortex-m4
   2              		.arch armv7e-m
   3              		.fpu fpv4-sp-d16
   4              		.eabi_attribute 27, 1
   5              		.eabi_attribute 28, 1
   6              		.eabi_attribute 20, 1
   7              		.eabi_attribute 21, 1
   8              		.eabi_attribute 23, 3
   9              		.eabi_attribute 24, 1
  10              		.eabi_attribute 25, 1
  11              		.eabi_attribute 26, 1
  12              		.eabi_attribute 30, 1
  13              		.eabi_attribute 34, 1
  14              		.eabi_attribute 18, 4
  15              		.file	"app.cpp"
  16              		.text
  17              	.Ltext0:
  18              		.cfi_sections	.debug_frame
  19              		.file 1 "src/app/app.cpp"
  20              		.section	.text._Z41__static_initialization_and_destruction_0ii,"ax",%progbits
  21              		.align	1
  22              		.syntax unified
  23              		.thumb
  24              		.thumb_func
  26              	_Z41__static_initialization_and_destruction_0ii:
  27              		.fnstart
  28              	.LVL0:
  29              	.LFB265:
   1:src/app/app.cpp **** #include "app.h"
   2:src/app/app.cpp **** 
   3:src/app/app.cpp **** #include "Timer.hpp"
   4:src/app/app.cpp **** #include "config.h"
   5:src/app/app.cpp **** #include "hardware.hpp"
   6:src/app/app.cpp **** 
   7:src/app/app.cpp **** Hardware hardware;
   8:src/app/app.cpp **** Timer process_timer;
   9:src/app/app.cpp **** 
  10:src/app/app.cpp **** uint16_t process_time_;  // us
  11:src/app/app.cpp **** 
  12:src/app/app.cpp **** // cortex-debug
  13:src/app/app.cpp **** int process_freq;
  14:src/app/app.cpp **** int encoder[4];
  15:src/app/app.cpp **** 
  16:src/app/app.cpp **** int16_t dir;
  17:src/app/app.cpp **** uint8_t max_interval;
  18:src/app/app.cpp **** bool is_half_out;
  19:src/app/app.cpp **** bool is_on_line;
  20:src/app/app.cpp **** bool is_leftside_white;
  21:src/app/app.cpp **** bool is_rightside_white;
  22:src/app/app.cpp **** 
  23:src/app/app.cpp **** void TimInterrupt5khz() {
  24:src/app/app.cpp **** }
  25:src/app/app.cpp **** 
  26:src/app/app.cpp **** void setup() {
  27:src/app/app.cpp ****       hardware.Init();
  28:src/app/app.cpp ****       hardware.line.SetTh();
  29:src/app/app.cpp **** }
ARM GAS  /var/folders/5c/srt4fy4j1pd641bjfx75k5000000gn/T//ccQAUPth.s 			page 2


  30:src/app/app.cpp **** 
  31:src/app/app.cpp **** void main_app() {
  32:src/app/app.cpp ****       while (1) {
  33:src/app/app.cpp ****             process_timer.reset();
  34:src/app/app.cpp ****             hardware.GetSensors();
  35:src/app/app.cpp ****             hardware.encoder.Read();
  36:src/app/app.cpp ****             hardware.MainUart();
  37:src/app/app.cpp ****             if (hardware.info.Line.do_read == 1) {
  38:src/app/app.cpp ****                   hardware.line.OnLed();
  39:src/app/app.cpp ****                   hardware.line.Read();
  40:src/app/app.cpp ****                   hardware.line.Compute();
  41:src/app/app.cpp ****             } else {
  42:src/app/app.cpp ****                   hardware.line.OffLed();
  43:src/app/app.cpp ****             }
  44:src/app/app.cpp **** 
  45:src/app/app.cpp ****             // cortex-debug
  46:src/app/app.cpp ****             encoder[0] = hardware.info.Encoder.rps[0];
  47:src/app/app.cpp ****             encoder[1] = hardware.info.Encoder.rps[1];
  48:src/app/app.cpp ****             encoder[2] = hardware.info.Encoder.rps[2];
  49:src/app/app.cpp ****             encoder[3] = hardware.info.Encoder.rps[3];
  50:src/app/app.cpp **** 
  51:src/app/app.cpp ****             dir = hardware.info.Line.dir;
  52:src/app/app.cpp ****             is_half_out = hardware.info.Line.is_half_out;
  53:src/app/app.cpp ****             is_leftside_white = hardware.info.Line.is_leftside_white;
  54:src/app/app.cpp ****             is_rightside_white = hardware.info.Line.is_rightside_white;
  55:src/app/app.cpp ****             is_on_line = hardware.info.Line.is_on_line;
  56:src/app/app.cpp ****             max_interval = hardware.info.Line.max_interval;
  57:src/app/app.cpp **** 
  58:src/app/app.cpp ****             //  定周期処理
  59:src/app/app.cpp ****             process_time_ = process_timer.read_us();
  60:src/app/app.cpp ****             if (process_time_ < PERIOD_US) {
  61:src/app/app.cpp ****                   hardware.led1 = 1;
  62:src/app/app.cpp ****                   while (process_timer.read_us() < PERIOD_US);
  63:src/app/app.cpp ****                   hardware.led1 = 0;
  64:src/app/app.cpp ****             }
  65:src/app/app.cpp ****             process_freq = 1.0f / (process_timer.read_us() * 0.000001f);
  66:src/app/app.cpp ****       }
  67:src/app/app.cpp **** }
  30              		.loc 1 67 1 view -0
  31              		.cfi_startproc
  32              		@ args = 0, pretend = 0, frame = 0
  33              		@ frame_needed = 0, uses_anonymous_args = 0
  34              		.loc 1 67 1 is_stmt 0 view .LVU1
  35 0000 0128     		cmp	r0, #1
  36 0002 00D0     		beq	.L7
  37 0004 7047     		bx	lr
  38              	.L7:
  39              		.loc 1 67 1 discriminator 1 view .LVU2
  40 0006 08B5     		push	{r3, lr}
  41              	.LCFI0:
  42              		.cfi_def_cfa_offset 8
  43              		.cfi_offset 3, -8
  44              		.cfi_offset 14, -4
  45              		.loc 1 67 1 discriminator 1 view .LVU3
  46 0008 4FF6FF73 		movw	r3, #65535
  47 000c 9942     		cmp	r1, r3
  48 000e 00D0     		beq	.L8
ARM GAS  /var/folders/5c/srt4fy4j1pd641bjfx75k5000000gn/T//ccQAUPth.s 			page 3


  49              	.LVL1:
  50              	.L1:
  51              		.loc 1 67 1 view .LVU4
  52 0010 08BD     		pop	{r3, pc}
  53              	.LVL2:
  54              	.L8:
   7:src/app/app.cpp **** Timer process_timer;
  55              		.loc 1 7 10 view .LVU5
  56 0012 0348     		ldr	r0, .L9
  57              	.LVL3:
   7:src/app/app.cpp **** Timer process_timer;
  58              		.loc 1 7 10 view .LVU6
  59 0014 FFF7FEFF 		bl	_ZN8HardwareC1Ev
  60              	.LVL4:
   8:src/app/app.cpp **** 
  61              		.loc 1 8 7 view .LVU7
  62 0018 0248     		ldr	r0, .L9+4
  63 001a FFF7FEFF 		bl	_ZN5TimerC1Ev
  64              	.LVL5:
  65              		.loc 1 67 1 view .LVU8
  66 001e F7E7     		b	.L1
  67              	.L10:
  68              		.align	2
  69              	.L9:
  70 0020 00000000 		.word	hardware
  71 0024 00000000 		.word	process_timer
  72              		.cfi_endproc
  73              	.LFE265:
  74              		.cantunwind
  75              		.fnend
  77              		.section	.text.TimInterrupt5khz,"ax",%progbits
  78              		.align	1
  79              		.global	TimInterrupt5khz
  80              		.syntax unified
  81              		.thumb
  82              		.thumb_func
  84              	TimInterrupt5khz:
  85              		.fnstart
  86              	.LFB262:
  23:src/app/app.cpp **** }
  87              		.loc 1 23 25 is_stmt 1 view -0
  88              		.cfi_startproc
  89              		@ args = 0, pretend = 0, frame = 0
  90              		@ frame_needed = 0, uses_anonymous_args = 0
  91              		@ link register save eliminated.
  24:src/app/app.cpp **** 
  92              		.loc 1 24 1 is_stmt 0 view .LVU10
  93 0000 7047     		bx	lr
  94              		.cfi_endproc
  95              	.LFE262:
  96              		.cantunwind
  97              		.fnend
  99              		.section	.text.setup,"ax",%progbits
 100              		.align	1
 101              		.global	setup
 102              		.syntax unified
 103              		.thumb
ARM GAS  /var/folders/5c/srt4fy4j1pd641bjfx75k5000000gn/T//ccQAUPth.s 			page 4


 104              		.thumb_func
 106              	setup:
 107              		.fnstart
 108              	.LFB263:
  26:src/app/app.cpp ****       hardware.Init();
 109              		.loc 1 26 14 is_stmt 1 view -0
 110              		.cfi_startproc
 111              		@ args = 0, pretend = 0, frame = 0
 112              		@ frame_needed = 0, uses_anonymous_args = 0
 113 0000 10B5     		push	{r4, lr}
 114              		.save {r4, lr}
 115              	.LCFI1:
 116              		.cfi_def_cfa_offset 8
 117              		.cfi_offset 4, -8
 118              		.cfi_offset 14, -4
  27:src/app/app.cpp ****       hardware.line.SetTh();
 119              		.loc 1 27 7 view .LVU12
  27:src/app/app.cpp ****       hardware.line.SetTh();
 120              		.loc 1 27 20 is_stmt 0 view .LVU13
 121 0002 044C     		ldr	r4, .L14
 122 0004 2046     		mov	r0, r4
 123 0006 FFF7FEFF 		bl	_ZN8Hardware4InitEv
 124              	.LVL6:
  28:src/app/app.cpp **** }
 125              		.loc 1 28 7 is_stmt 1 view .LVU14
  28:src/app/app.cpp **** }
 126              		.loc 1 28 26 is_stmt 0 view .LVU15
 127 000a 04F6B850 		addw	r0, r4, #3512
 128 000e FFF7FEFF 		bl	_ZN4Line5SetThEv
 129              	.LVL7:
  29:src/app/app.cpp **** 
 130              		.loc 1 29 1 view .LVU16
 131 0012 10BD     		pop	{r4, pc}
 132              	.L15:
 133              		.align	2
 134              	.L14:
 135 0014 00000000 		.word	hardware
 136              		.cfi_endproc
 137              	.LFE263:
 138              		.fnend
 140              		.section	.text.main_app,"ax",%progbits
 141              		.align	1
 142              		.global	main_app
 143              		.syntax unified
 144              		.thumb
 145              		.thumb_func
 147              	main_app:
 148              		.fnstart
 149              	.LFB264:
  31:src/app/app.cpp ****       while (1) {
 150              		.loc 1 31 17 is_stmt 1 view -0
 151              		.cfi_startproc
 152              		@ args = 0, pretend = 0, frame = 0
 153              		@ frame_needed = 0, uses_anonymous_args = 0
 154 0000 10B5     		push	{r4, lr}
 155              		.save {r4, lr}
 156              	.LCFI2:
ARM GAS  /var/folders/5c/srt4fy4j1pd641bjfx75k5000000gn/T//ccQAUPth.s 			page 5


 157              		.cfi_def_cfa_offset 8
 158              		.cfi_offset 4, -8
 159              		.cfi_offset 14, -4
 160 0002 4CE0     		b	.L21
 161              	.L17:
  42:src/app/app.cpp ****             }
 162              		.loc 1 42 19 view .LVU18
  42:src/app/app.cpp ****             }
 163              		.loc 1 42 39 is_stmt 0 view .LVU19
 164 0004 3448     		ldr	r0, .L23
 165 0006 FFF7FEFF 		bl	_ZN4Line6OffLedEv
 166              	.LVL8:
 167              	.L18:
  46:src/app/app.cpp ****             encoder[1] = hardware.info.Encoder.rps[1];
 168              		.loc 1 46 13 is_stmt 1 view .LVU20
  46:src/app/app.cpp ****             encoder[1] = hardware.info.Encoder.rps[1];
 169              		.loc 1 46 53 is_stmt 0 view .LVU21
 170 000a 344B     		ldr	r3, .L23+4
 171 000c 1979     		ldrb	r1, [r3, #4]	@ zero_extendqisi2
  46:src/app/app.cpp ****             encoder[1] = hardware.info.Encoder.rps[1];
 172              		.loc 1 46 24 view .LVU22
 173 000e 344A     		ldr	r2, .L23+8
 174 0010 1160     		str	r1, [r2]
  47:src/app/app.cpp ****             encoder[2] = hardware.info.Encoder.rps[2];
 175              		.loc 1 47 13 is_stmt 1 view .LVU23
  47:src/app/app.cpp ****             encoder[2] = hardware.info.Encoder.rps[2];
 176              		.loc 1 47 53 is_stmt 0 view .LVU24
 177 0012 5979     		ldrb	r1, [r3, #5]	@ zero_extendqisi2
  47:src/app/app.cpp ****             encoder[2] = hardware.info.Encoder.rps[2];
 178              		.loc 1 47 24 view .LVU25
 179 0014 5160     		str	r1, [r2, #4]
  48:src/app/app.cpp ****             encoder[3] = hardware.info.Encoder.rps[3];
 180              		.loc 1 48 13 is_stmt 1 view .LVU26
  48:src/app/app.cpp ****             encoder[3] = hardware.info.Encoder.rps[3];
 181              		.loc 1 48 53 is_stmt 0 view .LVU27
 182 0016 9979     		ldrb	r1, [r3, #6]	@ zero_extendqisi2
  48:src/app/app.cpp ****             encoder[3] = hardware.info.Encoder.rps[3];
 183              		.loc 1 48 24 view .LVU28
 184 0018 9160     		str	r1, [r2, #8]
  49:src/app/app.cpp **** 
 185              		.loc 1 49 13 is_stmt 1 view .LVU29
  49:src/app/app.cpp **** 
 186              		.loc 1 49 53 is_stmt 0 view .LVU30
 187 001a D979     		ldrb	r1, [r3, #7]	@ zero_extendqisi2
  49:src/app/app.cpp **** 
 188              		.loc 1 49 24 view .LVU31
 189 001c D160     		str	r1, [r2, #12]
  51:src/app/app.cpp ****             is_half_out = hardware.info.Line.is_half_out;
 190              		.loc 1 51 13 is_stmt 1 view .LVU32
  51:src/app/app.cpp ****             is_half_out = hardware.info.Line.is_half_out;
 191              		.loc 1 51 38 is_stmt 0 view .LVU33
 192 001e B3F91210 		ldrsh	r1, [r3, #18]
  51:src/app/app.cpp ****             is_half_out = hardware.info.Line.is_half_out;
 193              		.loc 1 51 17 view .LVU34
 194 0022 304A     		ldr	r2, .L23+12
 195 0024 1180     		strh	r1, [r2]	@ movhi
  52:src/app/app.cpp ****             is_leftside_white = hardware.info.Line.is_leftside_white;
ARM GAS  /var/folders/5c/srt4fy4j1pd641bjfx75k5000000gn/T//ccQAUPth.s 			page 6


 196              		.loc 1 52 13 is_stmt 1 view .LVU35
  52:src/app/app.cpp ****             is_leftside_white = hardware.info.Line.is_leftside_white;
 197              		.loc 1 52 46 is_stmt 0 view .LVU36
 198 0026 597D     		ldrb	r1, [r3, #21]	@ zero_extendqisi2
  52:src/app/app.cpp ****             is_leftside_white = hardware.info.Line.is_leftside_white;
 199              		.loc 1 52 25 view .LVU37
 200 0028 2F4A     		ldr	r2, .L23+16
 201 002a 1170     		strb	r1, [r2]
  53:src/app/app.cpp ****             is_rightside_white = hardware.info.Line.is_rightside_white;
 202              		.loc 1 53 13 is_stmt 1 view .LVU38
  53:src/app/app.cpp ****             is_rightside_white = hardware.info.Line.is_rightside_white;
 203              		.loc 1 53 52 is_stmt 0 view .LVU39
 204 002c D97D     		ldrb	r1, [r3, #23]	@ zero_extendqisi2
  53:src/app/app.cpp ****             is_rightside_white = hardware.info.Line.is_rightside_white;
 205              		.loc 1 53 31 view .LVU40
 206 002e 2F4A     		ldr	r2, .L23+20
 207 0030 1170     		strb	r1, [r2]
  54:src/app/app.cpp ****             is_on_line = hardware.info.Line.is_on_line;
 208              		.loc 1 54 13 is_stmt 1 view .LVU41
  54:src/app/app.cpp ****             is_on_line = hardware.info.Line.is_on_line;
 209              		.loc 1 54 53 is_stmt 0 view .LVU42
 210 0032 197E     		ldrb	r1, [r3, #24]	@ zero_extendqisi2
  54:src/app/app.cpp ****             is_on_line = hardware.info.Line.is_on_line;
 211              		.loc 1 54 32 view .LVU43
 212 0034 2E4A     		ldr	r2, .L23+24
 213 0036 1170     		strb	r1, [r2]
  55:src/app/app.cpp ****             max_interval = hardware.info.Line.max_interval;
 214              		.loc 1 55 13 is_stmt 1 view .LVU44
  55:src/app/app.cpp ****             max_interval = hardware.info.Line.max_interval;
 215              		.loc 1 55 45 is_stmt 0 view .LVU45
 216 0038 997D     		ldrb	r1, [r3, #22]	@ zero_extendqisi2
  55:src/app/app.cpp ****             max_interval = hardware.info.Line.max_interval;
 217              		.loc 1 55 24 view .LVU46
 218 003a 2E4A     		ldr	r2, .L23+28
 219 003c 1170     		strb	r1, [r2]
  56:src/app/app.cpp **** 
 220              		.loc 1 56 13 is_stmt 1 view .LVU47
  56:src/app/app.cpp **** 
 221              		.loc 1 56 47 is_stmt 0 view .LVU48
 222 003e 1A7D     		ldrb	r2, [r3, #20]	@ zero_extendqisi2
  56:src/app/app.cpp **** 
 223              		.loc 1 56 26 view .LVU49
 224 0040 2D4B     		ldr	r3, .L23+32
 225 0042 1A70     		strb	r2, [r3]
  59:src/app/app.cpp ****             if (process_time_ < PERIOD_US) {
 226              		.loc 1 59 13 is_stmt 1 view .LVU50
  59:src/app/app.cpp ****             if (process_time_ < PERIOD_US) {
 227              		.loc 1 59 50 is_stmt 0 view .LVU51
 228 0044 2D48     		ldr	r0, .L23+36
 229 0046 FFF7FEFF 		bl	_ZN5Timer7read_usEv
 230              	.LVL9:
  59:src/app/app.cpp ****             if (process_time_ < PERIOD_US) {
 231              		.loc 1 59 27 view .LVU52
 232 004a 80B2     		uxth	r0, r0
 233 004c 2C4B     		ldr	r3, .L23+40
 234 004e 1880     		strh	r0, [r3]	@ movhi
  60:src/app/app.cpp ****                   hardware.led1 = 1;
ARM GAS  /var/folders/5c/srt4fy4j1pd641bjfx75k5000000gn/T//ccQAUPth.s 			page 7


 235              		.loc 1 60 13 is_stmt 1 view .LVU53
 236 0050 C728     		cmp	r0, #199
 237 0052 10D8     		bhi	.L19
  61:src/app/app.cpp ****                   while (process_timer.read_us() < PERIOD_US);
 238              		.loc 1 61 19 view .LVU54
 239              	.LVL10:
 240              	.LBB6:
 241              	.LBI6:
 242              		.file 2 "Lib/DigitalInOut/DigitalInOut.hpp"
   1:Lib/DigitalInOut/DigitalInOut.hpp **** #ifndef __DIGITALINOUT__
   2:Lib/DigitalInOut/DigitalInOut.hpp **** #define __DIGITALINOUT__
   3:Lib/DigitalInOut/DigitalInOut.hpp **** 
   4:Lib/DigitalInOut/DigitalInOut.hpp **** #include "main.h"
   5:Lib/DigitalInOut/DigitalInOut.hpp **** 
   6:Lib/DigitalInOut/DigitalInOut.hpp **** #ifdef __cplusplus
   7:Lib/DigitalInOut/DigitalInOut.hpp **** 
   8:Lib/DigitalInOut/DigitalInOut.hpp **** extern "C" {
   9:Lib/DigitalInOut/DigitalInOut.hpp **** 
  10:Lib/DigitalInOut/DigitalInOut.hpp **** class DigitalOut {
  11:Lib/DigitalInOut/DigitalInOut.hpp ****      public:
  12:Lib/DigitalInOut/DigitalInOut.hpp ****       DigitalOut(GPIO_TypeDef *port, uint16_t pin) : port(port), pin(pin) {
  13:Lib/DigitalInOut/DigitalInOut.hpp ****             HAL_GPIO_WritePin(port, pin, GPIO_PIN_RESET);
  14:Lib/DigitalInOut/DigitalInOut.hpp ****       }
  15:Lib/DigitalInOut/DigitalInOut.hpp ****       void write(bool value) {
  16:Lib/DigitalInOut/DigitalInOut.hpp ****             HAL_GPIO_WritePin(port, pin, value ? GPIO_PIN_SET : GPIO_PIN_RESET);
  17:Lib/DigitalInOut/DigitalInOut.hpp ****       }
  18:Lib/DigitalInOut/DigitalInOut.hpp **** 
  19:Lib/DigitalInOut/DigitalInOut.hpp ****       void operator=(bool value) {
 243              		.loc 2 19 12 view .LVU55
 244              	.LBB7:
  20:Lib/DigitalInOut/DigitalInOut.hpp ****             HAL_GPIO_WritePin(port, pin, value ? GPIO_PIN_SET : GPIO_PIN_RESET);
 245              		.loc 2 20 13 view .LVU56
 246              		.loc 2 20 30 is_stmt 0 view .LVU57
 247 0054 214B     		ldr	r3, .L23+4
 248 0056 0122     		movs	r2, #1
 249 0058 198C     		ldrh	r1, [r3, #32]
 250 005a D869     		ldr	r0, [r3, #28]
 251 005c FFF7FEFF 		bl	HAL_GPIO_WritePin
 252              	.LVL11:
 253              	.L20:
 254              		.loc 2 20 30 view .LVU58
 255              	.LBE7:
 256              	.LBE6:
  62:src/app/app.cpp ****                   hardware.led1 = 0;
 257              		.loc 1 62 50 is_stmt 1 discriminator 1 view .LVU59
  62:src/app/app.cpp ****                   hardware.led1 = 0;
 258              		.loc 1 62 47 is_stmt 0 discriminator 1 view .LVU60
 259 0060 2648     		ldr	r0, .L23+36
 260 0062 FFF7FEFF 		bl	_ZN5Timer7read_usEv
 261              	.LVL12:
  62:src/app/app.cpp ****                   hardware.led1 = 0;
 262              		.loc 1 62 50 discriminator 1 view .LVU61
 263 0066 C728     		cmp	r0, #199
 264 0068 FAD9     		bls	.L20
  63:src/app/app.cpp ****             }
 265              		.loc 1 63 19 is_stmt 1 view .LVU62
 266              	.LVL13:
ARM GAS  /var/folders/5c/srt4fy4j1pd641bjfx75k5000000gn/T//ccQAUPth.s 			page 8


 267              	.LBB8:
 268              	.LBI8:
  19:Lib/DigitalInOut/DigitalInOut.hpp ****             HAL_GPIO_WritePin(port, pin, value ? GPIO_PIN_SET : GPIO_PIN_RESET);
 269              		.loc 2 19 12 view .LVU63
 270              	.LBB9:
 271              		.loc 2 20 13 view .LVU64
 272              		.loc 2 20 30 is_stmt 0 view .LVU65
 273 006a 1C4B     		ldr	r3, .L23+4
 274 006c 0022     		movs	r2, #0
 275 006e 198C     		ldrh	r1, [r3, #32]
 276 0070 D869     		ldr	r0, [r3, #28]
 277 0072 FFF7FEFF 		bl	HAL_GPIO_WritePin
 278              	.LVL14:
 279              	.L19:
 280              		.loc 2 20 30 view .LVU66
 281              	.LBE9:
 282              	.LBE8:
  65:src/app/app.cpp ****       }
 283              		.loc 1 65 13 is_stmt 1 view .LVU67
  65:src/app/app.cpp ****       }
 284              		.loc 1 65 57 is_stmt 0 view .LVU68
 285 0076 2148     		ldr	r0, .L23+36
 286 0078 FFF7FEFF 		bl	_ZN5Timer7read_usEv
 287              	.LVL15:
 288 007c 07EE900A 		vmov	s15, r0	@ int
  65:src/app/app.cpp ****       }
 289              		.loc 1 65 60 view .LVU69
 290 0080 F8EE677A 		vcvt.f32.u32	s15, s15
 291 0084 9FED1F7A 		vldr.32	s14, .L23+44
 292 0088 67EE877A 		vmul.f32	s15, s15, s14
  65:src/app/app.cpp ****       }
 293              		.loc 1 65 33 view .LVU70
 294 008c F7EE006A 		vmov.f32	s13, #1.0e+0
 295 0090 86EEA77A 		vdiv.f32	s14, s13, s15
  65:src/app/app.cpp ****       }
 296              		.loc 1 65 26 view .LVU71
 297 0094 BDEEC77A 		vcvt.s32.f32	s14, s14
 298 0098 1B4B     		ldr	r3, .L23+48
 299 009a 83ED007A 		vstr.32	s14, [r3]	@ int
  32:src/app/app.cpp ****             process_timer.reset();
 300              		.loc 1 32 7 is_stmt 1 view .LVU72
 301              	.L21:
  32:src/app/app.cpp ****             process_timer.reset();
 302              		.loc 1 32 7 view .LVU73
  33:src/app/app.cpp ****             hardware.GetSensors();
 303              		.loc 1 33 13 view .LVU74
  33:src/app/app.cpp ****             hardware.GetSensors();
 304              		.loc 1 33 32 is_stmt 0 view .LVU75
 305 009e 1748     		ldr	r0, .L23+36
 306 00a0 FFF7FEFF 		bl	_ZN5Timer5resetEv
 307              	.LVL16:
  34:src/app/app.cpp ****             hardware.encoder.Read();
 308              		.loc 1 34 13 is_stmt 1 view .LVU76
  34:src/app/app.cpp ****             hardware.encoder.Read();
 309              		.loc 1 34 32 is_stmt 0 view .LVU77
 310 00a4 0D4C     		ldr	r4, .L23+4
 311 00a6 2046     		mov	r0, r4
ARM GAS  /var/folders/5c/srt4fy4j1pd641bjfx75k5000000gn/T//ccQAUPth.s 			page 9


 312 00a8 FFF7FEFF 		bl	_ZN8Hardware10GetSensorsEv
 313              	.LVL17:
  35:src/app/app.cpp ****             hardware.MainUart();
 314              		.loc 1 35 13 is_stmt 1 view .LVU78
  35:src/app/app.cpp ****             hardware.MainUart();
 315              		.loc 1 35 34 is_stmt 0 view .LVU79
 316 00ac 04F18000 		add	r0, r4, #128
 317 00b0 FFF7FEFF 		bl	_ZN7Encoder4ReadEv
 318              	.LVL18:
  36:src/app/app.cpp ****             if (hardware.info.Line.do_read == 1) {
 319              		.loc 1 36 13 is_stmt 1 view .LVU80
  36:src/app/app.cpp ****             if (hardware.info.Line.do_read == 1) {
 320              		.loc 1 36 30 is_stmt 0 view .LVU81
 321 00b4 2046     		mov	r0, r4
 322 00b6 FFF7FEFF 		bl	_ZN8Hardware8MainUartEv
 323              	.LVL19:
  37:src/app/app.cpp ****                   hardware.line.OnLed();
 324              		.loc 1 37 13 is_stmt 1 view .LVU82
  37:src/app/app.cpp ****                   hardware.line.OnLed();
 325              		.loc 1 37 36 is_stmt 0 view .LVU83
 326 00ba 237C     		ldrb	r3, [r4, #16]	@ zero_extendqisi2
  37:src/app/app.cpp ****                   hardware.line.OnLed();
 327              		.loc 1 37 13 view .LVU84
 328 00bc 002B     		cmp	r3, #0
 329 00be A1D0     		beq	.L17
  38:src/app/app.cpp ****                   hardware.line.Read();
 330              		.loc 1 38 19 is_stmt 1 view .LVU85
  38:src/app/app.cpp ****                   hardware.line.Read();
 331              		.loc 1 38 38 is_stmt 0 view .LVU86
 332 00c0 04F6B854 		addw	r4, r4, #3512
 333 00c4 2046     		mov	r0, r4
 334 00c6 FFF7FEFF 		bl	_ZN4Line5OnLedEv
 335              	.LVL20:
  39:src/app/app.cpp ****                   hardware.line.Compute();
 336              		.loc 1 39 19 is_stmt 1 view .LVU87
  39:src/app/app.cpp ****                   hardware.line.Compute();
 337              		.loc 1 39 37 is_stmt 0 view .LVU88
 338 00ca 2046     		mov	r0, r4
 339 00cc FFF7FEFF 		bl	_ZN4Line4ReadEv
 340              	.LVL21:
  40:src/app/app.cpp ****             } else {
 341              		.loc 1 40 19 is_stmt 1 view .LVU89
  40:src/app/app.cpp ****             } else {
 342              		.loc 1 40 40 is_stmt 0 view .LVU90
 343 00d0 2046     		mov	r0, r4
 344 00d2 FFF7FEFF 		bl	_ZN4Line7ComputeEv
 345              	.LVL22:
 346 00d6 98E7     		b	.L18
 347              	.L24:
 348              		.align	2
 349              	.L23:
 350 00d8 B80D0000 		.word	hardware+3512
 351 00dc 00000000 		.word	hardware
 352 00e0 00000000 		.word	encoder
 353 00e4 00000000 		.word	dir
 354 00e8 00000000 		.word	is_half_out
 355 00ec 00000000 		.word	is_leftside_white
ARM GAS  /var/folders/5c/srt4fy4j1pd641bjfx75k5000000gn/T//ccQAUPth.s 			page 10


 356 00f0 00000000 		.word	is_rightside_white
 357 00f4 00000000 		.word	is_on_line
 358 00f8 00000000 		.word	max_interval
 359 00fc 00000000 		.word	process_timer
 360 0100 00000000 		.word	process_time_
 361 0104 BD378635 		.word	897988541
 362 0108 00000000 		.word	process_freq
 363              		.cfi_endproc
 364              	.LFE264:
 365              		.fnend
 367              		.section	.text._GLOBAL__sub_I_hardware,"ax",%progbits
 368              		.align	1
 369              		.syntax unified
 370              		.thumb
 371              		.thumb_func
 373              	_GLOBAL__sub_I_hardware:
 374              		.fnstart
 375              	.LFB266:
 376              		.loc 1 67 1 is_stmt 1 view -0
 377              		.cfi_startproc
 378              		@ args = 0, pretend = 0, frame = 0
 379              		@ frame_needed = 0, uses_anonymous_args = 0
 380 0000 08B5     		push	{r3, lr}
 381              	.LCFI3:
 382              		.cfi_def_cfa_offset 8
 383              		.cfi_offset 3, -8
 384              		.cfi_offset 14, -4
 385              		.loc 1 67 1 is_stmt 0 view .LVU92
 386 0002 4FF6FF71 		movw	r1, #65535
 387 0006 0120     		movs	r0, #1
 388 0008 FFF7FEFF 		bl	_Z41__static_initialization_and_destruction_0ii
 389              	.LVL23:
 390 000c 08BD     		pop	{r3, pc}
 391              		.cfi_endproc
 392              	.LFE266:
 393              		.cantunwind
 394              		.fnend
 396              		.section	.init_array,"aw",%init_array
 397              		.align	2
 398 0000 00000000 		.word	_GLOBAL__sub_I_hardware(target1)
 399              		.global	is_rightside_white
 400              		.section	.bss.is_rightside_white,"aw",%nobits
 403              	is_rightside_white:
 404 0000 00       		.space	1
 405              		.global	is_leftside_white
 406              		.section	.bss.is_leftside_white,"aw",%nobits
 409              	is_leftside_white:
 410 0000 00       		.space	1
 411              		.global	is_on_line
 412              		.section	.bss.is_on_line,"aw",%nobits
 415              	is_on_line:
 416 0000 00       		.space	1
 417              		.global	is_half_out
 418              		.section	.bss.is_half_out,"aw",%nobits
 421              	is_half_out:
 422 0000 00       		.space	1
 423              		.global	max_interval
ARM GAS  /var/folders/5c/srt4fy4j1pd641bjfx75k5000000gn/T//ccQAUPth.s 			page 11


 424              		.section	.bss.max_interval,"aw",%nobits
 427              	max_interval:
 428 0000 00       		.space	1
 429              		.global	dir
 430              		.section	.bss.dir,"aw",%nobits
 431              		.align	1
 434              	dir:
 435 0000 0000     		.space	2
 436              		.global	encoder
 437              		.section	.bss.encoder,"aw",%nobits
 438              		.align	2
 441              	encoder:
 442 0000 00000000 		.space	16
 442      00000000 
 442      00000000 
 442      00000000 
 443              		.global	process_freq
 444              		.section	.bss.process_freq,"aw",%nobits
 445              		.align	2
 448              	process_freq:
 449 0000 00000000 		.space	4
 450              		.global	process_time_
 451              		.section	.bss.process_time_,"aw",%nobits
 452              		.align	1
 455              	process_time_:
 456 0000 0000     		.space	2
 457              		.global	process_timer
 458              		.section	.bss.process_timer,"aw",%nobits
 459              		.align	2
 462              	process_timer:
 463 0000 00000000 		.space	4
 464              		.global	hardware
 465              		.section	.bss.hardware,"aw",%nobits
 466              		.align	3
 469              	hardware:
 470 0000 00000000 		.space	3816
 470      00000000 
 470      00000000 
 470      00000000 
 470      00000000 
 471              		.text
 472              	.Letext0:
 473              		.file 3 "/opt/ST/STM32CubeCLT_1.16.0/GNU-tools-for-STM32/arm-none-eabi/include/machine/_default_ty
 474              		.file 4 "/opt/ST/STM32CubeCLT_1.16.0/GNU-tools-for-STM32/arm-none-eabi/include/sys/_stdint.h"
 475              		.file 5 "Drivers/CMSIS/Device/ST/STM32F4xx/Include/stm32f446xx.h"
 476              		.file 6 "Drivers/CMSIS/Device/ST/STM32F4xx/Include/stm32f4xx.h"
 477              		.file 7 "/opt/ST/STM32CubeCLT_1.16.0/GNU-tools-for-STM32/lib/gcc/arm-none-eabi/12.3.1/include/stdd
 478              		.file 8 "Drivers/STM32F4xx_HAL_Driver/Inc/stm32f4xx_hal_def.h"
 479              		.file 9 "Drivers/STM32F4xx_HAL_Driver/Inc/stm32f4xx_hal_gpio.h"
 480              		.file 10 "Drivers/STM32F4xx_HAL_Driver/Inc/stm32f4xx_hal_dma.h"
 481              		.file 11 "Drivers/STM32F4xx_HAL_Driver/Inc/stm32f4xx_hal_uart.h"
 482              		.file 12 "Drivers/STM32F4xx_HAL_Driver/Inc/stm32f4xx_hal.h"
 483              		.file 13 "Lib/Timer/Timer.hpp"
 484              		.file 14 "/opt/ST/STM32CubeCLT_1.16.0/GNU-tools-for-STM32/arm-none-eabi/include/sys/_types.h"
 485              		.file 15 "/opt/ST/STM32CubeCLT_1.16.0/GNU-tools-for-STM32/arm-none-eabi/include/sys/reent.h"
 486              		.file 16 "/opt/ST/STM32CubeCLT_1.16.0/GNU-tools-for-STM32/arm-none-eabi/include/sys/lock.h"
 487              		.file 17 "/opt/ST/STM32CubeCLT_1.16.0/GNU-tools-for-STM32/arm-none-eabi/include/stdio.h"
ARM GAS  /var/folders/5c/srt4fy4j1pd641bjfx75k5000000gn/T//ccQAUPth.s 			page 12


 488              		.file 18 "Lib/BufferedSerial/BufferedSerial.hpp"
 489              		.file 19 "/opt/ST/STM32CubeCLT_1.16.0/GNU-tools-for-STM32/arm-none-eabi/include/c++/12.3.1/cstdio"
 490              		.file 20 "/opt/ST/STM32CubeCLT_1.16.0/GNU-tools-for-STM32/arm-none-eabi/include/c++/12.3.1/arm-non
 491              		.file 21 "Lib/MovingAve/MovingAve.hpp"
 492              		.file 22 "src/unit/encoder/encoder.hpp"
 493              		.file 23 "src/unit/line/line.hpp"
 494              		.file 24 "src/unit/hardware/hardware.hpp"
ARM GAS  /var/folders/5c/srt4fy4j1pd641bjfx75k5000000gn/T//ccQAUPth.s 			page 13


DEFINED SYMBOLS
                            *ABS*:00000000 app.cpp
/var/folders/5c/srt4fy4j1pd641bjfx75k5000000gn/T//ccQAUPth.s:21     .text._Z41__static_initialization_and_destruction_0ii:00000000 $t
/var/folders/5c/srt4fy4j1pd641bjfx75k5000000gn/T//ccQAUPth.s:26     .text._Z41__static_initialization_and_destruction_0ii:00000000 _Z41__static_initialization_and_destruction_0ii
/var/folders/5c/srt4fy4j1pd641bjfx75k5000000gn/T//ccQAUPth.s:70     .text._Z41__static_initialization_and_destruction_0ii:00000020 $d
/var/folders/5c/srt4fy4j1pd641bjfx75k5000000gn/T//ccQAUPth.s:469    .bss.hardware:00000000 hardware
/var/folders/5c/srt4fy4j1pd641bjfx75k5000000gn/T//ccQAUPth.s:462    .bss.process_timer:00000000 process_timer
.ARM.exidx.text._Z41__static_initialization_and_destruction_0ii:00000000 $d
/var/folders/5c/srt4fy4j1pd641bjfx75k5000000gn/T//ccQAUPth.s:78     .text.TimInterrupt5khz:00000000 $t
/var/folders/5c/srt4fy4j1pd641bjfx75k5000000gn/T//ccQAUPth.s:84     .text.TimInterrupt5khz:00000000 TimInterrupt5khz
 .ARM.exidx.text.TimInterrupt5khz:00000000 $d
/var/folders/5c/srt4fy4j1pd641bjfx75k5000000gn/T//ccQAUPth.s:100    .text.setup:00000000 $t
/var/folders/5c/srt4fy4j1pd641bjfx75k5000000gn/T//ccQAUPth.s:106    .text.setup:00000000 setup
/var/folders/5c/srt4fy4j1pd641bjfx75k5000000gn/T//ccQAUPth.s:135    .text.setup:00000014 $d
            .ARM.exidx.text.setup:00000000 $d
/var/folders/5c/srt4fy4j1pd641bjfx75k5000000gn/T//ccQAUPth.s:141    .text.main_app:00000000 $t
/var/folders/5c/srt4fy4j1pd641bjfx75k5000000gn/T//ccQAUPth.s:147    .text.main_app:00000000 main_app
/var/folders/5c/srt4fy4j1pd641bjfx75k5000000gn/T//ccQAUPth.s:350    .text.main_app:000000d8 $d
/var/folders/5c/srt4fy4j1pd641bjfx75k5000000gn/T//ccQAUPth.s:441    .bss.encoder:00000000 encoder
/var/folders/5c/srt4fy4j1pd641bjfx75k5000000gn/T//ccQAUPth.s:434    .bss.dir:00000000 dir
/var/folders/5c/srt4fy4j1pd641bjfx75k5000000gn/T//ccQAUPth.s:421    .bss.is_half_out:00000000 is_half_out
/var/folders/5c/srt4fy4j1pd641bjfx75k5000000gn/T//ccQAUPth.s:409    .bss.is_leftside_white:00000000 is_leftside_white
/var/folders/5c/srt4fy4j1pd641bjfx75k5000000gn/T//ccQAUPth.s:403    .bss.is_rightside_white:00000000 is_rightside_white
/var/folders/5c/srt4fy4j1pd641bjfx75k5000000gn/T//ccQAUPth.s:415    .bss.is_on_line:00000000 is_on_line
/var/folders/5c/srt4fy4j1pd641bjfx75k5000000gn/T//ccQAUPth.s:427    .bss.max_interval:00000000 max_interval
/var/folders/5c/srt4fy4j1pd641bjfx75k5000000gn/T//ccQAUPth.s:455    .bss.process_time_:00000000 process_time_
/var/folders/5c/srt4fy4j1pd641bjfx75k5000000gn/T//ccQAUPth.s:448    .bss.process_freq:00000000 process_freq
         .ARM.exidx.text.main_app:00000000 $d
/var/folders/5c/srt4fy4j1pd641bjfx75k5000000gn/T//ccQAUPth.s:368    .text._GLOBAL__sub_I_hardware:00000000 $t
/var/folders/5c/srt4fy4j1pd641bjfx75k5000000gn/T//ccQAUPth.s:373    .text._GLOBAL__sub_I_hardware:00000000 _GLOBAL__sub_I_hardware
.ARM.exidx.text._GLOBAL__sub_I_hardware:00000000 $d
/var/folders/5c/srt4fy4j1pd641bjfx75k5000000gn/T//ccQAUPth.s:397    .init_array:00000000 $d
/var/folders/5c/srt4fy4j1pd641bjfx75k5000000gn/T//ccQAUPth.s:404    .bss.is_rightside_white:00000000 $d
/var/folders/5c/srt4fy4j1pd641bjfx75k5000000gn/T//ccQAUPth.s:410    .bss.is_leftside_white:00000000 $d
/var/folders/5c/srt4fy4j1pd641bjfx75k5000000gn/T//ccQAUPth.s:416    .bss.is_on_line:00000000 $d
/var/folders/5c/srt4fy4j1pd641bjfx75k5000000gn/T//ccQAUPth.s:422    .bss.is_half_out:00000000 $d
/var/folders/5c/srt4fy4j1pd641bjfx75k5000000gn/T//ccQAUPth.s:428    .bss.max_interval:00000000 $d
/var/folders/5c/srt4fy4j1pd641bjfx75k5000000gn/T//ccQAUPth.s:431    .bss.dir:00000000 $d
/var/folders/5c/srt4fy4j1pd641bjfx75k5000000gn/T//ccQAUPth.s:438    .bss.encoder:00000000 $d
/var/folders/5c/srt4fy4j1pd641bjfx75k5000000gn/T//ccQAUPth.s:445    .bss.process_freq:00000000 $d
/var/folders/5c/srt4fy4j1pd641bjfx75k5000000gn/T//ccQAUPth.s:452    .bss.process_time_:00000000 $d
/var/folders/5c/srt4fy4j1pd641bjfx75k5000000gn/T//ccQAUPth.s:459    .bss.process_timer:00000000 $d
/var/folders/5c/srt4fy4j1pd641bjfx75k5000000gn/T//ccQAUPth.s:466    .bss.hardware:00000000 $d

UNDEFINED SYMBOLS
_ZN8HardwareC1Ev
_ZN5TimerC1Ev
_ZN8Hardware4InitEv
_ZN4Line5SetThEv
__aeabi_unwind_cpp_pr0
_ZN4Line6OffLedEv
_ZN5Timer7read_usEv
HAL_GPIO_WritePin
_ZN5Timer5resetEv
_ZN8Hardware10GetSensorsEv
_ZN7Encoder4ReadEv
_ZN8Hardware8MainUartEv
ARM GAS  /var/folders/5c/srt4fy4j1pd641bjfx75k5000000gn/T//ccQAUPth.s 			page 14


_ZN4Line5OnLedEv
_ZN4Line4ReadEv
_ZN4Line7ComputeEv
