ARM GAS  /var/folders/5c/srt4fy4j1pd641bjfx75k5000000gn/T//ccF3bxGb.s 			page 1


   1              		.cpu cortex-m4
   2              		.arch armv7e-m
   3              		.fpu fpv4-sp-d16
   4              		.eabi_attribute 27, 1
   5              		.eabi_attribute 28, 1
   6              		.eabi_attribute 20, 1
   7              		.eabi_attribute 21, 1
   8              		.eabi_attribute 23, 3
   9              		.eabi_attribute 24, 1
  10              		.eabi_attribute 25, 1
  11              		.eabi_attribute 26, 1
  12              		.eabi_attribute 30, 1
  13              		.eabi_attribute 34, 1
  14              		.eabi_attribute 18, 4
  15              		.file	"app.cpp"
  16              		.text
  17              	.Ltext0:
  18              		.cfi_sections	.debug_frame
  19              		.file 1 "src/app/app.cpp"
  20              		.section	.text._Z41__static_initialization_and_destruction_0ii,"ax",%progbits
  21              		.align	1
  22              		.syntax unified
  23              		.thumb
  24              		.thumb_func
  26              	_Z41__static_initialization_and_destruction_0ii:
  27              		.fnstart
  28              	.LVL0:
  29              	.LFB264:
   1:src/app/app.cpp **** #include "app.h"
   2:src/app/app.cpp **** 
   3:src/app/app.cpp **** #include "hardware.hpp"
   4:src/app/app.cpp **** 
   5:src/app/app.cpp **** Hardware hardware;
   6:src/app/app.cpp **** 
   7:src/app/app.cpp **** void setup() {
   8:src/app/app.cpp ****       hardware.Init();
   9:src/app/app.cpp **** }
  10:src/app/app.cpp **** 
  11:src/app/app.cpp **** void main_app() {
  12:src/app/app.cpp ****       while (1) {
  13:src/app/app.cpp ****       }
  14:src/app/app.cpp **** }
  30              		.loc 1 14 1 view -0
  31              		.cfi_startproc
  32              		@ args = 0, pretend = 0, frame = 0
  33              		@ frame_needed = 0, uses_anonymous_args = 0
  34              		.loc 1 14 1 is_stmt 0 view .LVU1
  35 0000 0128     		cmp	r0, #1
  36 0002 00D0     		beq	.L7
  37 0004 7047     		bx	lr
  38              	.L7:
  39              		.loc 1 14 1 discriminator 1 view .LVU2
  40 0006 08B5     		push	{r3, lr}
  41              	.LCFI0:
  42              		.cfi_def_cfa_offset 8
  43              		.cfi_offset 3, -8
  44              		.cfi_offset 14, -4
ARM GAS  /var/folders/5c/srt4fy4j1pd641bjfx75k5000000gn/T//ccF3bxGb.s 			page 2


  45              		.loc 1 14 1 discriminator 1 view .LVU3
  46 0008 4FF6FF73 		movw	r3, #65535
  47 000c 9942     		cmp	r1, r3
  48 000e 00D0     		beq	.L8
  49              	.LVL1:
  50              	.L1:
  51              		.loc 1 14 1 view .LVU4
  52 0010 08BD     		pop	{r3, pc}
  53              	.LVL2:
  54              	.L8:
   5:src/app/app.cpp **** 
  55              		.loc 1 5 10 view .LVU5
  56 0012 0248     		ldr	r0, .L9
  57              	.LVL3:
   5:src/app/app.cpp **** 
  58              		.loc 1 5 10 view .LVU6
  59 0014 FFF7FEFF 		bl	_ZN8HardwareC1Ev
  60              	.LVL4:
  61              		.loc 1 14 1 view .LVU7
  62 0018 FAE7     		b	.L1
  63              	.L10:
  64 001a 00BF     		.align	2
  65              	.L9:
  66 001c 00000000 		.word	hardware
  67              		.cfi_endproc
  68              	.LFE264:
  69              		.cantunwind
  70              		.fnend
  72              		.section	.text.setup,"ax",%progbits
  73              		.align	1
  74              		.global	setup
  75              		.syntax unified
  76              		.thumb
  77              		.thumb_func
  79              	setup:
  80              		.fnstart
  81              	.LFB262:
   7:src/app/app.cpp ****       hardware.Init();
  82              		.loc 1 7 14 is_stmt 1 view -0
  83              		.cfi_startproc
  84              		@ args = 0, pretend = 0, frame = 0
  85              		@ frame_needed = 0, uses_anonymous_args = 0
  86 0000 08B5     		push	{r3, lr}
  87              		.save {r3, lr}
  88              	.LCFI1:
  89              		.cfi_def_cfa_offset 8
  90              		.cfi_offset 3, -8
  91              		.cfi_offset 14, -4
   8:src/app/app.cpp **** }
  92              		.loc 1 8 7 view .LVU9
   8:src/app/app.cpp **** }
  93              		.loc 1 8 20 is_stmt 0 view .LVU10
  94 0002 0248     		ldr	r0, .L13
  95 0004 FFF7FEFF 		bl	_ZN8Hardware4InitEv
  96              	.LVL5:
   9:src/app/app.cpp **** 
  97              		.loc 1 9 1 view .LVU11
ARM GAS  /var/folders/5c/srt4fy4j1pd641bjfx75k5000000gn/T//ccF3bxGb.s 			page 3


  98 0008 08BD     		pop	{r3, pc}
  99              	.L14:
 100 000a 00BF     		.align	2
 101              	.L13:
 102 000c 00000000 		.word	hardware
 103              		.cfi_endproc
 104              	.LFE262:
 105              		.fnend
 107              		.section	.text.main_app,"ax",%progbits
 108              		.align	1
 109              		.global	main_app
 110              		.syntax unified
 111              		.thumb
 112              		.thumb_func
 114              	main_app:
 115              		.fnstart
 116              	.LFB263:
  11:src/app/app.cpp ****       while (1) {
 117              		.loc 1 11 17 is_stmt 1 view -0
 118              		.cfi_startproc
 119              		@ Volatile: function does not return.
 120              		@ args = 0, pretend = 0, frame = 0
 121              		@ frame_needed = 0, uses_anonymous_args = 0
 122              		@ link register save eliminated.
 123              	.L16:
  12:src/app/app.cpp ****       }
 124              		.loc 1 12 7 discriminator 1 view .LVU13
  12:src/app/app.cpp ****       }
 125              		.loc 1 12 7 discriminator 1 view .LVU14
 126 0000 FEE7     		b	.L16
 127              		.cfi_endproc
 128              	.LFE263:
 129              		.cantunwind
 130              		.fnend
 132              		.section	.text._GLOBAL__sub_I_hardware,"ax",%progbits
 133              		.align	1
 134              		.syntax unified
 135              		.thumb
 136              		.thumb_func
 138              	_GLOBAL__sub_I_hardware:
 139              		.fnstart
 140              	.LFB265:
 141              		.loc 1 14 1 view -0
 142              		.cfi_startproc
 143              		@ args = 0, pretend = 0, frame = 0
 144              		@ frame_needed = 0, uses_anonymous_args = 0
 145 0000 08B5     		push	{r3, lr}
 146              	.LCFI2:
 147              		.cfi_def_cfa_offset 8
 148              		.cfi_offset 3, -8
 149              		.cfi_offset 14, -4
 150              		.loc 1 14 1 is_stmt 0 view .LVU16
 151 0002 4FF6FF71 		movw	r1, #65535
 152 0006 0120     		movs	r0, #1
 153 0008 FFF7FEFF 		bl	_Z41__static_initialization_and_destruction_0ii
 154              	.LVL6:
 155 000c 08BD     		pop	{r3, pc}
ARM GAS  /var/folders/5c/srt4fy4j1pd641bjfx75k5000000gn/T//ccF3bxGb.s 			page 4


 156              		.cfi_endproc
 157              	.LFE265:
 158              		.cantunwind
 159              		.fnend
 161              		.section	.init_array,"aw",%init_array
 162              		.align	2
 163 0000 00000000 		.word	_GLOBAL__sub_I_hardware(target1)
 164              		.global	hardware
 165              		.section	.bss.hardware,"aw",%nobits
 166              		.align	2
 169              	hardware:
 170 0000 00000000 		.space	200
 170      00000000 
 170      00000000 
 170      00000000 
 170      00000000 
 171              		.text
 172              	.Letext0:
 173              		.file 2 "/opt/ST/STM32CubeCLT_1.16.0/GNU-tools-for-STM32/arm-none-eabi/include/machine/_default_ty
 174              		.file 3 "/opt/ST/STM32CubeCLT_1.16.0/GNU-tools-for-STM32/arm-none-eabi/include/sys/_stdint.h"
 175              		.file 4 "Drivers/CMSIS/Device/ST/STM32F4xx/Include/stm32f446xx.h"
 176              		.file 5 "Drivers/CMSIS/Device/ST/STM32F4xx/Include/stm32f4xx.h"
 177              		.file 6 "/opt/ST/STM32CubeCLT_1.16.0/GNU-tools-for-STM32/lib/gcc/arm-none-eabi/12.3.1/include/stdd
 178              		.file 7 "Drivers/STM32F4xx_HAL_Driver/Inc/stm32f4xx_hal_def.h"
 179              		.file 8 "Drivers/STM32F4xx_HAL_Driver/Inc/stm32f4xx_hal_dma.h"
 180              		.file 9 "Drivers/STM32F4xx_HAL_Driver/Inc/stm32f4xx_hal_uart.h"
 181              		.file 10 "Drivers/STM32F4xx_HAL_Driver/Inc/stm32f4xx_hal.h"
 182              		.file 11 "/opt/ST/STM32CubeCLT_1.16.0/GNU-tools-for-STM32/arm-none-eabi/include/sys/_types.h"
 183              		.file 12 "/opt/ST/STM32CubeCLT_1.16.0/GNU-tools-for-STM32/arm-none-eabi/include/sys/reent.h"
 184              		.file 13 "/opt/ST/STM32CubeCLT_1.16.0/GNU-tools-for-STM32/arm-none-eabi/include/sys/lock.h"
 185              		.file 14 "/opt/ST/STM32CubeCLT_1.16.0/GNU-tools-for-STM32/arm-none-eabi/include/stdio.h"
 186              		.file 15 "Lib/BufferedSerial/BufferedSerial.hpp"
 187              		.file 16 "Lib/DigitalInOut/DigitalInOut.hpp"
 188              		.file 17 "/opt/ST/STM32CubeCLT_1.16.0/GNU-tools-for-STM32/arm-none-eabi/include/c++/12.3.1/cstdio"
 189              		.file 18 "/opt/ST/STM32CubeCLT_1.16.0/GNU-tools-for-STM32/arm-none-eabi/include/c++/12.3.1/arm-non
 190              		.file 19 "src/unit/encoder/encoder.hpp"
 191              		.file 20 "src/unit/line_sensor/line_sensor.hpp"
 192              		.file 21 "src/unit/hardware/hardware.hpp"
ARM GAS  /var/folders/5c/srt4fy4j1pd641bjfx75k5000000gn/T//ccF3bxGb.s 			page 5


DEFINED SYMBOLS
                            *ABS*:00000000 app.cpp
/var/folders/5c/srt4fy4j1pd641bjfx75k5000000gn/T//ccF3bxGb.s:21     .text._Z41__static_initialization_and_destruction_0ii:00000000 $t
/var/folders/5c/srt4fy4j1pd641bjfx75k5000000gn/T//ccF3bxGb.s:26     .text._Z41__static_initialization_and_destruction_0ii:00000000 _Z41__static_initialization_and_destruction_0ii
/var/folders/5c/srt4fy4j1pd641bjfx75k5000000gn/T//ccF3bxGb.s:66     .text._Z41__static_initialization_and_destruction_0ii:0000001c $d
/var/folders/5c/srt4fy4j1pd641bjfx75k5000000gn/T//ccF3bxGb.s:169    .bss.hardware:00000000 hardware
.ARM.exidx.text._Z41__static_initialization_and_destruction_0ii:00000000 $d
/var/folders/5c/srt4fy4j1pd641bjfx75k5000000gn/T//ccF3bxGb.s:73     .text.setup:00000000 $t
/var/folders/5c/srt4fy4j1pd641bjfx75k5000000gn/T//ccF3bxGb.s:79     .text.setup:00000000 setup
/var/folders/5c/srt4fy4j1pd641bjfx75k5000000gn/T//ccF3bxGb.s:102    .text.setup:0000000c $d
            .ARM.extab.text.setup:00000000 $d
            .ARM.exidx.text.setup:00000000 $d
/var/folders/5c/srt4fy4j1pd641bjfx75k5000000gn/T//ccF3bxGb.s:108    .text.main_app:00000000 $t
/var/folders/5c/srt4fy4j1pd641bjfx75k5000000gn/T//ccF3bxGb.s:114    .text.main_app:00000000 main_app
         .ARM.exidx.text.main_app:00000000 $d
/var/folders/5c/srt4fy4j1pd641bjfx75k5000000gn/T//ccF3bxGb.s:133    .text._GLOBAL__sub_I_hardware:00000000 $t
/var/folders/5c/srt4fy4j1pd641bjfx75k5000000gn/T//ccF3bxGb.s:138    .text._GLOBAL__sub_I_hardware:00000000 _GLOBAL__sub_I_hardware
.ARM.exidx.text._GLOBAL__sub_I_hardware:00000000 $d
/var/folders/5c/srt4fy4j1pd641bjfx75k5000000gn/T//ccF3bxGb.s:162    .init_array:00000000 $d
/var/folders/5c/srt4fy4j1pd641bjfx75k5000000gn/T//ccF3bxGb.s:166    .bss.hardware:00000000 $d

UNDEFINED SYMBOLS
_ZN8HardwareC1Ev
_ZN8Hardware4InitEv
__aeabi_unwind_cpp_pr1
