ARM GAS  /var/folders/5c/srt4fy4j1pd641bjfx75k5000000gn/T//ccZNQtfm.s 			page 1


   1              		.cpu cortex-m4
   2              		.arch armv7e-m
   3              		.fpu fpv4-sp-d16
   4              		.eabi_attribute 27, 1
   5              		.eabi_attribute 28, 1
   6              		.eabi_attribute 20, 1
   7              		.eabi_attribute 21, 1
   8              		.eabi_attribute 23, 3
   9              		.eabi_attribute 24, 1
  10              		.eabi_attribute 25, 1
  11              		.eabi_attribute 26, 1
  12              		.eabi_attribute 30, 1
  13              		.eabi_attribute 34, 1
  14              		.eabi_attribute 18, 4
  15              		.file	"encoder.cpp"
  16              		.text
  17              	.Ltext0:
  18              		.cfi_sections	.debug_frame
  19              		.file 1 "src/unit/encoder/encoder.cpp"
  20              		.section	.text._ZN7EncoderC2EP10DigitalOutPh,"ax",%progbits
  21              		.align	1
  22              		.global	_ZN7EncoderC2EP10DigitalOutPh
  23              		.syntax unified
  24              		.thumb
  25              		.thumb_func
  27              	_ZN7EncoderC2EP10DigitalOutPh:
  28              		.fnstart
  29              	.LVL0:
  30              	.LFB254:
   1:src/unit/encoder/encoder.cpp **** #include "encoder.hpp"
   2:src/unit/encoder/encoder.cpp **** 
   3:src/unit/encoder/encoder.cpp **** int debug;
   4:src/unit/encoder/encoder.cpp **** 
   5:src/unit/encoder/encoder.cpp **** Encoder::Encoder(DigitalOut *led_line, uint8_t *photo_val) : led_line_(led_line) {
  31              		.loc 1 5 1 view -0
  32              		.cfi_startproc
  33              		@ args = 0, pretend = 0, frame = 0
  34              		@ frame_needed = 0, uses_anonymous_args = 0
  35              		.loc 1 5 1 is_stmt 0 view .LVU1
  36 0000 F8B5     		push	{r3, r4, r5, r6, r7, lr}
  37              		.save {r3, r4, r5, r6, r7, lr}
  38              	.LCFI0:
  39              		.cfi_def_cfa_offset 24
  40              		.cfi_offset 3, -24
  41              		.cfi_offset 4, -20
  42              		.cfi_offset 5, -16
  43              		.cfi_offset 6, -12
  44              		.cfi_offset 7, -8
  45              		.cfi_offset 14, -4
  46 0002 0646     		mov	r6, r0
  47 0004 1746     		mov	r7, r2
  48              	.LBB2:
  49              		.loc 1 5 62 view .LVU2
  50 0006 4160     		str	r1, [r0, #4]
  51              		.loc 1 5 80 view .LVU3
  52 0008 0F4B     		ldr	r3, .L7
  53 000a 1B68     		ldr	r3, [r3]
ARM GAS  /var/folders/5c/srt4fy4j1pd641bjfx75k5000000gn/T//ccZNQtfm.s 			page 2


  54 000c 4363     		str	r3, [r0, #52]
  55 000e 00F14805 		add	r5, r0, #72
  56 0012 0324     		movs	r4, #3
  57 0014 04E0     		b	.L2
  58              	.LVL1:
  59              	.L3:
  60              		.loc 1 5 80 discriminator 3 view .LVU4
  61 0016 2846     		mov	r0, r5
  62 0018 FFF7FEFF 		bl	_ZN5TimerC1Ev
  63              	.LVL2:
  64 001c 013C     		subs	r4, r4, #1
  65 001e 0435     		adds	r5, r5, #4
  66              	.L2:
  67              		.loc 1 5 80 is_stmt 1 discriminator 1 view .LVU5
  68 0020 002C     		cmp	r4, #0
  69 0022 F8DA     		bge	.L3
  70              	.LBB3:
   6:src/unit/encoder/encoder.cpp ****       this->photo_val_ = photo_val;
  71              		.loc 1 6 7 discriminator 4 view .LVU6
  72              		.loc 1 6 24 is_stmt 0 discriminator 4 view .LVU7
  73 0024 3760     		str	r7, [r6]
   7:src/unit/encoder/encoder.cpp ****       for (uint8_t i = 0; i < SENSOR_QTY; i++) {
  74              		.loc 1 7 7 is_stmt 1 discriminator 4 view .LVU8
  75              	.LVL3:
  76              	.LBB4:
  77              		.loc 1 7 20 is_stmt 0 discriminator 4 view .LVU9
  78 0026 0024     		movs	r4, #0
  79              		.loc 1 7 7 discriminator 4 view .LVU10
  80 0028 0AE0     		b	.L4
  81              	.LVL4:
  82              	.L5:
   8:src/unit/encoder/encoder.cpp ****             ave[i].SetLength(10);
  83              		.loc 1 8 13 is_stmt 1 discriminator 3 view .LVU11
  84              		.loc 1 8 29 is_stmt 0 discriminator 3 view .LVU12
  85 002a 4FF4CC70 		mov	r0, #408
  86 002e 04FB00F0 		mul	r0, r4, r0
  87 0032 5830     		adds	r0, r0, #88
  88 0034 0A21     		movs	r1, #10
  89 0036 3044     		add	r0, r0, r6
  90 0038 FFF7FEFF 		bl	_ZN9MovingAve9SetLengthEh
  91              	.LVL5:
   7:src/unit/encoder/encoder.cpp ****       for (uint8_t i = 0; i < SENSOR_QTY; i++) {
  92              		.loc 1 7 7 is_stmt 1 discriminator 3 view .LVU13
  93 003c 0134     		adds	r4, r4, #1
  94              	.LVL6:
   7:src/unit/encoder/encoder.cpp ****       for (uint8_t i = 0; i < SENSOR_QTY; i++) {
  95              		.loc 1 7 7 is_stmt 0 discriminator 3 view .LVU14
  96 003e E4B2     		uxtb	r4, r4
  97              	.LVL7:
  98              	.L4:
   7:src/unit/encoder/encoder.cpp ****       for (uint8_t i = 0; i < SENSOR_QTY; i++) {
  99              		.loc 1 7 29 is_stmt 1 discriminator 1 view .LVU15
 100 0040 032C     		cmp	r4, #3
 101 0042 F2D9     		bls	.L5
 102              	.LBE4:
 103              	.LBE3:
 104              	.LBE2:
ARM GAS  /var/folders/5c/srt4fy4j1pd641bjfx75k5000000gn/T//ccZNQtfm.s 			page 3


   9:src/unit/encoder/encoder.cpp ****       }
  10:src/unit/encoder/encoder.cpp **** }
 105              		.loc 1 10 1 is_stmt 0 view .LVU16
 106 0044 3046     		mov	r0, r6
 107 0046 F8BD     		pop	{r3, r4, r5, r6, r7, pc}
 108              	.LVL8:
 109              	.L8:
 110              		.loc 1 10 1 view .LVU17
 111              		.align	2
 112              	.L7:
 113 0048 00000000 		.word	.LANCHOR0
 114              		.cfi_endproc
 115              	.LFE254:
 116              		.fnend
 118              		.global	_ZN7EncoderC1EP10DigitalOutPh
 119              		.thumb_set _ZN7EncoderC1EP10DigitalOutPh,_ZN7EncoderC2EP10DigitalOutPh
 120              		.global	__aeabi_i2d
 121              		.global	__aeabi_dmul
 122              		.global	__aeabi_d2uiz
 123              		.global	__aeabi_f2d
 124              		.global	__aeabi_d2f
 125              		.section	.text._ZN7Encoder4ReadEv,"ax",%progbits
 126              		.align	1
 127              		.global	_ZN7Encoder4ReadEv
 128              		.syntax unified
 129              		.thumb
 130              		.thumb_func
 132              	_ZN7Encoder4ReadEv:
 133              		.fnstart
 134              	.LVL9:
 135              	.LFB256:
  11:src/unit/encoder/encoder.cpp **** 
  12:src/unit/encoder/encoder.cpp **** void Encoder::Read() {
 136              		.loc 1 12 22 is_stmt 1 view -0
 137              		.cfi_startproc
 138              		@ args = 0, pretend = 0, frame = 0
 139              		@ frame_needed = 0, uses_anonymous_args = 0
 140              		.loc 1 12 22 is_stmt 0 view .LVU19
 141 0000 F8B5     		push	{r3, r4, r5, r6, r7, lr}
 142              		.save {r3, r4, r5, r6, r7, lr}
 143              	.LCFI1:
 144              		.cfi_def_cfa_offset 24
 145              		.cfi_offset 3, -24
 146              		.cfi_offset 4, -20
 147              		.cfi_offset 5, -16
 148              		.cfi_offset 6, -12
 149              		.cfi_offset 7, -8
 150              		.cfi_offset 14, -4
 151 0002 0446     		mov	r4, r0
  13:src/unit/encoder/encoder.cpp ****       static uint8_t pre_photo_val[SENSOR_QTY];
 152              		.loc 1 13 7 is_stmt 1 view .LVU20
  14:src/unit/encoder/encoder.cpp **** 
  15:src/unit/encoder/encoder.cpp ****       // 閾値の自動調整
  16:src/unit/encoder/encoder.cpp ****       for (uint8_t i = 0; i < SENSOR_QTY; i++) {
 153              		.loc 1 16 7 view .LVU21
 154              	.LVL10:
 155              	.LBB5:
ARM GAS  /var/folders/5c/srt4fy4j1pd641bjfx75k5000000gn/T//ccZNQtfm.s 			page 4


 156              		.loc 1 16 20 is_stmt 0 view .LVU22
 157 0004 0025     		movs	r5, #0
 158              		.loc 1 16 7 view .LVU23
 159 0006 11E0     		b	.L10
 160              	.LVL11:
 161              	.L12:
  17:src/unit/encoder/encoder.cpp ****             if (max_val_[i] < photo_val_[i]) max_val_[i] = photo_val_[i];
  18:src/unit/encoder/encoder.cpp ****             if (min_val_[i] > photo_val_[i]) min_val_[i] = photo_val_[i];
  19:src/unit/encoder/encoder.cpp ****             threshold_[i] = (max_val_[i] + min_val_[i]) * 0.5;
 162              		.loc 1 19 13 is_stmt 1 discriminator 2 view .LVU24
 163              		.loc 1 19 40 is_stmt 0 discriminator 2 view .LVU25
 164 0008 2644     		add	r6, r6, r4
 165 000a 96F83800 		ldrb	r0, [r6, #56]	@ zero_extendqisi2
 166              		.loc 1 19 54 discriminator 2 view .LVU26
 167 000e 96F83430 		ldrb	r3, [r6, #52]	@ zero_extendqisi2
 168              		.loc 1 19 57 discriminator 2 view .LVU27
 169 0012 1844     		add	r0, r0, r3
 170 0014 FFF7FEFF 		bl	__aeabi_i2d
 171              	.LVL12:
 172 0018 0022     		movs	r2, #0
 173 001a 4F4B     		ldr	r3, .L23+8
 174 001c FFF7FEFF 		bl	__aeabi_dmul
 175              	.LVL13:
 176              		.loc 1 19 27 discriminator 2 view .LVU28
 177 0020 FFF7FEFF 		bl	__aeabi_d2uiz
 178              	.LVL14:
 179 0024 86F83000 		strb	r0, [r6, #48]
  16:src/unit/encoder/encoder.cpp ****             if (max_val_[i] < photo_val_[i]) max_val_[i] = photo_val_[i];
 180              		.loc 1 16 7 is_stmt 1 discriminator 2 view .LVU29
 181 0028 0135     		adds	r5, r5, #1
 182              	.LVL15:
  16:src/unit/encoder/encoder.cpp ****             if (max_val_[i] < photo_val_[i]) max_val_[i] = photo_val_[i];
 183              		.loc 1 16 7 is_stmt 0 discriminator 2 view .LVU30
 184 002a EDB2     		uxtb	r5, r5
 185              	.LVL16:
 186              	.L10:
  16:src/unit/encoder/encoder.cpp ****             if (max_val_[i] < photo_val_[i]) max_val_[i] = photo_val_[i];
 187              		.loc 1 16 29 is_stmt 1 discriminator 1 view .LVU31
 188 002c 032D     		cmp	r5, #3
 189 002e 15D8     		bhi	.L20
  17:src/unit/encoder/encoder.cpp ****             if (max_val_[i] < photo_val_[i]) max_val_[i] = photo_val_[i];
 190              		.loc 1 17 13 view .LVU32
  17:src/unit/encoder/encoder.cpp ****             if (max_val_[i] < photo_val_[i]) max_val_[i] = photo_val_[i];
 191              		.loc 1 17 26 is_stmt 0 view .LVU33
 192 0030 2E46     		mov	r6, r5
  17:src/unit/encoder/encoder.cpp ****             if (max_val_[i] < photo_val_[i]) max_val_[i] = photo_val_[i];
 193              		.loc 1 17 27 view .LVU34
 194 0032 6319     		adds	r3, r4, r5
 195 0034 93F83820 		ldrb	r2, [r3, #56]	@ zero_extendqisi2
  17:src/unit/encoder/encoder.cpp ****             if (max_val_[i] < photo_val_[i]) max_val_[i] = photo_val_[i];
 196              		.loc 1 17 31 view .LVU35
 197 0038 2368     		ldr	r3, [r4]
  17:src/unit/encoder/encoder.cpp ****             if (max_val_[i] < photo_val_[i]) max_val_[i] = photo_val_[i];
 198              		.loc 1 17 43 view .LVU36
 199 003a 5919     		adds	r1, r3, r5
 200 003c 5B5D     		ldrb	r3, [r3, r5]	@ zero_extendqisi2
  17:src/unit/encoder/encoder.cpp ****             if (max_val_[i] < photo_val_[i]) max_val_[i] = photo_val_[i];
ARM GAS  /var/folders/5c/srt4fy4j1pd641bjfx75k5000000gn/T//ccZNQtfm.s 			page 5


 201              		.loc 1 17 13 view .LVU37
 202 003e 9A42     		cmp	r2, r3
 203 0040 02D2     		bcs	.L11
  17:src/unit/encoder/encoder.cpp ****             if (max_val_[i] < photo_val_[i]) max_val_[i] = photo_val_[i];
 204              		.loc 1 17 46 is_stmt 1 discriminator 1 view .LVU38
  17:src/unit/encoder/encoder.cpp ****             if (max_val_[i] < photo_val_[i]) max_val_[i] = photo_val_[i];
 205              		.loc 1 17 58 is_stmt 0 discriminator 1 view .LVU39
 206 0042 6219     		adds	r2, r4, r5
 207 0044 82F83830 		strb	r3, [r2, #56]
 208              	.L11:
  18:src/unit/encoder/encoder.cpp ****             threshold_[i] = (max_val_[i] + min_val_[i]) * 0.5;
 209              		.loc 1 18 13 is_stmt 1 view .LVU40
  18:src/unit/encoder/encoder.cpp ****             threshold_[i] = (max_val_[i] + min_val_[i]) * 0.5;
 210              		.loc 1 18 27 is_stmt 0 view .LVU41
 211 0048 A319     		adds	r3, r4, r6
 212 004a 93F83420 		ldrb	r2, [r3, #52]	@ zero_extendqisi2
  18:src/unit/encoder/encoder.cpp ****             threshold_[i] = (max_val_[i] + min_val_[i]) * 0.5;
 213              		.loc 1 18 43 view .LVU42
 214 004e 0B78     		ldrb	r3, [r1]	@ zero_extendqisi2
  18:src/unit/encoder/encoder.cpp ****             threshold_[i] = (max_val_[i] + min_val_[i]) * 0.5;
 215              		.loc 1 18 13 view .LVU43
 216 0050 9A42     		cmp	r2, r3
 217 0052 D9D9     		bls	.L12
  18:src/unit/encoder/encoder.cpp ****             threshold_[i] = (max_val_[i] + min_val_[i]) * 0.5;
 218              		.loc 1 18 46 is_stmt 1 discriminator 1 view .LVU44
  18:src/unit/encoder/encoder.cpp ****             threshold_[i] = (max_val_[i] + min_val_[i]) * 0.5;
 219              		.loc 1 18 58 is_stmt 0 discriminator 1 view .LVU45
 220 0054 A219     		adds	r2, r4, r6
 221 0056 82F83430 		strb	r3, [r2, #52]
 222 005a D5E7     		b	.L12
 223              	.L20:
  18:src/unit/encoder/encoder.cpp ****             threshold_[i] = (max_val_[i] + min_val_[i]) * 0.5;
 224              		.loc 1 18 58 discriminator 1 view .LVU46
 225              	.LBE5:
 226              	.LBB6:
  20:src/unit/encoder/encoder.cpp ****       }
  21:src/unit/encoder/encoder.cpp **** 
  22:src/unit/encoder/encoder.cpp ****       // 色が変わったらカウント
  23:src/unit/encoder/encoder.cpp ****       for (uint8_t i = 0; i < SENSOR_QTY; i++) {
 227              		.loc 1 23 20 view .LVU47
 228 005c 0026     		movs	r6, #0
 229 005e 4AE0     		b	.L14
 230              	.LVL17:
 231              	.L22:
  24:src/unit/encoder/encoder.cpp ****             is_white_[i] = 0;
  25:src/unit/encoder/encoder.cpp ****             if (photo_val_[i] > threshold_[i]) is_white_[i] = 1;
  26:src/unit/encoder/encoder.cpp ****             if (is_white_[i] != pre_is_white_[i]) {
  27:src/unit/encoder/encoder.cpp ****                   interval_time_us_[i] = interval_timer[i].read_us();
 232              		.loc 1 27 19 is_stmt 1 view .LVU48
 233              		.loc 1 27 67 is_stmt 0 view .LVU49
 234 0060 05F11207 		add	r7, r5, #18
 235 0064 04EB8707 		add	r7, r4, r7, lsl #2
 236 0068 3846     		mov	r0, r7
 237 006a FFF7FEFF 		bl	_ZN5Timer7read_usEv
 238              	.LVL18:
 239              		.loc 1 27 40 view .LVU50
 240 006e 05F11403 		add	r3, r5, #20
ARM GAS  /var/folders/5c/srt4fy4j1pd641bjfx75k5000000gn/T//ccZNQtfm.s 			page 6


 241 0072 24F81300 		strh	r0, [r4, r3, lsl #1]	@ movhi
  28:src/unit/encoder/encoder.cpp ****                   interval_timer[i].reset();
 242              		.loc 1 28 19 is_stmt 1 view .LVU51
 243              		.loc 1 28 42 is_stmt 0 view .LVU52
 244 0076 3846     		mov	r0, r7
 245 0078 FFF7FEFF 		bl	_ZN5Timer5resetEv
 246              	.LVL19:
 247 007c 53E0     		b	.L16
 248              	.L17:
  29:src/unit/encoder/encoder.cpp ****             }
  30:src/unit/encoder/encoder.cpp ****             if (interval_timer[i].read_ms() > 100) interval_time_us_[i] = 0;
  31:src/unit/encoder/encoder.cpp ****             ave[i].Compute(interval_time_us_[i]);
 249              		.loc 1 31 13 is_stmt 1 discriminator 2 view .LVU53
 250              		.loc 1 31 27 is_stmt 0 discriminator 2 view .LVU54
 251 007e 4FF4CC77 		mov	r7, #408
 252 0082 05FB07F7 		mul	r7, r5, r7
 253 0086 5837     		adds	r7, r7, #88
 254 0088 2744     		add	r7, r7, r4
 255              		.loc 1 31 47 discriminator 2 view .LVU55
 256 008a 05F11403 		add	r3, r5, #20
 257 008e 34F81330 		ldrh	r3, [r4, r3, lsl #1]
 258 0092 00EE103A 		vmov	s0, r3	@ int
 259              		.loc 1 31 27 discriminator 2 view .LVU56
 260 0096 B8EE400A 		vcvt.f32.u32	s0, s0
 261 009a 3846     		mov	r0, r7
 262 009c FFF7FEFF 		bl	_ZN9MovingAve7ComputeEf
 263              	.LVL20:
  32:src/unit/encoder/encoder.cpp ****             interval_time_s_[i] = ave[i].Get() * 0.000001;
 264              		.loc 1 32 13 is_stmt 1 discriminator 2 view .LVU57
 265              		.loc 1 32 45 is_stmt 0 discriminator 2 view .LVU58
 266 00a0 3846     		mov	r0, r7
 267 00a2 FFF7FEFF 		bl	_ZN9MovingAve3GetEv
 268              	.LVL21:
 269 00a6 10EE100A 		vmov	r0, s0
 270 00aa FFF7FEFF 		bl	__aeabi_f2d
 271              	.LVL22:
 272              		.loc 1 32 48 discriminator 2 view .LVU59
 273 00ae 28A3     		adr	r3, .L23
 274 00b0 D3E90023 		ldrd	r2, [r3]
 275 00b4 FFF7FEFF 		bl	__aeabi_dmul
 276              	.LVL23:
 277 00b8 FFF7FEFF 		bl	__aeabi_d2f
 278              	.LVL24:
 279 00bc 07EE900A 		vmov	s15, r0
 280              		.loc 1 32 33 discriminator 2 view .LVU60
 281 00c0 AB1D     		adds	r3, r5, #6
 282 00c2 04EB8303 		add	r3, r4, r3, lsl #2
 283 00c6 1860     		str	r0, [r3]	@ float
  33:src/unit/encoder/encoder.cpp ****             rps_[i] = 1.0f / (interval_time_s_[i] * 4);
 284              		.loc 1 33 13 is_stmt 1 discriminator 2 view .LVU61
 285              		.loc 1 33 51 is_stmt 0 discriminator 2 view .LVU62
 286 00c8 B1EE007A 		vmov.f32	s14, #4.0e+0
 287 00cc 67EE877A 		vmul.f32	s15, s15, s14
 288              		.loc 1 33 28 discriminator 2 view .LVU63
 289 00d0 F7EE006A 		vmov.f32	s13, #1.0e+0
 290 00d4 86EEA77A 		vdiv.f32	s14, s13, s15
 291              		.loc 1 33 21 discriminator 2 view .LVU64
ARM GAS  /var/folders/5c/srt4fy4j1pd641bjfx75k5000000gn/T//ccZNQtfm.s 			page 7


 292 00d8 05F10803 		add	r3, r5, #8
 293 00dc BCEEC77A 		vcvt.u32.f32	s14, s14
 294 00e0 17EE102A 		vmov	r2, s14	@ int
 295 00e4 24F81320 		strh	r2, [r4, r3, lsl #1]	@ movhi
  34:src/unit/encoder/encoder.cpp **** 
  35:src/unit/encoder/encoder.cpp ****             pre_is_white_[i] = is_white_[i];
 296              		.loc 1 35 13 is_stmt 1 discriminator 2 view .LVU65
 297              		.loc 1 35 43 is_stmt 0 discriminator 2 view .LVU66
 298 00e8 2544     		add	r5, r5, r4
 299 00ea 95F84030 		ldrb	r3, [r5, #64]	@ zero_extendqisi2
 300              		.loc 1 35 30 discriminator 2 view .LVU67
 301 00ee 85F84430 		strb	r3, [r5, #68]
  23:src/unit/encoder/encoder.cpp ****             is_white_[i] = 0;
 302              		.loc 1 23 7 is_stmt 1 discriminator 2 view .LVU68
 303 00f2 0136     		adds	r6, r6, #1
 304              	.LVL25:
  23:src/unit/encoder/encoder.cpp ****             is_white_[i] = 0;
 305              		.loc 1 23 7 is_stmt 0 discriminator 2 view .LVU69
 306 00f4 F6B2     		uxtb	r6, r6
 307              	.LVL26:
 308              	.L14:
  23:src/unit/encoder/encoder.cpp ****             is_white_[i] = 0;
 309              		.loc 1 23 29 is_stmt 1 discriminator 1 view .LVU70
 310 00f6 032E     		cmp	r6, #3
 311 00f8 23D8     		bhi	.L21
  24:src/unit/encoder/encoder.cpp ****             if (photo_val_[i] > threshold_[i]) is_white_[i] = 1;
 312              		.loc 1 24 13 view .LVU71
  24:src/unit/encoder/encoder.cpp ****             if (photo_val_[i] > threshold_[i]) is_white_[i] = 1;
 313              		.loc 1 24 23 is_stmt 0 view .LVU72
 314 00fa 3546     		mov	r5, r6
  24:src/unit/encoder/encoder.cpp ****             if (photo_val_[i] > threshold_[i]) is_white_[i] = 1;
 315              		.loc 1 24 26 view .LVU73
 316 00fc A319     		adds	r3, r4, r6
 317 00fe 0022     		movs	r2, #0
 318 0100 83F84020 		strb	r2, [r3, #64]
  25:src/unit/encoder/encoder.cpp ****             if (is_white_[i] != pre_is_white_[i]) {
 319              		.loc 1 25 13 is_stmt 1 view .LVU74
  25:src/unit/encoder/encoder.cpp ****             if (is_white_[i] != pre_is_white_[i]) {
 320              		.loc 1 25 17 is_stmt 0 view .LVU75
 321 0104 2268     		ldr	r2, [r4]
  25:src/unit/encoder/encoder.cpp ****             if (is_white_[i] != pre_is_white_[i]) {
 322              		.loc 1 25 29 view .LVU76
 323 0106 925D     		ldrb	r2, [r2, r6]	@ zero_extendqisi2
  25:src/unit/encoder/encoder.cpp ****             if (is_white_[i] != pre_is_white_[i]) {
 324              		.loc 1 25 45 view .LVU77
 325 0108 93F83030 		ldrb	r3, [r3, #48]	@ zero_extendqisi2
  25:src/unit/encoder/encoder.cpp ****             if (is_white_[i] != pre_is_white_[i]) {
 326              		.loc 1 25 13 view .LVU78
 327 010c 9A42     		cmp	r2, r3
 328 010e 03D9     		bls	.L15
  25:src/unit/encoder/encoder.cpp ****             if (is_white_[i] != pre_is_white_[i]) {
 329              		.loc 1 25 48 is_stmt 1 discriminator 1 view .LVU79
  25:src/unit/encoder/encoder.cpp ****             if (is_white_[i] != pre_is_white_[i]) {
 330              		.loc 1 25 61 is_stmt 0 discriminator 1 view .LVU80
 331 0110 A319     		adds	r3, r4, r6
 332 0112 0122     		movs	r2, #1
 333 0114 83F84020 		strb	r2, [r3, #64]
ARM GAS  /var/folders/5c/srt4fy4j1pd641bjfx75k5000000gn/T//ccZNQtfm.s 			page 8


 334              	.L15:
  26:src/unit/encoder/encoder.cpp ****                   interval_time_us_[i] = interval_timer[i].read_us();
 335              		.loc 1 26 13 is_stmt 1 view .LVU81
  26:src/unit/encoder/encoder.cpp ****                   interval_time_us_[i] = interval_timer[i].read_us();
 336              		.loc 1 26 28 is_stmt 0 view .LVU82
 337 0118 6319     		adds	r3, r4, r5
 338 011a 93F84020 		ldrb	r2, [r3, #64]	@ zero_extendqisi2
  26:src/unit/encoder/encoder.cpp ****                   interval_time_us_[i] = interval_timer[i].read_us();
 339              		.loc 1 26 48 view .LVU83
 340 011e 93F84430 		ldrb	r3, [r3, #68]	@ zero_extendqisi2
  26:src/unit/encoder/encoder.cpp ****                   interval_time_us_[i] = interval_timer[i].read_us();
 341              		.loc 1 26 13 view .LVU84
 342 0122 9A42     		cmp	r2, r3
 343 0124 9CD1     		bne	.L22
 344              	.L16:
  30:src/unit/encoder/encoder.cpp ****             ave[i].Compute(interval_time_us_[i]);
 345              		.loc 1 30 13 is_stmt 1 view .LVU85
  30:src/unit/encoder/encoder.cpp ****             ave[i].Compute(interval_time_us_[i]);
 346              		.loc 1 30 42 is_stmt 0 view .LVU86
 347 0126 05F11200 		add	r0, r5, #18
 348 012a 04EB8000 		add	r0, r4, r0, lsl #2
 349 012e FFF7FEFF 		bl	_ZN5Timer7read_msEv
 350              	.LVL27:
  30:src/unit/encoder/encoder.cpp ****             ave[i].Compute(interval_time_us_[i]);
 351              		.loc 1 30 13 view .LVU87
 352 0132 6428     		cmp	r0, #100
 353 0134 A3D9     		bls	.L17
  30:src/unit/encoder/encoder.cpp ****             ave[i].Compute(interval_time_us_[i]);
 354              		.loc 1 30 52 is_stmt 1 discriminator 1 view .LVU88
  30:src/unit/encoder/encoder.cpp ****             ave[i].Compute(interval_time_us_[i]);
 355              		.loc 1 30 73 is_stmt 0 discriminator 1 view .LVU89
 356 0136 05F11403 		add	r3, r5, #20
 357 013a 0022     		movs	r2, #0
 358 013c 24F81320 		strh	r2, [r4, r3, lsl #1]	@ movhi
 359 0140 9DE7     		b	.L17
 360              	.L21:
  30:src/unit/encoder/encoder.cpp ****             ave[i].Compute(interval_time_us_[i]);
 361              		.loc 1 30 73 discriminator 1 view .LVU90
 362              	.LBE6:
  36:src/unit/encoder/encoder.cpp ****       }
  37:src/unit/encoder/encoder.cpp ****       debug = rps_[0];
 363              		.loc 1 37 7 is_stmt 1 view .LVU91
 364              		.loc 1 37 21 is_stmt 0 view .LVU92
 365 0142 228A     		ldrh	r2, [r4, #16]
 366              		.loc 1 37 13 view .LVU93
 367 0144 054B     		ldr	r3, .L23+12
 368 0146 1A60     		str	r2, [r3]
  38:src/unit/encoder/encoder.cpp **** }...
 369              		.loc 1 38 1 view .LVU94
 370 0148 F8BD     		pop	{r3, r4, r5, r6, r7, pc}
 371              	.LVL28:
 372              	.L24:
 373              		.loc 1 38 1 view .LVU95
 374 014a 00BFAFF3 		.align	3
 374      0080
 375              	.L23:
 376 0150 8DEDB5A0 		.word	-1598689907
ARM GAS  /var/folders/5c/srt4fy4j1pd641bjfx75k5000000gn/T//ccZNQtfm.s 			page 9


 377 0154 F7C6B03E 		.word	1051772663
 378 0158 0000E03F 		.word	1071644672
 379 015c 00000000 		.word	debug
 380              		.cfi_endproc
 381              	.LFE256:
 382              		.fnend
 384              		.global	debug
 385              		.section	.bss.debug,"aw",%nobits
 386              		.align	2
 389              	debug:
 390 0000 00000000 		.space	4
 391              		.section	.rodata
 392              		.align	2
 393              		.set	.LANCHOR0,. + 0
 394              	.LC0:
 395 0000 FF       		.byte	-1
 396 0001 FF       		.byte	-1
 397 0002 FF       		.byte	-1
 398 0003 FF       		.byte	-1
 399              		.text
 400              	.Letext0:
 401              		.file 2 "/opt/ST/STM32CubeCLT_1.16.0/GNU-tools-for-STM32/arm-none-eabi/include/machine/_default_ty
 402              		.file 3 "/opt/ST/STM32CubeCLT_1.16.0/GNU-tools-for-STM32/arm-none-eabi/include/sys/_stdint.h"
 403              		.file 4 "Drivers/CMSIS/Device/ST/STM32F4xx/Include/stm32f446xx.h"
 404              		.file 5 "Drivers/CMSIS/Device/ST/STM32F4xx/Include/stm32f4xx.h"
 405              		.file 6 "/opt/ST/STM32CubeCLT_1.16.0/GNU-tools-for-STM32/lib/gcc/arm-none-eabi/12.3.1/include/stdd
 406              		.file 7 "Drivers/STM32F4xx_HAL_Driver/Inc/stm32f4xx_hal.h"
 407              		.file 8 "Lib/DigitalInOut/DigitalInOut.hpp"
 408              		.file 9 "Lib/MovingAve/MovingAve.hpp"
 409              		.file 10 "/opt/ST/STM32CubeCLT_1.16.0/GNU-tools-for-STM32/arm-none-eabi/include/c++/12.3.1/cstdio"
 410              		.file 11 "/opt/ST/STM32CubeCLT_1.16.0/GNU-tools-for-STM32/arm-none-eabi/include/c++/12.3.1/arm-non
 411              		.file 12 "/opt/ST/STM32CubeCLT_1.16.0/GNU-tools-for-STM32/arm-none-eabi/include/sys/_types.h"
 412              		.file 13 "/opt/ST/STM32CubeCLT_1.16.0/GNU-tools-for-STM32/arm-none-eabi/include/sys/reent.h"
 413              		.file 14 "/opt/ST/STM32CubeCLT_1.16.0/GNU-tools-for-STM32/arm-none-eabi/include/sys/lock.h"
 414              		.file 15 "/opt/ST/STM32CubeCLT_1.16.0/GNU-tools-for-STM32/arm-none-eabi/include/stdio.h"
 415              		.file 16 "Lib/Timer/Timer.hpp"
 416              		.file 17 "src/unit/encoder/encoder.hpp"
ARM GAS  /var/folders/5c/srt4fy4j1pd641bjfx75k5000000gn/T//ccZNQtfm.s 			page 10

