ARM GAS  /var/folders/5c/srt4fy4j1pd641bjfx75k5000000gn/T//ccKHuC5d.s 			page 1


   1              		.cpu cortex-m4
   2              		.arch armv7e-m
   3              		.fpu fpv4-sp-d16
   4              		.eabi_attribute 27, 1
   5              		.eabi_attribute 28, 1
   6              		.eabi_attribute 20, 1
   7              		.eabi_attribute 21, 1
   8              		.eabi_attribute 23, 3
   9              		.eabi_attribute 24, 1
  10              		.eabi_attribute 25, 1
  11              		.eabi_attribute 26, 1
  12              		.eabi_attribute 30, 1
  13              		.eabi_attribute 34, 1
  14              		.eabi_attribute 18, 4
  15              		.file	"encoder.cpp"
  16              		.text
  17              	.Ltext0:
  18              		.cfi_sections	.debug_frame
  19              		.file 1 "src/unit/encoder/encoder.cpp"
  20              		.section	.text._ZN7EncoderC2EP10DigitalOutPh,"ax",%progbits
  21              		.align	1
  22              		.global	_ZN7EncoderC2EP10DigitalOutPh
  23              		.syntax unified
  24              		.thumb
  25              		.thumb_func
  27              	_ZN7EncoderC2EP10DigitalOutPh:
  28              		.fnstart
  29              	.LVL0:
  30              	.LFB254:
   1:src/unit/encoder/encoder.cpp **** #include "encoder.hpp"
   2:src/unit/encoder/encoder.cpp **** 
   3:src/unit/encoder/encoder.cpp **** int debug;
   4:src/unit/encoder/encoder.cpp **** 
   5:src/unit/encoder/encoder.cpp **** Encoder::Encoder(DigitalOut *led_line, uint8_t *photo_val) : led_line_(led_line) {
  31              		.loc 1 5 1 view -0
  32              		.cfi_startproc
  33              		@ args = 0, pretend = 0, frame = 0
  34              		@ frame_needed = 0, uses_anonymous_args = 0
  35              		.loc 1 5 1 is_stmt 0 view .LVU1
  36 0000 F8B5     		push	{r3, r4, r5, r6, r7, lr}
  37              		.save {r3, r4, r5, r6, r7, lr}
  38              	.LCFI0:
  39              		.cfi_def_cfa_offset 24
  40              		.cfi_offset 3, -24
  41              		.cfi_offset 4, -20
  42              		.cfi_offset 5, -16
  43              		.cfi_offset 6, -12
  44              		.cfi_offset 7, -8
  45              		.cfi_offset 14, -4
  46 0002 0646     		mov	r6, r0
  47 0004 1746     		mov	r7, r2
  48              	.LBB2:
  49              		.loc 1 5 62 view .LVU2
  50 0006 4160     		str	r1, [r0, #4]
  51              		.loc 1 5 80 view .LVU3
  52 0008 0F4B     		ldr	r3, .L7
  53 000a 1B68     		ldr	r3, [r3]
ARM GAS  /var/folders/5c/srt4fy4j1pd641bjfx75k5000000gn/T//ccKHuC5d.s 			page 2


  54 000c C364     		str	r3, [r0, #76]
  55 000e 00F15C05 		add	r5, r0, #92
  56 0012 0324     		movs	r4, #3
  57 0014 04E0     		b	.L2
  58              	.LVL1:
  59              	.L3:
  60              		.loc 1 5 80 discriminator 3 view .LVU4
  61 0016 2846     		mov	r0, r5
  62 0018 FFF7FEFF 		bl	_ZN5TimerC1Ev
  63              	.LVL2:
  64 001c 013C     		subs	r4, r4, #1
  65 001e 0435     		adds	r5, r5, #4
  66              	.L2:
  67              		.loc 1 5 80 is_stmt 1 discriminator 1 view .LVU5
  68 0020 002C     		cmp	r4, #0
  69 0022 F8DA     		bge	.L3
  70              	.LBB3:
   6:src/unit/encoder/encoder.cpp ****       this->photo_val_ = photo_val;
  71              		.loc 1 6 7 discriminator 4 view .LVU6
  72              		.loc 1 6 24 is_stmt 0 discriminator 4 view .LVU7
  73 0024 3760     		str	r7, [r6]
   7:src/unit/encoder/encoder.cpp ****       for (uint8_t i = 0; i < SENSOR_QTY; i++) {
  74              		.loc 1 7 7 is_stmt 1 discriminator 4 view .LVU8
  75              	.LVL3:
  76              	.LBB4:
  77              		.loc 1 7 20 is_stmt 0 discriminator 4 view .LVU9
  78 0026 0024     		movs	r4, #0
  79              		.loc 1 7 7 discriminator 4 view .LVU10
  80 0028 0AE0     		b	.L4
  81              	.LVL4:
  82              	.L5:
   8:src/unit/encoder/encoder.cpp ****             ave[i].SetLength(10);
  83              		.loc 1 8 13 is_stmt 1 discriminator 3 view .LVU11
  84              		.loc 1 8 29 is_stmt 0 discriminator 3 view .LVU12
  85 002a 4FF44C70 		mov	r0, #816
  86 002e 04FB00F0 		mul	r0, r4, r0
  87 0032 7030     		adds	r0, r0, #112
  88 0034 0A21     		movs	r1, #10
  89 0036 3044     		add	r0, r0, r6
  90 0038 FFF7FEFF 		bl	_ZN9MovingAve9SetLengthEh
  91              	.LVL5:
   7:src/unit/encoder/encoder.cpp ****       for (uint8_t i = 0; i < SENSOR_QTY; i++) {
  92              		.loc 1 7 7 is_stmt 1 discriminator 3 view .LVU13
  93 003c 0134     		adds	r4, r4, #1
  94              	.LVL6:
   7:src/unit/encoder/encoder.cpp ****       for (uint8_t i = 0; i < SENSOR_QTY; i++) {
  95              		.loc 1 7 7 is_stmt 0 discriminator 3 view .LVU14
  96 003e E4B2     		uxtb	r4, r4
  97              	.LVL7:
  98              	.L4:
   7:src/unit/encoder/encoder.cpp ****       for (uint8_t i = 0; i < SENSOR_QTY; i++) {
  99              		.loc 1 7 29 is_stmt 1 discriminator 1 view .LVU15
 100 0040 032C     		cmp	r4, #3
 101 0042 F2D9     		bls	.L5
 102              	.LBE4:
 103              	.LBE3:
 104              	.LBE2:
ARM GAS  /var/folders/5c/srt4fy4j1pd641bjfx75k5000000gn/T//ccKHuC5d.s 			page 3


   9:src/unit/encoder/encoder.cpp ****       }
  10:src/unit/encoder/encoder.cpp **** }
 105              		.loc 1 10 1 is_stmt 0 view .LVU16
 106 0044 3046     		mov	r0, r6
 107 0046 F8BD     		pop	{r3, r4, r5, r6, r7, pc}
 108              	.LVL8:
 109              	.L8:
 110              		.loc 1 10 1 view .LVU17
 111              		.align	2
 112              	.L7:
 113 0048 00000000 		.word	.LANCHOR0
 114              		.cfi_endproc
 115              	.LFE254:
 116              		.fnend
 118              		.global	_ZN7EncoderC1EP10DigitalOutPh
 119              		.thumb_set _ZN7EncoderC1EP10DigitalOutPh,_ZN7EncoderC2EP10DigitalOutPh
 120              		.global	__aeabi_i2d
 121              		.global	__aeabi_dmul
 122              		.global	__aeabi_d2uiz
 123              		.global	__aeabi_ui2d
 124              		.global	__aeabi_d2f
 125              		.global	__aeabi_ddiv
 126              		.global	__aeabi_dcmpeq
 127              		.section	.text._ZN7Encoder4ReadEv,"ax",%progbits
 128              		.align	1
 129              		.global	_ZN7Encoder4ReadEv
 130              		.syntax unified
 131              		.thumb
 132              		.thumb_func
 134              	_ZN7Encoder4ReadEv:
 135              		.fnstart
 136              	.LVL9:
 137              	.LFB256:
  11:src/unit/encoder/encoder.cpp **** 
  12:src/unit/encoder/encoder.cpp **** void Encoder::Read() {
 138              		.loc 1 12 22 is_stmt 1 view -0
 139              		.cfi_startproc
 140              		@ args = 0, pretend = 0, frame = 0
 141              		@ frame_needed = 0, uses_anonymous_args = 0
 142              		.loc 1 12 22 is_stmt 0 view .LVU19
 143 0000 2DE9F04D 		push	{r4, r5, r6, r7, r8, r10, fp, lr}
 144              		.save {r4, r5, r6, r7, r8, r10, fp, lr}
 145              	.LCFI1:
 146              		.cfi_def_cfa_offset 32
 147              		.cfi_offset 4, -32
 148              		.cfi_offset 5, -28
 149              		.cfi_offset 6, -24
 150              		.cfi_offset 7, -20
 151              		.cfi_offset 8, -16
 152              		.cfi_offset 10, -12
 153              		.cfi_offset 11, -8
 154              		.cfi_offset 14, -4
 155 0004 0446     		mov	r4, r0
  13:src/unit/encoder/encoder.cpp ****       static uint8_t pre_photo_val[SENSOR_QTY];
 156              		.loc 1 13 7 is_stmt 1 view .LVU20
  14:src/unit/encoder/encoder.cpp **** 
  15:src/unit/encoder/encoder.cpp ****       // 閾値の自動調整
ARM GAS  /var/folders/5c/srt4fy4j1pd641bjfx75k5000000gn/T//ccKHuC5d.s 			page 4


  16:src/unit/encoder/encoder.cpp ****       for (uint8_t i = 0; i < SENSOR_QTY; i++) {
 157              		.loc 1 16 7 view .LVU21
 158              	.LVL10:
 159              	.LBB5:
 160              		.loc 1 16 20 is_stmt 0 view .LVU22
 161 0006 0025     		movs	r5, #0
 162              		.loc 1 16 7 view .LVU23
 163 0008 11E0     		b	.L10
 164              	.LVL11:
 165              	.L12:
  17:src/unit/encoder/encoder.cpp ****             if (max_val_[i] < photo_val_[i]) max_val_[i] = photo_val_[i];
  18:src/unit/encoder/encoder.cpp ****             if (min_val_[i] > photo_val_[i]) min_val_[i] = photo_val_[i];
  19:src/unit/encoder/encoder.cpp ****             threshold_[i] = (max_val_[i] + min_val_[i]) * 0.5;
 166              		.loc 1 19 13 is_stmt 1 discriminator 2 view .LVU24
 167              		.loc 1 19 40 is_stmt 0 discriminator 2 view .LVU25
 168 000a 2644     		add	r6, r6, r4
 169 000c 96F85000 		ldrb	r0, [r6, #80]	@ zero_extendqisi2
 170              		.loc 1 19 54 discriminator 2 view .LVU26
 171 0010 96F84C30 		ldrb	r3, [r6, #76]	@ zero_extendqisi2
 172              		.loc 1 19 57 discriminator 2 view .LVU27
 173 0014 1844     		add	r0, r0, r3
 174 0016 FFF7FEFF 		bl	__aeabi_i2d
 175              	.LVL12:
 176 001a 0022     		movs	r2, #0
 177 001c 564B     		ldr	r3, .L26+8
 178 001e FFF7FEFF 		bl	__aeabi_dmul
 179              	.LVL13:
 180              		.loc 1 19 27 discriminator 2 view .LVU28
 181 0022 FFF7FEFF 		bl	__aeabi_d2uiz
 182              	.LVL14:
 183 0026 86F84800 		strb	r0, [r6, #72]
  16:src/unit/encoder/encoder.cpp ****             if (max_val_[i] < photo_val_[i]) max_val_[i] = photo_val_[i];
 184              		.loc 1 16 7 is_stmt 1 discriminator 2 view .LVU29
 185 002a 0135     		adds	r5, r5, #1
 186              	.LVL15:
  16:src/unit/encoder/encoder.cpp ****             if (max_val_[i] < photo_val_[i]) max_val_[i] = photo_val_[i];
 187              		.loc 1 16 7 is_stmt 0 discriminator 2 view .LVU30
 188 002c EDB2     		uxtb	r5, r5
 189              	.LVL16:
 190              	.L10:
  16:src/unit/encoder/encoder.cpp ****             if (max_val_[i] < photo_val_[i]) max_val_[i] = photo_val_[i];
 191              		.loc 1 16 29 is_stmt 1 discriminator 1 view .LVU31
 192 002e 032D     		cmp	r5, #3
 193 0030 15D8     		bhi	.L23
  17:src/unit/encoder/encoder.cpp ****             if (max_val_[i] < photo_val_[i]) max_val_[i] = photo_val_[i];
 194              		.loc 1 17 13 view .LVU32
  17:src/unit/encoder/encoder.cpp ****             if (max_val_[i] < photo_val_[i]) max_val_[i] = photo_val_[i];
 195              		.loc 1 17 26 is_stmt 0 view .LVU33
 196 0032 2E46     		mov	r6, r5
  17:src/unit/encoder/encoder.cpp ****             if (max_val_[i] < photo_val_[i]) max_val_[i] = photo_val_[i];
 197              		.loc 1 17 27 view .LVU34
 198 0034 6319     		adds	r3, r4, r5
 199 0036 93F85020 		ldrb	r2, [r3, #80]	@ zero_extendqisi2
  17:src/unit/encoder/encoder.cpp ****             if (max_val_[i] < photo_val_[i]) max_val_[i] = photo_val_[i];
 200              		.loc 1 17 31 view .LVU35
 201 003a 2368     		ldr	r3, [r4]
  17:src/unit/encoder/encoder.cpp ****             if (max_val_[i] < photo_val_[i]) max_val_[i] = photo_val_[i];
ARM GAS  /var/folders/5c/srt4fy4j1pd641bjfx75k5000000gn/T//ccKHuC5d.s 			page 5


 202              		.loc 1 17 43 view .LVU36
 203 003c 5919     		adds	r1, r3, r5
 204 003e 5B5D     		ldrb	r3, [r3, r5]	@ zero_extendqisi2
  17:src/unit/encoder/encoder.cpp ****             if (max_val_[i] < photo_val_[i]) max_val_[i] = photo_val_[i];
 205              		.loc 1 17 13 view .LVU37
 206 0040 9A42     		cmp	r2, r3
 207 0042 02D2     		bcs	.L11
  17:src/unit/encoder/encoder.cpp ****             if (max_val_[i] < photo_val_[i]) max_val_[i] = photo_val_[i];
 208              		.loc 1 17 46 is_stmt 1 discriminator 1 view .LVU38
  17:src/unit/encoder/encoder.cpp ****             if (max_val_[i] < photo_val_[i]) max_val_[i] = photo_val_[i];
 209              		.loc 1 17 58 is_stmt 0 discriminator 1 view .LVU39
 210 0044 6219     		adds	r2, r4, r5
 211 0046 82F85030 		strb	r3, [r2, #80]
 212              	.L11:
  18:src/unit/encoder/encoder.cpp ****             threshold_[i] = (max_val_[i] + min_val_[i]) * 0.5;
 213              		.loc 1 18 13 is_stmt 1 view .LVU40
  18:src/unit/encoder/encoder.cpp ****             threshold_[i] = (max_val_[i] + min_val_[i]) * 0.5;
 214              		.loc 1 18 27 is_stmt 0 view .LVU41
 215 004a A319     		adds	r3, r4, r6
 216 004c 93F84C20 		ldrb	r2, [r3, #76]	@ zero_extendqisi2
  18:src/unit/encoder/encoder.cpp ****             threshold_[i] = (max_val_[i] + min_val_[i]) * 0.5;
 217              		.loc 1 18 43 view .LVU42
 218 0050 0B78     		ldrb	r3, [r1]	@ zero_extendqisi2
  18:src/unit/encoder/encoder.cpp ****             threshold_[i] = (max_val_[i] + min_val_[i]) * 0.5;
 219              		.loc 1 18 13 view .LVU43
 220 0052 9A42     		cmp	r2, r3
 221 0054 D9D9     		bls	.L12
  18:src/unit/encoder/encoder.cpp ****             threshold_[i] = (max_val_[i] + min_val_[i]) * 0.5;
 222              		.loc 1 18 46 is_stmt 1 discriminator 1 view .LVU44
  18:src/unit/encoder/encoder.cpp ****             threshold_[i] = (max_val_[i] + min_val_[i]) * 0.5;
 223              		.loc 1 18 58 is_stmt 0 discriminator 1 view .LVU45
 224 0056 A219     		adds	r2, r4, r6
 225 0058 82F84C30 		strb	r3, [r2, #76]
 226 005c D5E7     		b	.L12
 227              	.L23:
  18:src/unit/encoder/encoder.cpp ****             threshold_[i] = (max_val_[i] + min_val_[i]) * 0.5;
 228              		.loc 1 18 58 discriminator 1 view .LVU46
 229              	.LBE5:
 230              	.LBB6:
  20:src/unit/encoder/encoder.cpp ****       }
  21:src/unit/encoder/encoder.cpp **** 
  22:src/unit/encoder/encoder.cpp ****       // 色が変わったらカウント
  23:src/unit/encoder/encoder.cpp ****       for (uint8_t i = 0; i < SENSOR_QTY; i++) {
 231              		.loc 1 23 20 view .LVU47
 232 005e 0026     		movs	r6, #0
 233 0060 16E0     		b	.L14
 234              	.LVL17:
 235              	.L25:
  24:src/unit/encoder/encoder.cpp ****             is_white_[i] = 0;
  25:src/unit/encoder/encoder.cpp ****             if (photo_val_[i] > threshold_[i]) is_white_[i] = 1;
  26:src/unit/encoder/encoder.cpp ****             if (is_white_[i] != pre_is_white_[i]) {
  27:src/unit/encoder/encoder.cpp ****                   interval_time_us_[i] = interval_timer[i].read_us();
 236              		.loc 1 27 19 is_stmt 1 view .LVU48
 237              		.loc 1 27 67 is_stmt 0 view .LVU49
 238 0062 05F11607 		add	r7, r5, #22
 239 0066 04EB8707 		add	r7, r4, r7, lsl #2
 240 006a 0437     		adds	r7, r7, #4
ARM GAS  /var/folders/5c/srt4fy4j1pd641bjfx75k5000000gn/T//ccKHuC5d.s 			page 6


 241 006c 3846     		mov	r0, r7
 242 006e FFF7FEFF 		bl	_ZN5Timer7read_usEv
 243              	.LVL18:
 244              		.loc 1 27 40 view .LVU50
 245 0072 05F10E03 		add	r3, r5, #14
 246 0076 44F82300 		str	r0, [r4, r3, lsl #2]
  28:src/unit/encoder/encoder.cpp ****                   interval_timer[i].reset();
 247              		.loc 1 28 19 is_stmt 1 view .LVU51
 248              		.loc 1 28 42 is_stmt 0 view .LVU52
 249 007a 3846     		mov	r0, r7
 250 007c FFF7FEFF 		bl	_ZN5Timer5resetEv
 251              	.LVL19:
 252 0080 1EE0     		b	.L16
 253              	.L18:
  29:src/unit/encoder/encoder.cpp ****             }
  30:src/unit/encoder/encoder.cpp ****             if (interval_timer[i].read_ms() > 100) interval_time_us_[i] = 0;
  31:src/unit/encoder/encoder.cpp ****             interval_time_s_[i] = interval_time_us_[i] * 0.000001;
  32:src/unit/encoder/encoder.cpp ****             ave[i].Compute(interval_time_s_[i]);
  33:src/unit/encoder/encoder.cpp ****             interval_time_s_[i] = ave[i].Get();
  34:src/unit/encoder/encoder.cpp ****             rps_[i] = 1.0f / (interval_time_s_[i] * 4);
  35:src/unit/encoder/encoder.cpp ****             if (interval_time_s_[i] == 0) rps_[i] = 0;
  36:src/unit/encoder/encoder.cpp **** 
  37:src/unit/encoder/encoder.cpp ****             pre_is_white_[i] = is_white_[i];
 254              		.loc 1 37 13 is_stmt 1 discriminator 2 view .LVU53
 255              		.loc 1 37 43 is_stmt 0 discriminator 2 view .LVU54
 256 0082 2544     		add	r5, r5, r4
 257 0084 95F85430 		ldrb	r3, [r5, #84]	@ zero_extendqisi2
 258              		.loc 1 37 30 discriminator 2 view .LVU55
 259 0088 85F85830 		strb	r3, [r5, #88]
  23:src/unit/encoder/encoder.cpp ****             is_white_[i] = 0;
 260              		.loc 1 23 7 is_stmt 1 discriminator 2 view .LVU56
 261 008c 0136     		adds	r6, r6, #1
 262              	.LVL20:
  23:src/unit/encoder/encoder.cpp ****             is_white_[i] = 0;
 263              		.loc 1 23 7 is_stmt 0 discriminator 2 view .LVU57
 264 008e F6B2     		uxtb	r6, r6
 265              	.LVL21:
 266              	.L14:
  23:src/unit/encoder/encoder.cpp ****             is_white_[i] = 0;
 267              		.loc 1 23 29 is_stmt 1 discriminator 1 view .LVU58
 268 0090 032E     		cmp	r6, #3
 269 0092 68D8     		bhi	.L24
  24:src/unit/encoder/encoder.cpp ****             if (photo_val_[i] > threshold_[i]) is_white_[i] = 1;
 270              		.loc 1 24 13 view .LVU59
  24:src/unit/encoder/encoder.cpp ****             if (photo_val_[i] > threshold_[i]) is_white_[i] = 1;
 271              		.loc 1 24 23 is_stmt 0 view .LVU60
 272 0094 3546     		mov	r5, r6
  24:src/unit/encoder/encoder.cpp ****             if (photo_val_[i] > threshold_[i]) is_white_[i] = 1;
 273              		.loc 1 24 26 view .LVU61
 274 0096 A319     		adds	r3, r4, r6
 275 0098 0022     		movs	r2, #0
 276 009a 83F85420 		strb	r2, [r3, #84]
  25:src/unit/encoder/encoder.cpp ****             if (is_white_[i] != pre_is_white_[i]) {
 277              		.loc 1 25 13 is_stmt 1 view .LVU62
  25:src/unit/encoder/encoder.cpp ****             if (is_white_[i] != pre_is_white_[i]) {
 278              		.loc 1 25 17 is_stmt 0 view .LVU63
 279 009e 2268     		ldr	r2, [r4]
ARM GAS  /var/folders/5c/srt4fy4j1pd641bjfx75k5000000gn/T//ccKHuC5d.s 			page 7


  25:src/unit/encoder/encoder.cpp ****             if (is_white_[i] != pre_is_white_[i]) {
 280              		.loc 1 25 29 view .LVU64
 281 00a0 925D     		ldrb	r2, [r2, r6]	@ zero_extendqisi2
  25:src/unit/encoder/encoder.cpp ****             if (is_white_[i] != pre_is_white_[i]) {
 282              		.loc 1 25 45 view .LVU65
 283 00a2 93F84830 		ldrb	r3, [r3, #72]	@ zero_extendqisi2
  25:src/unit/encoder/encoder.cpp ****             if (is_white_[i] != pre_is_white_[i]) {
 284              		.loc 1 25 13 view .LVU66
 285 00a6 9A42     		cmp	r2, r3
 286 00a8 03D9     		bls	.L15
  25:src/unit/encoder/encoder.cpp ****             if (is_white_[i] != pre_is_white_[i]) {
 287              		.loc 1 25 48 is_stmt 1 discriminator 1 view .LVU67
  25:src/unit/encoder/encoder.cpp ****             if (is_white_[i] != pre_is_white_[i]) {
 288              		.loc 1 25 61 is_stmt 0 discriminator 1 view .LVU68
 289 00aa A319     		adds	r3, r4, r6
 290 00ac 0122     		movs	r2, #1
 291 00ae 83F85420 		strb	r2, [r3, #84]
 292              	.L15:
  26:src/unit/encoder/encoder.cpp ****                   interval_time_us_[i] = interval_timer[i].read_us();
 293              		.loc 1 26 13 is_stmt 1 view .LVU69
  26:src/unit/encoder/encoder.cpp ****                   interval_time_us_[i] = interval_timer[i].read_us();
 294              		.loc 1 26 28 is_stmt 0 view .LVU70
 295 00b2 6319     		adds	r3, r4, r5
 296 00b4 93F85420 		ldrb	r2, [r3, #84]	@ zero_extendqisi2
  26:src/unit/encoder/encoder.cpp ****                   interval_time_us_[i] = interval_timer[i].read_us();
 297              		.loc 1 26 48 view .LVU71
 298 00b8 93F85830 		ldrb	r3, [r3, #88]	@ zero_extendqisi2
  26:src/unit/encoder/encoder.cpp ****                   interval_time_us_[i] = interval_timer[i].read_us();
 299              		.loc 1 26 13 view .LVU72
 300 00bc 9A42     		cmp	r2, r3
 301 00be D0D1     		bne	.L25
 302              	.L16:
  30:src/unit/encoder/encoder.cpp ****             interval_time_s_[i] = interval_time_us_[i] * 0.000001;
 303              		.loc 1 30 13 is_stmt 1 view .LVU73
  30:src/unit/encoder/encoder.cpp ****             interval_time_s_[i] = interval_time_us_[i] * 0.000001;
 304              		.loc 1 30 42 is_stmt 0 view .LVU74
 305 00c0 05F11600 		add	r0, r5, #22
 306 00c4 04EB8000 		add	r0, r4, r0, lsl #2
 307 00c8 0430     		adds	r0, r0, #4
 308 00ca FFF7FEFF 		bl	_ZN5Timer7read_msEv
 309              	.LVL22:
  30:src/unit/encoder/encoder.cpp ****             interval_time_s_[i] = interval_time_us_[i] * 0.000001;
 310              		.loc 1 30 13 view .LVU75
 311 00ce 6428     		cmp	r0, #100
 312 00d0 04D9     		bls	.L17
  30:src/unit/encoder/encoder.cpp ****             interval_time_s_[i] = interval_time_us_[i] * 0.000001;
 313              		.loc 1 30 52 is_stmt 1 discriminator 1 view .LVU76
  30:src/unit/encoder/encoder.cpp ****             interval_time_s_[i] = interval_time_us_[i] * 0.000001;
 314              		.loc 1 30 73 is_stmt 0 discriminator 1 view .LVU77
 315 00d2 05F10E03 		add	r3, r5, #14
 316 00d6 0022     		movs	r2, #0
 317 00d8 44F82320 		str	r2, [r4, r3, lsl #2]
 318              	.L17:
  31:src/unit/encoder/encoder.cpp ****             ave[i].Compute(interval_time_s_[i]);
 319              		.loc 1 31 13 is_stmt 1 view .LVU78
  31:src/unit/encoder/encoder.cpp ****             ave[i].Compute(interval_time_s_[i]);
 320              		.loc 1 31 54 is_stmt 0 view .LVU79
ARM GAS  /var/folders/5c/srt4fy4j1pd641bjfx75k5000000gn/T//ccKHuC5d.s 			page 8


 321 00dc 05F10E03 		add	r3, r5, #14
  31:src/unit/encoder/encoder.cpp ****             ave[i].Compute(interval_time_s_[i]);
 322              		.loc 1 31 56 view .LVU80
 323 00e0 54F82300 		ldr	r0, [r4, r3, lsl #2]
 324 00e4 FFF7FEFF 		bl	__aeabi_ui2d
 325              	.LVL23:
 326 00e8 21A3     		adr	r3, .L26
 327 00ea D3E90023 		ldrd	r2, [r3]
 328 00ee FFF7FEFF 		bl	__aeabi_dmul
 329              	.LVL24:
 330 00f2 0246     		mov	r2, r0
 331 00f4 0B46     		mov	r3, r1
  31:src/unit/encoder/encoder.cpp ****             ave[i].Compute(interval_time_s_[i]);
 332              		.loc 1 31 33 view .LVU81
 333 00f6 05F10308 		add	r8, r5, #3
 334 00fa 04EBC808 		add	r8, r4, r8, lsl #3
 335 00fe C8E90023 		strd	r2, [r8]
  32:src/unit/encoder/encoder.cpp ****             interval_time_s_[i] = ave[i].Get();
 336              		.loc 1 32 13 is_stmt 1 view .LVU82
  32:src/unit/encoder/encoder.cpp ****             interval_time_s_[i] = ave[i].Get();
 337              		.loc 1 32 27 is_stmt 0 view .LVU83
 338 0102 4FF44C77 		mov	r7, #816
 339 0106 05FB07F7 		mul	r7, r5, r7
 340 010a 7037     		adds	r7, r7, #112
 341 010c 2744     		add	r7, r7, r4
 342 010e FFF7FEFF 		bl	__aeabi_d2f
 343              	.LVL25:
 344 0112 00EE100A 		vmov	s0, r0
 345 0116 3846     		mov	r0, r7
 346 0118 FFF7FEFF 		bl	_ZN9MovingAve7ComputeEf
 347              	.LVL26:
  33:src/unit/encoder/encoder.cpp ****             rps_[i] = 1.0f / (interval_time_s_[i] * 4);
 348              		.loc 1 33 13 is_stmt 1 view .LVU84
  33:src/unit/encoder/encoder.cpp ****             rps_[i] = 1.0f / (interval_time_s_[i] * 4);
 349              		.loc 1 33 45 is_stmt 0 view .LVU85
 350 011c 3846     		mov	r0, r7
 351 011e FFF7FEFF 		bl	_ZN9MovingAve3GetEv
 352              	.LVL27:
 353 0122 5BEC10AB 		vmov	r10, fp, d0
  33:src/unit/encoder/encoder.cpp ****             rps_[i] = 1.0f / (interval_time_s_[i] * 4);
 354              		.loc 1 33 33 view .LVU86
 355 0126 88ED000B 		vstr.64	d0, [r8]
  34:src/unit/encoder/encoder.cpp ****             if (interval_time_s_[i] == 0) rps_[i] = 0;
 356              		.loc 1 34 13 is_stmt 1 view .LVU87
  34:src/unit/encoder/encoder.cpp ****             if (interval_time_s_[i] == 0) rps_[i] = 0;
 357              		.loc 1 34 51 is_stmt 0 view .LVU88
 358 012a 0022     		movs	r2, #0
 359 012c 134B     		ldr	r3, .L26+12
 360 012e 5046     		mov	r0, r10
 361 0130 5946     		mov	r1, fp
 362 0132 FFF7FEFF 		bl	__aeabi_dmul
 363              	.LVL28:
 364 0136 0246     		mov	r2, r0
 365 0138 0B46     		mov	r3, r1
  34:src/unit/encoder/encoder.cpp ****             if (interval_time_s_[i] == 0) rps_[i] = 0;
 366              		.loc 1 34 28 view .LVU89
 367 013a 0020     		movs	r0, #0
ARM GAS  /var/folders/5c/srt4fy4j1pd641bjfx75k5000000gn/T//ccKHuC5d.s 			page 9


 368 013c 1049     		ldr	r1, .L26+16
 369 013e FFF7FEFF 		bl	__aeabi_ddiv
 370              	.LVL29:
  34:src/unit/encoder/encoder.cpp ****             if (interval_time_s_[i] == 0) rps_[i] = 0;
 371              		.loc 1 34 21 view .LVU90
 372 0142 05F10807 		add	r7, r5, #8
 373 0146 FFF7FEFF 		bl	__aeabi_d2uiz
 374              	.LVL30:
 375 014a 24F81700 		strh	r0, [r4, r7, lsl #1]	@ movhi
  35:src/unit/encoder/encoder.cpp **** 
 376              		.loc 1 35 13 is_stmt 1 view .LVU91
 377 014e 0022     		movs	r2, #0
 378 0150 0023     		movs	r3, #0
 379 0152 5046     		mov	r0, r10
 380 0154 5946     		mov	r1, fp
 381 0156 FFF7FEFF 		bl	__aeabi_dcmpeq
 382              	.LVL31:
 383 015a 0028     		cmp	r0, #0
 384 015c 91D0     		beq	.L18
  35:src/unit/encoder/encoder.cpp **** 
 385              		.loc 1 35 43 discriminator 1 view .LVU92
  35:src/unit/encoder/encoder.cpp **** 
 386              		.loc 1 35 51 is_stmt 0 discriminator 1 view .LVU93
 387 015e 0022     		movs	r2, #0
 388 0160 24F81720 		strh	r2, [r4, r7, lsl #1]	@ movhi
 389 0164 8DE7     		b	.L18
 390              	.L24:
  35:src/unit/encoder/encoder.cpp **** 
 391              		.loc 1 35 51 discriminator 1 view .LVU94
 392              	.LBE6:
  38:src/unit/encoder/encoder.cpp ****       }
  39:src/unit/encoder/encoder.cpp ****       debug = rps_[0];
 393              		.loc 1 39 7 is_stmt 1 view .LVU95
 394              		.loc 1 39 21 is_stmt 0 view .LVU96
 395 0166 228A     		ldrh	r2, [r4, #16]
 396              		.loc 1 39 13 view .LVU97
 397 0168 064B     		ldr	r3, .L26+20
 398 016a 1A60     		str	r2, [r3]
  40:src/unit/encoder/encoder.cpp **** }...
 399              		.loc 1 40 1 view .LVU98
 400 016c BDE8F08D 		pop	{r4, r5, r6, r7, r8, r10, fp, pc}
 401              	.LVL32:
 402              	.L27:
 403              		.loc 1 40 1 view .LVU99
 404              		.align	3
 405              	.L26:
 406 0170 8DEDB5A0 		.word	-1598689907
 407 0174 F7C6B03E 		.word	1051772663
 408 0178 0000E03F 		.word	1071644672
 409 017c 00001040 		.word	1074790400
 410 0180 0000F03F 		.word	1072693248
 411 0184 00000000 		.word	debug
 412              		.cfi_endproc
 413              	.LFE256:
 414              		.fnend
 416              		.global	debug
 417              		.section	.bss.debug,"aw",%nobits
ARM GAS  /var/folders/5c/srt4fy4j1pd641bjfx75k5000000gn/T//ccKHuC5d.s 			page 10


 418              		.align	2
 421              	debug:
 422 0000 00000000 		.space	4
 423              		.section	.rodata
 424              		.align	2
 425              		.set	.LANCHOR0,. + 0
 426              	.LC0:
 427 0000 FF       		.byte	-1
 428 0001 FF       		.byte	-1
 429 0002 FF       		.byte	-1
 430 0003 FF       		.byte	-1
 431              		.text
 432              	.Letext0:
 433              		.file 2 "/opt/ST/STM32CubeCLT_1.16.0/GNU-tools-for-STM32/arm-none-eabi/include/machine/_default_ty
 434              		.file 3 "/opt/ST/STM32CubeCLT_1.16.0/GNU-tools-for-STM32/arm-none-eabi/include/sys/_stdint.h"
 435              		.file 4 "Drivers/CMSIS/Device/ST/STM32F4xx/Include/stm32f446xx.h"
 436              		.file 5 "Drivers/CMSIS/Device/ST/STM32F4xx/Include/stm32f4xx.h"
 437              		.file 6 "/opt/ST/STM32CubeCLT_1.16.0/GNU-tools-for-STM32/lib/gcc/arm-none-eabi/12.3.1/include/stdd
 438              		.file 7 "Drivers/STM32F4xx_HAL_Driver/Inc/stm32f4xx_hal.h"
 439              		.file 8 "Lib/DigitalInOut/DigitalInOut.hpp"
 440              		.file 9 "Lib/MovingAve/MovingAve.hpp"
 441              		.file 10 "/opt/ST/STM32CubeCLT_1.16.0/GNU-tools-for-STM32/arm-none-eabi/include/c++/12.3.1/cstdio"
 442              		.file 11 "/opt/ST/STM32CubeCLT_1.16.0/GNU-tools-for-STM32/arm-none-eabi/include/c++/12.3.1/arm-non
 443              		.file 12 "/opt/ST/STM32CubeCLT_1.16.0/GNU-tools-for-STM32/arm-none-eabi/include/sys/_types.h"
 444              		.file 13 "/opt/ST/STM32CubeCLT_1.16.0/GNU-tools-for-STM32/arm-none-eabi/include/sys/reent.h"
 445              		.file 14 "/opt/ST/STM32CubeCLT_1.16.0/GNU-tools-for-STM32/arm-none-eabi/include/sys/lock.h"
 446              		.file 15 "/opt/ST/STM32CubeCLT_1.16.0/GNU-tools-for-STM32/arm-none-eabi/include/stdio.h"
 447              		.file 16 "Lib/Timer/Timer.hpp"
 448              		.file 17 "src/unit/encoder/encoder.hpp"
ARM GAS  /var/folders/5c/srt4fy4j1pd641bjfx75k5000000gn/T//ccKHuC5d.s 			page 11


DEFINED SYMBOLS
                            *ABS*:00000000 encoder.cpp
/var/folders/5c/srt4fy4j1pd641bjfx75k5000000gn/T//ccKHuC5d.s:21     .text._ZN7EncoderC2EP10DigitalOutPh:00000000 $t
/var/folders/5c/srt4fy4j1pd641bjfx75k5000000gn/T//ccKHuC5d.s:27     .text._ZN7EncoderC2EP10DigitalOutPh:00000000 _ZN7EncoderC2EP10DigitalOutPh
/var/folders/5c/srt4fy4j1pd641bjfx75k5000000gn/T//ccKHuC5d.s:113    .text._ZN7EncoderC2EP10DigitalOutPh:00000048 $d
.ARM.exidx.text._ZN7EncoderC2EP10DigitalOutPh:00000000 $d
/var/folders/5c/srt4fy4j1pd641bjfx75k5000000gn/T//ccKHuC5d.s:27     .text._ZN7EncoderC2EP10DigitalOutPh:00000000 _ZN7EncoderC1EP10DigitalOutPh
/var/folders/5c/srt4fy4j1pd641bjfx75k5000000gn/T//ccKHuC5d.s:128    .text._ZN7Encoder4ReadEv:00000000 $t
/var/folders/5c/srt4fy4j1pd641bjfx75k5000000gn/T//ccKHuC5d.s:134    .text._ZN7Encoder4ReadEv:00000000 _ZN7Encoder4ReadEv
/var/folders/5c/srt4fy4j1pd641bjfx75k5000000gn/T//ccKHuC5d.s:406    .text._ZN7Encoder4ReadEv:00000170 $d
/var/folders/5c/srt4fy4j1pd641bjfx75k5000000gn/T//ccKHuC5d.s:421    .bss.debug:00000000 debug
.ARM.exidx.text._ZN7Encoder4ReadEv:00000000 $d
/var/folders/5c/srt4fy4j1pd641bjfx75k5000000gn/T//ccKHuC5d.s:418    .bss.debug:00000000 $d
/var/folders/5c/srt4fy4j1pd641bjfx75k5000000gn/T//ccKHuC5d.s:424    .rodata:00000000 $d

UNDEFINED SYMBOLS
_ZN5TimerC1Ev
_ZN9MovingAve9SetLengthEh
__aeabi_unwind_cpp_pr0
__aeabi_i2d
__aeabi_dmul
__aeabi_d2uiz
__aeabi_ui2d
__aeabi_d2f
__aeabi_ddiv
__aeabi_dcmpeq
_ZN5Timer7read_usEv
_ZN5Timer5resetEv
_ZN5Timer7read_msEv
_ZN9MovingAve7ComputeEf
_ZN9MovingAve3GetEv
