ARM GAS  /var/folders/5c/srt4fy4j1pd641bjfx75k5000000gn/T//cczMU7hU.s 			page 1


   1              		.cpu cortex-m4
   2              		.arch armv7e-m
   3              		.fpu fpv4-sp-d16
   4              		.eabi_attribute 27, 1
   5              		.eabi_attribute 28, 1
   6              		.eabi_attribute 20, 1
   7              		.eabi_attribute 21, 1
   8              		.eabi_attribute 23, 3
   9              		.eabi_attribute 24, 1
  10              		.eabi_attribute 25, 1
  11              		.eabi_attribute 26, 1
  12              		.eabi_attribute 30, 1
  13              		.eabi_attribute 34, 1
  14              		.eabi_attribute 18, 4
  15              		.file	"hardware.cpp"
  16              		.text
  17              	.Ltext0:
  18              		.cfi_sections	.debug_frame
  19              		.file 1 "src/unit/hardware/hardware.cpp"
  20              		.section	.text._ZN8HardwareC2Ev,"ax",%progbits
  21              		.align	1
  22              		.global	_ZN8HardwareC2Ev
  23              		.syntax unified
  24              		.thumb
  25              		.thumb_func
  27              	_ZN8HardwareC2Ev:
  28              		.fnstart
  29              	.LVL0:
  30              	.LFB263:
   1:src/unit/hardware/hardware.cpp **** #include "hardware.hpp"
   2:src/unit/hardware/hardware.cpp **** 
   3:src/unit/hardware/hardware.cpp **** uint16_t adc_get_val[12];
   4:src/unit/hardware/hardware.cpp **** 
   5:src/unit/hardware/hardware.cpp **** Hardware::Hardware() {
  31              		.loc 1 5 1 view -0
  32              		.cfi_startproc
  33              		@ args = 0, pretend = 0, frame = 0
  34              		@ frame_needed = 0, uses_anonymous_args = 0
  35              		.loc 1 5 1 is_stmt 0 view .LVU1
  36 0000 2DE9F041 		push	{r4, r5, r6, r7, r8, lr}
  37              		.save {r4, r5, r6, r7, r8, lr}
  38              	.LCFI0:
  39              		.cfi_def_cfa_offset 24
  40              		.cfi_offset 4, -24
  41              		.cfi_offset 5, -20
  42              		.cfi_offset 6, -16
  43              		.cfi_offset 7, -12
  44              		.cfi_offset 8, -8
  45              		.cfi_offset 14, -4
  46 0004 0446     		mov	r4, r0
  47              	.LVL1:
  48              	.LBB39:
  49              	.LBB40:
  50              	.LBI40:
  51              		.file 2 "Lib/DigitalInOut/DigitalInOut.hpp"
   1:Lib/DigitalInOut/DigitalInOut.hpp **** #ifndef __DIGITALINOUT__
   2:Lib/DigitalInOut/DigitalInOut.hpp **** #define __DIGITALINOUT__
ARM GAS  /var/folders/5c/srt4fy4j1pd641bjfx75k5000000gn/T//cczMU7hU.s 			page 2


   3:Lib/DigitalInOut/DigitalInOut.hpp **** 
   4:Lib/DigitalInOut/DigitalInOut.hpp **** #include "main.h"
   5:Lib/DigitalInOut/DigitalInOut.hpp **** 
   6:Lib/DigitalInOut/DigitalInOut.hpp **** #ifdef __cplusplus
   7:Lib/DigitalInOut/DigitalInOut.hpp **** 
   8:Lib/DigitalInOut/DigitalInOut.hpp **** extern "C" {
   9:Lib/DigitalInOut/DigitalInOut.hpp **** 
  10:Lib/DigitalInOut/DigitalInOut.hpp **** class DigitalOut {
  11:Lib/DigitalInOut/DigitalInOut.hpp ****      public:
  12:Lib/DigitalInOut/DigitalInOut.hpp ****       DigitalOut(GPIO_TypeDef *port, uint16_t pin) : port(port), pin(pin) {
  52              		.loc 2 12 7 is_stmt 1 view .LVU2
  53              	.LBB41:
  54              		.loc 2 12 54 is_stmt 0 view .LVU3
  55 0006 394D     		ldr	r5, .L3
  56 0008 C560     		str	r5, [r0, #12]
  57              		.loc 2 12 66 view .LVU4
  58 000a 4FF48061 		mov	r1, #1024
  59 000e 0182     		strh	r1, [r0, #16]	@ movhi
  13:Lib/DigitalInOut/DigitalInOut.hpp ****             HAL_GPIO_WritePin(port, pin, GPIO_PIN_RESET);
  60              		.loc 2 13 13 is_stmt 1 view .LVU5
  61              		.loc 2 13 30 is_stmt 0 view .LVU6
  62 0010 0022     		movs	r2, #0
  63 0012 2846     		mov	r0, r5
  64              	.LVL2:
  65              		.loc 2 13 30 view .LVU7
  66 0014 FFF7FEFF 		bl	HAL_GPIO_WritePin
  67              	.LVL3:
  68              		.loc 2 13 30 view .LVU8
  69              	.LBE41:
  70              	.LBE40:
  71              	.LBB42:
  72              	.LBI42:
  12:Lib/DigitalInOut/DigitalInOut.hpp ****             HAL_GPIO_WritePin(port, pin, GPIO_PIN_RESET);
  73              		.loc 2 12 7 is_stmt 1 view .LVU9
  74              	.LBB43:
  12:Lib/DigitalInOut/DigitalInOut.hpp ****             HAL_GPIO_WritePin(port, pin, GPIO_PIN_RESET);
  75              		.loc 2 12 54 is_stmt 0 view .LVU10
  76 0018 6561     		str	r5, [r4, #20]
  12:Lib/DigitalInOut/DigitalInOut.hpp ****             HAL_GPIO_WritePin(port, pin, GPIO_PIN_RESET);
  77              		.loc 2 12 66 view .LVU11
  78 001a 4FF40061 		mov	r1, #2048
  79 001e 2183     		strh	r1, [r4, #24]	@ movhi
  80              		.loc 2 13 13 is_stmt 1 view .LVU12
  81              		.loc 2 13 30 is_stmt 0 view .LVU13
  82 0020 0022     		movs	r2, #0
  83 0022 2846     		mov	r0, r5
  84 0024 FFF7FEFF 		bl	HAL_GPIO_WritePin
  85              	.LVL4:
  86              		.loc 2 13 30 view .LVU14
  87              	.LBE43:
  88              	.LBE42:
  89              	.LBB44:
  90              	.LBI44:
  12:Lib/DigitalInOut/DigitalInOut.hpp ****             HAL_GPIO_WritePin(port, pin, GPIO_PIN_RESET);
  91              		.loc 2 12 7 is_stmt 1 view .LVU15
  92              	.LBB45:
  12:Lib/DigitalInOut/DigitalInOut.hpp ****             HAL_GPIO_WritePin(port, pin, GPIO_PIN_RESET);
ARM GAS  /var/folders/5c/srt4fy4j1pd641bjfx75k5000000gn/T//cczMU7hU.s 			page 3


  93              		.loc 2 12 54 is_stmt 0 view .LVU16
  94 0028 E561     		str	r5, [r4, #28]
  12:Lib/DigitalInOut/DigitalInOut.hpp ****             HAL_GPIO_WritePin(port, pin, GPIO_PIN_RESET);
  95              		.loc 2 12 66 view .LVU17
  96 002a 4FF48057 		mov	r7, #4096
  97 002e 2784     		strh	r7, [r4, #32]	@ movhi
  98              		.loc 2 13 13 is_stmt 1 view .LVU18
  99              		.loc 2 13 30 is_stmt 0 view .LVU19
 100 0030 0022     		movs	r2, #0
 101 0032 3946     		mov	r1, r7
 102 0034 2846     		mov	r0, r5
 103 0036 FFF7FEFF 		bl	HAL_GPIO_WritePin
 104              	.LVL5:
 105              		.loc 2 13 30 view .LVU20
 106              	.LBE45:
 107              	.LBE44:
 108              	.LBB46:
 109              	.LBI46:
  12:Lib/DigitalInOut/DigitalInOut.hpp ****             HAL_GPIO_WritePin(port, pin, GPIO_PIN_RESET);
 110              		.loc 2 12 7 is_stmt 1 view .LVU21
 111              	.LBB47:
  12:Lib/DigitalInOut/DigitalInOut.hpp ****             HAL_GPIO_WritePin(port, pin, GPIO_PIN_RESET);
 112              		.loc 2 12 54 is_stmt 0 view .LVU22
 113 003a 6562     		str	r5, [r4, #36]
  12:Lib/DigitalInOut/DigitalInOut.hpp ****             HAL_GPIO_WritePin(port, pin, GPIO_PIN_RESET);
 114              		.loc 2 12 66 view .LVU23
 115 003c 4FF48076 		mov	r6, #256
 116 0040 2685     		strh	r6, [r4, #40]	@ movhi
 117              		.loc 2 13 13 is_stmt 1 view .LVU24
 118              		.loc 2 13 30 is_stmt 0 view .LVU25
 119 0042 0022     		movs	r2, #0
 120 0044 3146     		mov	r1, r6
 121 0046 2846     		mov	r0, r5
 122 0048 FFF7FEFF 		bl	HAL_GPIO_WritePin
 123              	.LVL6:
 124              		.loc 2 13 30 view .LVU26
 125              	.LBE47:
 126              	.LBE46:
 127              	.LBB48:
 128              	.LBI48:
  12:Lib/DigitalInOut/DigitalInOut.hpp ****             HAL_GPIO_WritePin(port, pin, GPIO_PIN_RESET);
 129              		.loc 2 12 7 is_stmt 1 view .LVU27
 130              	.LBB49:
  12:Lib/DigitalInOut/DigitalInOut.hpp ****             HAL_GPIO_WritePin(port, pin, GPIO_PIN_RESET);
 131              		.loc 2 12 54 is_stmt 0 view .LVU28
 132 004c A5F58065 		sub	r5, r5, #1024
 133 0050 E562     		str	r5, [r4, #44]
  12:Lib/DigitalInOut/DigitalInOut.hpp ****             HAL_GPIO_WritePin(port, pin, GPIO_PIN_RESET);
 134              		.loc 2 12 66 view .LVU29
 135 0052 8021     		movs	r1, #128
 136 0054 2186     		strh	r1, [r4, #48]	@ movhi
 137              		.loc 2 13 13 is_stmt 1 view .LVU30
 138              		.loc 2 13 30 is_stmt 0 view .LVU31
 139 0056 0022     		movs	r2, #0
 140 0058 2846     		mov	r0, r5
 141 005a FFF7FEFF 		bl	HAL_GPIO_WritePin
 142              	.LVL7:
ARM GAS  /var/folders/5c/srt4fy4j1pd641bjfx75k5000000gn/T//cczMU7hU.s 			page 4


 143              		.loc 2 13 30 view .LVU32
 144              	.LBE49:
 145              	.LBE48:
 146              	.LBB50:
 147              	.LBI50:
  12:Lib/DigitalInOut/DigitalInOut.hpp ****             HAL_GPIO_WritePin(port, pin, GPIO_PIN_RESET);
 148              		.loc 2 12 7 is_stmt 1 view .LVU33
 149              	.LBB51:
  12:Lib/DigitalInOut/DigitalInOut.hpp ****             HAL_GPIO_WritePin(port, pin, GPIO_PIN_RESET);
 150              		.loc 2 12 54 is_stmt 0 view .LVU34
 151 005e 6563     		str	r5, [r4, #52]
  12:Lib/DigitalInOut/DigitalInOut.hpp ****             HAL_GPIO_WritePin(port, pin, GPIO_PIN_RESET);
 152              		.loc 2 12 66 view .LVU35
 153 0060 4FF40071 		mov	r1, #512
 154 0064 2187     		strh	r1, [r4, #56]	@ movhi
 155              		.loc 2 13 13 is_stmt 1 view .LVU36
 156              		.loc 2 13 30 is_stmt 0 view .LVU37
 157 0066 0022     		movs	r2, #0
 158 0068 2846     		mov	r0, r5
 159 006a FFF7FEFF 		bl	HAL_GPIO_WritePin
 160              	.LVL8:
 161              		.loc 2 13 30 view .LVU38
 162              	.LBE51:
 163              	.LBE50:
 164              	.LBB52:
 165              	.LBI52:
  12:Lib/DigitalInOut/DigitalInOut.hpp ****             HAL_GPIO_WritePin(port, pin, GPIO_PIN_RESET);
 166              		.loc 2 12 7 is_stmt 1 view .LVU39
 167              	.LBB53:
  12:Lib/DigitalInOut/DigitalInOut.hpp ****             HAL_GPIO_WritePin(port, pin, GPIO_PIN_RESET);
 168              		.loc 2 12 54 is_stmt 0 view .LVU40
 169 006e DFF88480 		ldr	r8, .L3+8
 170 0072 C4F83C80 		str	r8, [r4, #60]
  12:Lib/DigitalInOut/DigitalInOut.hpp ****             HAL_GPIO_WritePin(port, pin, GPIO_PIN_RESET);
 171              		.loc 2 12 66 view .LVU41
 172 0076 1021     		movs	r1, #16
 173 0078 A4F84010 		strh	r1, [r4, #64]	@ movhi
 174              		.loc 2 13 13 is_stmt 1 view .LVU42
 175              		.loc 2 13 30 is_stmt 0 view .LVU43
 176 007c 0022     		movs	r2, #0
 177 007e 4046     		mov	r0, r8
 178 0080 FFF7FEFF 		bl	HAL_GPIO_WritePin
 179              	.LVL9:
 180              		.loc 2 13 30 view .LVU44
 181              	.LBE53:
 182              	.LBE52:
 183              	.LBB54:
 184              	.LBI54:
  12:Lib/DigitalInOut/DigitalInOut.hpp ****             HAL_GPIO_WritePin(port, pin, GPIO_PIN_RESET);
 185              		.loc 2 12 7 is_stmt 1 view .LVU45
 186              	.LBB55:
  12:Lib/DigitalInOut/DigitalInOut.hpp ****             HAL_GPIO_WritePin(port, pin, GPIO_PIN_RESET);
 187              		.loc 2 12 54 is_stmt 0 view .LVU46
 188 0084 C4F84480 		str	r8, [r4, #68]
  12:Lib/DigitalInOut/DigitalInOut.hpp ****             HAL_GPIO_WritePin(port, pin, GPIO_PIN_RESET);
 189              		.loc 2 12 66 view .LVU47
 190 0088 2021     		movs	r1, #32
ARM GAS  /var/folders/5c/srt4fy4j1pd641bjfx75k5000000gn/T//cczMU7hU.s 			page 5


 191 008a A4F84810 		strh	r1, [r4, #72]	@ movhi
 192              		.loc 2 13 13 is_stmt 1 view .LVU48
 193              		.loc 2 13 30 is_stmt 0 view .LVU49
 194 008e 0022     		movs	r2, #0
 195 0090 4046     		mov	r0, r8
 196 0092 FFF7FEFF 		bl	HAL_GPIO_WritePin
 197              	.LVL10:
 198              		.loc 2 13 30 view .LVU50
 199              	.LBE55:
 200              	.LBE54:
 201              	.LBB56:
 202              	.LBI56:
  12:Lib/DigitalInOut/DigitalInOut.hpp ****             HAL_GPIO_WritePin(port, pin, GPIO_PIN_RESET);
 203              		.loc 2 12 7 is_stmt 1 view .LVU51
 204              	.LBB57:
  12:Lib/DigitalInOut/DigitalInOut.hpp ****             HAL_GPIO_WritePin(port, pin, GPIO_PIN_RESET);
 205              		.loc 2 12 54 is_stmt 0 view .LVU52
 206 0096 E564     		str	r5, [r4, #76]
  12:Lib/DigitalInOut/DigitalInOut.hpp ****             HAL_GPIO_WritePin(port, pin, GPIO_PIN_RESET);
 207              		.loc 2 12 66 view .LVU53
 208 0098 A4F85070 		strh	r7, [r4, #80]	@ movhi
 209              		.loc 2 13 13 is_stmt 1 view .LVU54
 210              		.loc 2 13 30 is_stmt 0 view .LVU55
 211 009c 0022     		movs	r2, #0
 212 009e 3946     		mov	r1, r7
 213 00a0 2846     		mov	r0, r5
 214 00a2 FFF7FEFF 		bl	HAL_GPIO_WritePin
 215              	.LVL11:
 216              		.loc 2 13 30 view .LVU56
 217              	.LBE57:
 218              	.LBE56:
 219              	.LBB58:
 220              	.LBI58:
  12:Lib/DigitalInOut/DigitalInOut.hpp ****             HAL_GPIO_WritePin(port, pin, GPIO_PIN_RESET);
 221              		.loc 2 12 7 is_stmt 1 view .LVU57
 222              	.LBB59:
  12:Lib/DigitalInOut/DigitalInOut.hpp ****             HAL_GPIO_WritePin(port, pin, GPIO_PIN_RESET);
 223              		.loc 2 12 54 is_stmt 0 view .LVU58
 224 00a6 6565     		str	r5, [r4, #84]
  12:Lib/DigitalInOut/DigitalInOut.hpp ****             HAL_GPIO_WritePin(port, pin, GPIO_PIN_RESET);
 225              		.loc 2 12 66 view .LVU59
 226 00a8 4FF40051 		mov	r1, #8192
 227 00ac A4F85810 		strh	r1, [r4, #88]	@ movhi
 228              		.loc 2 13 13 is_stmt 1 view .LVU60
 229              		.loc 2 13 30 is_stmt 0 view .LVU61
 230 00b0 0022     		movs	r2, #0
 231 00b2 2846     		mov	r0, r5
 232 00b4 FFF7FEFF 		bl	HAL_GPIO_WritePin
 233              	.LVL12:
 234              		.loc 2 13 30 view .LVU62
 235              	.LBE59:
 236              	.LBE58:
 237              	.LBB60:
 238              	.LBI60:
 239              		.file 3 "Lib/BufferedSerial/BufferedSerial.hpp"
   1:Lib/BufferedSerial/BufferedSerial.hpp **** #ifndef __BUFFERED_SERIAL__
   2:Lib/BufferedSerial/BufferedSerial.hpp **** #define __BUFFERED_SERIAL__
ARM GAS  /var/folders/5c/srt4fy4j1pd641bjfx75k5000000gn/T//cczMU7hU.s 			page 6


   3:Lib/BufferedSerial/BufferedSerial.hpp **** 
   4:Lib/BufferedSerial/BufferedSerial.hpp **** #include <stdio.h>
   5:Lib/BufferedSerial/BufferedSerial.hpp **** 
   6:Lib/BufferedSerial/BufferedSerial.hpp **** #include "usart.h"
   7:Lib/BufferedSerial/BufferedSerial.hpp **** 
   8:Lib/BufferedSerial/BufferedSerial.hpp **** #ifdef __cplusplus
   9:Lib/BufferedSerial/BufferedSerial.hpp **** 
  10:Lib/BufferedSerial/BufferedSerial.hpp **** /*
  11:Lib/BufferedSerial/BufferedSerial.hpp ****  Initの順番をDMAが先になるようにする
  12:Lib/BufferedSerial/BufferedSerial.hpp ****  - MX_DMA_Init();
  13:Lib/BufferedSerial/BufferedSerial.hpp ****  - MX_USART2_UART_Init();
  14:Lib/BufferedSerial/BufferedSerial.hpp ****  - DMAはCircularモードにする
  15:Lib/BufferedSerial/BufferedSerial.hpp **** */
  16:Lib/BufferedSerial/BufferedSerial.hpp **** 
  17:Lib/BufferedSerial/BufferedSerial.hpp **** class BufferedSerial {
  18:Lib/BufferedSerial/BufferedSerial.hpp ****      public:
  19:Lib/BufferedSerial/BufferedSerial.hpp ****       BufferedSerial(UART_HandleTypeDef *huart, uint16_t rxBufSize)
 240              		.loc 3 19 7 is_stmt 1 view .LVU63
 241              	.LBB61:
  20:Lib/BufferedSerial/BufferedSerial.hpp ****           : _huart(huart),
 242              		.loc 3 20 13 is_stmt 0 view .LVU64
 243 00b8 0D4B     		ldr	r3, .L3+4
 244 00ba E365     		str	r3, [r4, #92]
  21:Lib/BufferedSerial/BufferedSerial.hpp ****             _rxBuf(new uint8_t[rxBufSize]),
 245              		.loc 3 21 41 view .LVU65
 246 00bc 3046     		mov	r0, r6
 247 00be FFF7FEFF 		bl	_Znaj
 248              	.LVL13:
 249              		.loc 3 21 13 view .LVU66
 250 00c2 2066     		str	r0, [r4, #96]
  22:Lib/BufferedSerial/BufferedSerial.hpp ****             rxTop(0),
 251              		.loc 3 22 13 view .LVU67
 252 00c4 0023     		movs	r3, #0
 253 00c6 A4F86430 		strh	r3, [r4, #100]	@ movhi
  23:Lib/BufferedSerial/BufferedSerial.hpp ****             rxBtm(0),
 254              		.loc 3 23 13 view .LVU68
 255 00ca A4F86630 		strh	r3, [r4, #102]	@ movhi
  24:Lib/BufferedSerial/BufferedSerial.hpp ****             _rxBufSize(rxBufSize),
 256              		.loc 3 24 13 view .LVU69
 257 00ce A4F86860 		strh	r6, [r4, #104]	@ movhi
  25:Lib/BufferedSerial/BufferedSerial.hpp ****             _useDMA(false) {
 258              		.loc 3 25 13 view .LVU70
 259 00d2 84F86A30 		strb	r3, [r4, #106]
 260              	.LVL14:
 261              		.loc 3 25 13 view .LVU71
 262              	.LBE61:
 263              	.LBE60:
 264              		.loc 1 5 20 view .LVU72
 265 00d6 2246     		mov	r2, r4
 266 00d8 04F12401 		add	r1, r4, #36
 267 00dc 04F17000 		add	r0, r4, #112
 268 00e0 FFF7FEFF 		bl	_ZN7EncoderC1EP10DigitalOutPh
 269              	.LVL15:
 270              	.LBE39:
   6:src/unit/hardware/hardware.cpp **** }
 271              		.loc 1 6 1 view .LVU73
 272 00e4 2046     		mov	r0, r4
ARM GAS  /var/folders/5c/srt4fy4j1pd641bjfx75k5000000gn/T//cczMU7hU.s 			page 7


 273 00e6 BDE8F081 		pop	{r4, r5, r6, r7, r8, pc}
 274              	.LVL16:
 275              	.L4:
 276              		.loc 1 6 1 view .LVU74
 277 00ea 00BF     		.align	2
 278              	.L3:
 279 00ec 00080240 		.word	1073874944
 280 00f0 00000000 		.word	huart6
 281 00f4 00000240 		.word	1073872896
 282              		.cfi_endproc
 283              	.LFE263:
 284              		.fnend
 286              		.global	_ZN8HardwareC1Ev
 287              		.thumb_set _ZN8HardwareC1Ev,_ZN8HardwareC2Ev
 288              		.section	.text._ZN8Hardware4InitEv,"ax",%progbits
 289              		.align	1
 290              		.global	_ZN8Hardware4InitEv
 291              		.syntax unified
 292              		.thumb
 293              		.thumb_func
 295              	_ZN8Hardware4InitEv:
 296              		.fnstart
 297              	.LVL17:
 298              	.LFB265:
   7:src/unit/hardware/hardware.cpp **** 
   8:src/unit/hardware/hardware.cpp **** void Hardware::Init() {
 299              		.loc 1 8 23 is_stmt 1 view -0
 300              		.cfi_startproc
 301              		@ args = 0, pretend = 0, frame = 0
 302              		@ frame_needed = 0, uses_anonymous_args = 0
 303              		.loc 1 8 23 is_stmt 0 view .LVU76
 304 0000 38B5     		push	{r3, r4, r5, lr}
 305              		.save {r3, r4, r5, lr}
 306              	.LCFI1:
 307              		.cfi_def_cfa_offset 16
 308              		.cfi_offset 3, -16
 309              		.cfi_offset 4, -12
 310              		.cfi_offset 5, -8
 311              		.cfi_offset 14, -4
 312 0002 0446     		mov	r4, r0
   9:src/unit/hardware/hardware.cpp ****       HAL_ADC_Start(&hadc1);
 313              		.loc 1 9 7 is_stmt 1 view .LVU77
 314              		.loc 1 9 20 is_stmt 0 view .LVU78
 315 0004 0E4D     		ldr	r5, .L9
 316 0006 2846     		mov	r0, r5
 317              	.LVL18:
 318              		.loc 1 9 20 view .LVU79
 319 0008 FFF7FEFF 		bl	HAL_ADC_Start
 320              	.LVL19:
  10:src/unit/hardware/hardware.cpp ****       HAL_ADC_Start_DMA(&hadc1, (uint32_t *)&adc_get_val, 12);
 321              		.loc 1 10 7 is_stmt 1 view .LVU80
 322              		.loc 1 10 24 is_stmt 0 view .LVU81
 323 000c 0C22     		movs	r2, #12
 324 000e 0D49     		ldr	r1, .L9+4
 325 0010 2846     		mov	r0, r5
 326 0012 FFF7FEFF 		bl	HAL_ADC_Start_DMA
 327              	.LVL20:
ARM GAS  /var/folders/5c/srt4fy4j1pd641bjfx75k5000000gn/T//cczMU7hU.s 			page 8


  11:src/unit/hardware/hardware.cpp ****       for (uint8_t i = 0; i < 12; i++) {
 328              		.loc 1 11 7 is_stmt 1 view .LVU82
 329              	.LBB62:
 330              		.loc 1 11 20 is_stmt 0 view .LVU83
 331 0016 0022     		movs	r2, #0
 332              		.loc 1 11 7 view .LVU84
 333 0018 06E0     		b	.L6
 334              	.LVL21:
 335              	.L7:
  12:src/unit/hardware/hardware.cpp ****             while (!(adc_get_val[i] > 0));
 336              		.loc 1 12 20 is_stmt 1 discriminator 1 view .LVU85
 337              		.loc 1 12 35 is_stmt 0 discriminator 1 view .LVU86
 338 001a 0A4B     		ldr	r3, .L9+4
 339 001c 33F81230 		ldrh	r3, [r3, r2, lsl #1]
 340              		.loc 1 12 20 discriminator 1 view .LVU87
 341 0020 002B     		cmp	r3, #0
 342 0022 FAD0     		beq	.L7
  11:src/unit/hardware/hardware.cpp ****       for (uint8_t i = 0; i < 12; i++) {
 343              		.loc 1 11 7 is_stmt 1 discriminator 2 view .LVU88
 344 0024 0132     		adds	r2, r2, #1
 345              	.LVL22:
  11:src/unit/hardware/hardware.cpp ****       for (uint8_t i = 0; i < 12; i++) {
 346              		.loc 1 11 7 is_stmt 0 discriminator 2 view .LVU89
 347 0026 D2B2     		uxtb	r2, r2
 348              	.LVL23:
 349              	.L6:
  11:src/unit/hardware/hardware.cpp ****       for (uint8_t i = 0; i < 12; i++) {
 350              		.loc 1 11 29 is_stmt 1 discriminator 1 view .LVU90
 351 0028 0B2A     		cmp	r2, #11
 352 002a F6D9     		bls	.L7
 353              	.LBE62:
  13:src/unit/hardware/hardware.cpp ****       }
  14:src/unit/hardware/hardware.cpp **** 
  15:src/unit/hardware/hardware.cpp ****       // 諸々の初期化
  16:src/unit/hardware/hardware.cpp ****       serial6.init();
 354              		.loc 1 16 7 view .LVU91
 355              	.LVL24:
 356              	.LBB63:
 357              	.LBI63:
  26:Lib/BufferedSerial/BufferedSerial.hpp ****       }
  27:Lib/BufferedSerial/BufferedSerial.hpp ****       void init(bool dma = false) {
 358              		.loc 3 27 12 view .LVU92
 359              	.LBB64:
  28:Lib/BufferedSerial/BufferedSerial.hpp ****             _useDMA = dma;
 360              		.loc 3 28 13 view .LVU93
 361              		.loc 3 28 21 is_stmt 0 view .LVU94
 362 002c 0023     		movs	r3, #0
 363 002e 84F86A30 		strb	r3, [r4, #106]
  29:Lib/BufferedSerial/BufferedSerial.hpp ****             HAL_UART_Receive_DMA(_huart, _rxBuf, _rxBufSize);
 364              		.loc 3 29 13 is_stmt 1 view .LVU95
 365              		.loc 3 29 33 is_stmt 0 view .LVU96
 366 0032 B4F86820 		ldrh	r2, [r4, #104]
 367              	.LVL25:
 368              		.loc 3 29 33 view .LVU97
 369 0036 216E     		ldr	r1, [r4, #96]
 370 0038 E06D     		ldr	r0, [r4, #92]
 371 003a FFF7FEFF 		bl	HAL_UART_Receive_DMA
ARM GAS  /var/folders/5c/srt4fy4j1pd641bjfx75k5000000gn/T//cczMU7hU.s 			page 9


 372              	.LVL26:
 373              		.loc 3 29 33 view .LVU98
 374              	.LBE64:
 375              	.LBE63:
  17:src/unit/hardware/hardware.cpp **** }
 376              		.loc 1 17 1 view .LVU99
 377 003e 38BD     		pop	{r3, r4, r5, pc}
 378              	.LVL27:
 379              	.L10:
 380              		.loc 1 17 1 view .LVU100
 381              		.align	2
 382              	.L9:
 383 0040 00000000 		.word	hadc1
 384 0044 00000000 		.word	adc_get_val
 385              		.cfi_endproc
 386              	.LFE265:
 387              		.fnend
 389              		.section	.text._ZN8Hardware10GetSensorsEv,"ax",%progbits
 390              		.align	1
 391              		.global	_ZN8Hardware10GetSensorsEv
 392              		.syntax unified
 393              		.thumb
 394              		.thumb_func
 396              	_ZN8Hardware10GetSensorsEv:
 397              		.fnstart
 398              	.LVL28:
 399              	.LFB266:
  18:src/unit/hardware/hardware.cpp **** 
  19:src/unit/hardware/hardware.cpp **** void Hardware::GetSensors() {
 400              		.loc 1 19 29 is_stmt 1 view -0
 401              		.cfi_startproc
 402              		@ args = 0, pretend = 0, frame = 0
 403              		@ frame_needed = 0, uses_anonymous_args = 0
 404              		@ link register save eliminated.
  20:src/unit/hardware/hardware.cpp ****       info.Encoder.photo_val[0] = adc_get_val[0];
 405              		.loc 1 20 7 view .LVU102
 406              		.loc 1 20 48 is_stmt 0 view .LVU103
 407 0000 0C4B     		ldr	r3, .L12
 408 0002 1A88     		ldrh	r2, [r3]
 409              		.loc 1 20 33 view .LVU104
 410 0004 0270     		strb	r2, [r0]
  21:src/unit/hardware/hardware.cpp ****       info.Encoder.photo_val[1] = adc_get_val[1];
 411              		.loc 1 21 7 is_stmt 1 view .LVU105
 412              		.loc 1 21 48 is_stmt 0 view .LVU106
 413 0006 5A88     		ldrh	r2, [r3, #2]
 414              		.loc 1 21 33 view .LVU107
 415 0008 4270     		strb	r2, [r0, #1]
  22:src/unit/hardware/hardware.cpp ****       info.Encoder.photo_val[2] = adc_get_val[2];
 416              		.loc 1 22 7 is_stmt 1 view .LVU108
 417              		.loc 1 22 48 is_stmt 0 view .LVU109
 418 000a 9A88     		ldrh	r2, [r3, #4]
 419              		.loc 1 22 33 view .LVU110
 420 000c 8270     		strb	r2, [r0, #2]
  23:src/unit/hardware/hardware.cpp ****       info.Encoder.photo_val[3] = adc_get_val[3];
 421              		.loc 1 23 7 is_stmt 1 view .LVU111
 422              		.loc 1 23 48 is_stmt 0 view .LVU112
 423 000e DA88     		ldrh	r2, [r3, #6]
ARM GAS  /var/folders/5c/srt4fy4j1pd641bjfx75k5000000gn/T//cczMU7hU.s 			page 10


 424              		.loc 1 23 33 view .LVU113
 425 0010 C270     		strb	r2, [r0, #3]
  24:src/unit/hardware/hardware.cpp **** 
  25:src/unit/hardware/hardware.cpp ****       info.Line.leftside_val = adc_get_val[4];
 426              		.loc 1 25 7 is_stmt 1 view .LVU114
 427              		.loc 1 25 45 is_stmt 0 view .LVU115
 428 0012 1A89     		ldrh	r2, [r3, #8]
 429              		.loc 1 25 30 view .LVU116
 430 0014 0271     		strb	r2, [r0, #4]
  26:src/unit/hardware/hardware.cpp ****       info.Line.rightside_val = adc_get_val[5];
 431              		.loc 1 26 7 is_stmt 1 view .LVU117
 432              		.loc 1 26 46 is_stmt 0 view .LVU118
 433 0016 5A89     		ldrh	r2, [r3, #10]
 434              		.loc 1 26 31 view .LVU119
 435 0018 4271     		strb	r2, [r0, #5]
  27:src/unit/hardware/hardware.cpp ****       info.Line.mux1x_val = adc_get_val[6];
 436              		.loc 1 27 7 is_stmt 1 view .LVU120
 437              		.loc 1 27 42 is_stmt 0 view .LVU121
 438 001a 9A89     		ldrh	r2, [r3, #12]
 439              		.loc 1 27 27 view .LVU122
 440 001c 8271     		strb	r2, [r0, #6]
  28:src/unit/hardware/hardware.cpp ****       info.Line.mux1y_val = adc_get_val[7];
 441              		.loc 1 28 7 is_stmt 1 view .LVU123
 442              		.loc 1 28 42 is_stmt 0 view .LVU124
 443 001e DA89     		ldrh	r2, [r3, #14]
 444              		.loc 1 28 27 view .LVU125
 445 0020 C271     		strb	r2, [r0, #7]
  29:src/unit/hardware/hardware.cpp ****       info.Line.mux2x_val = adc_get_val[8];
 446              		.loc 1 29 7 is_stmt 1 view .LVU126
 447              		.loc 1 29 42 is_stmt 0 view .LVU127
 448 0022 1A8A     		ldrh	r2, [r3, #16]
 449              		.loc 1 29 27 view .LVU128
 450 0024 0272     		strb	r2, [r0, #8]
  30:src/unit/hardware/hardware.cpp ****       info.Line.mux2y_val = adc_get_val[9];
 451              		.loc 1 30 7 is_stmt 1 view .LVU129
 452              		.loc 1 30 42 is_stmt 0 view .LVU130
 453 0026 5A8A     		ldrh	r2, [r3, #18]
 454              		.loc 1 30 27 view .LVU131
 455 0028 4272     		strb	r2, [r0, #9]
  31:src/unit/hardware/hardware.cpp ****       info.Line.mux3x_val = adc_get_val[10];
 456              		.loc 1 31 7 is_stmt 1 view .LVU132
 457              		.loc 1 31 43 is_stmt 0 view .LVU133
 458 002a 9A8A     		ldrh	r2, [r3, #20]
 459              		.loc 1 31 27 view .LVU134
 460 002c 8272     		strb	r2, [r0, #10]
  32:src/unit/hardware/hardware.cpp ****       info.Line.mux3y_val = adc_get_val[11];
 461              		.loc 1 32 7 is_stmt 1 view .LVU135
 462              		.loc 1 32 43 is_stmt 0 view .LVU136
 463 002e DB8A     		ldrh	r3, [r3, #22]
 464              		.loc 1 32 27 view .LVU137
 465 0030 C372     		strb	r3, [r0, #11]
  33:src/unit/hardware/hardware.cpp **** }
 466              		.loc 1 33 1 view .LVU138
 467 0032 7047     		bx	lr
 468              	.L13:
 469              		.align	2
 470              	.L12:
ARM GAS  /var/folders/5c/srt4fy4j1pd641bjfx75k5000000gn/T//cczMU7hU.s 			page 11


 471 0034 00000000 		.word	adc_get_val
 472              		.cfi_endproc
 473              	.LFE266:
 474              		.cantunwind
 475              		.fnend
 477              		.global	adc_get_val
 478              		.section	.bss.adc_get_val,"aw",%nobits
 479              		.align	2
 482              	adc_get_val:
 483 0000 00000000 		.space	24
 483      00000000 
 483      00000000 
 483      00000000 
 483      00000000 
 484              		.text
 485              	.Letext0:
 486              		.file 4 "/opt/ST/STM32CubeCLT_1.16.0/GNU-tools-for-STM32/arm-none-eabi/include/machine/_default_ty
 487              		.file 5 "/opt/ST/STM32CubeCLT_1.16.0/GNU-tools-for-STM32/lib/gcc/arm-none-eabi/12.3.1/include/stdd
 488              		.file 6 "/opt/ST/STM32CubeCLT_1.16.0/GNU-tools-for-STM32/arm-none-eabi/include/sys/_types.h"
 489              		.file 7 "/opt/ST/STM32CubeCLT_1.16.0/GNU-tools-for-STM32/arm-none-eabi/include/sys/reent.h"
 490              		.file 8 "/opt/ST/STM32CubeCLT_1.16.0/GNU-tools-for-STM32/arm-none-eabi/include/sys/lock.h"
 491              		.file 9 "/opt/ST/STM32CubeCLT_1.16.0/GNU-tools-for-STM32/arm-none-eabi/include/stdio.h"
 492              		.file 10 "/opt/ST/STM32CubeCLT_1.16.0/GNU-tools-for-STM32/arm-none-eabi/include/sys/_stdint.h"
 493              		.file 11 "Drivers/CMSIS/Device/ST/STM32F4xx/Include/stm32f446xx.h"
 494              		.file 12 "Drivers/CMSIS/Device/ST/STM32F4xx/Include/stm32f4xx.h"
 495              		.file 13 "Drivers/STM32F4xx_HAL_Driver/Inc/stm32f4xx_hal_def.h"
 496              		.file 14 "Drivers/STM32F4xx_HAL_Driver/Inc/stm32f4xx_hal_gpio.h"
 497              		.file 15 "Drivers/STM32F4xx_HAL_Driver/Inc/stm32f4xx_hal_dma.h"
 498              		.file 16 "Drivers/STM32F4xx_HAL_Driver/Inc/stm32f4xx_hal_adc.h"
 499              		.file 17 "Drivers/STM32F4xx_HAL_Driver/Inc/stm32f4xx_hal_uart.h"
 500              		.file 18 "Drivers/STM32F4xx_HAL_Driver/Inc/stm32f4xx_hal.h"
 501              		.file 19 "/opt/ST/STM32CubeCLT_1.16.0/GNU-tools-for-STM32/arm-none-eabi/include/c++/12.3.1/cstdio"
 502              		.file 20 "/opt/ST/STM32CubeCLT_1.16.0/GNU-tools-for-STM32/arm-none-eabi/include/c++/12.3.1/arm-non
 503              		.file 21 "Core/Inc/usart.h"
 504              		.file 22 "Core/Inc/adc.h"
 505              		.file 23 "Lib/MovingAve/MovingAve.hpp"
 506              		.file 24 "Lib/Timer/Timer.hpp"
 507              		.file 25 "src/unit/encoder/encoder.hpp"
 508              		.file 26 "src/unit/hardware/hardware.hpp"
ARM GAS  /var/folders/5c/srt4fy4j1pd641bjfx75k5000000gn/T//cczMU7hU.s 			page 12


DEFINED SYMBOLS
                            *ABS*:00000000 hardware.cpp
/var/folders/5c/srt4fy4j1pd641bjfx75k5000000gn/T//cczMU7hU.s:21     .text._ZN8HardwareC2Ev:00000000 $t
/var/folders/5c/srt4fy4j1pd641bjfx75k5000000gn/T//cczMU7hU.s:27     .text._ZN8HardwareC2Ev:00000000 _ZN8HardwareC2Ev
/var/folders/5c/srt4fy4j1pd641bjfx75k5000000gn/T//cczMU7hU.s:279    .text._ZN8HardwareC2Ev:000000ec $d
 .ARM.exidx.text._ZN8HardwareC2Ev:00000000 $d
/var/folders/5c/srt4fy4j1pd641bjfx75k5000000gn/T//cczMU7hU.s:27     .text._ZN8HardwareC2Ev:00000000 _ZN8HardwareC1Ev
/var/folders/5c/srt4fy4j1pd641bjfx75k5000000gn/T//cczMU7hU.s:289    .text._ZN8Hardware4InitEv:00000000 $t
/var/folders/5c/srt4fy4j1pd641bjfx75k5000000gn/T//cczMU7hU.s:295    .text._ZN8Hardware4InitEv:00000000 _ZN8Hardware4InitEv
/var/folders/5c/srt4fy4j1pd641bjfx75k5000000gn/T//cczMU7hU.s:383    .text._ZN8Hardware4InitEv:00000040 $d
/var/folders/5c/srt4fy4j1pd641bjfx75k5000000gn/T//cczMU7hU.s:482    .bss.adc_get_val:00000000 adc_get_val
.ARM.exidx.text._ZN8Hardware4InitEv:00000000 $d
/var/folders/5c/srt4fy4j1pd641bjfx75k5000000gn/T//cczMU7hU.s:390    .text._ZN8Hardware10GetSensorsEv:00000000 $t
/var/folders/5c/srt4fy4j1pd641bjfx75k5000000gn/T//cczMU7hU.s:396    .text._ZN8Hardware10GetSensorsEv:00000000 _ZN8Hardware10GetSensorsEv
/var/folders/5c/srt4fy4j1pd641bjfx75k5000000gn/T//cczMU7hU.s:471    .text._ZN8Hardware10GetSensorsEv:00000034 $d
.ARM.exidx.text._ZN8Hardware10GetSensorsEv:00000000 $d
/var/folders/5c/srt4fy4j1pd641bjfx75k5000000gn/T//cczMU7hU.s:479    .bss.adc_get_val:00000000 $d

UNDEFINED SYMBOLS
HAL_GPIO_WritePin
_Znaj
_ZN7EncoderC1EP10DigitalOutPh
huart6
__aeabi_unwind_cpp_pr0
HAL_ADC_Start
HAL_ADC_Start_DMA
HAL_UART_Receive_DMA
hadc1
