ARM GAS  /var/folders/5c/srt4fy4j1pd641bjfx75k5000000gn/T//ccSo7jei.s 			page 1


   1              		.cpu cortex-m4
   2              		.arch armv7e-m
   3              		.fpu fpv4-sp-d16
   4              		.eabi_attribute 27, 1
   5              		.eabi_attribute 28, 1
   6              		.eabi_attribute 20, 1
   7              		.eabi_attribute 21, 1
   8              		.eabi_attribute 23, 3
   9              		.eabi_attribute 24, 1
  10              		.eabi_attribute 25, 1
  11              		.eabi_attribute 26, 1
  12              		.eabi_attribute 30, 1
  13              		.eabi_attribute 34, 1
  14              		.eabi_attribute 18, 4
  15              		.file	"hardware.cpp"
  16              		.text
  17              	.Ltext0:
  18              		.cfi_sections	.debug_frame
  19              		.file 1 "src/unit/hardware/hardware.cpp"
  20              		.section	.text._ZN14BufferedSerial9availableEv,"axG",%progbits,_ZN14BufferedSerial9availableEv,com
  21              		.align	1
  22              		.weak	_ZN14BufferedSerial9availableEv
  23              		.syntax unified
  24              		.thumb
  25              		.thumb_func
  27              	_ZN14BufferedSerial9availableEv:
  28              		.fnstart
  29              	.LVL0:
  30              	.LFB247:
  31              		.file 2 "Lib/BufferedSerial/BufferedSerial.hpp"
   1:Lib/BufferedSerial/BufferedSerial.hpp **** #ifndef __BUFFERED_SERIAL__
   2:Lib/BufferedSerial/BufferedSerial.hpp **** #define __BUFFERED_SERIAL__
   3:Lib/BufferedSerial/BufferedSerial.hpp **** 
   4:Lib/BufferedSerial/BufferedSerial.hpp **** #include <stdio.h>
   5:Lib/BufferedSerial/BufferedSerial.hpp **** 
   6:Lib/BufferedSerial/BufferedSerial.hpp **** #include "usart.h"
   7:Lib/BufferedSerial/BufferedSerial.hpp **** 
   8:Lib/BufferedSerial/BufferedSerial.hpp **** #ifdef __cplusplus
   9:Lib/BufferedSerial/BufferedSerial.hpp **** 
  10:Lib/BufferedSerial/BufferedSerial.hpp **** /*
  11:Lib/BufferedSerial/BufferedSerial.hpp ****  Initの順番をDMAが先になるようにする
  12:Lib/BufferedSerial/BufferedSerial.hpp ****  - MX_DMA_Init();
  13:Lib/BufferedSerial/BufferedSerial.hpp ****  - MX_USART2_UART_Init();
  14:Lib/BufferedSerial/BufferedSerial.hpp ****  - DMAはCircularモードにする
  15:Lib/BufferedSerial/BufferedSerial.hpp **** */
  16:Lib/BufferedSerial/BufferedSerial.hpp **** 
  17:Lib/BufferedSerial/BufferedSerial.hpp **** class BufferedSerial {
  18:Lib/BufferedSerial/BufferedSerial.hpp ****      public:
  19:Lib/BufferedSerial/BufferedSerial.hpp ****       BufferedSerial(UART_HandleTypeDef *huart, uint16_t rxBufSize)
  20:Lib/BufferedSerial/BufferedSerial.hpp ****           : _huart(huart),
  21:Lib/BufferedSerial/BufferedSerial.hpp ****             _rxBuf(new uint8_t[rxBufSize]),
  22:Lib/BufferedSerial/BufferedSerial.hpp ****             rxTop(0),
  23:Lib/BufferedSerial/BufferedSerial.hpp ****             rxBtm(0),
  24:Lib/BufferedSerial/BufferedSerial.hpp ****             _rxBufSize(rxBufSize),
  25:Lib/BufferedSerial/BufferedSerial.hpp ****             _useDMA(false) {}
  26:Lib/BufferedSerial/BufferedSerial.hpp ****       ~BufferedSerial() {
  27:Lib/BufferedSerial/BufferedSerial.hpp ****             delete[] _rxBuf;
ARM GAS  /var/folders/5c/srt4fy4j1pd641bjfx75k5000000gn/T//ccSo7jei.s 			page 2


  28:Lib/BufferedSerial/BufferedSerial.hpp ****       }
  29:Lib/BufferedSerial/BufferedSerial.hpp **** 
  30:Lib/BufferedSerial/BufferedSerial.hpp ****       void init(bool dma = false) {
  31:Lib/BufferedSerial/BufferedSerial.hpp ****             _useDMA = dma;
  32:Lib/BufferedSerial/BufferedSerial.hpp ****             HAL_UART_Receive_DMA(_huart, _rxBuf, _rxBufSize);
  33:Lib/BufferedSerial/BufferedSerial.hpp ****       }
  34:Lib/BufferedSerial/BufferedSerial.hpp **** 
  35:Lib/BufferedSerial/BufferedSerial.hpp ****       bool available() {
  32              		.loc 2 35 12 view -0
  33              		.cfi_startproc
  34              		@ args = 0, pretend = 0, frame = 0
  35              		@ frame_needed = 0, uses_anonymous_args = 0
  36              		.loc 2 35 12 is_stmt 0 view .LVU1
  37 0000 10B5     		push	{r4, lr}
  38              		.save {r4, lr}
  39              	.LCFI0:
  40              		.cfi_def_cfa_offset 8
  41              		.cfi_offset 4, -8
  42              		.cfi_offset 14, -4
  43 0002 0446     		mov	r4, r0
  36:Lib/BufferedSerial/BufferedSerial.hpp ****             if (__HAL_UART_GET_FLAG(_huart, UART_FLAG_ORE) || __HAL_UART_GET_FLAG(_huart, UART_FLAG
  44              		.loc 2 36 13 is_stmt 1 view .LVU2
  45              		.loc 2 36 17 is_stmt 0 view .LVU3
  46 0004 0068     		ldr	r0, [r0]
  47              	.LVL1:
  48              		.loc 2 36 17 view .LVU4
  49 0006 0368     		ldr	r3, [r0]
  50 0008 1A68     		ldr	r2, [r3]
  51              		.loc 2 36 150 view .LVU5
  52 000a 12F0080F 		tst	r2, #8
  53 000e 0BD1     		bne	.L2
  54              		.loc 2 36 63 discriminator 2 view .LVU6
  55 0010 1A68     		ldr	r2, [r3]
  56              		.loc 2 36 60 discriminator 2 view .LVU7
  57 0012 12F0040F 		tst	r2, #4
  58 0016 07D1     		bne	.L2
  59              		.loc 2 36 108 discriminator 4 view .LVU8
  60 0018 1A68     		ldr	r2, [r3]
  61              		.loc 2 36 105 discriminator 4 view .LVU9
  62 001a 12F0020F 		tst	r2, #2
  63 001e 03D1     		bne	.L2
  64              		.loc 2 36 153 discriminator 6 view .LVU10
  65 0020 1B68     		ldr	r3, [r3]
  66              		.loc 2 36 150 discriminator 6 view .LVU11
  67 0022 13F0010F 		tst	r3, #1
  68 0026 06D0     		beq	.L3
  69              	.L2:
  37:Lib/BufferedSerial/BufferedSerial.hpp ****                   HAL_UART_Abort(_huart);
  70              		.loc 2 37 19 is_stmt 1 view .LVU12
  71              		.loc 2 37 33 is_stmt 0 view .LVU13
  72 0028 FFF7FEFF 		bl	HAL_UART_Abort
  73              	.LVL2:
  38:Lib/BufferedSerial/BufferedSerial.hpp ****                   HAL_UART_Receive_DMA(_huart, _rxBuf, _rxBufSize);
  74              		.loc 2 38 19 is_stmt 1 view .LVU14
  75              		.loc 2 38 39 is_stmt 0 view .LVU15
  76 002c A289     		ldrh	r2, [r4, #12]
  77 002e 6168     		ldr	r1, [r4, #4]
ARM GAS  /var/folders/5c/srt4fy4j1pd641bjfx75k5000000gn/T//ccSo7jei.s 			page 3


  78 0030 2068     		ldr	r0, [r4]
  79 0032 FFF7FEFF 		bl	HAL_UART_Receive_DMA
  80              	.LVL3:
  81              	.L3:
  39:Lib/BufferedSerial/BufferedSerial.hpp ****             }
  40:Lib/BufferedSerial/BufferedSerial.hpp ****             uint16_t rxTop = _rxBufSize - _huart->hdmarx->Instance->NDTR;
  82              		.loc 2 40 13 is_stmt 1 view .LVU16
  83              		.loc 2 40 30 is_stmt 0 view .LVU17
  84 0036 A389     		ldrh	r3, [r4, #12]
  85              		.loc 2 40 43 view .LVU18
  86 0038 2268     		ldr	r2, [r4]
  87              		.loc 2 40 51 view .LVU19
  88 003a D26B     		ldr	r2, [r2, #60]
  89              		.loc 2 40 59 view .LVU20
  90 003c 1268     		ldr	r2, [r2]
  91              		.loc 2 40 69 view .LVU21
  92 003e 5268     		ldr	r2, [r2, #4]
  93              		.loc 2 40 41 view .LVU22
  94 0040 92B2     		uxth	r2, r2
  95              		.loc 2 40 69 view .LVU23
  96 0042 9B1A     		subs	r3, r3, r2
  97 0044 9BB2     		uxth	r3, r3
  98              	.LVL4:
  41:Lib/BufferedSerial/BufferedSerial.hpp ****             return rxTop != rxBtm;
  99              		.loc 2 41 13 is_stmt 1 view .LVU24
 100              		.loc 2 41 29 is_stmt 0 view .LVU25
 101 0046 6089     		ldrh	r0, [r4, #10]
  42:Lib/BufferedSerial/BufferedSerial.hpp ****       }
 102              		.loc 2 42 7 view .LVU26
 103 0048 C01A     		subs	r0, r0, r3
 104 004a 18BF     		it	ne
 105 004c 0120     		movne	r0, #1
 106 004e 10BD     		pop	{r4, pc}
 107              		.loc 2 42 7 view .LVU27
 108              		.cfi_endproc
 109              	.LFE247:
 110              		.fnend
 112              		.section	.text._ZN14BufferedSerial4readEv,"axG",%progbits,_ZN14BufferedSerial4readEv,comdat
 113              		.align	1
 114              		.weak	_ZN14BufferedSerial4readEv
 115              		.syntax unified
 116              		.thumb
 117              		.thumb_func
 119              	_ZN14BufferedSerial4readEv:
 120              		.fnstart
 121              	.LVL5:
 122              	.LFB248:
  43:Lib/BufferedSerial/BufferedSerial.hpp **** 
  44:Lib/BufferedSerial/BufferedSerial.hpp ****       uint8_t read() {
 123              		.loc 2 44 15 is_stmt 1 view -0
 124              		.cfi_startproc
 125              		@ args = 0, pretend = 0, frame = 0
 126              		@ frame_needed = 0, uses_anonymous_args = 0
 127              		@ link register save eliminated.
 128              		.loc 2 44 15 is_stmt 0 view .LVU29
 129 0000 0246     		mov	r2, r0
  45:Lib/BufferedSerial/BufferedSerial.hpp ****             uint16_t rxTop = _rxBufSize - _huart->hdmarx->Instance->NDTR;
ARM GAS  /var/folders/5c/srt4fy4j1pd641bjfx75k5000000gn/T//ccSo7jei.s 			page 4


 130              		.loc 2 45 13 is_stmt 1 view .LVU30
 131              		.loc 2 45 30 is_stmt 0 view .LVU31
 132 0002 B0F80CC0 		ldrh	ip, [r0, #12]
 133              		.loc 2 45 43 view .LVU32
 134 0006 0368     		ldr	r3, [r0]
 135              		.loc 2 45 51 view .LVU33
 136 0008 DB6B     		ldr	r3, [r3, #60]
 137              		.loc 2 45 59 view .LVU34
 138 000a 1B68     		ldr	r3, [r3]
 139              		.loc 2 45 69 view .LVU35
 140 000c 5B68     		ldr	r3, [r3, #4]
 141              		.loc 2 45 41 view .LVU36
 142 000e 9BB2     		uxth	r3, r3
 143              		.loc 2 45 69 view .LVU37
 144 0010 ACEB0303 		sub	r3, ip, r3
 145 0014 9BB2     		uxth	r3, r3
 146              	.LVL6:
  46:Lib/BufferedSerial/BufferedSerial.hpp ****             if (rxTop == rxBtm) {
 147              		.loc 2 46 13 is_stmt 1 view .LVU38
 148              		.loc 2 46 26 is_stmt 0 view .LVU39
 149 0016 4189     		ldrh	r1, [r0, #10]
 150              		.loc 2 46 13 view .LVU40
 151 0018 9942     		cmp	r1, r3
 152 001a 08D0     		beq	.L7
  47:Lib/BufferedSerial/BufferedSerial.hpp ****                   return 0;
  48:Lib/BufferedSerial/BufferedSerial.hpp ****             }
  49:Lib/BufferedSerial/BufferedSerial.hpp ****             uint8_t data = _rxBuf[rxBtm];
 153              		.loc 2 49 13 is_stmt 1 view .LVU41
 154              		.loc 2 49 28 is_stmt 0 view .LVU42
 155 001c 4368     		ldr	r3, [r0, #4]
 156              	.LVL7:
 157              		.loc 2 49 21 view .LVU43
 158 001e 585C     		ldrb	r0, [r3, r1]	@ zero_extendqisi2
 159              	.LVL8:
  50:Lib/BufferedSerial/BufferedSerial.hpp ****             rxBtm = (rxBtm + 1) % _rxBufSize;
 160              		.loc 2 50 13 is_stmt 1 view .LVU44
 161              		.loc 2 50 28 is_stmt 0 view .LVU45
 162 0020 0131     		adds	r1, r1, #1
 163              		.loc 2 50 33 view .LVU46
 164 0022 91FBFCF3 		sdiv	r3, r1, ip
 165 0026 0CFB1311 		mls	r1, ip, r3, r1
 166              		.loc 2 50 19 view .LVU47
 167 002a 5181     		strh	r1, [r2, #10]	@ movhi
  51:Lib/BufferedSerial/BufferedSerial.hpp ****             return data;
 168              		.loc 2 51 13 is_stmt 1 view .LVU48
 169              		.loc 2 51 20 is_stmt 0 view .LVU49
 170 002c 7047     		bx	lr
 171              	.LVL9:
 172              	.L7:
  47:Lib/BufferedSerial/BufferedSerial.hpp ****                   return 0;
 173              		.loc 2 47 26 view .LVU50
 174 002e 0020     		movs	r0, #0
 175              	.LVL10:
  52:Lib/BufferedSerial/BufferedSerial.hpp ****       }
 176              		.loc 2 52 7 view .LVU51
 177 0030 7047     		bx	lr
 178              		.cfi_endproc
ARM GAS  /var/folders/5c/srt4fy4j1pd641bjfx75k5000000gn/T//ccSo7jei.s 			page 5


 179              	.LFE248:
 180              		.cantunwind
 181              		.fnend
 183              		.section	.text._ZN8HardwareC2Ev,"ax",%progbits
 184              		.align	1
 185              		.global	_ZN8HardwareC2Ev
 186              		.syntax unified
 187              		.thumb
 188              		.thumb_func
 190              	_ZN8HardwareC2Ev:
 191              		.fnstart
 192              	.LVL11:
 193              	.LFB265:
   1:src/unit/hardware/hardware.cpp **** #include "hardware.hpp"
   2:src/unit/hardware/hardware.cpp **** 
   3:src/unit/hardware/hardware.cpp **** uint16_t adc_get_val[12];
   4:src/unit/hardware/hardware.cpp **** 
   5:src/unit/hardware/hardware.cpp **** Hardware::Hardware() {
 194              		.loc 1 5 1 is_stmt 1 view -0
 195              		.cfi_startproc
 196              		@ args = 0, pretend = 0, frame = 8
 197              		@ frame_needed = 0, uses_anonymous_args = 0
 198              		.loc 1 5 1 is_stmt 0 view .LVU53
 199 0000 2DE9F04F 		push	{r4, r5, r6, r7, r8, r9, r10, fp, lr}
 200              		.save {r4, r5, r6, r7, r8, r9, r10, fp, lr}
 201              	.LCFI1:
 202              		.cfi_def_cfa_offset 36
 203              		.cfi_offset 4, -36
 204              		.cfi_offset 5, -32
 205              		.cfi_offset 6, -28
 206              		.cfi_offset 7, -24
 207              		.cfi_offset 8, -20
 208              		.cfi_offset 9, -16
 209              		.cfi_offset 10, -12
 210              		.cfi_offset 11, -8
 211              		.cfi_offset 14, -4
 212              		.pad #60
 213 0004 8FB0     		sub	sp, sp, #60
 214              	.LCFI2:
 215              		.cfi_def_cfa_offset 96
 216 0006 0446     		mov	r4, r0
 217              	.LVL12:
 218              	.LBB50:
 219              	.LBB51:
 220              	.LBI51:
 221              		.file 3 "Lib/DigitalInOut/DigitalInOut.hpp"
   1:Lib/DigitalInOut/DigitalInOut.hpp **** #ifndef __DIGITALINOUT__
   2:Lib/DigitalInOut/DigitalInOut.hpp **** #define __DIGITALINOUT__
   3:Lib/DigitalInOut/DigitalInOut.hpp **** 
   4:Lib/DigitalInOut/DigitalInOut.hpp **** #include "main.h"
   5:Lib/DigitalInOut/DigitalInOut.hpp **** 
   6:Lib/DigitalInOut/DigitalInOut.hpp **** #ifdef __cplusplus
   7:Lib/DigitalInOut/DigitalInOut.hpp **** 
   8:Lib/DigitalInOut/DigitalInOut.hpp **** extern "C" {
   9:Lib/DigitalInOut/DigitalInOut.hpp **** 
  10:Lib/DigitalInOut/DigitalInOut.hpp **** class DigitalOut {
  11:Lib/DigitalInOut/DigitalInOut.hpp ****      public:
ARM GAS  /var/folders/5c/srt4fy4j1pd641bjfx75k5000000gn/T//ccSo7jei.s 			page 6


  12:Lib/DigitalInOut/DigitalInOut.hpp ****       DigitalOut(GPIO_TypeDef *port, uint16_t pin) : port(port), pin(pin) {
 222              		.loc 3 12 7 is_stmt 1 view .LVU54
 223              	.LBB52:
 224              		.loc 3 12 54 is_stmt 0 view .LVU55
 225 0008 5A4D     		ldr	r5, .L15
 226 000a C561     		str	r5, [r0, #28]
 227              		.loc 3 12 66 view .LVU56
 228 000c 4FF48061 		mov	r1, #1024
 229 0010 0184     		strh	r1, [r0, #32]	@ movhi
  13:Lib/DigitalInOut/DigitalInOut.hpp ****             HAL_GPIO_WritePin(port, pin, GPIO_PIN_RESET);
 230              		.loc 3 13 13 is_stmt 1 view .LVU57
 231              		.loc 3 13 30 is_stmt 0 view .LVU58
 232 0012 0022     		movs	r2, #0
 233 0014 2846     		mov	r0, r5
 234              	.LVL13:
 235              	.LEHB0:
 236              		.loc 3 13 30 view .LVU59
 237 0016 FFF7FEFF 		bl	HAL_GPIO_WritePin
 238              	.LVL14:
 239              		.loc 3 13 30 view .LVU60
 240              	.LBE52:
 241              	.LBE51:
 242              	.LBB53:
 243              	.LBI53:
  12:Lib/DigitalInOut/DigitalInOut.hpp ****             HAL_GPIO_WritePin(port, pin, GPIO_PIN_RESET);
 244              		.loc 3 12 7 is_stmt 1 view .LVU61
 245              	.LBB54:
  12:Lib/DigitalInOut/DigitalInOut.hpp ****             HAL_GPIO_WritePin(port, pin, GPIO_PIN_RESET);
 246              		.loc 3 12 54 is_stmt 0 view .LVU62
 247 001a 6562     		str	r5, [r4, #36]
  12:Lib/DigitalInOut/DigitalInOut.hpp ****             HAL_GPIO_WritePin(port, pin, GPIO_PIN_RESET);
 248              		.loc 3 12 66 view .LVU63
 249 001c 4FF40061 		mov	r1, #2048
 250 0020 2185     		strh	r1, [r4, #40]	@ movhi
 251              		.loc 3 13 13 is_stmt 1 view .LVU64
 252              		.loc 3 13 30 is_stmt 0 view .LVU65
 253 0022 0022     		movs	r2, #0
 254 0024 2846     		mov	r0, r5
 255 0026 FFF7FEFF 		bl	HAL_GPIO_WritePin
 256              	.LVL15:
 257              		.loc 3 13 30 view .LVU66
 258              	.LBE54:
 259              	.LBE53:
 260              	.LBB55:
 261              	.LBI55:
  12:Lib/DigitalInOut/DigitalInOut.hpp ****             HAL_GPIO_WritePin(port, pin, GPIO_PIN_RESET);
 262              		.loc 3 12 7 is_stmt 1 view .LVU67
 263              	.LBB56:
  12:Lib/DigitalInOut/DigitalInOut.hpp ****             HAL_GPIO_WritePin(port, pin, GPIO_PIN_RESET);
 264              		.loc 3 12 54 is_stmt 0 view .LVU68
 265 002a E562     		str	r5, [r4, #44]
  12:Lib/DigitalInOut/DigitalInOut.hpp ****             HAL_GPIO_WritePin(port, pin, GPIO_PIN_RESET);
 266              		.loc 3 12 66 view .LVU69
 267 002c 4FF48057 		mov	r7, #4096
 268 0030 2786     		strh	r7, [r4, #48]	@ movhi
 269              		.loc 3 13 13 is_stmt 1 view .LVU70
 270              		.loc 3 13 30 is_stmt 0 view .LVU71
ARM GAS  /var/folders/5c/srt4fy4j1pd641bjfx75k5000000gn/T//ccSo7jei.s 			page 7


 271 0032 0022     		movs	r2, #0
 272 0034 3946     		mov	r1, r7
 273 0036 2846     		mov	r0, r5
 274 0038 FFF7FEFF 		bl	HAL_GPIO_WritePin
 275              	.LVL16:
 276              		.loc 3 13 30 view .LVU72
 277              	.LBE56:
 278              	.LBE55:
 279              		.loc 1 5 20 view .LVU73
 280 003c 04F13409 		add	r9, r4, #52
 281              	.LVL17:
 282              	.LBB57:
 283              	.LBI57:
  12:Lib/DigitalInOut/DigitalInOut.hpp ****             HAL_GPIO_WritePin(port, pin, GPIO_PIN_RESET);
 284              		.loc 3 12 7 is_stmt 1 view .LVU74
 285              	.LBB58:
  12:Lib/DigitalInOut/DigitalInOut.hpp ****             HAL_GPIO_WritePin(port, pin, GPIO_PIN_RESET);
 286              		.loc 3 12 54 is_stmt 0 view .LVU75
 287 0040 6563     		str	r5, [r4, #52]
  12:Lib/DigitalInOut/DigitalInOut.hpp ****             HAL_GPIO_WritePin(port, pin, GPIO_PIN_RESET);
 288              		.loc 3 12 66 view .LVU76
 289 0042 4FF48076 		mov	r6, #256
 290 0046 2687     		strh	r6, [r4, #56]	@ movhi
 291              		.loc 3 13 13 is_stmt 1 view .LVU77
 292              		.loc 3 13 30 is_stmt 0 view .LVU78
 293 0048 0022     		movs	r2, #0
 294 004a 3146     		mov	r1, r6
 295 004c 2846     		mov	r0, r5
 296 004e FFF7FEFF 		bl	HAL_GPIO_WritePin
 297              	.LVL18:
 298              		.loc 3 13 30 view .LVU79
 299              	.LBE58:
 300              	.LBE57:
 301              	.LBB59:
 302              	.LBI59:
  12:Lib/DigitalInOut/DigitalInOut.hpp ****             HAL_GPIO_WritePin(port, pin, GPIO_PIN_RESET);
 303              		.loc 3 12 7 is_stmt 1 view .LVU80
 304              	.LBB60:
  12:Lib/DigitalInOut/DigitalInOut.hpp ****             HAL_GPIO_WritePin(port, pin, GPIO_PIN_RESET);
 305              		.loc 3 12 54 is_stmt 0 view .LVU81
 306 0052 A5F58065 		sub	r5, r5, #1024
 307 0056 E563     		str	r5, [r4, #60]
  12:Lib/DigitalInOut/DigitalInOut.hpp ****             HAL_GPIO_WritePin(port, pin, GPIO_PIN_RESET);
 308              		.loc 3 12 66 view .LVU82
 309 0058 8021     		movs	r1, #128
 310 005a A4F84010 		strh	r1, [r4, #64]	@ movhi
 311              		.loc 3 13 13 is_stmt 1 view .LVU83
 312              		.loc 3 13 30 is_stmt 0 view .LVU84
 313 005e 0022     		movs	r2, #0
 314 0060 2846     		mov	r0, r5
 315 0062 FFF7FEFF 		bl	HAL_GPIO_WritePin
 316              	.LVL19:
 317              		.loc 3 13 30 view .LVU85
 318              	.LBE60:
 319              	.LBE59:
 320              	.LBB61:
 321              	.LBI61:
ARM GAS  /var/folders/5c/srt4fy4j1pd641bjfx75k5000000gn/T//ccSo7jei.s 			page 8


  12:Lib/DigitalInOut/DigitalInOut.hpp ****             HAL_GPIO_WritePin(port, pin, GPIO_PIN_RESET);
 322              		.loc 3 12 7 is_stmt 1 view .LVU86
 323              	.LBB62:
  12:Lib/DigitalInOut/DigitalInOut.hpp ****             HAL_GPIO_WritePin(port, pin, GPIO_PIN_RESET);
 324              		.loc 3 12 54 is_stmt 0 view .LVU87
 325 0066 6564     		str	r5, [r4, #68]
  12:Lib/DigitalInOut/DigitalInOut.hpp ****             HAL_GPIO_WritePin(port, pin, GPIO_PIN_RESET);
 326              		.loc 3 12 66 view .LVU88
 327 0068 4FF40071 		mov	r1, #512
 328 006c A4F84810 		strh	r1, [r4, #72]	@ movhi
 329              		.loc 3 13 13 is_stmt 1 view .LVU89
 330              		.loc 3 13 30 is_stmt 0 view .LVU90
 331 0070 0022     		movs	r2, #0
 332 0072 2846     		mov	r0, r5
 333 0074 FFF7FEFF 		bl	HAL_GPIO_WritePin
 334              	.LVL20:
 335              		.loc 3 13 30 view .LVU91
 336              	.LBE62:
 337              	.LBE61:
 338              		.loc 1 5 20 view .LVU92
 339 0078 04F14C03 		add	r3, r4, #76
 340 007c 0C93     		str	r3, [sp, #48]
 341              	.LVL21:
 342              	.LBB63:
 343              	.LBI63:
  12:Lib/DigitalInOut/DigitalInOut.hpp ****             HAL_GPIO_WritePin(port, pin, GPIO_PIN_RESET);
 344              		.loc 3 12 7 is_stmt 1 view .LVU93
 345              	.LBB64:
  12:Lib/DigitalInOut/DigitalInOut.hpp ****             HAL_GPIO_WritePin(port, pin, GPIO_PIN_RESET);
 346              		.loc 3 12 54 is_stmt 0 view .LVU94
 347 007e DFF8FC80 		ldr	r8, .L15+8
 348 0082 C4F84C80 		str	r8, [r4, #76]
  12:Lib/DigitalInOut/DigitalInOut.hpp ****             HAL_GPIO_WritePin(port, pin, GPIO_PIN_RESET);
 349              		.loc 3 12 66 view .LVU95
 350 0086 1021     		movs	r1, #16
 351 0088 A4F85010 		strh	r1, [r4, #80]	@ movhi
 352              		.loc 3 13 13 is_stmt 1 view .LVU96
 353              		.loc 3 13 30 is_stmt 0 view .LVU97
 354 008c 0022     		movs	r2, #0
 355 008e 4046     		mov	r0, r8
 356 0090 FFF7FEFF 		bl	HAL_GPIO_WritePin
 357              	.LVL22:
 358              		.loc 3 13 30 view .LVU98
 359              	.LBE64:
 360              	.LBE63:
 361              		.loc 1 5 20 view .LVU99
 362 0094 04F15402 		add	r2, r4, #84
 363 0098 0D92     		str	r2, [sp, #52]
 364              	.LVL23:
 365              	.LBB65:
 366              	.LBI65:
  12:Lib/DigitalInOut/DigitalInOut.hpp ****             HAL_GPIO_WritePin(port, pin, GPIO_PIN_RESET);
 367              		.loc 3 12 7 is_stmt 1 view .LVU100
 368              	.LBB66:
  12:Lib/DigitalInOut/DigitalInOut.hpp ****             HAL_GPIO_WritePin(port, pin, GPIO_PIN_RESET);
 369              		.loc 3 12 54 is_stmt 0 view .LVU101
 370 009a C4F85480 		str	r8, [r4, #84]
ARM GAS  /var/folders/5c/srt4fy4j1pd641bjfx75k5000000gn/T//ccSo7jei.s 			page 9


  12:Lib/DigitalInOut/DigitalInOut.hpp ****             HAL_GPIO_WritePin(port, pin, GPIO_PIN_RESET);
 371              		.loc 3 12 66 view .LVU102
 372 009e 2021     		movs	r1, #32
 373 00a0 A4F85810 		strh	r1, [r4, #88]	@ movhi
 374              		.loc 3 13 13 is_stmt 1 view .LVU103
 375              		.loc 3 13 30 is_stmt 0 view .LVU104
 376 00a4 0022     		movs	r2, #0
 377              	.LVL24:
 378              		.loc 3 13 30 view .LVU105
 379 00a6 4046     		mov	r0, r8
 380 00a8 FFF7FEFF 		bl	HAL_GPIO_WritePin
 381              	.LVL25:
 382              		.loc 3 13 30 view .LVU106
 383              	.LBE66:
 384              	.LBE65:
 385              	.LBB67:
 386              	.LBI67:
  12:Lib/DigitalInOut/DigitalInOut.hpp ****             HAL_GPIO_WritePin(port, pin, GPIO_PIN_RESET);
 387              		.loc 3 12 7 is_stmt 1 view .LVU107
 388              	.LBB68:
  12:Lib/DigitalInOut/DigitalInOut.hpp ****             HAL_GPIO_WritePin(port, pin, GPIO_PIN_RESET);
 389              		.loc 3 12 54 is_stmt 0 view .LVU108
 390 00ac E565     		str	r5, [r4, #92]
  12:Lib/DigitalInOut/DigitalInOut.hpp ****             HAL_GPIO_WritePin(port, pin, GPIO_PIN_RESET);
 391              		.loc 3 12 66 view .LVU109
 392 00ae A4F86070 		strh	r7, [r4, #96]	@ movhi
 393              		.loc 3 13 13 is_stmt 1 view .LVU110
 394              		.loc 3 13 30 is_stmt 0 view .LVU111
 395 00b2 0022     		movs	r2, #0
 396 00b4 3946     		mov	r1, r7
 397 00b6 2846     		mov	r0, r5
 398 00b8 FFF7FEFF 		bl	HAL_GPIO_WritePin
 399              	.LVL26:
 400              		.loc 3 13 30 view .LVU112
 401              	.LBE68:
 402              	.LBE67:
 403              	.LBB69:
 404              	.LBI69:
  12:Lib/DigitalInOut/DigitalInOut.hpp ****             HAL_GPIO_WritePin(port, pin, GPIO_PIN_RESET);
 405              		.loc 3 12 7 is_stmt 1 view .LVU113
 406              	.LBB70:
  12:Lib/DigitalInOut/DigitalInOut.hpp ****             HAL_GPIO_WritePin(port, pin, GPIO_PIN_RESET);
 407              		.loc 3 12 54 is_stmt 0 view .LVU114
 408 00bc 6566     		str	r5, [r4, #100]
  12:Lib/DigitalInOut/DigitalInOut.hpp ****             HAL_GPIO_WritePin(port, pin, GPIO_PIN_RESET);
 409              		.loc 3 12 66 view .LVU115
 410 00be 4FF40051 		mov	r1, #8192
 411 00c2 A4F86810 		strh	r1, [r4, #104]	@ movhi
 412              		.loc 3 13 13 is_stmt 1 view .LVU116
 413              		.loc 3 13 30 is_stmt 0 view .LVU117
 414 00c6 0022     		movs	r2, #0
 415 00c8 2846     		mov	r0, r5
 416 00ca FFF7FEFF 		bl	HAL_GPIO_WritePin
 417              	.LVL27:
 418              		.loc 3 13 30 view .LVU118
 419              	.LBE70:
 420              	.LBE69:
ARM GAS  /var/folders/5c/srt4fy4j1pd641bjfx75k5000000gn/T//ccSo7jei.s 			page 10


 421              	.LBB71:
 422              	.LBI71:
  19:Lib/BufferedSerial/BufferedSerial.hpp ****           : _huart(huart),
 423              		.loc 2 19 7 is_stmt 1 view .LVU119
 424              	.LBB72:
  20:Lib/BufferedSerial/BufferedSerial.hpp ****             _rxBuf(new uint8_t[rxBufSize]),
 425              		.loc 2 20 13 is_stmt 0 view .LVU120
 426 00ce 2A4B     		ldr	r3, .L15+4
 427 00d0 E366     		str	r3, [r4, #108]
  21:Lib/BufferedSerial/BufferedSerial.hpp ****             rxTop(0),
 428              		.loc 2 21 41 view .LVU121
 429 00d2 3046     		mov	r0, r6
 430 00d4 FFF7FEFF 		bl	_Znaj
 431              	.LVL28:
 432              	.LEHE0:
  21:Lib/BufferedSerial/BufferedSerial.hpp ****             rxTop(0),
 433              		.loc 2 21 13 view .LVU122
 434 00d8 2067     		str	r0, [r4, #112]
  22:Lib/BufferedSerial/BufferedSerial.hpp ****             rxBtm(0),
 435              		.loc 2 22 13 view .LVU123
 436 00da 0023     		movs	r3, #0
 437 00dc A4F87430 		strh	r3, [r4, #116]	@ movhi
  23:Lib/BufferedSerial/BufferedSerial.hpp ****             _rxBufSize(rxBufSize),
 438              		.loc 2 23 13 view .LVU124
 439 00e0 A4F87630 		strh	r3, [r4, #118]	@ movhi
  24:Lib/BufferedSerial/BufferedSerial.hpp ****             _useDMA(false) {}
 440              		.loc 2 24 13 view .LVU125
 441 00e4 A4F87860 		strh	r6, [r4, #120]	@ movhi
  25:Lib/BufferedSerial/BufferedSerial.hpp ****       ~BufferedSerial() {
 442              		.loc 2 25 13 view .LVU126
 443 00e8 84F87A30 		strb	r3, [r4, #122]
 444              	.LVL29:
  25:Lib/BufferedSerial/BufferedSerial.hpp ****       ~BufferedSerial() {
 445              		.loc 2 25 13 view .LVU127
 446              	.LBE72:
 447              	.LBE71:
 448              		.loc 1 5 20 view .LVU128
 449 00ec 2246     		mov	r2, r4
 450 00ee 4946     		mov	r1, r9
 451 00f0 04F18000 		add	r0, r4, #128
 452              	.LEHB1:
 453 00f4 FFF7FEFF 		bl	_ZN7EncoderC1EP10DigitalOutPh
 454              	.LVL30:
 455 00f8 04F13C0A 		add	r10, r4, #60
 456 00fc 04F1440B 		add	fp, r4, #68
 457 0100 04F15C08 		add	r8, r4, #92
 458 0104 04F16407 		add	r7, r4, #100
 459              		.loc 1 5 20 discriminator 1 view .LVU129
 460 0108 04F10F03 		add	r3, r4, #15
 461 010c 0B93     		str	r3, [sp, #44]
 462 010e 04F10E03 		add	r3, r4, #14
 463 0112 0A93     		str	r3, [sp, #40]
 464 0114 04F10D03 		add	r3, r4, #13
 465 0118 0993     		str	r3, [sp, #36]
 466 011a 04F10C03 		add	r3, r4, #12
 467 011e 0893     		str	r3, [sp, #32]
 468 0120 04F10B03 		add	r3, r4, #11
ARM GAS  /var/folders/5c/srt4fy4j1pd641bjfx75k5000000gn/T//ccSo7jei.s 			page 11


 469 0124 0793     		str	r3, [sp, #28]
 470 0126 04F10A03 		add	r3, r4, #10
 471 012a 0693     		str	r3, [sp, #24]
 472 012c 04F10903 		add	r3, r4, #9
 473 0130 0593     		str	r3, [sp, #20]
 474 0132 04F10803 		add	r3, r4, #8
 475 0136 0493     		str	r3, [sp, #16]
 476 0138 0397     		str	r7, [sp, #12]
 477 013a CDF80880 		str	r8, [sp, #8]
 478 013e 0D9A     		ldr	r2, [sp, #52]
 479 0140 0192     		str	r2, [sp, #4]
 480 0142 0C9B     		ldr	r3, [sp, #48]
 481 0144 0093     		str	r3, [sp]
 482 0146 5B46     		mov	r3, fp
 483 0148 5246     		mov	r2, r10
 484 014a 4946     		mov	r1, r9
 485 014c 04F6B850 		addw	r0, r4, #3512
 486 0150 FFF7FEFF 		bl	_ZN4LineC1EP10DigitalOutS1_S1_S1_S1_S1_S1_PhS2_S2_S2_S2_S2_S2_S2_
 487              	.LVL31:
 488              		.loc 1 5 20 discriminator 2 view .LVU130
 489 0154 04F6E460 		addw	r0, r4, #3812
 490 0158 FFF7FEFF 		bl	_ZN5TimerC1Ev
 491              	.LVL32:
 492              	.LEHE1:
 493 015c 05E0     		b	.L14
 494              	.L11:
 495              	.LVL33:
 496              	.LBB73:
 497              	.LBI73:
  26:Lib/BufferedSerial/BufferedSerial.hpp ****             delete[] _rxBuf;
 498              		.loc 2 26 7 is_stmt 1 view .LVU131
 499              	.LBB74:
  27:Lib/BufferedSerial/BufferedSerial.hpp ****       }
 500              		.loc 2 27 13 view .LVU132
  27:Lib/BufferedSerial/BufferedSerial.hpp ****       }
 501              		.loc 2 27 22 is_stmt 0 view .LVU133
 502 015e 206F     		ldr	r0, [r4, #112]
  27:Lib/BufferedSerial/BufferedSerial.hpp ****       }
 503              		.loc 2 27 13 view .LVU134
 504 0160 08B1     		cbz	r0, .L10
  27:Lib/BufferedSerial/BufferedSerial.hpp ****       }
 505              		.loc 2 27 22 view .LVU135
 506 0162 FFF7FEFF 		bl	_ZdaPv
 507              	.LVL34:
 508              	.L10:
 509              	.LEHB2:
  27:Lib/BufferedSerial/BufferedSerial.hpp ****       }
 510              		.loc 2 27 22 view .LVU136
 511 0166 FFF7FEFF 		bl	__cxa_end_cleanup
 512              	.LVL35:
 513              	.LEHE2:
 514              	.L14:
  27:Lib/BufferedSerial/BufferedSerial.hpp ****       }
 515              		.loc 2 27 22 view .LVU137
 516              	.LBE74:
 517              	.LBE73:
 518              	.LBE50:
ARM GAS  /var/folders/5c/srt4fy4j1pd641bjfx75k5000000gn/T//ccSo7jei.s 			page 12


   6:src/unit/hardware/hardware.cpp **** }
 519              		.loc 1 6 1 view .LVU138
 520 016a 2046     		mov	r0, r4
 521 016c 0FB0     		add	sp, sp, #60
 522              	.LCFI3:
 523              		.cfi_def_cfa_offset 36
 524              		@ sp needed
 525 016e BDE8F08F 		pop	{r4, r5, r6, r7, r8, r9, r10, fp, pc}
 526              	.LVL36:
 527              	.L16:
 528              		.loc 1 6 1 view .LVU139
 529 0172 00BF     		.align	2
 530              	.L15:
 531 0174 00080240 		.word	1073874944
 532 0178 00000000 		.word	huart6
 533 017c 00000240 		.word	1073872896
 534              		.cfi_endproc
 535              	.LFE265:
 536              		.global	__gxx_personality_v0
 537              		.personality	__gxx_personality_v0
 538              		.handlerdata
 539              	.LLSDA265:
 540 0008 FF       		.byte	0xff
 541 0009 FF       		.byte	0xff
 542 000a 01       		.byte	0x1
 543 000b 10       		.uleb128 .LLSDACSE265-.LLSDACSB265
 544              	.LLSDACSB265:
 545 000c 16       		.uleb128 .LEHB0-.LFB265
 546 000d C201     		.uleb128 .LEHE0-.LEHB0
 547 000f 00       		.uleb128 0
 548 0010 00       		.uleb128 0
 549 0011 F401     		.uleb128 .LEHB1-.LFB265
 550 0013 68       		.uleb128 .LEHE1-.LEHB1
 551 0014 DE02     		.uleb128 .L11-.LFB265
 552 0016 00       		.uleb128 0
 553 0017 E602     		.uleb128 .LEHB2-.LFB265
 554 0019 04       		.uleb128 .LEHE2-.LEHB2
 555 001a 00       		.uleb128 0
 556 001b 00       		.uleb128 0
 557              	.LLSDACSE265:
 558              		.section	.text._ZN8HardwareC2Ev
 559              		.fnend
 561              		.global	_ZN8HardwareC1Ev
 562              		.thumb_set _ZN8HardwareC1Ev,_ZN8HardwareC2Ev
 563              		.section	.text._ZN8Hardware4InitEv,"ax",%progbits
 564              		.align	1
 565              		.global	_ZN8Hardware4InitEv
 566              		.syntax unified
 567              		.thumb
 568              		.thumb_func
 570              	_ZN8Hardware4InitEv:
 571              		.fnstart
 572              	.LVL37:
 573              	.LFB267:
   7:src/unit/hardware/hardware.cpp **** 
   8:src/unit/hardware/hardware.cpp **** void Hardware::Init() {
 574              		.loc 1 8 23 is_stmt 1 view -0
ARM GAS  /var/folders/5c/srt4fy4j1pd641bjfx75k5000000gn/T//ccSo7jei.s 			page 13


 575              		.cfi_startproc
 576              		@ args = 0, pretend = 0, frame = 0
 577              		@ frame_needed = 0, uses_anonymous_args = 0
 578              		.loc 1 8 23 is_stmt 0 view .LVU141
 579 0000 38B5     		push	{r3, r4, r5, lr}
 580              		.save {r3, r4, r5, lr}
 581              	.LCFI4:
 582              		.cfi_def_cfa_offset 16
 583              		.cfi_offset 3, -16
 584              		.cfi_offset 4, -12
 585              		.cfi_offset 5, -8
 586              		.cfi_offset 14, -4
 587 0002 0446     		mov	r4, r0
   9:src/unit/hardware/hardware.cpp ****       led3 = 1;
 588              		.loc 1 9 7 is_stmt 1 view .LVU142
 589              	.LVL38:
 590              	.LBB75:
 591              	.LBI75:
  14:Lib/DigitalInOut/DigitalInOut.hpp ****       }
  15:Lib/DigitalInOut/DigitalInOut.hpp ****       void write(bool value) {
  16:Lib/DigitalInOut/DigitalInOut.hpp ****             HAL_GPIO_WritePin(port, pin, value ? GPIO_PIN_SET : GPIO_PIN_RESET);
  17:Lib/DigitalInOut/DigitalInOut.hpp ****       }
  18:Lib/DigitalInOut/DigitalInOut.hpp **** 
  19:Lib/DigitalInOut/DigitalInOut.hpp ****       void operator=(bool value) {
 592              		.loc 3 19 12 view .LVU143
 593              	.LBB76:
  20:Lib/DigitalInOut/DigitalInOut.hpp ****             HAL_GPIO_WritePin(port, pin, value ? GPIO_PIN_SET : GPIO_PIN_RESET);
 594              		.loc 3 20 13 view .LVU144
 595              		.loc 3 20 30 is_stmt 0 view .LVU145
 596 0004 0122     		movs	r2, #1
 597 0006 018E     		ldrh	r1, [r0, #48]
 598 0008 C06A     		ldr	r0, [r0, #44]
 599              	.LVL39:
 600              		.loc 3 20 30 view .LVU146
 601 000a FFF7FEFF 		bl	HAL_GPIO_WritePin
 602              	.LVL40:
 603              		.loc 3 20 30 view .LVU147
 604              	.LBE76:
 605              	.LBE75:
  10:src/unit/hardware/hardware.cpp ****       HAL_ADC_Start(&hadc1);
 606              		.loc 1 10 7 is_stmt 1 view .LVU148
 607              		.loc 1 10 20 is_stmt 0 view .LVU149
 608 000e 134D     		ldr	r5, .L21
 609 0010 2846     		mov	r0, r5
 610 0012 FFF7FEFF 		bl	HAL_ADC_Start
 611              	.LVL41:
  11:src/unit/hardware/hardware.cpp ****       HAL_ADC_Start_DMA(&hadc1, (uint32_t *)&adc_get_val, 12);
 612              		.loc 1 11 7 is_stmt 1 view .LVU150
 613              		.loc 1 11 24 is_stmt 0 view .LVU151
 614 0016 0C22     		movs	r2, #12
 615 0018 1149     		ldr	r1, .L21+4
 616 001a 2846     		mov	r0, r5
 617 001c FFF7FEFF 		bl	HAL_ADC_Start_DMA
 618              	.LVL42:
  12:src/unit/hardware/hardware.cpp ****       for (uint8_t i = 0; i < 12; i++) {
 619              		.loc 1 12 7 is_stmt 1 view .LVU152
 620              	.LBB77:
ARM GAS  /var/folders/5c/srt4fy4j1pd641bjfx75k5000000gn/T//ccSo7jei.s 			page 14


 621              		.loc 1 12 20 is_stmt 0 view .LVU153
 622 0020 0022     		movs	r2, #0
 623              		.loc 1 12 7 view .LVU154
 624 0022 06E0     		b	.L18
 625              	.LVL43:
 626              	.L19:
  13:src/unit/hardware/hardware.cpp ****             while (!(adc_get_val[i] > 0));
 627              		.loc 1 13 20 is_stmt 1 discriminator 1 view .LVU155
 628              		.loc 1 13 35 is_stmt 0 discriminator 1 view .LVU156
 629 0024 0E4B     		ldr	r3, .L21+4
 630 0026 33F81230 		ldrh	r3, [r3, r2, lsl #1]
 631              		.loc 1 13 20 discriminator 1 view .LVU157
 632 002a 002B     		cmp	r3, #0
 633 002c FAD0     		beq	.L19
  12:src/unit/hardware/hardware.cpp ****       for (uint8_t i = 0; i < 12; i++) {
 634              		.loc 1 12 7 is_stmt 1 discriminator 2 view .LVU158
 635 002e 0132     		adds	r2, r2, #1
 636              	.LVL44:
  12:src/unit/hardware/hardware.cpp ****       for (uint8_t i = 0; i < 12; i++) {
 637              		.loc 1 12 7 is_stmt 0 discriminator 2 view .LVU159
 638 0030 D2B2     		uxtb	r2, r2
 639              	.LVL45:
 640              	.L18:
  12:src/unit/hardware/hardware.cpp ****       for (uint8_t i = 0; i < 12; i++) {
 641              		.loc 1 12 29 is_stmt 1 discriminator 1 view .LVU160
 642 0032 0B2A     		cmp	r2, #11
 643 0034 F6D9     		bls	.L19
 644              	.LBE77:
  14:src/unit/hardware/hardware.cpp ****       }
  15:src/unit/hardware/hardware.cpp **** 
  16:src/unit/hardware/hardware.cpp ****       // 諸々の初期化
  17:src/unit/hardware/hardware.cpp ****       serial6.init();
 645              		.loc 1 17 7 view .LVU161
 646              	.LVL46:
 647              	.LBB78:
 648              	.LBI78:
  30:Lib/BufferedSerial/BufferedSerial.hpp ****             _useDMA = dma;
 649              		.loc 2 30 12 view .LVU162
 650              	.LBB79:
  31:Lib/BufferedSerial/BufferedSerial.hpp ****             HAL_UART_Receive_DMA(_huart, _rxBuf, _rxBufSize);
 651              		.loc 2 31 13 view .LVU163
  31:Lib/BufferedSerial/BufferedSerial.hpp ****             HAL_UART_Receive_DMA(_huart, _rxBuf, _rxBufSize);
 652              		.loc 2 31 21 is_stmt 0 view .LVU164
 653 0036 0025     		movs	r5, #0
 654 0038 84F87A50 		strb	r5, [r4, #122]
  32:Lib/BufferedSerial/BufferedSerial.hpp ****       }
 655              		.loc 2 32 13 is_stmt 1 view .LVU165
  32:Lib/BufferedSerial/BufferedSerial.hpp ****       }
 656              		.loc 2 32 33 is_stmt 0 view .LVU166
 657 003c B4F87820 		ldrh	r2, [r4, #120]
 658              	.LVL47:
  32:Lib/BufferedSerial/BufferedSerial.hpp ****       }
 659              		.loc 2 32 33 view .LVU167
 660 0040 216F     		ldr	r1, [r4, #112]
 661 0042 E06E     		ldr	r0, [r4, #108]
 662 0044 FFF7FEFF 		bl	HAL_UART_Receive_DMA
 663              	.LVL48:
ARM GAS  /var/folders/5c/srt4fy4j1pd641bjfx75k5000000gn/T//ccSo7jei.s 			page 15


  32:Lib/BufferedSerial/BufferedSerial.hpp ****       }
 664              		.loc 2 32 33 view .LVU168
 665              	.LBE79:
 666              	.LBE78:
  18:src/unit/hardware/hardware.cpp ****       HAL_Delay(100);
 667              		.loc 1 18 7 is_stmt 1 view .LVU169
 668              		.loc 1 18 16 is_stmt 0 view .LVU170
 669 0048 6420     		movs	r0, #100
 670 004a FFF7FEFF 		bl	HAL_Delay
 671              	.LVL49:
  19:src/unit/hardware/hardware.cpp ****       led3 = 0;
 672              		.loc 1 19 7 is_stmt 1 view .LVU171
 673              	.LBB80:
 674              	.LBI80:
  19:Lib/DigitalInOut/DigitalInOut.hpp ****             HAL_GPIO_WritePin(port, pin, value ? GPIO_PIN_SET : GPIO_PIN_RESET);
 675              		.loc 3 19 12 view .LVU172
 676              	.LBB81:
 677              		.loc 3 20 13 view .LVU173
 678              		.loc 3 20 30 is_stmt 0 view .LVU174
 679 004e 2A46     		mov	r2, r5
 680 0050 218E     		ldrh	r1, [r4, #48]
 681 0052 E06A     		ldr	r0, [r4, #44]
 682 0054 FFF7FEFF 		bl	HAL_GPIO_WritePin
 683              	.LVL50:
 684              		.loc 3 20 30 view .LVU175
 685              	.LBE81:
 686              	.LBE80:
  20:src/unit/hardware/hardware.cpp **** }
 687              		.loc 1 20 1 view .LVU176
 688 0058 38BD     		pop	{r3, r4, r5, pc}
 689              	.LVL51:
 690              	.L22:
 691              		.loc 1 20 1 view .LVU177
 692 005a 00BF     		.align	2
 693              	.L21:
 694 005c 00000000 		.word	hadc1
 695 0060 00000000 		.word	adc_get_val
 696              		.cfi_endproc
 697              	.LFE267:
 698              		.fnend
 700              		.section	.text._ZN8Hardware10GetSensorsEv,"ax",%progbits
 701              		.align	1
 702              		.global	_ZN8Hardware10GetSensorsEv
 703              		.syntax unified
 704              		.thumb
 705              		.thumb_func
 707              	_ZN8Hardware10GetSensorsEv:
 708              		.fnstart
 709              	.LVL52:
 710              	.LFB268:
  21:src/unit/hardware/hardware.cpp **** 
  22:src/unit/hardware/hardware.cpp **** void Hardware::GetSensors() {
 711              		.loc 1 22 29 is_stmt 1 view -0
 712              		.cfi_startproc
 713              		@ args = 0, pretend = 0, frame = 0
 714              		@ frame_needed = 0, uses_anonymous_args = 0
 715              		.loc 1 22 29 is_stmt 0 view .LVU179
ARM GAS  /var/folders/5c/srt4fy4j1pd641bjfx75k5000000gn/T//ccSo7jei.s 			page 16


 716 0000 38B5     		push	{r3, r4, r5, lr}
 717              		.save {r3, r4, r5, lr}
 718              	.LCFI5:
 719              		.cfi_def_cfa_offset 16
 720              		.cfi_offset 3, -16
 721              		.cfi_offset 4, -12
 722              		.cfi_offset 5, -8
 723              		.cfi_offset 14, -4
 724 0002 0446     		mov	r4, r0
  23:src/unit/hardware/hardware.cpp ****       info.Encoder.photo_val[0] = adc_get_val[0];
 725              		.loc 1 23 7 is_stmt 1 view .LVU180
 726              		.loc 1 23 48 is_stmt 0 view .LVU181
 727 0004 214B     		ldr	r3, .L25
 728 0006 1A88     		ldrh	r2, [r3]
 729              		.loc 1 23 33 view .LVU182
 730 0008 0270     		strb	r2, [r0]
  24:src/unit/hardware/hardware.cpp ****       info.Encoder.photo_val[1] = adc_get_val[1];
 731              		.loc 1 24 7 is_stmt 1 view .LVU183
 732              		.loc 1 24 48 is_stmt 0 view .LVU184
 733 000a 5A88     		ldrh	r2, [r3, #2]
 734              		.loc 1 24 33 view .LVU185
 735 000c 4270     		strb	r2, [r0, #1]
  25:src/unit/hardware/hardware.cpp ****       info.Encoder.photo_val[2] = adc_get_val[2];
 736              		.loc 1 25 7 is_stmt 1 view .LVU186
 737              		.loc 1 25 48 is_stmt 0 view .LVU187
 738 000e 9A88     		ldrh	r2, [r3, #4]
 739              		.loc 1 25 33 view .LVU188
 740 0010 8270     		strb	r2, [r0, #2]
  26:src/unit/hardware/hardware.cpp ****       info.Encoder.photo_val[3] = adc_get_val[3];
 741              		.loc 1 26 7 is_stmt 1 view .LVU189
 742              		.loc 1 26 48 is_stmt 0 view .LVU190
 743 0012 DA88     		ldrh	r2, [r3, #6]
 744              		.loc 1 26 33 view .LVU191
 745 0014 C270     		strb	r2, [r0, #3]
  27:src/unit/hardware/hardware.cpp **** 
  28:src/unit/hardware/hardware.cpp ****       info.Line.leftside_val = adc_get_val[4];
 746              		.loc 1 28 7 is_stmt 1 view .LVU192
 747              		.loc 1 28 45 is_stmt 0 view .LVU193
 748 0016 1A89     		ldrh	r2, [r3, #8]
 749              		.loc 1 28 30 view .LVU194
 750 0018 0272     		strb	r2, [r0, #8]
  29:src/unit/hardware/hardware.cpp ****       info.Line.rightside_val = adc_get_val[5];
 751              		.loc 1 29 7 is_stmt 1 view .LVU195
 752              		.loc 1 29 46 is_stmt 0 view .LVU196
 753 001a 5A89     		ldrh	r2, [r3, #10]
 754              		.loc 1 29 31 view .LVU197
 755 001c 4272     		strb	r2, [r0, #9]
  30:src/unit/hardware/hardware.cpp ****       info.Line.mux1x_val = adc_get_val[6];
 756              		.loc 1 30 7 is_stmt 1 view .LVU198
 757              		.loc 1 30 42 is_stmt 0 view .LVU199
 758 001e 9A89     		ldrh	r2, [r3, #12]
 759              		.loc 1 30 27 view .LVU200
 760 0020 8272     		strb	r2, [r0, #10]
  31:src/unit/hardware/hardware.cpp ****       info.Line.mux1y_val = adc_get_val[7];
 761              		.loc 1 31 7 is_stmt 1 view .LVU201
 762              		.loc 1 31 42 is_stmt 0 view .LVU202
 763 0022 DA89     		ldrh	r2, [r3, #14]
ARM GAS  /var/folders/5c/srt4fy4j1pd641bjfx75k5000000gn/T//ccSo7jei.s 			page 17


 764              		.loc 1 31 27 view .LVU203
 765 0024 C272     		strb	r2, [r0, #11]
  32:src/unit/hardware/hardware.cpp ****       info.Line.mux2x_val = adc_get_val[8];
 766              		.loc 1 32 7 is_stmt 1 view .LVU204
 767              		.loc 1 32 42 is_stmt 0 view .LVU205
 768 0026 1A8A     		ldrh	r2, [r3, #16]
 769              		.loc 1 32 27 view .LVU206
 770 0028 0273     		strb	r2, [r0, #12]
  33:src/unit/hardware/hardware.cpp ****       info.Line.mux2y_val = adc_get_val[9];
 771              		.loc 1 33 7 is_stmt 1 view .LVU207
 772              		.loc 1 33 42 is_stmt 0 view .LVU208
 773 002a 5A8A     		ldrh	r2, [r3, #18]
 774              		.loc 1 33 27 view .LVU209
 775 002c 4273     		strb	r2, [r0, #13]
  34:src/unit/hardware/hardware.cpp ****       info.Line.mux3x_val = adc_get_val[10];
 776              		.loc 1 34 7 is_stmt 1 view .LVU210
 777              		.loc 1 34 43 is_stmt 0 view .LVU211
 778 002e 9A8A     		ldrh	r2, [r3, #20]
 779              		.loc 1 34 27 view .LVU212
 780 0030 8273     		strb	r2, [r0, #14]
  35:src/unit/hardware/hardware.cpp ****       info.Line.mux3y_val = adc_get_val[11];
 781              		.loc 1 35 7 is_stmt 1 view .LVU213
 782              		.loc 1 35 43 is_stmt 0 view .LVU214
 783 0032 DB8A     		ldrh	r3, [r3, #22]
 784              		.loc 1 35 27 view .LVU215
 785 0034 C373     		strb	r3, [r0, #15]
  36:src/unit/hardware/hardware.cpp **** 
  37:src/unit/hardware/hardware.cpp ****       info.Line.dir = line.dir;
 786              		.loc 1 37 7 is_stmt 1 view .LVU216
 787              		.loc 1 37 28 is_stmt 0 view .LVU217
 788 0036 B0F9B83D 		ldrsh	r3, [r0, #3512]
 789              		.loc 1 37 21 view .LVU218
 790 003a 4382     		strh	r3, [r0, #18]	@ movhi
  38:src/unit/hardware/hardware.cpp ****       info.Line.is_half_out = line.is_half_out;
 791              		.loc 1 38 7 is_stmt 1 view .LVU219
 792              		.loc 1 38 36 is_stmt 0 view .LVU220
 793 003c 90F8BB3D 		ldrb	r3, [r0, #3515]	@ zero_extendqisi2
 794              		.loc 1 38 29 view .LVU221
 795 0040 4375     		strb	r3, [r0, #21]
  39:src/unit/hardware/hardware.cpp ****       info.Line.is_leftside_white = line.is_leftside_white;
 796              		.loc 1 39 7 is_stmt 1 view .LVU222
 797              		.loc 1 39 42 is_stmt 0 view .LVU223
 798 0042 90F8BC3D 		ldrb	r3, [r0, #3516]	@ zero_extendqisi2
 799              		.loc 1 39 35 view .LVU224
 800 0046 C375     		strb	r3, [r0, #23]
  40:src/unit/hardware/hardware.cpp ****       info.Line.is_rightside_white = line.is_rightside_white;
 801              		.loc 1 40 7 is_stmt 1 view .LVU225
 802              		.loc 1 40 43 is_stmt 0 view .LVU226
 803 0048 90F8BD3D 		ldrb	r3, [r0, #3517]	@ zero_extendqisi2
 804              		.loc 1 40 36 view .LVU227
 805 004c 0376     		strb	r3, [r0, #24]
  41:src/unit/hardware/hardware.cpp ****       info.Line.is_on_line = line.IsOnLine();
 806              		.loc 1 41 7 is_stmt 1 view .LVU228
 807              		.loc 1 41 43 is_stmt 0 view .LVU229
 808 004e 00F6B850 		addw	r0, r0, #3512
 809              	.LVL53:
 810              		.loc 1 41 43 view .LVU230
ARM GAS  /var/folders/5c/srt4fy4j1pd641bjfx75k5000000gn/T//ccSo7jei.s 			page 18


 811 0052 FFF7FEFF 		bl	_ZN4Line8IsOnLineEv
 812              	.LVL54:
 813              		.loc 1 41 28 view .LVU231
 814 0056 A075     		strb	r0, [r4, #22]
  42:src/unit/hardware/hardware.cpp ****       info.Line.max_interval = line.max_interval;
 815              		.loc 1 42 7 is_stmt 1 view .LVU232
 816              		.loc 1 42 37 is_stmt 0 view .LVU233
 817 0058 94F8BA3D 		ldrb	r3, [r4, #3514]	@ zero_extendqisi2
 818              		.loc 1 42 30 view .LVU234
 819 005c 2375     		strb	r3, [r4, #20]
  43:src/unit/hardware/hardware.cpp **** 
  44:src/unit/hardware/hardware.cpp ****       info.Encoder.rps[0] = encoder.GetMotorRPS(0);
 820              		.loc 1 44 7 is_stmt 1 view .LVU235
 821              		.loc 1 44 48 is_stmt 0 view .LVU236
 822 005e 04F18005 		add	r5, r4, #128
 823 0062 0021     		movs	r1, #0
 824 0064 2846     		mov	r0, r5
 825 0066 FFF7FEFF 		bl	_ZN7Encoder11GetMotorRPSEh
 826              	.LVL55:
 827              		.loc 1 44 27 view .LVU237
 828 006a 2071     		strb	r0, [r4, #4]
  45:src/unit/hardware/hardware.cpp ****       info.Encoder.rps[1] = encoder.GetMotorRPS(1);
 829              		.loc 1 45 7 is_stmt 1 view .LVU238
 830              		.loc 1 45 48 is_stmt 0 view .LVU239
 831 006c 0121     		movs	r1, #1
 832 006e 2846     		mov	r0, r5
 833 0070 FFF7FEFF 		bl	_ZN7Encoder11GetMotorRPSEh
 834              	.LVL56:
 835              		.loc 1 45 27 view .LVU240
 836 0074 6071     		strb	r0, [r4, #5]
  46:src/unit/hardware/hardware.cpp ****       info.Encoder.rps[2] = encoder.GetMotorRPS(2);
 837              		.loc 1 46 7 is_stmt 1 view .LVU241
 838              		.loc 1 46 48 is_stmt 0 view .LVU242
 839 0076 0221     		movs	r1, #2
 840 0078 2846     		mov	r0, r5
 841 007a FFF7FEFF 		bl	_ZN7Encoder11GetMotorRPSEh
 842              	.LVL57:
 843              		.loc 1 46 27 view .LVU243
 844 007e A071     		strb	r0, [r4, #6]
  47:src/unit/hardware/hardware.cpp ****       info.Encoder.rps[3] = encoder.GetMotorRPS(3);
 845              		.loc 1 47 7 is_stmt 1 view .LVU244
 846              		.loc 1 47 48 is_stmt 0 view .LVU245
 847 0080 0321     		movs	r1, #3
 848 0082 2846     		mov	r0, r5
 849 0084 FFF7FEFF 		bl	_ZN7Encoder11GetMotorRPSEh
 850              	.LVL58:
 851              		.loc 1 47 27 view .LVU246
 852 0088 E071     		strb	r0, [r4, #7]
  48:src/unit/hardware/hardware.cpp **** }
 853              		.loc 1 48 1 view .LVU247
 854 008a 38BD     		pop	{r3, r4, r5, pc}
 855              	.LVL59:
 856              	.L26:
 857              		.loc 1 48 1 view .LVU248
 858              		.align	2
 859              	.L25:
 860 008c 00000000 		.word	adc_get_val
ARM GAS  /var/folders/5c/srt4fy4j1pd641bjfx75k5000000gn/T//ccSo7jei.s 			page 19


 861              		.cfi_endproc
 862              	.LFE268:
 863              		.fnend
 865              		.global	__aeabi_i2d
 866              		.global	__aeabi_dmul
 867              		.global	__aeabi_dadd
 868              		.global	__aeabi_d2uiz
 869              		.section	.text._ZN8Hardware8MainUartEv,"ax",%progbits
 870              		.align	1
 871              		.global	_ZN8Hardware8MainUartEv
 872              		.syntax unified
 873              		.thumb
 874              		.thumb_func
 876              	_ZN8Hardware8MainUartEv:
 877              		.fnstart
 878              	.LVL60:
 879              	.LFB269:
  49:src/unit/hardware/hardware.cpp **** 
  50:src/unit/hardware/hardware.cpp **** void Hardware::MainUart() {
 880              		.loc 1 50 27 is_stmt 1 view -0
 881              		.cfi_startproc
 882              		@ args = 0, pretend = 0, frame = 8
 883              		@ frame_needed = 0, uses_anonymous_args = 0
 884              		.loc 1 50 27 is_stmt 0 view .LVU250
 885 0000 30B5     		push	{r4, r5, lr}
 886              		.save {r4, r5, lr}
 887              	.LCFI6:
 888              		.cfi_def_cfa_offset 12
 889              		.cfi_offset 4, -12
 890              		.cfi_offset 5, -8
 891              		.cfi_offset 14, -4
 892              		.pad #12
 893 0002 83B0     		sub	sp, sp, #12
 894              	.LCFI7:
 895              		.cfi_def_cfa_offset 24
 896 0004 0546     		mov	r5, r0
  51:src/unit/hardware/hardware.cpp ****       if (send_interval_timer.read_us() >= SEND_PERIOD_US) {
 897              		.loc 1 51 7 is_stmt 1 view .LVU251
 898              	.LBB82:
 899              		.loc 1 51 38 is_stmt 0 view .LVU252
 900 0006 00F6E464 		addw	r4, r0, #3812
 901 000a 2046     		mov	r0, r4
 902              	.LVL61:
 903              		.loc 1 51 38 view .LVU253
 904 000c FFF7FEFF 		bl	_ZN5Timer7read_usEv
 905              	.LVL62:
 906              		.loc 1 51 7 view .LVU254
 907 0010 B0F5A67F 		cmp	r0, #332
 908 0014 45D9     		bls	.L29
 909              	.LBB83:
  52:src/unit/hardware/hardware.cpp ****             static const uint8_t HEADER = 0xFF;  // ヘッダ
 910              		.loc 1 52 13 is_stmt 1 view .LVU255
  53:src/unit/hardware/hardware.cpp ****             static const uint8_t FOOTER = 0xAA;  // ヘッダ
 911              		.loc 1 53 13 view .LVU256
  54:src/unit/hardware/hardware.cpp ****             static const uint8_t data_size = 8;
 912              		.loc 1 54 13 view .LVU257
  55:src/unit/hardware/hardware.cpp ****             uint8_t send_data[data_size];
ARM GAS  /var/folders/5c/srt4fy4j1pd641bjfx75k5000000gn/T//ccSo7jei.s 			page 20


 913              		.loc 1 55 13 view .LVU258
  56:src/unit/hardware/hardware.cpp ****             send_data[0] = HEADER;
 914              		.loc 1 56 13 view .LVU259
 915              		.loc 1 56 26 is_stmt 0 view .LVU260
 916 0016 FF23     		movs	r3, #255
 917 0018 8DF80030 		strb	r3, [sp]
  57:src/unit/hardware/hardware.cpp ****             send_data[1] = info.Encoder.rps[0];
 918              		.loc 1 57 13 is_stmt 1 view .LVU261
 919              		.loc 1 57 46 is_stmt 0 view .LVU262
 920 001c 2B79     		ldrb	r3, [r5, #4]	@ zero_extendqisi2
 921              		.loc 1 57 26 view .LVU263
 922 001e 8DF80130 		strb	r3, [sp, #1]
  58:src/unit/hardware/hardware.cpp ****             send_data[2] = info.Encoder.rps[1];
 923              		.loc 1 58 13 is_stmt 1 view .LVU264
 924              		.loc 1 58 46 is_stmt 0 view .LVU265
 925 0022 6B79     		ldrb	r3, [r5, #5]	@ zero_extendqisi2
 926              		.loc 1 58 26 view .LVU266
 927 0024 8DF80230 		strb	r3, [sp, #2]
  59:src/unit/hardware/hardware.cpp ****             send_data[3] = info.Encoder.rps[2];
 928              		.loc 1 59 13 is_stmt 1 view .LVU267
 929              		.loc 1 59 46 is_stmt 0 view .LVU268
 930 0028 AB79     		ldrb	r3, [r5, #6]	@ zero_extendqisi2
 931              		.loc 1 59 26 view .LVU269
 932 002a 8DF80330 		strb	r3, [sp, #3]
  60:src/unit/hardware/hardware.cpp ****             send_data[4] = info.Encoder.rps[3];
 933              		.loc 1 60 13 is_stmt 1 view .LVU270
 934              		.loc 1 60 46 is_stmt 0 view .LVU271
 935 002e EB79     		ldrb	r3, [r5, #7]	@ zero_extendqisi2
 936              		.loc 1 60 26 view .LVU272
 937 0030 8DF80430 		strb	r3, [sp, #4]
  61:src/unit/hardware/hardware.cpp ****             send_data[5] = info.Line.max_interval << 4 | info.Line.is_on_line << 3 | info.Line.is_h
 938              		.loc 1 61 13 is_stmt 1 view .LVU273
 939              		.loc 1 61 38 is_stmt 0 view .LVU274
 940 0034 2A7D     		ldrb	r2, [r5, #20]	@ zero_extendqisi2
 941              		.loc 1 61 68 view .LVU275
 942 0036 AB7D     		ldrb	r3, [r5, #22]	@ zero_extendqisi2
 943              		.loc 1 61 79 view .LVU276
 944 0038 DB00     		lsls	r3, r3, #3
 945              		.loc 1 61 56 view .LVU277
 946 003a 43EA0213 		orr	r3, r3, r2, lsl #4
 947 003e 5BB2     		sxtb	r3, r3
 948              		.loc 1 61 96 view .LVU278
 949 0040 6A7D     		ldrb	r2, [r5, #21]	@ zero_extendqisi2
 950              		.loc 1 61 84 view .LVU279
 951 0042 43EA8203 		orr	r3, r3, r2, lsl #2
 952 0046 5BB2     		sxtb	r3, r3
 953              		.loc 1 61 125 view .LVU280
 954 0048 EA7D     		ldrb	r2, [r5, #23]	@ zero_extendqisi2
 955              		.loc 1 61 113 view .LVU281
 956 004a 43EA4203 		orr	r3, r3, r2, lsl #1
 957 004e 5BB2     		sxtb	r3, r3
 958              		.loc 1 61 160 view .LVU282
 959 0050 95F91820 		ldrsb	r2, [r5, #24]
 960              		.loc 1 61 148 view .LVU283
 961 0054 1343     		orrs	r3, r3, r2
 962              		.loc 1 61 26 view .LVU284
 963 0056 8DF80530 		strb	r3, [sp, #5]
ARM GAS  /var/folders/5c/srt4fy4j1pd641bjfx75k5000000gn/T//ccSo7jei.s 			page 21


  62:src/unit/hardware/hardware.cpp ****             send_data[6] = info.Line.dir * 0.5 + 90;
 964              		.loc 1 62 13 is_stmt 1 view .LVU285
 965              		.loc 1 62 42 is_stmt 0 view .LVU286
 966 005a B5F91200 		ldrsh	r0, [r5, #18]
 967 005e FFF7FEFF 		bl	__aeabi_i2d
 968              	.LVL63:
 969 0062 0022     		movs	r2, #0
 970 0064 134B     		ldr	r3, .L32
 971 0066 FFF7FEFF 		bl	__aeabi_dmul
 972              	.LVL64:
 973              		.loc 1 62 48 view .LVU287
 974 006a 0022     		movs	r2, #0
 975 006c 124B     		ldr	r3, .L32+4
 976 006e FFF7FEFF 		bl	__aeabi_dadd
 977              	.LVL65:
 978              		.loc 1 62 26 view .LVU288
 979 0072 FFF7FEFF 		bl	__aeabi_d2uiz
 980              	.LVL66:
 981 0076 8DF80600 		strb	r0, [sp, #6]
  63:src/unit/hardware/hardware.cpp ****             send_data[7] = FOOTER;
 982              		.loc 1 63 13 is_stmt 1 view .LVU289
 983              		.loc 1 63 26 is_stmt 0 view .LVU290
 984 007a AA23     		movs	r3, #170
 985 007c 8DF80730 		strb	r3, [sp, #7]
  64:src/unit/hardware/hardware.cpp ****             serial6.write(send_data, data_size);
 986              		.loc 1 64 13 is_stmt 1 view .LVU291
 987              	.LVL67:
 988              	.LBB84:
 989              	.LBI84:
  53:Lib/BufferedSerial/BufferedSerial.hpp **** 
  54:Lib/BufferedSerial/BufferedSerial.hpp ****       void write(uint8_t data) {
  55:Lib/BufferedSerial/BufferedSerial.hpp ****             HAL_UART_Transmit(_huart, &data, 1, 100);
  56:Lib/BufferedSerial/BufferedSerial.hpp ****       }
  57:Lib/BufferedSerial/BufferedSerial.hpp **** 
  58:Lib/BufferedSerial/BufferedSerial.hpp ****       void write(const uint8_t *data, uint16_t len) {
 990              		.loc 2 58 12 view .LVU292
 991              	.LBB85:
  59:Lib/BufferedSerial/BufferedSerial.hpp ****             HAL_UART_Transmit(_huart, (uint8_t *)data, len, 100);
 992              		.loc 2 59 13 view .LVU293
 993              		.loc 2 59 30 is_stmt 0 view .LVU294
 994 0080 6423     		movs	r3, #100
 995 0082 0822     		movs	r2, #8
 996 0084 6946     		mov	r1, sp
 997 0086 E86E     		ldr	r0, [r5, #108]
 998 0088 FFF7FEFF 		bl	HAL_UART_Transmit
 999              	.LVL68:
 1000              		.loc 2 59 30 view .LVU295
 1001              	.LBE85:
 1002              	.LBE84:
  65:src/unit/hardware/hardware.cpp ****             send_interval_timer.reset();
 1003              		.loc 1 65 13 is_stmt 1 view .LVU296
 1004              		.loc 1 65 38 is_stmt 0 view .LVU297
 1005 008c 2046     		mov	r0, r4
 1006 008e FFF7FEFF 		bl	_ZN5Timer5resetEv
 1007              	.LVL69:
 1008              	.LBE83:
 1009 0092 06E0     		b	.L29
ARM GAS  /var/folders/5c/srt4fy4j1pd641bjfx75k5000000gn/T//ccSo7jei.s 			page 22


 1010              	.L30:
 1011              		.loc 1 65 38 view .LVU298
 1012              	.LBE82:
  66:src/unit/hardware/hardware.cpp ****       }
  67:src/unit/hardware/hardware.cpp **** 
  68:src/unit/hardware/hardware.cpp ****       // 受信
  69:src/unit/hardware/hardware.cpp ****       while (serial6.available()) info.Line.do_read = serial6.read();
 1013              		.loc 1 69 35 is_stmt 1 discriminator 2 view .LVU299
 1014              		.loc 1 69 67 is_stmt 0 discriminator 2 view .LVU300
 1015 0094 2046     		mov	r0, r4
 1016 0096 FFF7FEFF 		bl	_ZN14BufferedSerial4readEv
 1017              	.LVL70:
 1018 009a 0038     		subs	r0, r0, #0
 1019 009c 18BF     		it	ne
 1020 009e 0120     		movne	r0, #1
 1021              		.loc 1 69 53 discriminator 2 view .LVU301
 1022 00a0 2874     		strb	r0, [r5, #16]
 1023              	.L29:
 1024              		.loc 1 69 31 is_stmt 1 discriminator 1 view .LVU302
 1025 00a2 05F16C04 		add	r4, r5, #108
 1026 00a6 2046     		mov	r0, r4
 1027 00a8 FFF7FEFF 		bl	_ZN14BufferedSerial9availableEv
 1028              	.LVL71:
 1029 00ac 0028     		cmp	r0, #0
 1030 00ae F1D1     		bne	.L30
  70:src/unit/hardware/hardware.cpp **** }...
 1031              		.loc 1 70 1 is_stmt 0 view .LVU303
 1032 00b0 03B0     		add	sp, sp, #12
 1033              	.LCFI8:
 1034              		.cfi_def_cfa_offset 12
 1035              		@ sp needed
 1036 00b2 30BD     		pop	{r4, r5, pc}
 1037              	.LVL72:
 1038              	.L33:
 1039              		.loc 1 70 1 view .LVU304
 1040              		.align	2
 1041              	.L32:
 1042 00b4 0000E03F 		.word	1071644672
 1043 00b8 00805640 		.word	1079410688
 1044              		.cfi_endproc
 1045              	.LFE269:
 1046              		.fnend
 1048              		.global	adc_get_val
 1049              		.section	.bss.adc_get_val,"aw",%nobits
 1050              		.align	2
 1053              	adc_get_val:
 1054 0000 00000000 		.space	24
 1054      00000000 
 1054      00000000 
 1054      00000000 
 1054      00000000 
 1055              		.text
 1056              	.Letext0:
 1057              		.file 4 "/opt/ST/STM32CubeCLT_1.16.0/GNU-tools-for-STM32/arm-none-eabi/include/machine/_default_ty
 1058              		.file 5 "/opt/ST/STM32CubeCLT_1.16.0/GNU-tools-for-STM32/lib/gcc/arm-none-eabi/12.3.1/include/stdd
 1059              		.file 6 "/opt/ST/STM32CubeCLT_1.16.0/GNU-tools-for-STM32/arm-none-eabi/include/sys/_types.h"
 1060              		.file 7 "/opt/ST/STM32CubeCLT_1.16.0/GNU-tools-for-STM32/arm-none-eabi/include/sys/reent.h"
ARM GAS  /var/folders/5c/srt4fy4j1pd641bjfx75k5000000gn/T//ccSo7jei.s 			page 23


 1061              		.file 8 "/opt/ST/STM32CubeCLT_1.16.0/GNU-tools-for-STM32/arm-none-eabi/include/sys/lock.h"
 1062              		.file 9 "/opt/ST/STM32CubeCLT_1.16.0/GNU-tools-for-STM32/arm-none-eabi/include/stdio.h"
 1063              		.file 10 "/opt/ST/STM32CubeCLT_1.16.0/GNU-tools-for-STM32/arm-none-eabi/include/sys/_stdint.h"
 1064              		.file 11 "Drivers/CMSIS/Device/ST/STM32F4xx/Include/stm32f446xx.h"
 1065              		.file 12 "Drivers/CMSIS/Device/ST/STM32F4xx/Include/stm32f4xx.h"
 1066              		.file 13 "Drivers/STM32F4xx_HAL_Driver/Inc/stm32f4xx_hal_def.h"
 1067              		.file 14 "Drivers/STM32F4xx_HAL_Driver/Inc/stm32f4xx_hal_gpio.h"
 1068              		.file 15 "Drivers/STM32F4xx_HAL_Driver/Inc/stm32f4xx_hal_dma.h"
 1069              		.file 16 "Drivers/STM32F4xx_HAL_Driver/Inc/stm32f4xx_hal_adc.h"
 1070              		.file 17 "Drivers/STM32F4xx_HAL_Driver/Inc/stm32f4xx_hal_uart.h"
 1071              		.file 18 "Drivers/STM32F4xx_HAL_Driver/Inc/stm32f4xx_hal.h"
 1072              		.file 19 "/opt/ST/STM32CubeCLT_1.16.0/GNU-tools-for-STM32/arm-none-eabi/include/c++/12.3.1/cstdio"
 1073              		.file 20 "/opt/ST/STM32CubeCLT_1.16.0/GNU-tools-for-STM32/arm-none-eabi/include/c++/12.3.1/arm-non
 1074              		.file 21 "Core/Inc/usart.h"
 1075              		.file 22 "Core/Inc/adc.h"
 1076              		.file 23 "Lib/MovingAve/MovingAve.hpp"
 1077              		.file 24 "Lib/Timer/Timer.hpp"
 1078              		.file 25 "src/unit/encoder/encoder.hpp"
 1079              		.file 26 "src/unit/line/line.hpp"
 1080              		.file 27 "src/unit/hardware/hardware.hpp"
ARM GAS  /var/folders/5c/srt4fy4j1pd641bjfx75k5000000gn/T//ccSo7jei.s 			page 24


DEFINED SYMBOLS
                            *ABS*:00000000 hardware.cpp
/var/folders/5c/srt4fy4j1pd641bjfx75k5000000gn/T//ccSo7jei.s:21     .text._ZN14BufferedSerial9availableEv:00000000 $t
/var/folders/5c/srt4fy4j1pd641bjfx75k5000000gn/T//ccSo7jei.s:27     .text._ZN14BufferedSerial9availableEv:00000000 _ZN14BufferedSerial9availableEv
.ARM.exidx.text._ZN14BufferedSerial9availableEv:00000000 $d
/var/folders/5c/srt4fy4j1pd641bjfx75k5000000gn/T//ccSo7jei.s:113    .text._ZN14BufferedSerial4readEv:00000000 $t
/var/folders/5c/srt4fy4j1pd641bjfx75k5000000gn/T//ccSo7jei.s:119    .text._ZN14BufferedSerial4readEv:00000000 _ZN14BufferedSerial4readEv
.ARM.exidx.text._ZN14BufferedSerial4readEv:00000000 $d
/var/folders/5c/srt4fy4j1pd641bjfx75k5000000gn/T//ccSo7jei.s:184    .text._ZN8HardwareC2Ev:00000000 $t
/var/folders/5c/srt4fy4j1pd641bjfx75k5000000gn/T//ccSo7jei.s:190    .text._ZN8HardwareC2Ev:00000000 _ZN8HardwareC2Ev
/var/folders/5c/srt4fy4j1pd641bjfx75k5000000gn/T//ccSo7jei.s:531    .text._ZN8HardwareC2Ev:00000174 $d
 .ARM.extab.text._ZN8HardwareC2Ev:00000000 $d
 .ARM.exidx.text._ZN8HardwareC2Ev:00000000 $d
/var/folders/5c/srt4fy4j1pd641bjfx75k5000000gn/T//ccSo7jei.s:190    .text._ZN8HardwareC2Ev:00000000 _ZN8HardwareC1Ev
/var/folders/5c/srt4fy4j1pd641bjfx75k5000000gn/T//ccSo7jei.s:564    .text._ZN8Hardware4InitEv:00000000 $t
/var/folders/5c/srt4fy4j1pd641bjfx75k5000000gn/T//ccSo7jei.s:570    .text._ZN8Hardware4InitEv:00000000 _ZN8Hardware4InitEv
/var/folders/5c/srt4fy4j1pd641bjfx75k5000000gn/T//ccSo7jei.s:694    .text._ZN8Hardware4InitEv:0000005c $d
/var/folders/5c/srt4fy4j1pd641bjfx75k5000000gn/T//ccSo7jei.s:1053   .bss.adc_get_val:00000000 adc_get_val
.ARM.exidx.text._ZN8Hardware4InitEv:00000000 $d
/var/folders/5c/srt4fy4j1pd641bjfx75k5000000gn/T//ccSo7jei.s:701    .text._ZN8Hardware10GetSensorsEv:00000000 $t
/var/folders/5c/srt4fy4j1pd641bjfx75k5000000gn/T//ccSo7jei.s:707    .text._ZN8Hardware10GetSensorsEv:00000000 _ZN8Hardware10GetSensorsEv
/var/folders/5c/srt4fy4j1pd641bjfx75k5000000gn/T//ccSo7jei.s:860    .text._ZN8Hardware10GetSensorsEv:0000008c $d
.ARM.exidx.text._ZN8Hardware10GetSensorsEv:00000000 $d
/var/folders/5c/srt4fy4j1pd641bjfx75k5000000gn/T//ccSo7jei.s:870    .text._ZN8Hardware8MainUartEv:00000000 $t
/var/folders/5c/srt4fy4j1pd641bjfx75k5000000gn/T//ccSo7jei.s:876    .text._ZN8Hardware8MainUartEv:00000000 _ZN8Hardware8MainUartEv
/var/folders/5c/srt4fy4j1pd641bjfx75k5000000gn/T//ccSo7jei.s:1042   .text._ZN8Hardware8MainUartEv:000000b4 $d
.ARM.exidx.text._ZN8Hardware8MainUartEv:00000000 $d
/var/folders/5c/srt4fy4j1pd641bjfx75k5000000gn/T//ccSo7jei.s:1050   .bss.adc_get_val:00000000 $d

UNDEFINED SYMBOLS
HAL_UART_Abort
HAL_UART_Receive_DMA
__aeabi_unwind_cpp_pr0
HAL_GPIO_WritePin
_Znaj
_ZN7EncoderC1EP10DigitalOutPh
_ZN4LineC1EP10DigitalOutS1_S1_S1_S1_S1_S1_PhS2_S2_S2_S2_S2_S2_S2_
_ZN5TimerC1Ev
_ZdaPv
__cxa_end_cleanup
huart6
__gxx_personality_v0
HAL_ADC_Start
HAL_ADC_Start_DMA
HAL_Delay
hadc1
_ZN4Line8IsOnLineEv
_ZN7Encoder11GetMotorRPSEh
__aeabi_i2d
__aeabi_dmul
__aeabi_dadd
__aeabi_d2uiz
_ZN5Timer7read_usEv
HAL_UART_Transmit
_ZN5Timer5resetEv
