ARM GAS  /var/folders/5c/srt4fy4j1pd641bjfx75k5000000gn/T//ccFn9NwA.s 			page 1


   1              		.cpu cortex-m4
   2              		.arch armv7e-m
   3              		.fpu fpv4-sp-d16
   4              		.eabi_attribute 27, 1
   5              		.eabi_attribute 28, 1
   6              		.eabi_attribute 20, 1
   7              		.eabi_attribute 21, 1
   8              		.eabi_attribute 23, 3
   9              		.eabi_attribute 24, 1
  10              		.eabi_attribute 25, 1
  11              		.eabi_attribute 26, 1
  12              		.eabi_attribute 30, 1
  13              		.eabi_attribute 34, 1
  14              		.eabi_attribute 18, 4
  15              		.file	"hardware.cpp"
  16              		.text
  17              	.Ltext0:
  18              		.cfi_sections	.debug_frame
  19              		.file 1 "src/unit/hardware/hardware.cpp"
  20              		.section	.text._ZN14BufferedSerial4readEv,"axG",%progbits,_ZN14BufferedSerial4readEv,comdat
  21              		.align	1
  22              		.weak	_ZN14BufferedSerial4readEv
  23              		.syntax unified
  24              		.thumb
  25              		.thumb_func
  27              	_ZN14BufferedSerial4readEv:
  28              		.fnstart
  29              	.LVL0:
  30              	.LFB245:
  31              		.file 2 "Lib/BufferedSerial/BufferedSerial.hpp"
   1:Lib/BufferedSerial/BufferedSerial.hpp **** #ifndef __BUFFERED_SERIAL__
   2:Lib/BufferedSerial/BufferedSerial.hpp **** #define __BUFFERED_SERIAL__
   3:Lib/BufferedSerial/BufferedSerial.hpp **** 
   4:Lib/BufferedSerial/BufferedSerial.hpp **** #include <stdio.h>
   5:Lib/BufferedSerial/BufferedSerial.hpp **** 
   6:Lib/BufferedSerial/BufferedSerial.hpp **** #include "usart.h"
   7:Lib/BufferedSerial/BufferedSerial.hpp **** 
   8:Lib/BufferedSerial/BufferedSerial.hpp **** #ifdef __cplusplus
   9:Lib/BufferedSerial/BufferedSerial.hpp **** 
  10:Lib/BufferedSerial/BufferedSerial.hpp **** /*
  11:Lib/BufferedSerial/BufferedSerial.hpp ****  Initの順番をDMAが先になるようにする
  12:Lib/BufferedSerial/BufferedSerial.hpp ****  - MX_DMA_Init();
  13:Lib/BufferedSerial/BufferedSerial.hpp ****  - MX_USART2_UART_Init();
  14:Lib/BufferedSerial/BufferedSerial.hpp ****  - DMAはCircularモードにする
  15:Lib/BufferedSerial/BufferedSerial.hpp **** */
  16:Lib/BufferedSerial/BufferedSerial.hpp **** 
  17:Lib/BufferedSerial/BufferedSerial.hpp **** class BufferedSerial {
  18:Lib/BufferedSerial/BufferedSerial.hpp ****      public:
  19:Lib/BufferedSerial/BufferedSerial.hpp ****       BufferedSerial(UART_HandleTypeDef *huart, uint16_t rxBufSize)
  20:Lib/BufferedSerial/BufferedSerial.hpp ****           : _huart(huart),
  21:Lib/BufferedSerial/BufferedSerial.hpp ****             _rxBuf(new uint8_t[rxBufSize]),
  22:Lib/BufferedSerial/BufferedSerial.hpp ****             rxTop(0),
  23:Lib/BufferedSerial/BufferedSerial.hpp ****             rxBtm(0),
  24:Lib/BufferedSerial/BufferedSerial.hpp ****             _rxBufSize(rxBufSize),
  25:Lib/BufferedSerial/BufferedSerial.hpp ****             _useDMA(false) {
  26:Lib/BufferedSerial/BufferedSerial.hpp ****       }
  27:Lib/BufferedSerial/BufferedSerial.hpp ****       void init(bool dma = false) {
ARM GAS  /var/folders/5c/srt4fy4j1pd641bjfx75k5000000gn/T//ccFn9NwA.s 			page 2


  28:Lib/BufferedSerial/BufferedSerial.hpp ****             _useDMA = dma;
  29:Lib/BufferedSerial/BufferedSerial.hpp ****             HAL_UART_Receive_DMA(_huart, _rxBuf, _rxBufSize);
  30:Lib/BufferedSerial/BufferedSerial.hpp ****             // printf("- Serial init\n");
  31:Lib/BufferedSerial/BufferedSerial.hpp ****       }
  32:Lib/BufferedSerial/BufferedSerial.hpp **** 
  33:Lib/BufferedSerial/BufferedSerial.hpp ****       bool available() {
  34:Lib/BufferedSerial/BufferedSerial.hpp ****             uint16_t rxTop = _rxBufSize - _huart->hdmarx->Instance->NDTR;
  35:Lib/BufferedSerial/BufferedSerial.hpp ****             return rxTop != rxBtm;
  36:Lib/BufferedSerial/BufferedSerial.hpp ****       }
  37:Lib/BufferedSerial/BufferedSerial.hpp **** 
  38:Lib/BufferedSerial/BufferedSerial.hpp ****       uint8_t read() {
  32              		.loc 2 38 15 view -0
  33              		.cfi_startproc
  34              		@ args = 0, pretend = 0, frame = 0
  35              		@ frame_needed = 0, uses_anonymous_args = 0
  36              		@ link register save eliminated.
  37              		.loc 2 38 15 is_stmt 0 view .LVU1
  38 0000 0246     		mov	r2, r0
  39:Lib/BufferedSerial/BufferedSerial.hpp ****             uint16_t rxTop = _rxBufSize - _huart->hdmarx->Instance->NDTR;
  39              		.loc 2 39 13 is_stmt 1 view .LVU2
  40              		.loc 2 39 30 is_stmt 0 view .LVU3
  41 0002 B0F80CC0 		ldrh	ip, [r0, #12]
  42              		.loc 2 39 43 view .LVU4
  43 0006 0368     		ldr	r3, [r0]
  44              		.loc 2 39 51 view .LVU5
  45 0008 DB6B     		ldr	r3, [r3, #60]
  46              		.loc 2 39 59 view .LVU6
  47 000a 1B68     		ldr	r3, [r3]
  48              		.loc 2 39 69 view .LVU7
  49 000c 5B68     		ldr	r3, [r3, #4]
  50              		.loc 2 39 41 view .LVU8
  51 000e 9BB2     		uxth	r3, r3
  52              		.loc 2 39 69 view .LVU9
  53 0010 ACEB0303 		sub	r3, ip, r3
  54 0014 9BB2     		uxth	r3, r3
  55              	.LVL1:
  40:Lib/BufferedSerial/BufferedSerial.hpp ****             if (rxTop == rxBtm) {
  56              		.loc 2 40 13 is_stmt 1 view .LVU10
  57              		.loc 2 40 26 is_stmt 0 view .LVU11
  58 0016 4189     		ldrh	r1, [r0, #10]
  59              		.loc 2 40 13 view .LVU12
  60 0018 9942     		cmp	r1, r3
  61 001a 08D0     		beq	.L3
  41:Lib/BufferedSerial/BufferedSerial.hpp ****                   return 0;
  42:Lib/BufferedSerial/BufferedSerial.hpp ****             }
  43:Lib/BufferedSerial/BufferedSerial.hpp ****             uint8_t data = _rxBuf[rxBtm];
  62              		.loc 2 43 13 is_stmt 1 view .LVU13
  63              		.loc 2 43 28 is_stmt 0 view .LVU14
  64 001c 4368     		ldr	r3, [r0, #4]
  65              	.LVL2:
  66              		.loc 2 43 21 view .LVU15
  67 001e 585C     		ldrb	r0, [r3, r1]	@ zero_extendqisi2
  68              	.LVL3:
  44:Lib/BufferedSerial/BufferedSerial.hpp ****             rxBtm = (rxBtm + 1) % _rxBufSize;
  69              		.loc 2 44 13 is_stmt 1 view .LVU16
  70              		.loc 2 44 28 is_stmt 0 view .LVU17
  71 0020 0131     		adds	r1, r1, #1
ARM GAS  /var/folders/5c/srt4fy4j1pd641bjfx75k5000000gn/T//ccFn9NwA.s 			page 3


  72              		.loc 2 44 33 view .LVU18
  73 0022 91FBFCF3 		sdiv	r3, r1, ip
  74 0026 0CFB1311 		mls	r1, ip, r3, r1
  75              		.loc 2 44 19 view .LVU19
  76 002a 5181     		strh	r1, [r2, #10]	@ movhi
  45:Lib/BufferedSerial/BufferedSerial.hpp ****             // printf("top:%d btm:%d NDTR:%d data:%d\n", rxTop, rxBtm, _huart->hdmarx->Instance->ND
  46:Lib/BufferedSerial/BufferedSerial.hpp ****             return data;
  77              		.loc 2 46 13 is_stmt 1 view .LVU20
  78              		.loc 2 46 20 is_stmt 0 view .LVU21
  79 002c 7047     		bx	lr
  80              	.LVL4:
  81              	.L3:
  41:Lib/BufferedSerial/BufferedSerial.hpp ****             }
  82              		.loc 2 41 26 view .LVU22
  83 002e 0020     		movs	r0, #0
  84              	.LVL5:
  47:Lib/BufferedSerial/BufferedSerial.hpp ****       }
  85              		.loc 2 47 7 view .LVU23
  86 0030 7047     		bx	lr
  87              		.cfi_endproc
  88              	.LFE245:
  89              		.cantunwind
  90              		.fnend
  92              		.section	.text._ZN8HardwareC2Ev,"ax",%progbits
  93              		.align	1
  94              		.global	_ZN8HardwareC2Ev
  95              		.syntax unified
  96              		.thumb
  97              		.thumb_func
  99              	_ZN8HardwareC2Ev:
 100              		.fnstart
 101              	.LVL6:
 102              	.LFB263:
   1:src/unit/hardware/hardware.cpp **** #include "hardware.hpp"
   2:src/unit/hardware/hardware.cpp **** 
   3:src/unit/hardware/hardware.cpp **** uint16_t adc_get_val[12];
   4:src/unit/hardware/hardware.cpp **** 
   5:src/unit/hardware/hardware.cpp **** Hardware::Hardware() {
 103              		.loc 1 5 1 is_stmt 1 view -0
 104              		.cfi_startproc
 105              		@ args = 0, pretend = 0, frame = 0
 106              		@ frame_needed = 0, uses_anonymous_args = 0
 107              		.loc 1 5 1 is_stmt 0 view .LVU25
 108 0000 2DE9F043 		push	{r4, r5, r6, r7, r8, r9, lr}
 109              		.save {r4, r5, r6, r7, r8, r9, lr}
 110              	.LCFI0:
 111              		.cfi_def_cfa_offset 28
 112              		.cfi_offset 4, -28
 113              		.cfi_offset 5, -24
 114              		.cfi_offset 6, -20
 115              		.cfi_offset 7, -16
 116              		.cfi_offset 8, -12
 117              		.cfi_offset 9, -8
 118              		.cfi_offset 14, -4
 119              		.pad #52
 120 0004 8DB0     		sub	sp, sp, #52
 121              	.LCFI1:
ARM GAS  /var/folders/5c/srt4fy4j1pd641bjfx75k5000000gn/T//ccFn9NwA.s 			page 4


 122              		.cfi_def_cfa_offset 80
 123 0006 0446     		mov	r4, r0
 124              	.LVL7:
 125              	.LBB61:
 126              	.LBB62:
 127              	.LBI62:
 128              		.file 3 "Lib/DigitalInOut/DigitalInOut.hpp"
   1:Lib/DigitalInOut/DigitalInOut.hpp **** #ifndef __DIGITALINOUT__
   2:Lib/DigitalInOut/DigitalInOut.hpp **** #define __DIGITALINOUT__
   3:Lib/DigitalInOut/DigitalInOut.hpp **** 
   4:Lib/DigitalInOut/DigitalInOut.hpp **** #include "main.h"
   5:Lib/DigitalInOut/DigitalInOut.hpp **** 
   6:Lib/DigitalInOut/DigitalInOut.hpp **** #ifdef __cplusplus
   7:Lib/DigitalInOut/DigitalInOut.hpp **** 
   8:Lib/DigitalInOut/DigitalInOut.hpp **** extern "C" {
   9:Lib/DigitalInOut/DigitalInOut.hpp **** 
  10:Lib/DigitalInOut/DigitalInOut.hpp **** class DigitalOut {
  11:Lib/DigitalInOut/DigitalInOut.hpp ****      public:
  12:Lib/DigitalInOut/DigitalInOut.hpp ****       DigitalOut(GPIO_TypeDef *port, uint16_t pin) : port(port), pin(pin) {
 129              		.loc 3 12 7 is_stmt 1 view .LVU26
 130              	.LBB63:
 131              		.loc 3 12 54 is_stmt 0 view .LVU27
 132 0008 514D     		ldr	r5, .L6
 133 000a C561     		str	r5, [r0, #28]
 134              		.loc 3 12 66 view .LVU28
 135 000c 4FF48061 		mov	r1, #1024
 136 0010 0184     		strh	r1, [r0, #32]	@ movhi
  13:Lib/DigitalInOut/DigitalInOut.hpp ****             HAL_GPIO_WritePin(port, pin, GPIO_PIN_RESET);
 137              		.loc 3 13 13 is_stmt 1 view .LVU29
 138              		.loc 3 13 30 is_stmt 0 view .LVU30
 139 0012 0022     		movs	r2, #0
 140 0014 2846     		mov	r0, r5
 141              	.LVL8:
 142              		.loc 3 13 30 view .LVU31
 143 0016 FFF7FEFF 		bl	HAL_GPIO_WritePin
 144              	.LVL9:
 145              		.loc 3 13 30 view .LVU32
 146              	.LBE63:
 147              	.LBE62:
 148              	.LBB64:
 149              	.LBI64:
  12:Lib/DigitalInOut/DigitalInOut.hpp ****             HAL_GPIO_WritePin(port, pin, GPIO_PIN_RESET);
 150              		.loc 3 12 7 is_stmt 1 view .LVU33
 151              	.LBB65:
  12:Lib/DigitalInOut/DigitalInOut.hpp ****             HAL_GPIO_WritePin(port, pin, GPIO_PIN_RESET);
 152              		.loc 3 12 54 is_stmt 0 view .LVU34
 153 001a 6562     		str	r5, [r4, #36]
  12:Lib/DigitalInOut/DigitalInOut.hpp ****             HAL_GPIO_WritePin(port, pin, GPIO_PIN_RESET);
 154              		.loc 3 12 66 view .LVU35
 155 001c 4FF40061 		mov	r1, #2048
 156 0020 2185     		strh	r1, [r4, #40]	@ movhi
 157              		.loc 3 13 13 is_stmt 1 view .LVU36
 158              		.loc 3 13 30 is_stmt 0 view .LVU37
 159 0022 0022     		movs	r2, #0
 160 0024 2846     		mov	r0, r5
 161 0026 FFF7FEFF 		bl	HAL_GPIO_WritePin
 162              	.LVL10:
ARM GAS  /var/folders/5c/srt4fy4j1pd641bjfx75k5000000gn/T//ccFn9NwA.s 			page 5


 163              		.loc 3 13 30 view .LVU38
 164              	.LBE65:
 165              	.LBE64:
 166              	.LBB66:
 167              	.LBI66:
  12:Lib/DigitalInOut/DigitalInOut.hpp ****             HAL_GPIO_WritePin(port, pin, GPIO_PIN_RESET);
 168              		.loc 3 12 7 is_stmt 1 view .LVU39
 169              	.LBB67:
  12:Lib/DigitalInOut/DigitalInOut.hpp ****             HAL_GPIO_WritePin(port, pin, GPIO_PIN_RESET);
 170              		.loc 3 12 54 is_stmt 0 view .LVU40
 171 002a E562     		str	r5, [r4, #44]
  12:Lib/DigitalInOut/DigitalInOut.hpp ****             HAL_GPIO_WritePin(port, pin, GPIO_PIN_RESET);
 172              		.loc 3 12 66 view .LVU41
 173 002c 4FF48057 		mov	r7, #4096
 174 0030 2786     		strh	r7, [r4, #48]	@ movhi
 175              		.loc 3 13 13 is_stmt 1 view .LVU42
 176              		.loc 3 13 30 is_stmt 0 view .LVU43
 177 0032 0022     		movs	r2, #0
 178 0034 3946     		mov	r1, r7
 179 0036 2846     		mov	r0, r5
 180 0038 FFF7FEFF 		bl	HAL_GPIO_WritePin
 181              	.LVL11:
 182              		.loc 3 13 30 view .LVU44
 183              	.LBE67:
 184              	.LBE66:
 185              		.loc 1 5 20 view .LVU45
 186 003c 04F13409 		add	r9, r4, #52
 187              	.LVL12:
 188              	.LBB68:
 189              	.LBI68:
  12:Lib/DigitalInOut/DigitalInOut.hpp ****             HAL_GPIO_WritePin(port, pin, GPIO_PIN_RESET);
 190              		.loc 3 12 7 is_stmt 1 view .LVU46
 191              	.LBB69:
  12:Lib/DigitalInOut/DigitalInOut.hpp ****             HAL_GPIO_WritePin(port, pin, GPIO_PIN_RESET);
 192              		.loc 3 12 54 is_stmt 0 view .LVU47
 193 0040 6563     		str	r5, [r4, #52]
  12:Lib/DigitalInOut/DigitalInOut.hpp ****             HAL_GPIO_WritePin(port, pin, GPIO_PIN_RESET);
 194              		.loc 3 12 66 view .LVU48
 195 0042 4FF48076 		mov	r6, #256
 196 0046 2687     		strh	r6, [r4, #56]	@ movhi
 197              		.loc 3 13 13 is_stmt 1 view .LVU49
 198              		.loc 3 13 30 is_stmt 0 view .LVU50
 199 0048 0022     		movs	r2, #0
 200 004a 3146     		mov	r1, r6
 201 004c 2846     		mov	r0, r5
 202 004e FFF7FEFF 		bl	HAL_GPIO_WritePin
 203              	.LVL13:
 204              		.loc 3 13 30 view .LVU51
 205              	.LBE69:
 206              	.LBE68:
 207              	.LBB70:
 208              	.LBI70:
  12:Lib/DigitalInOut/DigitalInOut.hpp ****             HAL_GPIO_WritePin(port, pin, GPIO_PIN_RESET);
 209              		.loc 3 12 7 is_stmt 1 view .LVU52
 210              	.LBB71:
  12:Lib/DigitalInOut/DigitalInOut.hpp ****             HAL_GPIO_WritePin(port, pin, GPIO_PIN_RESET);
 211              		.loc 3 12 54 is_stmt 0 view .LVU53
ARM GAS  /var/folders/5c/srt4fy4j1pd641bjfx75k5000000gn/T//ccFn9NwA.s 			page 6


 212 0052 A5F58065 		sub	r5, r5, #1024
 213 0056 E563     		str	r5, [r4, #60]
  12:Lib/DigitalInOut/DigitalInOut.hpp ****             HAL_GPIO_WritePin(port, pin, GPIO_PIN_RESET);
 214              		.loc 3 12 66 view .LVU54
 215 0058 8021     		movs	r1, #128
 216 005a A4F84010 		strh	r1, [r4, #64]	@ movhi
 217              		.loc 3 13 13 is_stmt 1 view .LVU55
 218              		.loc 3 13 30 is_stmt 0 view .LVU56
 219 005e 0022     		movs	r2, #0
 220 0060 2846     		mov	r0, r5
 221 0062 FFF7FEFF 		bl	HAL_GPIO_WritePin
 222              	.LVL14:
 223              		.loc 3 13 30 view .LVU57
 224              	.LBE71:
 225              	.LBE70:
 226              	.LBB72:
 227              	.LBI72:
  12:Lib/DigitalInOut/DigitalInOut.hpp ****             HAL_GPIO_WritePin(port, pin, GPIO_PIN_RESET);
 228              		.loc 3 12 7 is_stmt 1 view .LVU58
 229              	.LBB73:
  12:Lib/DigitalInOut/DigitalInOut.hpp ****             HAL_GPIO_WritePin(port, pin, GPIO_PIN_RESET);
 230              		.loc 3 12 54 is_stmt 0 view .LVU59
 231 0066 6564     		str	r5, [r4, #68]
  12:Lib/DigitalInOut/DigitalInOut.hpp ****             HAL_GPIO_WritePin(port, pin, GPIO_PIN_RESET);
 232              		.loc 3 12 66 view .LVU60
 233 0068 4FF40071 		mov	r1, #512
 234 006c A4F84810 		strh	r1, [r4, #72]	@ movhi
 235              		.loc 3 13 13 is_stmt 1 view .LVU61
 236              		.loc 3 13 30 is_stmt 0 view .LVU62
 237 0070 0022     		movs	r2, #0
 238 0072 2846     		mov	r0, r5
 239 0074 FFF7FEFF 		bl	HAL_GPIO_WritePin
 240              	.LVL15:
 241              		.loc 3 13 30 view .LVU63
 242              	.LBE73:
 243              	.LBE72:
 244              	.LBB74:
 245              	.LBI74:
  12:Lib/DigitalInOut/DigitalInOut.hpp ****             HAL_GPIO_WritePin(port, pin, GPIO_PIN_RESET);
 246              		.loc 3 12 7 is_stmt 1 view .LVU64
 247              	.LBB75:
  12:Lib/DigitalInOut/DigitalInOut.hpp ****             HAL_GPIO_WritePin(port, pin, GPIO_PIN_RESET);
 248              		.loc 3 12 54 is_stmt 0 view .LVU65
 249 0078 DFF8DC80 		ldr	r8, .L6+8
 250 007c C4F84C80 		str	r8, [r4, #76]
  12:Lib/DigitalInOut/DigitalInOut.hpp ****             HAL_GPIO_WritePin(port, pin, GPIO_PIN_RESET);
 251              		.loc 3 12 66 view .LVU66
 252 0080 1021     		movs	r1, #16
 253 0082 A4F85010 		strh	r1, [r4, #80]	@ movhi
 254              		.loc 3 13 13 is_stmt 1 view .LVU67
 255              		.loc 3 13 30 is_stmt 0 view .LVU68
 256 0086 0022     		movs	r2, #0
 257 0088 4046     		mov	r0, r8
 258 008a FFF7FEFF 		bl	HAL_GPIO_WritePin
 259              	.LVL16:
 260              		.loc 3 13 30 view .LVU69
 261              	.LBE75:
ARM GAS  /var/folders/5c/srt4fy4j1pd641bjfx75k5000000gn/T//ccFn9NwA.s 			page 7


 262              	.LBE74:
 263              	.LBB76:
 264              	.LBI76:
  12:Lib/DigitalInOut/DigitalInOut.hpp ****             HAL_GPIO_WritePin(port, pin, GPIO_PIN_RESET);
 265              		.loc 3 12 7 is_stmt 1 view .LVU70
 266              	.LBB77:
  12:Lib/DigitalInOut/DigitalInOut.hpp ****             HAL_GPIO_WritePin(port, pin, GPIO_PIN_RESET);
 267              		.loc 3 12 54 is_stmt 0 view .LVU71
 268 008e C4F85480 		str	r8, [r4, #84]
  12:Lib/DigitalInOut/DigitalInOut.hpp ****             HAL_GPIO_WritePin(port, pin, GPIO_PIN_RESET);
 269              		.loc 3 12 66 view .LVU72
 270 0092 2021     		movs	r1, #32
 271 0094 A4F85810 		strh	r1, [r4, #88]	@ movhi
 272              		.loc 3 13 13 is_stmt 1 view .LVU73
 273              		.loc 3 13 30 is_stmt 0 view .LVU74
 274 0098 0022     		movs	r2, #0
 275 009a 4046     		mov	r0, r8
 276 009c FFF7FEFF 		bl	HAL_GPIO_WritePin
 277              	.LVL17:
 278              		.loc 3 13 30 view .LVU75
 279              	.LBE77:
 280              	.LBE76:
 281              	.LBB78:
 282              	.LBI78:
  12:Lib/DigitalInOut/DigitalInOut.hpp ****             HAL_GPIO_WritePin(port, pin, GPIO_PIN_RESET);
 283              		.loc 3 12 7 is_stmt 1 view .LVU76
 284              	.LBB79:
  12:Lib/DigitalInOut/DigitalInOut.hpp ****             HAL_GPIO_WritePin(port, pin, GPIO_PIN_RESET);
 285              		.loc 3 12 54 is_stmt 0 view .LVU77
 286 00a0 E565     		str	r5, [r4, #92]
  12:Lib/DigitalInOut/DigitalInOut.hpp ****             HAL_GPIO_WritePin(port, pin, GPIO_PIN_RESET);
 287              		.loc 3 12 66 view .LVU78
 288 00a2 A4F86070 		strh	r7, [r4, #96]	@ movhi
 289              		.loc 3 13 13 is_stmt 1 view .LVU79
 290              		.loc 3 13 30 is_stmt 0 view .LVU80
 291 00a6 0022     		movs	r2, #0
 292 00a8 3946     		mov	r1, r7
 293 00aa 2846     		mov	r0, r5
 294 00ac FFF7FEFF 		bl	HAL_GPIO_WritePin
 295              	.LVL18:
 296              		.loc 3 13 30 view .LVU81
 297              	.LBE79:
 298              	.LBE78:
 299              	.LBB80:
 300              	.LBI80:
  12:Lib/DigitalInOut/DigitalInOut.hpp ****             HAL_GPIO_WritePin(port, pin, GPIO_PIN_RESET);
 301              		.loc 3 12 7 is_stmt 1 view .LVU82
 302              	.LBB81:
  12:Lib/DigitalInOut/DigitalInOut.hpp ****             HAL_GPIO_WritePin(port, pin, GPIO_PIN_RESET);
 303              		.loc 3 12 54 is_stmt 0 view .LVU83
 304 00b0 6566     		str	r5, [r4, #100]
  12:Lib/DigitalInOut/DigitalInOut.hpp ****             HAL_GPIO_WritePin(port, pin, GPIO_PIN_RESET);
 305              		.loc 3 12 66 view .LVU84
 306 00b2 4FF40051 		mov	r1, #8192
 307 00b6 A4F86810 		strh	r1, [r4, #104]	@ movhi
 308              		.loc 3 13 13 is_stmt 1 view .LVU85
 309              		.loc 3 13 30 is_stmt 0 view .LVU86
ARM GAS  /var/folders/5c/srt4fy4j1pd641bjfx75k5000000gn/T//ccFn9NwA.s 			page 8


 310 00ba 0022     		movs	r2, #0
 311 00bc 2846     		mov	r0, r5
 312 00be FFF7FEFF 		bl	HAL_GPIO_WritePin
 313              	.LVL19:
 314              		.loc 3 13 30 view .LVU87
 315              	.LBE81:
 316              	.LBE80:
 317              	.LBB82:
 318              	.LBI82:
  19:Lib/BufferedSerial/BufferedSerial.hpp ****           : _huart(huart),
 319              		.loc 2 19 7 is_stmt 1 view .LVU88
 320              	.LBB83:
  20:Lib/BufferedSerial/BufferedSerial.hpp ****             _rxBuf(new uint8_t[rxBufSize]),
 321              		.loc 2 20 13 is_stmt 0 view .LVU89
 322 00c2 244B     		ldr	r3, .L6+4
 323 00c4 E366     		str	r3, [r4, #108]
  21:Lib/BufferedSerial/BufferedSerial.hpp ****             rxTop(0),
 324              		.loc 2 21 41 view .LVU90
 325 00c6 3046     		mov	r0, r6
 326 00c8 FFF7FEFF 		bl	_Znaj
 327              	.LVL20:
  21:Lib/BufferedSerial/BufferedSerial.hpp ****             rxTop(0),
 328              		.loc 2 21 13 view .LVU91
 329 00cc 2067     		str	r0, [r4, #112]
  22:Lib/BufferedSerial/BufferedSerial.hpp ****             rxBtm(0),
 330              		.loc 2 22 13 view .LVU92
 331 00ce 0023     		movs	r3, #0
 332 00d0 A4F87430 		strh	r3, [r4, #116]	@ movhi
  23:Lib/BufferedSerial/BufferedSerial.hpp ****             _rxBufSize(rxBufSize),
 333              		.loc 2 23 13 view .LVU93
 334 00d4 A4F87630 		strh	r3, [r4, #118]	@ movhi
  24:Lib/BufferedSerial/BufferedSerial.hpp ****             _useDMA(false) {
 335              		.loc 2 24 13 view .LVU94
 336 00d8 A4F87860 		strh	r6, [r4, #120]	@ movhi
  25:Lib/BufferedSerial/BufferedSerial.hpp ****       }
 337              		.loc 2 25 13 view .LVU95
 338 00dc 84F87A30 		strb	r3, [r4, #122]
 339              	.LVL21:
  25:Lib/BufferedSerial/BufferedSerial.hpp ****       }
 340              		.loc 2 25 13 view .LVU96
 341              	.LBE83:
 342              	.LBE82:
 343              		.loc 1 5 20 view .LVU97
 344 00e0 2246     		mov	r2, r4
 345 00e2 4946     		mov	r1, r9
 346 00e4 04F18000 		add	r0, r4, #128
 347 00e8 FFF7FEFF 		bl	_ZN7EncoderC1EP10DigitalOutPh
 348              	.LVL22:
 349 00ec 04F10F03 		add	r3, r4, #15
 350 00f0 0B93     		str	r3, [sp, #44]
 351 00f2 04F10E03 		add	r3, r4, #14
 352 00f6 0A93     		str	r3, [sp, #40]
 353 00f8 04F10D03 		add	r3, r4, #13
 354 00fc 0993     		str	r3, [sp, #36]
 355 00fe 04F10C03 		add	r3, r4, #12
 356 0102 0893     		str	r3, [sp, #32]
 357 0104 04F10B03 		add	r3, r4, #11
ARM GAS  /var/folders/5c/srt4fy4j1pd641bjfx75k5000000gn/T//ccFn9NwA.s 			page 9


 358 0108 0793     		str	r3, [sp, #28]
 359 010a 04F10A03 		add	r3, r4, #10
 360 010e 0693     		str	r3, [sp, #24]
 361 0110 04F10903 		add	r3, r4, #9
 362 0114 0593     		str	r3, [sp, #20]
 363 0116 04F10803 		add	r3, r4, #8
 364 011a 0493     		str	r3, [sp, #16]
 365 011c 04F16403 		add	r3, r4, #100
 366 0120 0393     		str	r3, [sp, #12]
 367 0122 04F15C03 		add	r3, r4, #92
 368 0126 0293     		str	r3, [sp, #8]
 369 0128 04F15403 		add	r3, r4, #84
 370 012c 0193     		str	r3, [sp, #4]
 371 012e 04F14C03 		add	r3, r4, #76
 372 0132 0093     		str	r3, [sp]
 373 0134 04F14403 		add	r3, r4, #68
 374 0138 04F13C02 		add	r2, r4, #60
 375 013c 4946     		mov	r1, r9
 376 013e 04F6B850 		addw	r0, r4, #3512
 377 0142 FFF7FEFF 		bl	_ZN4LineC1EP10DigitalOutS1_S1_S1_S1_S1_S1_PhS2_S2_S2_S2_S2_S2_S2_
 378              	.LVL23:
 379              	.LBE61:
   6:src/unit/hardware/hardware.cpp **** }
 380              		.loc 1 6 1 view .LVU98
 381 0146 2046     		mov	r0, r4
 382 0148 0DB0     		add	sp, sp, #52
 383              	.LCFI2:
 384              		.cfi_def_cfa_offset 28
 385              		@ sp needed
 386 014a BDE8F083 		pop	{r4, r5, r6, r7, r8, r9, pc}
 387              	.LVL24:
 388              	.L7:
 389              		.loc 1 6 1 view .LVU99
 390 014e 00BF     		.align	2
 391              	.L6:
 392 0150 00080240 		.word	1073874944
 393 0154 00000000 		.word	huart6
 394 0158 00000240 		.word	1073872896
 395              		.cfi_endproc
 396              	.LFE263:
 397              		.fnend
 399              		.global	_ZN8HardwareC1Ev
 400              		.thumb_set _ZN8HardwareC1Ev,_ZN8HardwareC2Ev
 401              		.section	.text._ZN8Hardware4InitEv,"ax",%progbits
 402              		.align	1
 403              		.global	_ZN8Hardware4InitEv
 404              		.syntax unified
 405              		.thumb
 406              		.thumb_func
 408              	_ZN8Hardware4InitEv:
 409              		.fnstart
 410              	.LVL25:
 411              	.LFB265:
   7:src/unit/hardware/hardware.cpp **** 
   8:src/unit/hardware/hardware.cpp **** void Hardware::Init() {
 412              		.loc 1 8 23 is_stmt 1 view -0
 413              		.cfi_startproc
ARM GAS  /var/folders/5c/srt4fy4j1pd641bjfx75k5000000gn/T//ccFn9NwA.s 			page 10


 414              		@ args = 0, pretend = 0, frame = 0
 415              		@ frame_needed = 0, uses_anonymous_args = 0
 416              		.loc 1 8 23 is_stmt 0 view .LVU101
 417 0000 38B5     		push	{r3, r4, r5, lr}
 418              		.save {r3, r4, r5, lr}
 419              	.LCFI3:
 420              		.cfi_def_cfa_offset 16
 421              		.cfi_offset 3, -16
 422              		.cfi_offset 4, -12
 423              		.cfi_offset 5, -8
 424              		.cfi_offset 14, -4
 425 0002 0446     		mov	r4, r0
   9:src/unit/hardware/hardware.cpp ****       led3 = 1;
 426              		.loc 1 9 7 is_stmt 1 view .LVU102
 427              	.LVL26:
 428              	.LBB84:
 429              	.LBI84:
  14:Lib/DigitalInOut/DigitalInOut.hpp ****       }
  15:Lib/DigitalInOut/DigitalInOut.hpp ****       void write(bool value) {
  16:Lib/DigitalInOut/DigitalInOut.hpp ****             HAL_GPIO_WritePin(port, pin, value ? GPIO_PIN_SET : GPIO_PIN_RESET);
  17:Lib/DigitalInOut/DigitalInOut.hpp ****       }
  18:Lib/DigitalInOut/DigitalInOut.hpp **** 
  19:Lib/DigitalInOut/DigitalInOut.hpp ****       void operator=(bool value) {
 430              		.loc 3 19 12 view .LVU103
 431              	.LBB85:
  20:Lib/DigitalInOut/DigitalInOut.hpp ****             HAL_GPIO_WritePin(port, pin, value ? GPIO_PIN_SET : GPIO_PIN_RESET);
 432              		.loc 3 20 13 view .LVU104
 433              		.loc 3 20 30 is_stmt 0 view .LVU105
 434 0004 0122     		movs	r2, #1
 435 0006 018E     		ldrh	r1, [r0, #48]
 436 0008 C06A     		ldr	r0, [r0, #44]
 437              	.LVL27:
 438              		.loc 3 20 30 view .LVU106
 439 000a FFF7FEFF 		bl	HAL_GPIO_WritePin
 440              	.LVL28:
 441              		.loc 3 20 30 view .LVU107
 442              	.LBE85:
 443              	.LBE84:
  10:src/unit/hardware/hardware.cpp ****       HAL_ADC_Start(&hadc1);
 444              		.loc 1 10 7 is_stmt 1 view .LVU108
 445              		.loc 1 10 20 is_stmt 0 view .LVU109
 446 000e 134D     		ldr	r5, .L12
 447 0010 2846     		mov	r0, r5
 448 0012 FFF7FEFF 		bl	HAL_ADC_Start
 449              	.LVL29:
  11:src/unit/hardware/hardware.cpp ****       HAL_ADC_Start_DMA(&hadc1, (uint32_t *)&adc_get_val, 12);
 450              		.loc 1 11 7 is_stmt 1 view .LVU110
 451              		.loc 1 11 24 is_stmt 0 view .LVU111
 452 0016 0C22     		movs	r2, #12
 453 0018 1149     		ldr	r1, .L12+4
 454 001a 2846     		mov	r0, r5
 455 001c FFF7FEFF 		bl	HAL_ADC_Start_DMA
 456              	.LVL30:
  12:src/unit/hardware/hardware.cpp ****       for (uint8_t i = 0; i < 12; i++) {
 457              		.loc 1 12 7 is_stmt 1 view .LVU112
 458              	.LBB86:
 459              		.loc 1 12 20 is_stmt 0 view .LVU113
ARM GAS  /var/folders/5c/srt4fy4j1pd641bjfx75k5000000gn/T//ccFn9NwA.s 			page 11


 460 0020 0022     		movs	r2, #0
 461              		.loc 1 12 7 view .LVU114
 462 0022 06E0     		b	.L9
 463              	.LVL31:
 464              	.L10:
  13:src/unit/hardware/hardware.cpp ****             while (!(adc_get_val[i] > 0));
 465              		.loc 1 13 20 is_stmt 1 discriminator 1 view .LVU115
 466              		.loc 1 13 35 is_stmt 0 discriminator 1 view .LVU116
 467 0024 0E4B     		ldr	r3, .L12+4
 468 0026 33F81230 		ldrh	r3, [r3, r2, lsl #1]
 469              		.loc 1 13 20 discriminator 1 view .LVU117
 470 002a 002B     		cmp	r3, #0
 471 002c FAD0     		beq	.L10
  12:src/unit/hardware/hardware.cpp ****       for (uint8_t i = 0; i < 12; i++) {
 472              		.loc 1 12 7 is_stmt 1 discriminator 2 view .LVU118
 473 002e 0132     		adds	r2, r2, #1
 474              	.LVL32:
  12:src/unit/hardware/hardware.cpp ****       for (uint8_t i = 0; i < 12; i++) {
 475              		.loc 1 12 7 is_stmt 0 discriminator 2 view .LVU119
 476 0030 D2B2     		uxtb	r2, r2
 477              	.LVL33:
 478              	.L9:
  12:src/unit/hardware/hardware.cpp ****       for (uint8_t i = 0; i < 12; i++) {
 479              		.loc 1 12 29 is_stmt 1 discriminator 1 view .LVU120
 480 0032 0B2A     		cmp	r2, #11
 481 0034 F6D9     		bls	.L10
 482              	.LBE86:
  14:src/unit/hardware/hardware.cpp ****       }
  15:src/unit/hardware/hardware.cpp **** 
  16:src/unit/hardware/hardware.cpp ****       // 諸々の初期化
  17:src/unit/hardware/hardware.cpp ****       serial6.init();
 483              		.loc 1 17 7 view .LVU121
 484              	.LVL34:
 485              	.LBB87:
 486              	.LBI87:
  27:Lib/BufferedSerial/BufferedSerial.hpp ****             _useDMA = dma;
 487              		.loc 2 27 12 view .LVU122
 488              	.LBB88:
  28:Lib/BufferedSerial/BufferedSerial.hpp ****             HAL_UART_Receive_DMA(_huart, _rxBuf, _rxBufSize);
 489              		.loc 2 28 13 view .LVU123
  28:Lib/BufferedSerial/BufferedSerial.hpp ****             HAL_UART_Receive_DMA(_huart, _rxBuf, _rxBufSize);
 490              		.loc 2 28 21 is_stmt 0 view .LVU124
 491 0036 0025     		movs	r5, #0
 492 0038 84F87A50 		strb	r5, [r4, #122]
  29:Lib/BufferedSerial/BufferedSerial.hpp ****             // printf("- Serial init\n");
 493              		.loc 2 29 13 is_stmt 1 view .LVU125
  29:Lib/BufferedSerial/BufferedSerial.hpp ****             // printf("- Serial init\n");
 494              		.loc 2 29 33 is_stmt 0 view .LVU126
 495 003c B4F87820 		ldrh	r2, [r4, #120]
 496              	.LVL35:
  29:Lib/BufferedSerial/BufferedSerial.hpp ****             // printf("- Serial init\n");
 497              		.loc 2 29 33 view .LVU127
 498 0040 216F     		ldr	r1, [r4, #112]
 499 0042 E06E     		ldr	r0, [r4, #108]
 500 0044 FFF7FEFF 		bl	HAL_UART_Receive_DMA
 501              	.LVL36:
  29:Lib/BufferedSerial/BufferedSerial.hpp ****             // printf("- Serial init\n");
ARM GAS  /var/folders/5c/srt4fy4j1pd641bjfx75k5000000gn/T//ccFn9NwA.s 			page 12


 502              		.loc 2 29 33 view .LVU128
 503              	.LBE88:
 504              	.LBE87:
  18:src/unit/hardware/hardware.cpp ****       HAL_Delay(100);
 505              		.loc 1 18 7 is_stmt 1 view .LVU129
 506              		.loc 1 18 16 is_stmt 0 view .LVU130
 507 0048 6420     		movs	r0, #100
 508 004a FFF7FEFF 		bl	HAL_Delay
 509              	.LVL37:
  19:src/unit/hardware/hardware.cpp ****       led3 = 0;
 510              		.loc 1 19 7 is_stmt 1 view .LVU131
 511              	.LBB89:
 512              	.LBI89:
  19:Lib/DigitalInOut/DigitalInOut.hpp ****             HAL_GPIO_WritePin(port, pin, value ? GPIO_PIN_SET : GPIO_PIN_RESET);
 513              		.loc 3 19 12 view .LVU132
 514              	.LBB90:
 515              		.loc 3 20 13 view .LVU133
 516              		.loc 3 20 30 is_stmt 0 view .LVU134
 517 004e 2A46     		mov	r2, r5
 518 0050 218E     		ldrh	r1, [r4, #48]
 519 0052 E06A     		ldr	r0, [r4, #44]
 520 0054 FFF7FEFF 		bl	HAL_GPIO_WritePin
 521              	.LVL38:
 522              		.loc 3 20 30 view .LVU135
 523              	.LBE90:
 524              	.LBE89:
  20:src/unit/hardware/hardware.cpp **** }
 525              		.loc 1 20 1 view .LVU136
 526 0058 38BD     		pop	{r3, r4, r5, pc}
 527              	.LVL39:
 528              	.L13:
 529              		.loc 1 20 1 view .LVU137
 530 005a 00BF     		.align	2
 531              	.L12:
 532 005c 00000000 		.word	hadc1
 533 0060 00000000 		.word	adc_get_val
 534              		.cfi_endproc
 535              	.LFE265:
 536              		.fnend
 538              		.section	.text._ZN8Hardware10GetSensorsEv,"ax",%progbits
 539              		.align	1
 540              		.global	_ZN8Hardware10GetSensorsEv
 541              		.syntax unified
 542              		.thumb
 543              		.thumb_func
 545              	_ZN8Hardware10GetSensorsEv:
 546              		.fnstart
 547              	.LVL40:
 548              	.LFB266:
  21:src/unit/hardware/hardware.cpp **** 
  22:src/unit/hardware/hardware.cpp **** void Hardware::GetSensors() {
 549              		.loc 1 22 29 is_stmt 1 view -0
 550              		.cfi_startproc
 551              		@ args = 0, pretend = 0, frame = 0
 552              		@ frame_needed = 0, uses_anonymous_args = 0
 553              		.loc 1 22 29 is_stmt 0 view .LVU139
 554 0000 38B5     		push	{r3, r4, r5, lr}
ARM GAS  /var/folders/5c/srt4fy4j1pd641bjfx75k5000000gn/T//ccFn9NwA.s 			page 13


 555              		.save {r3, r4, r5, lr}
 556              	.LCFI4:
 557              		.cfi_def_cfa_offset 16
 558              		.cfi_offset 3, -16
 559              		.cfi_offset 4, -12
 560              		.cfi_offset 5, -8
 561              		.cfi_offset 14, -4
 562 0002 0446     		mov	r4, r0
  23:src/unit/hardware/hardware.cpp ****       info.Encoder.photo_val[0] = adc_get_val[0];
 563              		.loc 1 23 7 is_stmt 1 view .LVU140
 564              		.loc 1 23 48 is_stmt 0 view .LVU141
 565 0004 214B     		ldr	r3, .L16
 566 0006 1A88     		ldrh	r2, [r3]
 567              		.loc 1 23 33 view .LVU142
 568 0008 0270     		strb	r2, [r0]
  24:src/unit/hardware/hardware.cpp ****       info.Encoder.photo_val[1] = adc_get_val[1];
 569              		.loc 1 24 7 is_stmt 1 view .LVU143
 570              		.loc 1 24 48 is_stmt 0 view .LVU144
 571 000a 5A88     		ldrh	r2, [r3, #2]
 572              		.loc 1 24 33 view .LVU145
 573 000c 4270     		strb	r2, [r0, #1]
  25:src/unit/hardware/hardware.cpp ****       info.Encoder.photo_val[2] = adc_get_val[2];
 574              		.loc 1 25 7 is_stmt 1 view .LVU146
 575              		.loc 1 25 48 is_stmt 0 view .LVU147
 576 000e 9A88     		ldrh	r2, [r3, #4]
 577              		.loc 1 25 33 view .LVU148
 578 0010 8270     		strb	r2, [r0, #2]
  26:src/unit/hardware/hardware.cpp ****       info.Encoder.photo_val[3] = adc_get_val[3];
 579              		.loc 1 26 7 is_stmt 1 view .LVU149
 580              		.loc 1 26 48 is_stmt 0 view .LVU150
 581 0012 DA88     		ldrh	r2, [r3, #6]
 582              		.loc 1 26 33 view .LVU151
 583 0014 C270     		strb	r2, [r0, #3]
  27:src/unit/hardware/hardware.cpp **** 
  28:src/unit/hardware/hardware.cpp ****       info.Line.leftside_val = adc_get_val[4];
 584              		.loc 1 28 7 is_stmt 1 view .LVU152
 585              		.loc 1 28 45 is_stmt 0 view .LVU153
 586 0016 1A89     		ldrh	r2, [r3, #8]
 587              		.loc 1 28 30 view .LVU154
 588 0018 0272     		strb	r2, [r0, #8]
  29:src/unit/hardware/hardware.cpp ****       info.Line.rightside_val = adc_get_val[5];
 589              		.loc 1 29 7 is_stmt 1 view .LVU155
 590              		.loc 1 29 46 is_stmt 0 view .LVU156
 591 001a 5A89     		ldrh	r2, [r3, #10]
 592              		.loc 1 29 31 view .LVU157
 593 001c 4272     		strb	r2, [r0, #9]
  30:src/unit/hardware/hardware.cpp ****       info.Line.mux1x_val = adc_get_val[6];
 594              		.loc 1 30 7 is_stmt 1 view .LVU158
 595              		.loc 1 30 42 is_stmt 0 view .LVU159
 596 001e 9A89     		ldrh	r2, [r3, #12]
 597              		.loc 1 30 27 view .LVU160
 598 0020 8272     		strb	r2, [r0, #10]
  31:src/unit/hardware/hardware.cpp ****       info.Line.mux1y_val = adc_get_val[7];
 599              		.loc 1 31 7 is_stmt 1 view .LVU161
 600              		.loc 1 31 42 is_stmt 0 view .LVU162
 601 0022 DA89     		ldrh	r2, [r3, #14]
 602              		.loc 1 31 27 view .LVU163
ARM GAS  /var/folders/5c/srt4fy4j1pd641bjfx75k5000000gn/T//ccFn9NwA.s 			page 14


 603 0024 C272     		strb	r2, [r0, #11]
  32:src/unit/hardware/hardware.cpp ****       info.Line.mux2x_val = adc_get_val[8];
 604              		.loc 1 32 7 is_stmt 1 view .LVU164
 605              		.loc 1 32 42 is_stmt 0 view .LVU165
 606 0026 1A8A     		ldrh	r2, [r3, #16]
 607              		.loc 1 32 27 view .LVU166
 608 0028 0273     		strb	r2, [r0, #12]
  33:src/unit/hardware/hardware.cpp ****       info.Line.mux2y_val = adc_get_val[9];
 609              		.loc 1 33 7 is_stmt 1 view .LVU167
 610              		.loc 1 33 42 is_stmt 0 view .LVU168
 611 002a 5A8A     		ldrh	r2, [r3, #18]
 612              		.loc 1 33 27 view .LVU169
 613 002c 4273     		strb	r2, [r0, #13]
  34:src/unit/hardware/hardware.cpp ****       info.Line.mux3x_val = adc_get_val[10];
 614              		.loc 1 34 7 is_stmt 1 view .LVU170
 615              		.loc 1 34 43 is_stmt 0 view .LVU171
 616 002e 9A8A     		ldrh	r2, [r3, #20]
 617              		.loc 1 34 27 view .LVU172
 618 0030 8273     		strb	r2, [r0, #14]
  35:src/unit/hardware/hardware.cpp ****       info.Line.mux3y_val = adc_get_val[11];
 619              		.loc 1 35 7 is_stmt 1 view .LVU173
 620              		.loc 1 35 43 is_stmt 0 view .LVU174
 621 0032 DB8A     		ldrh	r3, [r3, #22]
 622              		.loc 1 35 27 view .LVU175
 623 0034 C373     		strb	r3, [r0, #15]
  36:src/unit/hardware/hardware.cpp **** 
  37:src/unit/hardware/hardware.cpp ****       info.Line.dir = line.dir;
 624              		.loc 1 37 7 is_stmt 1 view .LVU176
 625              		.loc 1 37 28 is_stmt 0 view .LVU177
 626 0036 B0F9B83D 		ldrsh	r3, [r0, #3512]
 627              		.loc 1 37 21 view .LVU178
 628 003a 4382     		strh	r3, [r0, #18]	@ movhi
  38:src/unit/hardware/hardware.cpp ****       info.Line.is_half_out = line.is_half_out;
 629              		.loc 1 38 7 is_stmt 1 view .LVU179
 630              		.loc 1 38 36 is_stmt 0 view .LVU180
 631 003c 90F8BB3D 		ldrb	r3, [r0, #3515]	@ zero_extendqisi2
 632              		.loc 1 38 29 view .LVU181
 633 0040 4375     		strb	r3, [r0, #21]
  39:src/unit/hardware/hardware.cpp ****       info.Line.is_leftside_white = line.is_leftside_white;
 634              		.loc 1 39 7 is_stmt 1 view .LVU182
 635              		.loc 1 39 42 is_stmt 0 view .LVU183
 636 0042 90F8BC3D 		ldrb	r3, [r0, #3516]	@ zero_extendqisi2
 637              		.loc 1 39 35 view .LVU184
 638 0046 C375     		strb	r3, [r0, #23]
  40:src/unit/hardware/hardware.cpp ****       info.Line.is_rightside_white = line.is_rightside_white;
 639              		.loc 1 40 7 is_stmt 1 view .LVU185
 640              		.loc 1 40 43 is_stmt 0 view .LVU186
 641 0048 90F8BD3D 		ldrb	r3, [r0, #3517]	@ zero_extendqisi2
 642              		.loc 1 40 36 view .LVU187
 643 004c 0376     		strb	r3, [r0, #24]
  41:src/unit/hardware/hardware.cpp ****       info.Line.is_on_line = line.IsOnLine();
 644              		.loc 1 41 7 is_stmt 1 view .LVU188
 645              		.loc 1 41 43 is_stmt 0 view .LVU189
 646 004e 00F6B850 		addw	r0, r0, #3512
 647              	.LVL41:
 648              		.loc 1 41 43 view .LVU190
 649 0052 FFF7FEFF 		bl	_ZN4Line8IsOnLineEv
ARM GAS  /var/folders/5c/srt4fy4j1pd641bjfx75k5000000gn/T//ccFn9NwA.s 			page 15


 650              	.LVL42:
 651              		.loc 1 41 28 view .LVU191
 652 0056 A075     		strb	r0, [r4, #22]
  42:src/unit/hardware/hardware.cpp ****       info.Line.max_interval = line.max_interval;
 653              		.loc 1 42 7 is_stmt 1 view .LVU192
 654              		.loc 1 42 37 is_stmt 0 view .LVU193
 655 0058 94F8BA3D 		ldrb	r3, [r4, #3514]	@ zero_extendqisi2
 656              		.loc 1 42 30 view .LVU194
 657 005c 2375     		strb	r3, [r4, #20]
  43:src/unit/hardware/hardware.cpp **** 
  44:src/unit/hardware/hardware.cpp ****       info.Encoder.rps[0] = encoder.GetMotorRPS(0);
 658              		.loc 1 44 7 is_stmt 1 view .LVU195
 659              		.loc 1 44 48 is_stmt 0 view .LVU196
 660 005e 04F18005 		add	r5, r4, #128
 661 0062 0021     		movs	r1, #0
 662 0064 2846     		mov	r0, r5
 663 0066 FFF7FEFF 		bl	_ZN7Encoder11GetMotorRPSEh
 664              	.LVL43:
 665              		.loc 1 44 27 view .LVU197
 666 006a 2071     		strb	r0, [r4, #4]
  45:src/unit/hardware/hardware.cpp ****       info.Encoder.rps[1] = encoder.GetMotorRPS(1);
 667              		.loc 1 45 7 is_stmt 1 view .LVU198
 668              		.loc 1 45 48 is_stmt 0 view .LVU199
 669 006c 0121     		movs	r1, #1
 670 006e 2846     		mov	r0, r5
 671 0070 FFF7FEFF 		bl	_ZN7Encoder11GetMotorRPSEh
 672              	.LVL44:
 673              		.loc 1 45 27 view .LVU200
 674 0074 6071     		strb	r0, [r4, #5]
  46:src/unit/hardware/hardware.cpp ****       info.Encoder.rps[2] = encoder.GetMotorRPS(2);
 675              		.loc 1 46 7 is_stmt 1 view .LVU201
 676              		.loc 1 46 48 is_stmt 0 view .LVU202
 677 0076 0221     		movs	r1, #2
 678 0078 2846     		mov	r0, r5
 679 007a FFF7FEFF 		bl	_ZN7Encoder11GetMotorRPSEh
 680              	.LVL45:
 681              		.loc 1 46 27 view .LVU203
 682 007e A071     		strb	r0, [r4, #6]
  47:src/unit/hardware/hardware.cpp ****       info.Encoder.rps[3] = encoder.GetMotorRPS(3);
 683              		.loc 1 47 7 is_stmt 1 view .LVU204
 684              		.loc 1 47 48 is_stmt 0 view .LVU205
 685 0080 0321     		movs	r1, #3
 686 0082 2846     		mov	r0, r5
 687 0084 FFF7FEFF 		bl	_ZN7Encoder11GetMotorRPSEh
 688              	.LVL46:
 689              		.loc 1 47 27 view .LVU206
 690 0088 E071     		strb	r0, [r4, #7]
  48:src/unit/hardware/hardware.cpp **** }
 691              		.loc 1 48 1 view .LVU207
 692 008a 38BD     		pop	{r3, r4, r5, pc}
 693              	.LVL47:
 694              	.L17:
 695              		.loc 1 48 1 view .LVU208
 696              		.align	2
 697              	.L16:
 698 008c 00000000 		.word	adc_get_val
 699              		.cfi_endproc
ARM GAS  /var/folders/5c/srt4fy4j1pd641bjfx75k5000000gn/T//ccFn9NwA.s 			page 16


 700              	.LFE266:
 701              		.fnend
 703              		.global	__aeabi_i2d
 704              		.global	__aeabi_dmul
 705              		.global	__aeabi_dadd
 706              		.global	__aeabi_d2uiz
 707              		.section	.text._ZN8Hardware8MainUartEv,"ax",%progbits
 708              		.align	1
 709              		.global	_ZN8Hardware8MainUartEv
 710              		.syntax unified
 711              		.thumb
 712              		.thumb_func
 714              	_ZN8Hardware8MainUartEv:
 715              		.fnstart
 716              	.LVL48:
 717              	.LFB267:
  49:src/unit/hardware/hardware.cpp **** 
  50:src/unit/hardware/hardware.cpp **** void Hardware::MainUart() {
 718              		.loc 1 50 27 is_stmt 1 view -0
 719              		.cfi_startproc
 720              		@ args = 0, pretend = 0, frame = 8
 721              		@ frame_needed = 0, uses_anonymous_args = 0
 722              		.loc 1 50 27 is_stmt 0 view .LVU210
 723 0000 30B5     		push	{r4, r5, lr}
 724              		.save {r4, r5, lr}
 725              	.LCFI5:
 726              		.cfi_def_cfa_offset 12
 727              		.cfi_offset 4, -12
 728              		.cfi_offset 5, -8
 729              		.cfi_offset 14, -4
 730              		.pad #12
 731 0002 83B0     		sub	sp, sp, #12
 732              	.LCFI6:
 733              		.cfi_def_cfa_offset 24
 734 0004 0446     		mov	r4, r0
  51:src/unit/hardware/hardware.cpp ****       static uint16_t recv_count;
 735              		.loc 1 51 7 is_stmt 1 view .LVU211
  52:src/unit/hardware/hardware.cpp **** 
  53:src/unit/hardware/hardware.cpp ****       // 受信
  54:src/unit/hardware/hardware.cpp ****       if (serial6.available()) {
 736              		.loc 1 54 7 view .LVU212
 737              	.LVL49:
 738              	.LBB91:
 739              	.LBB92:
 740              	.LBI92:
  33:Lib/BufferedSerial/BufferedSerial.hpp ****             uint16_t rxTop = _rxBufSize - _huart->hdmarx->Instance->NDTR;
 741              		.loc 2 33 12 view .LVU213
 742              	.LBB93:
  34:Lib/BufferedSerial/BufferedSerial.hpp ****             return rxTop != rxBtm;
 743              		.loc 2 34 13 view .LVU214
  34:Lib/BufferedSerial/BufferedSerial.hpp ****             return rxTop != rxBtm;
 744              		.loc 2 34 30 is_stmt 0 view .LVU215
 745 0006 B0F87830 		ldrh	r3, [r0, #120]
  34:Lib/BufferedSerial/BufferedSerial.hpp ****             return rxTop != rxBtm;
 746              		.loc 2 34 43 view .LVU216
 747 000a C26E     		ldr	r2, [r0, #108]
  34:Lib/BufferedSerial/BufferedSerial.hpp ****             return rxTop != rxBtm;
ARM GAS  /var/folders/5c/srt4fy4j1pd641bjfx75k5000000gn/T//ccFn9NwA.s 			page 17


 748              		.loc 2 34 51 view .LVU217
 749 000c D26B     		ldr	r2, [r2, #60]
  34:Lib/BufferedSerial/BufferedSerial.hpp ****             return rxTop != rxBtm;
 750              		.loc 2 34 59 view .LVU218
 751 000e 1268     		ldr	r2, [r2]
  34:Lib/BufferedSerial/BufferedSerial.hpp ****             return rxTop != rxBtm;
 752              		.loc 2 34 69 view .LVU219
 753 0010 5268     		ldr	r2, [r2, #4]
  34:Lib/BufferedSerial/BufferedSerial.hpp ****             return rxTop != rxBtm;
 754              		.loc 2 34 41 view .LVU220
 755 0012 92B2     		uxth	r2, r2
  34:Lib/BufferedSerial/BufferedSerial.hpp ****             return rxTop != rxBtm;
 756              		.loc 2 34 69 view .LVU221
 757 0014 9B1A     		subs	r3, r3, r2
 758 0016 9BB2     		uxth	r3, r3
 759              	.LVL50:
  35:Lib/BufferedSerial/BufferedSerial.hpp ****       }
 760              		.loc 2 35 13 is_stmt 1 view .LVU222
  35:Lib/BufferedSerial/BufferedSerial.hpp ****       }
 761              		.loc 2 35 29 is_stmt 0 view .LVU223
 762 0018 B0F87620 		ldrh	r2, [r0, #118]
 763              	.LVL51:
  35:Lib/BufferedSerial/BufferedSerial.hpp ****       }
 764              		.loc 2 35 29 view .LVU224
 765              	.LBE93:
 766              	.LBE92:
 767              		.loc 1 54 7 view .LVU225
 768 001c 9342     		cmp	r3, r2
 769 001e 5CD0     		beq	.L19
 770              	.LBB94:
  55:src/unit/hardware/hardware.cpp ****             led2 = 1;
 771              		.loc 1 55 13 is_stmt 1 view .LVU226
 772              	.LVL52:
 773              	.LBB95:
 774              	.LBI95:
  19:Lib/DigitalInOut/DigitalInOut.hpp ****             HAL_GPIO_WritePin(port, pin, value ? GPIO_PIN_SET : GPIO_PIN_RESET);
 775              		.loc 3 19 12 view .LVU227
 776              	.LBB96:
 777              		.loc 3 20 13 view .LVU228
 778              		.loc 3 20 30 is_stmt 0 view .LVU229
 779 0020 0122     		movs	r2, #1
 780 0022 018D     		ldrh	r1, [r0, #40]
 781 0024 406A     		ldr	r0, [r0, #36]
 782              	.LVL53:
 783              		.loc 3 20 30 view .LVU230
 784 0026 FFF7FEFF 		bl	HAL_GPIO_WritePin
 785              	.LVL54:
  21:Lib/DigitalInOut/DigitalInOut.hpp ****       }
 786              		.loc 3 21 7 view .LVU231
 787 002a 07E0     		b	.L20
 788              	.LVL55:
 789              	.L21:
 790              		.loc 3 21 7 view .LVU232
 791              	.LBE96:
 792              	.LBE95:
  56:src/unit/hardware/hardware.cpp **** 
  57:src/unit/hardware/hardware.cpp ****             while (serial6.available()) info.Line.do_read = serial6.read();
ARM GAS  /var/folders/5c/srt4fy4j1pd641bjfx75k5000000gn/T//ccFn9NwA.s 			page 18


 793              		.loc 1 57 41 is_stmt 1 discriminator 2 view .LVU233
 794              		.loc 1 57 73 is_stmt 0 discriminator 2 view .LVU234
 795 002c 04F16C00 		add	r0, r4, #108
 796 0030 FFF7FEFF 		bl	_ZN14BufferedSerial4readEv
 797              	.LVL56:
 798 0034 0038     		subs	r0, r0, #0
 799 0036 18BF     		it	ne
 800 0038 0120     		movne	r0, #1
 801              		.loc 1 57 59 discriminator 2 view .LVU235
 802 003a 2074     		strb	r0, [r4, #16]
 803              	.L20:
 804              		.loc 1 57 37 is_stmt 1 discriminator 1 view .LVU236
 805              	.LVL57:
 806              	.LBB97:
 807              	.LBI97:
  33:Lib/BufferedSerial/BufferedSerial.hpp ****             uint16_t rxTop = _rxBufSize - _huart->hdmarx->Instance->NDTR;
 808              		.loc 2 33 12 discriminator 1 view .LVU237
 809              	.LBB98:
  34:Lib/BufferedSerial/BufferedSerial.hpp ****             return rxTop != rxBtm;
 810              		.loc 2 34 13 discriminator 1 view .LVU238
  34:Lib/BufferedSerial/BufferedSerial.hpp ****             return rxTop != rxBtm;
 811              		.loc 2 34 30 is_stmt 0 discriminator 1 view .LVU239
 812 003c B4F87830 		ldrh	r3, [r4, #120]
  34:Lib/BufferedSerial/BufferedSerial.hpp ****             return rxTop != rxBtm;
 813              		.loc 2 34 43 discriminator 1 view .LVU240
 814 0040 E56E     		ldr	r5, [r4, #108]
  34:Lib/BufferedSerial/BufferedSerial.hpp ****             return rxTop != rxBtm;
 815              		.loc 2 34 51 discriminator 1 view .LVU241
 816 0042 EA6B     		ldr	r2, [r5, #60]
  34:Lib/BufferedSerial/BufferedSerial.hpp ****             return rxTop != rxBtm;
 817              		.loc 2 34 59 discriminator 1 view .LVU242
 818 0044 1268     		ldr	r2, [r2]
  34:Lib/BufferedSerial/BufferedSerial.hpp ****             return rxTop != rxBtm;
 819              		.loc 2 34 69 discriminator 1 view .LVU243
 820 0046 5268     		ldr	r2, [r2, #4]
  34:Lib/BufferedSerial/BufferedSerial.hpp ****             return rxTop != rxBtm;
 821              		.loc 2 34 41 discriminator 1 view .LVU244
 822 0048 92B2     		uxth	r2, r2
  34:Lib/BufferedSerial/BufferedSerial.hpp ****             return rxTop != rxBtm;
 823              		.loc 2 34 69 discriminator 1 view .LVU245
 824 004a 9B1A     		subs	r3, r3, r2
 825 004c 9BB2     		uxth	r3, r3
 826              	.LVL58:
  35:Lib/BufferedSerial/BufferedSerial.hpp ****       }
 827              		.loc 2 35 13 is_stmt 1 discriminator 1 view .LVU246
  35:Lib/BufferedSerial/BufferedSerial.hpp ****       }
 828              		.loc 2 35 29 is_stmt 0 discriminator 1 view .LVU247
 829 004e B4F87620 		ldrh	r2, [r4, #118]
 830              	.LVL59:
  35:Lib/BufferedSerial/BufferedSerial.hpp ****       }
 831              		.loc 2 35 29 discriminator 1 view .LVU248
 832              	.LBE98:
 833              	.LBE97:
 834              		.loc 1 57 37 discriminator 1 view .LVU249
 835 0052 9342     		cmp	r3, r2
 836 0054 EAD1     		bne	.L21
  58:src/unit/hardware/hardware.cpp **** 
ARM GAS  /var/folders/5c/srt4fy4j1pd641bjfx75k5000000gn/T//ccFn9NwA.s 			page 19


  59:src/unit/hardware/hardware.cpp ****             static const uint8_t HEADER = 0xFF;  // ヘッダ
 837              		.loc 1 59 13 is_stmt 1 view .LVU250
  60:src/unit/hardware/hardware.cpp ****             static const uint8_t FOOTER = 0xAA;  // ヘッダ
 838              		.loc 1 60 13 view .LVU251
  61:src/unit/hardware/hardware.cpp ****             static const uint8_t data_size = 8;
 839              		.loc 1 61 13 view .LVU252
  62:src/unit/hardware/hardware.cpp ****             uint8_t send_data[data_size];
 840              		.loc 1 62 13 view .LVU253
  63:src/unit/hardware/hardware.cpp ****             send_data[0] = HEADER;
 841              		.loc 1 63 13 view .LVU254
 842              		.loc 1 63 26 is_stmt 0 view .LVU255
 843 0056 FF23     		movs	r3, #255
 844 0058 8DF80030 		strb	r3, [sp]
  64:src/unit/hardware/hardware.cpp ****             send_data[1] = info.Encoder.rps[0];
 845              		.loc 1 64 13 is_stmt 1 view .LVU256
 846              		.loc 1 64 46 is_stmt 0 view .LVU257
 847 005c 2379     		ldrb	r3, [r4, #4]	@ zero_extendqisi2
 848              		.loc 1 64 26 view .LVU258
 849 005e 8DF80130 		strb	r3, [sp, #1]
  65:src/unit/hardware/hardware.cpp ****             send_data[2] = info.Encoder.rps[1];
 850              		.loc 1 65 13 is_stmt 1 view .LVU259
 851              		.loc 1 65 46 is_stmt 0 view .LVU260
 852 0062 6379     		ldrb	r3, [r4, #5]	@ zero_extendqisi2
 853              		.loc 1 65 26 view .LVU261
 854 0064 8DF80230 		strb	r3, [sp, #2]
  66:src/unit/hardware/hardware.cpp ****             send_data[3] = info.Encoder.rps[2];
 855              		.loc 1 66 13 is_stmt 1 view .LVU262
 856              		.loc 1 66 46 is_stmt 0 view .LVU263
 857 0068 A379     		ldrb	r3, [r4, #6]	@ zero_extendqisi2
 858              		.loc 1 66 26 view .LVU264
 859 006a 8DF80330 		strb	r3, [sp, #3]
  67:src/unit/hardware/hardware.cpp ****             send_data[4] = info.Encoder.rps[3];
 860              		.loc 1 67 13 is_stmt 1 view .LVU265
 861              		.loc 1 67 46 is_stmt 0 view .LVU266
 862 006e E379     		ldrb	r3, [r4, #7]	@ zero_extendqisi2
 863              		.loc 1 67 26 view .LVU267
 864 0070 8DF80430 		strb	r3, [sp, #4]
  68:src/unit/hardware/hardware.cpp ****             send_data[5] = info.Line.max_interval << 4 | info.Line.is_on_line << 3 | info.Line.is_h
 865              		.loc 1 68 13 is_stmt 1 view .LVU268
 866              		.loc 1 68 38 is_stmt 0 view .LVU269
 867 0074 227D     		ldrb	r2, [r4, #20]	@ zero_extendqisi2
 868              		.loc 1 68 68 view .LVU270
 869 0076 A37D     		ldrb	r3, [r4, #22]	@ zero_extendqisi2
 870              		.loc 1 68 79 view .LVU271
 871 0078 DB00     		lsls	r3, r3, #3
 872              		.loc 1 68 56 view .LVU272
 873 007a 43EA0213 		orr	r3, r3, r2, lsl #4
 874 007e 5BB2     		sxtb	r3, r3
 875              		.loc 1 68 96 view .LVU273
 876 0080 627D     		ldrb	r2, [r4, #21]	@ zero_extendqisi2
 877              		.loc 1 68 84 view .LVU274
 878 0082 43EA8203 		orr	r3, r3, r2, lsl #2
 879 0086 5BB2     		sxtb	r3, r3
 880              		.loc 1 68 125 view .LVU275
 881 0088 E27D     		ldrb	r2, [r4, #23]	@ zero_extendqisi2
 882              		.loc 1 68 113 view .LVU276
 883 008a 43EA4203 		orr	r3, r3, r2, lsl #1
ARM GAS  /var/folders/5c/srt4fy4j1pd641bjfx75k5000000gn/T//ccFn9NwA.s 			page 20


 884 008e 5BB2     		sxtb	r3, r3
 885              		.loc 1 68 160 view .LVU277
 886 0090 94F91820 		ldrsb	r2, [r4, #24]
 887              		.loc 1 68 148 view .LVU278
 888 0094 1343     		orrs	r3, r3, r2
 889              		.loc 1 68 26 view .LVU279
 890 0096 8DF80530 		strb	r3, [sp, #5]
  69:src/unit/hardware/hardware.cpp ****             send_data[6] = info.Line.dir * 0.5 + 90;
 891              		.loc 1 69 13 is_stmt 1 view .LVU280
 892              		.loc 1 69 42 is_stmt 0 view .LVU281
 893 009a B4F91200 		ldrsh	r0, [r4, #18]
 894 009e FFF7FEFF 		bl	__aeabi_i2d
 895              	.LVL60:
 896 00a2 0022     		movs	r2, #0
 897 00a4 1C4B     		ldr	r3, .L26
 898 00a6 FFF7FEFF 		bl	__aeabi_dmul
 899              	.LVL61:
 900              		.loc 1 69 48 view .LVU282
 901 00aa 0022     		movs	r2, #0
 902 00ac 1B4B     		ldr	r3, .L26+4
 903 00ae FFF7FEFF 		bl	__aeabi_dadd
 904              	.LVL62:
 905              		.loc 1 69 26 view .LVU283
 906 00b2 FFF7FEFF 		bl	__aeabi_d2uiz
 907              	.LVL63:
 908 00b6 8DF80600 		strb	r0, [sp, #6]
  70:src/unit/hardware/hardware.cpp ****             send_data[7] = FOOTER;
 909              		.loc 1 70 13 is_stmt 1 view .LVU284
 910              		.loc 1 70 26 is_stmt 0 view .LVU285
 911 00ba AA23     		movs	r3, #170
 912 00bc 8DF80730 		strb	r3, [sp, #7]
  71:src/unit/hardware/hardware.cpp ****             serial6.write(send_data, data_size);
 913              		.loc 1 71 13 is_stmt 1 view .LVU286
 914              	.LVL64:
 915              	.LBB99:
 916              	.LBI99:
  48:Lib/BufferedSerial/BufferedSerial.hpp **** 
  49:Lib/BufferedSerial/BufferedSerial.hpp ****       void write(uint8_t data) {
  50:Lib/BufferedSerial/BufferedSerial.hpp ****             HAL_UART_Transmit(_huart, &data, 1, 100);
  51:Lib/BufferedSerial/BufferedSerial.hpp ****       }
  52:Lib/BufferedSerial/BufferedSerial.hpp **** 
  53:Lib/BufferedSerial/BufferedSerial.hpp ****       void write(const uint8_t *data, uint16_t len) {
 917              		.loc 2 53 12 view .LVU287
 918              	.LBB100:
  54:Lib/BufferedSerial/BufferedSerial.hpp ****             HAL_UART_Transmit(_huart, (uint8_t *)data, len, 100);
 919              		.loc 2 54 13 view .LVU288
 920              		.loc 2 54 30 is_stmt 0 view .LVU289
 921 00c0 6423     		movs	r3, #100
 922 00c2 0822     		movs	r2, #8
 923 00c4 6946     		mov	r1, sp
 924 00c6 2846     		mov	r0, r5
 925 00c8 FFF7FEFF 		bl	HAL_UART_Transmit
 926              	.LVL65:
 927              		.loc 2 54 30 view .LVU290
 928              	.LBE100:
 929              	.LBE99:
  72:src/unit/hardware/hardware.cpp **** 
ARM GAS  /var/folders/5c/srt4fy4j1pd641bjfx75k5000000gn/T//ccFn9NwA.s 			page 21


  73:src/unit/hardware/hardware.cpp ****             led2 = 0;
 930              		.loc 1 73 13 is_stmt 1 view .LVU291
 931              	.LBB101:
 932              	.LBI101:
  19:Lib/DigitalInOut/DigitalInOut.hpp ****             HAL_GPIO_WritePin(port, pin, value ? GPIO_PIN_SET : GPIO_PIN_RESET);
 933              		.loc 3 19 12 view .LVU292
 934              	.LBB102:
  20:Lib/DigitalInOut/DigitalInOut.hpp ****       }
 935              		.loc 3 20 13 view .LVU293
  20:Lib/DigitalInOut/DigitalInOut.hpp ****       }
 936              		.loc 3 20 30 is_stmt 0 view .LVU294
 937 00cc 0022     		movs	r2, #0
 938 00ce 218D     		ldrh	r1, [r4, #40]
 939 00d0 606A     		ldr	r0, [r4, #36]
 940 00d2 FFF7FEFF 		bl	HAL_GPIO_WritePin
 941              	.LVL66:
 942              	.L18:
  20:Lib/DigitalInOut/DigitalInOut.hpp ****       }
 943              		.loc 3 20 30 view .LVU295
 944              	.LBE102:
 945              	.LBE101:
 946              	.LBE94:
 947              	.LBE91:
  74:src/unit/hardware/hardware.cpp ****       } else {
  75:src/unit/hardware/hardware.cpp ****             led3 = 1;
  76:src/unit/hardware/hardware.cpp ****             recv_count++;
  77:src/unit/hardware/hardware.cpp ****             if (recv_count > 1000) {
  78:src/unit/hardware/hardware.cpp ****                   serial6.init();
  79:src/unit/hardware/hardware.cpp ****                   recv_count = 0;
  80:src/unit/hardware/hardware.cpp ****             }
  81:src/unit/hardware/hardware.cpp ****             led3 = 0;
  82:src/unit/hardware/hardware.cpp ****       }
  83:src/unit/hardware/hardware.cpp **** }...
 948              		.loc 1 83 1 view .LVU296
 949 00d6 03B0     		add	sp, sp, #12
 950              	.LCFI7:
 951              		.cfi_remember_state
 952              		.cfi_def_cfa_offset 12
 953              		@ sp needed
 954 00d8 30BD     		pop	{r4, r5, pc}
 955              	.LVL67:
 956              	.L19:
 957              	.LCFI8:
 958              		.cfi_restore_state
 959              	.LBB109:
  75:src/unit/hardware/hardware.cpp ****             led3 = 1;
 960              		.loc 1 75 13 is_stmt 1 view .LVU297
 961              	.LBB103:
 962              	.LBI103:
  19:Lib/DigitalInOut/DigitalInOut.hpp ****             HAL_GPIO_WritePin(port, pin, value ? GPIO_PIN_SET : GPIO_PIN_RESET);
 963              		.loc 3 19 12 view .LVU298
 964              	.LBB104:
  20:Lib/DigitalInOut/DigitalInOut.hpp ****       }
 965              		.loc 3 20 13 view .LVU299
  20:Lib/DigitalInOut/DigitalInOut.hpp ****       }
 966              		.loc 3 20 30 is_stmt 0 view .LVU300
 967 00da 0122     		movs	r2, #1
ARM GAS  /var/folders/5c/srt4fy4j1pd641bjfx75k5000000gn/T//ccFn9NwA.s 			page 22


 968 00dc 018E     		ldrh	r1, [r0, #48]
 969 00de C06A     		ldr	r0, [r0, #44]
 970              	.LVL68:
  20:Lib/DigitalInOut/DigitalInOut.hpp ****       }
 971              		.loc 3 20 30 view .LVU301
 972 00e0 FFF7FEFF 		bl	HAL_GPIO_WritePin
 973              	.LVL69:
  20:Lib/DigitalInOut/DigitalInOut.hpp ****       }
 974              		.loc 3 20 30 view .LVU302
 975              	.LBE104:
 976              	.LBE103:
  76:src/unit/hardware/hardware.cpp ****             recv_count++;
 977              		.loc 1 76 13 is_stmt 1 view .LVU303
  76:src/unit/hardware/hardware.cpp ****             recv_count++;
 978              		.loc 1 76 23 is_stmt 0 view .LVU304
 979 00e4 0E4A     		ldr	r2, .L26+8
 980 00e6 1388     		ldrh	r3, [r2]
 981 00e8 0133     		adds	r3, r3, #1
 982 00ea 9BB2     		uxth	r3, r3
 983 00ec 1380     		strh	r3, [r2]	@ movhi
  77:src/unit/hardware/hardware.cpp ****             if (recv_count > 1000) {
 984              		.loc 1 77 13 is_stmt 1 view .LVU305
 985 00ee B3F57A7F 		cmp	r3, #1000
 986 00f2 05D8     		bhi	.L25
 987              	.L23:
  81:src/unit/hardware/hardware.cpp ****             led3 = 0;
 988              		.loc 1 81 13 view .LVU306
 989              	.LVL70:
 990              	.LBB105:
 991              	.LBI105:
  19:Lib/DigitalInOut/DigitalInOut.hpp ****             HAL_GPIO_WritePin(port, pin, value ? GPIO_PIN_SET : GPIO_PIN_RESET);
 992              		.loc 3 19 12 view .LVU307
 993              	.LBB106:
  20:Lib/DigitalInOut/DigitalInOut.hpp ****       }
 994              		.loc 3 20 13 view .LVU308
  20:Lib/DigitalInOut/DigitalInOut.hpp ****       }
 995              		.loc 3 20 30 is_stmt 0 view .LVU309
 996 00f4 0022     		movs	r2, #0
 997 00f6 218E     		ldrh	r1, [r4, #48]
 998 00f8 E06A     		ldr	r0, [r4, #44]
 999 00fa FFF7FEFF 		bl	HAL_GPIO_WritePin
 1000              	.LVL71:
  20:Lib/DigitalInOut/DigitalInOut.hpp ****       }
 1001              		.loc 3 20 30 view .LVU310
 1002              	.LBE106:
 1003              	.LBE105:
 1004              	.LBE109:
 1005              		.loc 1 83 1 view .LVU311
 1006 00fe EAE7     		b	.L18
 1007              	.L25:
 1008              	.LBB110:
  78:src/unit/hardware/hardware.cpp ****                   serial6.init();
 1009              		.loc 1 78 19 is_stmt 1 view .LVU312
 1010              	.LVL72:
 1011              	.LBB107:
 1012              	.LBI107:
  27:Lib/BufferedSerial/BufferedSerial.hpp ****             _useDMA = dma;
ARM GAS  /var/folders/5c/srt4fy4j1pd641bjfx75k5000000gn/T//ccFn9NwA.s 			page 23


 1013              		.loc 2 27 12 view .LVU313
 1014              	.LBB108:
  28:Lib/BufferedSerial/BufferedSerial.hpp ****             HAL_UART_Receive_DMA(_huart, _rxBuf, _rxBufSize);
 1015              		.loc 2 28 13 view .LVU314
  28:Lib/BufferedSerial/BufferedSerial.hpp ****             HAL_UART_Receive_DMA(_huart, _rxBuf, _rxBufSize);
 1016              		.loc 2 28 21 is_stmt 0 view .LVU315
 1017 0100 0025     		movs	r5, #0
 1018 0102 84F87A50 		strb	r5, [r4, #122]
  29:Lib/BufferedSerial/BufferedSerial.hpp ****             // printf("- Serial init\n");
 1019              		.loc 2 29 13 is_stmt 1 view .LVU316
  29:Lib/BufferedSerial/BufferedSerial.hpp ****             // printf("- Serial init\n");
 1020              		.loc 2 29 33 is_stmt 0 view .LVU317
 1021 0106 B4F87820 		ldrh	r2, [r4, #120]
 1022 010a 216F     		ldr	r1, [r4, #112]
 1023 010c E06E     		ldr	r0, [r4, #108]
 1024 010e FFF7FEFF 		bl	HAL_UART_Receive_DMA
 1025              	.LVL73:
  29:Lib/BufferedSerial/BufferedSerial.hpp ****             // printf("- Serial init\n");
 1026              		.loc 2 29 33 view .LVU318
 1027              	.LBE108:
 1028              	.LBE107:
  79:src/unit/hardware/hardware.cpp ****                   recv_count = 0;
 1029              		.loc 1 79 19 is_stmt 1 view .LVU319
  79:src/unit/hardware/hardware.cpp ****                   recv_count = 0;
 1030              		.loc 1 79 30 is_stmt 0 view .LVU320
 1031 0112 034B     		ldr	r3, .L26+8
 1032 0114 1D80     		strh	r5, [r3]	@ movhi
 1033 0116 EDE7     		b	.L23
 1034              	.L27:
 1035              		.align	2
 1036              	.L26:
 1037 0118 0000E03F 		.word	1071644672
 1038 011c 00805640 		.word	1079410688
 1039 0120 00000000 		.word	_ZZN8Hardware8MainUartEvE10recv_count
 1040              	.LBE110:
 1041              		.cfi_endproc
 1042              	.LFE267:
 1043              		.fnend
 1045              		.section	.bss._ZZN8Hardware8MainUartEvE10recv_count,"aw",%nobits
 1046              		.align	1
 1049              	_ZZN8Hardware8MainUartEvE10recv_count:
 1050 0000 0000     		.space	2
 1051              		.global	adc_get_val
 1052              		.section	.bss.adc_get_val,"aw",%nobits
 1053              		.align	2
 1056              	adc_get_val:
 1057 0000 00000000 		.space	24
 1057      00000000 
 1057      00000000 
 1057      00000000 
 1057      00000000 
 1058              		.text
 1059              	.Letext0:
 1060              		.file 4 "/opt/ST/STM32CubeCLT_1.16.0/GNU-tools-for-STM32/arm-none-eabi/include/machine/_default_ty
 1061              		.file 5 "/opt/ST/STM32CubeCLT_1.16.0/GNU-tools-for-STM32/lib/gcc/arm-none-eabi/12.3.1/include/stdd
 1062              		.file 6 "/opt/ST/STM32CubeCLT_1.16.0/GNU-tools-for-STM32/arm-none-eabi/include/sys/_types.h"
 1063              		.file 7 "/opt/ST/STM32CubeCLT_1.16.0/GNU-tools-for-STM32/arm-none-eabi/include/sys/reent.h"
ARM GAS  /var/folders/5c/srt4fy4j1pd641bjfx75k5000000gn/T//ccFn9NwA.s 			page 24


 1064              		.file 8 "/opt/ST/STM32CubeCLT_1.16.0/GNU-tools-for-STM32/arm-none-eabi/include/sys/lock.h"
 1065              		.file 9 "/opt/ST/STM32CubeCLT_1.16.0/GNU-tools-for-STM32/arm-none-eabi/include/stdio.h"
 1066              		.file 10 "/opt/ST/STM32CubeCLT_1.16.0/GNU-tools-for-STM32/arm-none-eabi/include/sys/_stdint.h"
 1067              		.file 11 "Drivers/CMSIS/Device/ST/STM32F4xx/Include/stm32f446xx.h"
 1068              		.file 12 "Drivers/CMSIS/Device/ST/STM32F4xx/Include/stm32f4xx.h"
 1069              		.file 13 "Drivers/STM32F4xx_HAL_Driver/Inc/stm32f4xx_hal_def.h"
 1070              		.file 14 "Drivers/STM32F4xx_HAL_Driver/Inc/stm32f4xx_hal_gpio.h"
 1071              		.file 15 "Drivers/STM32F4xx_HAL_Driver/Inc/stm32f4xx_hal_dma.h"
 1072              		.file 16 "Drivers/STM32F4xx_HAL_Driver/Inc/stm32f4xx_hal_adc.h"
 1073              		.file 17 "Drivers/STM32F4xx_HAL_Driver/Inc/stm32f4xx_hal_uart.h"
 1074              		.file 18 "Drivers/STM32F4xx_HAL_Driver/Inc/stm32f4xx_hal.h"
 1075              		.file 19 "/opt/ST/STM32CubeCLT_1.16.0/GNU-tools-for-STM32/arm-none-eabi/include/c++/12.3.1/cstdio"
 1076              		.file 20 "/opt/ST/STM32CubeCLT_1.16.0/GNU-tools-for-STM32/arm-none-eabi/include/c++/12.3.1/arm-non
 1077              		.file 21 "Core/Inc/usart.h"
 1078              		.file 22 "Core/Inc/adc.h"
 1079              		.file 23 "Lib/MovingAve/MovingAve.hpp"
 1080              		.file 24 "Lib/Timer/Timer.hpp"
 1081              		.file 25 "src/unit/encoder/encoder.hpp"
 1082              		.file 26 "src/unit/line/line.hpp"
 1083              		.file 27 "src/unit/hardware/hardware.hpp"
ARM GAS  /var/folders/5c/srt4fy4j1pd641bjfx75k5000000gn/T//ccFn9NwA.s 			page 25


DEFINED SYMBOLS
                            *ABS*:00000000 hardware.cpp
/var/folders/5c/srt4fy4j1pd641bjfx75k5000000gn/T//ccFn9NwA.s:21     .text._ZN14BufferedSerial4readEv:00000000 $t
/var/folders/5c/srt4fy4j1pd641bjfx75k5000000gn/T//ccFn9NwA.s:27     .text._ZN14BufferedSerial4readEv:00000000 _ZN14BufferedSerial4readEv
.ARM.exidx.text._ZN14BufferedSerial4readEv:00000000 $d
/var/folders/5c/srt4fy4j1pd641bjfx75k5000000gn/T//ccFn9NwA.s:93     .text._ZN8HardwareC2Ev:00000000 $t
/var/folders/5c/srt4fy4j1pd641bjfx75k5000000gn/T//ccFn9NwA.s:99     .text._ZN8HardwareC2Ev:00000000 _ZN8HardwareC2Ev
/var/folders/5c/srt4fy4j1pd641bjfx75k5000000gn/T//ccFn9NwA.s:392    .text._ZN8HardwareC2Ev:00000150 $d
 .ARM.exidx.text._ZN8HardwareC2Ev:00000000 $d
/var/folders/5c/srt4fy4j1pd641bjfx75k5000000gn/T//ccFn9NwA.s:99     .text._ZN8HardwareC2Ev:00000000 _ZN8HardwareC1Ev
/var/folders/5c/srt4fy4j1pd641bjfx75k5000000gn/T//ccFn9NwA.s:402    .text._ZN8Hardware4InitEv:00000000 $t
/var/folders/5c/srt4fy4j1pd641bjfx75k5000000gn/T//ccFn9NwA.s:408    .text._ZN8Hardware4InitEv:00000000 _ZN8Hardware4InitEv
/var/folders/5c/srt4fy4j1pd641bjfx75k5000000gn/T//ccFn9NwA.s:532    .text._ZN8Hardware4InitEv:0000005c $d
/var/folders/5c/srt4fy4j1pd641bjfx75k5000000gn/T//ccFn9NwA.s:1056   .bss.adc_get_val:00000000 adc_get_val
.ARM.exidx.text._ZN8Hardware4InitEv:00000000 $d
/var/folders/5c/srt4fy4j1pd641bjfx75k5000000gn/T//ccFn9NwA.s:539    .text._ZN8Hardware10GetSensorsEv:00000000 $t
/var/folders/5c/srt4fy4j1pd641bjfx75k5000000gn/T//ccFn9NwA.s:545    .text._ZN8Hardware10GetSensorsEv:00000000 _ZN8Hardware10GetSensorsEv
/var/folders/5c/srt4fy4j1pd641bjfx75k5000000gn/T//ccFn9NwA.s:698    .text._ZN8Hardware10GetSensorsEv:0000008c $d
.ARM.exidx.text._ZN8Hardware10GetSensorsEv:00000000 $d
/var/folders/5c/srt4fy4j1pd641bjfx75k5000000gn/T//ccFn9NwA.s:708    .text._ZN8Hardware8MainUartEv:00000000 $t
/var/folders/5c/srt4fy4j1pd641bjfx75k5000000gn/T//ccFn9NwA.s:714    .text._ZN8Hardware8MainUartEv:00000000 _ZN8Hardware8MainUartEv
/var/folders/5c/srt4fy4j1pd641bjfx75k5000000gn/T//ccFn9NwA.s:1037   .text._ZN8Hardware8MainUartEv:00000118 $d
/var/folders/5c/srt4fy4j1pd641bjfx75k5000000gn/T//ccFn9NwA.s:1049   .bss._ZZN8Hardware8MainUartEvE10recv_count:00000000 _ZZN8Hardware8MainUartEvE10recv_count
.ARM.exidx.text._ZN8Hardware8MainUartEv:00000000 $d
/var/folders/5c/srt4fy4j1pd641bjfx75k5000000gn/T//ccFn9NwA.s:1046   .bss._ZZN8Hardware8MainUartEvE10recv_count:00000000 $d
/var/folders/5c/srt4fy4j1pd641bjfx75k5000000gn/T//ccFn9NwA.s:1053   .bss.adc_get_val:00000000 $d

UNDEFINED SYMBOLS
HAL_GPIO_WritePin
_Znaj
_ZN7EncoderC1EP10DigitalOutPh
_ZN4LineC1EP10DigitalOutS1_S1_S1_S1_S1_S1_PhS2_S2_S2_S2_S2_S2_S2_
huart6
__aeabi_unwind_cpp_pr0
HAL_ADC_Start
HAL_ADC_Start_DMA
HAL_UART_Receive_DMA
HAL_Delay
hadc1
_ZN4Line8IsOnLineEv
_ZN7Encoder11GetMotorRPSEh
__aeabi_i2d
__aeabi_dmul
__aeabi_dadd
__aeabi_d2uiz
HAL_UART_Transmit
