ARM GAS  /var/folders/5c/srt4fy4j1pd641bjfx75k5000000gn/T//ccDu6cZR.s 			page 1


   1              		.cpu cortex-m4
   2              		.arch armv7e-m
   3              		.fpu fpv4-sp-d16
   4              		.eabi_attribute 27, 1
   5              		.eabi_attribute 28, 1
   6              		.eabi_attribute 20, 1
   7              		.eabi_attribute 21, 1
   8              		.eabi_attribute 23, 3
   9              		.eabi_attribute 24, 1
  10              		.eabi_attribute 25, 1
  11              		.eabi_attribute 26, 1
  12              		.eabi_attribute 30, 1
  13              		.eabi_attribute 34, 1
  14              		.eabi_attribute 18, 4
  15              		.file	"MovingAve.cpp"
  16              		.text
  17              	.Ltext0:
  18              		.cfi_sections	.debug_frame
  19              		.file 1 "lib/MovingAve/MovingAve.cpp"
  20              		.section	.text._ZN9MovingAve9SetLengthEh,"ax",%progbits
  21              		.align	1
  22              		.global	_ZN9MovingAve9SetLengthEh
  23              		.syntax unified
  24              		.thumb
  25              		.thumb_func
  27              	_ZN9MovingAve9SetLengthEh:
  28              		.fnstart
  29              	.LVL0:
  30              	.LFB239:
   1:lib/MovingAve/MovingAve.cpp **** #include "MovingAve.hpp"
   2:lib/MovingAve/MovingAve.cpp **** 
   3:lib/MovingAve/MovingAve.cpp **** void MovingAve::SetLength(uint8_t length) {
  31              		.loc 1 3 43 view -0
  32              		.cfi_startproc
  33              		@ args = 0, pretend = 0, frame = 0
  34              		@ frame_needed = 0, uses_anonymous_args = 0
  35              		@ link register save eliminated.
   4:lib/MovingAve/MovingAve.cpp ****       this->length_ = length;
  36              		.loc 1 4 7 view .LVU1
  37              		.loc 1 4 21 is_stmt 0 view .LVU2
  38 0000 80F82913 		strb	r1, [r0, #809]
   5:lib/MovingAve/MovingAve.cpp **** }
  39              		.loc 1 5 1 view .LVU3
  40 0004 7047     		bx	lr
  41              		.cfi_endproc
  42              	.LFE239:
  43              		.cantunwind
  44              		.fnend
  46              		.global	__aeabi_f2d
  47              		.global	__aeabi_dadd
  48              		.global	__aeabi_ddiv
  49              		.section	.text._ZN9MovingAve7ComputeEf,"ax",%progbits
  50              		.align	1
  51              		.global	_ZN9MovingAve7ComputeEf
  52              		.syntax unified
  53              		.thumb
  54              		.thumb_func
ARM GAS  /var/folders/5c/srt4fy4j1pd641bjfx75k5000000gn/T//ccDu6cZR.s 			page 2


  56              	_ZN9MovingAve7ComputeEf:
  57              		.fnstart
  58              	.LVL1:
  59              	.LFB240:
   6:lib/MovingAve/MovingAve.cpp **** 
   7:lib/MovingAve/MovingAve.cpp **** void MovingAve::Compute(float input) {
  60              		.loc 1 7 38 is_stmt 1 view -0
  61              		.cfi_startproc
  62              		@ args = 0, pretend = 0, frame = 0
  63              		@ frame_needed = 0, uses_anonymous_args = 0
  64              		.loc 1 7 38 is_stmt 0 view .LVU5
  65 0000 2DE9F843 		push	{r3, r4, r5, r6, r7, r8, r9, lr}
  66              	.LCFI0:
  67              		.cfi_def_cfa_offset 32
  68              		.cfi_offset 3, -32
  69              		.cfi_offset 4, -28
  70              		.cfi_offset 5, -24
  71              		.cfi_offset 6, -20
  72              		.cfi_offset 7, -16
  73              		.cfi_offset 8, -12
  74              		.cfi_offset 9, -8
  75              		.cfi_offset 14, -4
  76 0004 0546     		mov	r5, r0
  77 0006 10EE100A 		vmov	r0, s0
  78              	.LVL2:
   8:lib/MovingAve/MovingAve.cpp ****       if (cnt_ >= length_) cnt_ = 0;
  79              		.loc 1 8 7 is_stmt 1 view .LVU6
  80              		.loc 1 8 11 is_stmt 0 view .LVU7
  81 000a 95F82833 		ldrb	r3, [r5, #808]	@ zero_extendqisi2
  82              		.loc 1 8 19 view .LVU8
  83 000e 95F82963 		ldrb	r6, [r5, #809]	@ zero_extendqisi2
  84              		.loc 1 8 7 view .LVU9
  85 0012 B342     		cmp	r3, r6
  86 0014 02D3     		bcc	.L3
  87              		.loc 1 8 28 is_stmt 1 discriminator 1 view .LVU10
  88              		.loc 1 8 33 is_stmt 0 discriminator 1 view .LVU11
  89 0016 0023     		movs	r3, #0
  90 0018 85F82833 		strb	r3, [r5, #808]
  91              	.L3:
   9:lib/MovingAve/MovingAve.cpp ****       data_[cnt_] = input;
  92              		.loc 1 9 7 is_stmt 1 view .LVU12
  93              		.loc 1 9 13 is_stmt 0 view .LVU13
  94 001c 95F82873 		ldrb	r7, [r5, #808]	@ zero_extendqisi2
  95              		.loc 1 9 21 view .LVU14
  96 0020 FFF7FEFF 		bl	__aeabi_f2d
  97              	.LVL3:
  98              		.loc 1 9 19 view .LVU15
  99 0024 05EBC703 		add	r3, r5, r7, lsl #3
 100 0028 C3E90001 		strd	r0, [r3]
  10:lib/MovingAve/MovingAve.cpp ****       result_ = 0;
 101              		.loc 1 10 7 is_stmt 1 view .LVU16
 102              		.loc 1 10 15 is_stmt 0 view .LVU17
 103 002c 0022     		movs	r2, #0
 104 002e 0023     		movs	r3, #0
 105 0030 C5E9C823 		strd	r2, [r5, #800]
  11:lib/MovingAve/MovingAve.cpp ****       for (uint8_t i = 0; i < length_; i++) {
 106              		.loc 1 11 7 is_stmt 1 view .LVU18
ARM GAS  /var/folders/5c/srt4fy4j1pd641bjfx75k5000000gn/T//ccDu6cZR.s 			page 3


 107              	.LVL4:
 108              	.LBB2:
 109              		.loc 1 11 20 is_stmt 0 view .LVU19
 110 0034 0024     		movs	r4, #0
 111              		.loc 1 11 7 view .LVU20
 112 0036 0BE0     		b	.L4
 113              	.LVL5:
 114              	.L5:
  12:lib/MovingAve/MovingAve.cpp ****             result_ += data_[i];
 115              		.loc 1 12 13 is_stmt 1 discriminator 3 view .LVU21
 116              		.loc 1 12 31 is_stmt 0 discriminator 3 view .LVU22
 117 0038 05EBC403 		add	r3, r5, r4, lsl #3
 118              		.loc 1 12 21 discriminator 3 view .LVU23
 119 003c D3E90023 		ldrd	r2, [r3]
 120 0040 D5E9C801 		ldrd	r0, [r5, #800]
 121 0044 FFF7FEFF 		bl	__aeabi_dadd
 122              	.LVL6:
 123 0048 C5E9C801 		strd	r0, [r5, #800]
  11:lib/MovingAve/MovingAve.cpp ****       for (uint8_t i = 0; i < length_; i++) {
 124              		.loc 1 11 7 is_stmt 1 discriminator 3 view .LVU24
 125 004c 0134     		adds	r4, r4, #1
 126              	.LVL7:
  11:lib/MovingAve/MovingAve.cpp ****       for (uint8_t i = 0; i < length_; i++) {
 127              		.loc 1 11 7 is_stmt 0 discriminator 3 view .LVU25
 128 004e E4B2     		uxtb	r4, r4
 129              	.LVL8:
 130              	.L4:
  11:lib/MovingAve/MovingAve.cpp ****       for (uint8_t i = 0; i < length_; i++) {
 131              		.loc 1 11 29 is_stmt 1 discriminator 1 view .LVU26
 132 0050 A642     		cmp	r6, r4
 133 0052 F1D8     		bhi	.L5
 134              	.LBE2:
  13:lib/MovingAve/MovingAve.cpp ****       }
  14:lib/MovingAve/MovingAve.cpp ****       result_ /= (float)length_;
 135              		.loc 1 14 7 view .LVU27
 136 0054 D5E9C889 		ldrd	r8, [r5, #800]
 137              		.loc 1 14 18 is_stmt 0 view .LVU28
 138 0058 07EE906A 		vmov	s15, r6	@ int
 139 005c F8EE677A 		vcvt.f32.u32	s15, s15
 140 0060 17EE900A 		vmov	r0, s15
 141 0064 FFF7FEFF 		bl	__aeabi_f2d
 142              	.LVL9:
 143 0068 0246     		mov	r2, r0
 144 006a 0B46     		mov	r3, r1
 145              		.loc 1 14 15 view .LVU29
 146 006c 4046     		mov	r0, r8
 147 006e 4946     		mov	r1, r9
 148 0070 FFF7FEFF 		bl	__aeabi_ddiv
 149              	.LVL10:
 150 0074 C5E9C801 		strd	r0, [r5, #800]
  15:lib/MovingAve/MovingAve.cpp ****       cnt_++;
 151              		.loc 1 15 7 is_stmt 1 view .LVU30
 152              		.loc 1 15 11 is_stmt 0 view .LVU31
 153 0078 0137     		adds	r7, r7, #1
 154 007a 85F82873 		strb	r7, [r5, #808]
  16:lib/MovingAve/MovingAve.cpp **** }
 155              		.loc 1 16 1 view .LVU32
ARM GAS  /var/folders/5c/srt4fy4j1pd641bjfx75k5000000gn/T//ccDu6cZR.s 			page 4


 156 007e BDE8F883 		pop	{r3, r4, r5, r6, r7, r8, r9, pc}
 157              		.loc 1 16 1 view .LVU33
 158              		.cfi_endproc
 159              	.LFE240:
 160              		.cantunwind
 161              		.fnend
 163              		.section	.text._ZN9MovingAve3GetEv,"ax",%progbits
 164              		.align	1
 165              		.global	_ZN9MovingAve3GetEv
 166              		.syntax unified
 167              		.thumb
 168              		.thumb_func
 170              	_ZN9MovingAve3GetEv:
 171              		.fnstart
 172              	.LVL11:
 173              	.LFB241:
  17:lib/MovingAve/MovingAve.cpp **** 
  18:lib/MovingAve/MovingAve.cpp **** double MovingAve::Get() {
 174              		.loc 1 18 25 is_stmt 1 view -0
 175              		.cfi_startproc
 176              		@ args = 0, pretend = 0, frame = 0
 177              		@ frame_needed = 0, uses_anonymous_args = 0
 178              		@ link register save eliminated.
  19:lib/MovingAve/MovingAve.cpp ****       return result_;
 179              		.loc 1 19 7 view .LVU35
  20:lib/MovingAve/MovingAve.cpp **** }
 180              		.loc 1 20 1 is_stmt 0 view .LVU36
 181 0000 90EDC80B 		vldr.64	d0, [r0, #800]
 182 0004 7047     		bx	lr
 183              		.cfi_endproc
 184              	.LFE241:
 185              		.cantunwind
 186              		.fnend
 188              		.section	.text._ZN9MovingAve5ResetEv,"ax",%progbits
 189              		.align	1
 190              		.global	_ZN9MovingAve5ResetEv
 191              		.syntax unified
 192              		.thumb
 193              		.thumb_func
 195              	_ZN9MovingAve5ResetEv:
 196              		.fnstart
 197              	.LVL12:
 198              	.LFB242:
  21:lib/MovingAve/MovingAve.cpp **** 
  22:lib/MovingAve/MovingAve.cpp **** void MovingAve::Reset() {
 199              		.loc 1 22 25 is_stmt 1 view -0
 200              		.cfi_startproc
 201              		@ args = 0, pretend = 0, frame = 0
 202              		@ frame_needed = 0, uses_anonymous_args = 0
 203              		@ link register save eliminated.
  23:lib/MovingAve/MovingAve.cpp ****       for (uint8_t i = 0; i < length_; i++) {
 204              		.loc 1 23 7 view .LVU38
 205              	.LBB3:
 206              		.loc 1 23 20 is_stmt 0 view .LVU39
 207 0000 0023     		movs	r3, #0
 208              		.loc 1 23 7 view .LVU40
 209 0002 07E0     		b	.L9
ARM GAS  /var/folders/5c/srt4fy4j1pd641bjfx75k5000000gn/T//ccDu6cZR.s 			page 5


 210              	.LVL13:
 211              	.L10:
  24:lib/MovingAve/MovingAve.cpp ****             data_[i] = 0;
 212              		.loc 1 24 13 is_stmt 1 discriminator 3 view .LVU41
 213              		.loc 1 24 22 is_stmt 0 discriminator 3 view .LVU42
 214 0004 00EBC302 		add	r2, r0, r3, lsl #3
 215 0008 9FED057B 		vldr.64	d7, .L11
 216 000c 82ED007B 		vstr.64	d7, [r2]
  23:lib/MovingAve/MovingAve.cpp ****       for (uint8_t i = 0; i < length_; i++) {
 217              		.loc 1 23 7 is_stmt 1 discriminator 3 view .LVU43
 218 0010 0133     		adds	r3, r3, #1
 219              	.LVL14:
  23:lib/MovingAve/MovingAve.cpp ****       for (uint8_t i = 0; i < length_; i++) {
 220              		.loc 1 23 7 is_stmt 0 discriminator 3 view .LVU44
 221 0012 DBB2     		uxtb	r3, r3
 222              	.LVL15:
 223              	.L9:
  23:lib/MovingAve/MovingAve.cpp ****       for (uint8_t i = 0; i < length_; i++) {
 224              		.loc 1 23 29 is_stmt 1 discriminator 1 view .LVU45
  23:lib/MovingAve/MovingAve.cpp ****       for (uint8_t i = 0; i < length_; i++) {
 225              		.loc 1 23 31 is_stmt 0 discriminator 1 view .LVU46
 226 0014 90F82923 		ldrb	r2, [r0, #809]	@ zero_extendqisi2
  23:lib/MovingAve/MovingAve.cpp ****       for (uint8_t i = 0; i < length_; i++) {
 227              		.loc 1 23 29 discriminator 1 view .LVU47
 228 0018 9A42     		cmp	r2, r3
 229 001a F3D8     		bhi	.L10
 230              	.LBE3:
  25:lib/MovingAve/MovingAve.cpp ****       }
  26:lib/MovingAve/MovingAve.cpp **** }...
 231              		.loc 1 26 1 view .LVU48
 232 001c 7047     		bx	lr
 233              	.L12:
 234 001e 00BF     		.align	3
 235              	.L11:
 236 0020 00000000 		.word	0
 237 0024 00000000 		.word	0
 238              		.cfi_endproc
 239              	.LFE242:
 240              		.cantunwind
 241              		.fnend
 243              		.text
 244              	.Letext0:
 245              		.file 2 "/opt/ST/STM32CubeCLT_1.16.0/GNU-tools-for-STM32/arm-none-eabi/include/machine/_default_ty
 246              		.file 3 "/opt/ST/STM32CubeCLT_1.16.0/GNU-tools-for-STM32/arm-none-eabi/include/sys/_stdint.h"
 247              		.file 4 "lib/MovingAve/MovingAve.hpp"
ARM GAS  /var/folders/5c/srt4fy4j1pd641bjfx75k5000000gn/T//ccDu6cZR.s 			page 6

